; ModuleID = '<stdin>'
source_filename = "/faster/fs/llvm34/lib/Support/DynamicLibrary.cpp"
target datalayout = "e-m:e-p270:32:32-p271:32:32-p272:64:64-i64:64-f80:128-n8:16:32:64-S128"
target triple = "x86_64-unknown-linux-gnu"

%"class.llvm::ManagedStatic" = type { %"class.llvm::ManagedStaticBase" }
%"class.llvm::ManagedStaticBase" = type { i8*, void (i8*)*, %"class.llvm::ManagedStaticBase"* }
%struct._IO_FILE = type { i32, i8*, i8*, i8*, i8*, i8*, i8*, i8*, i8*, i8*, i8*, i8*, %struct._IO_marker*, %struct._IO_FILE*, i32, i32, i64, i16, i8, [1 x i8], i8*, i64, i8*, i8*, i8*, i8*, i64, i32, [20 x i8] }
%struct._IO_marker = type { %struct._IO_marker*, %struct._IO_FILE*, i32 }
%"struct.std::pair" = type <{ i8*, i8, [7 x i8] }>

@_ZL12SymbolsMutex = internal global %"class.llvm::ManagedStatic" zeroinitializer, align 8, !dbg !0
@stderr = external global %struct._IO_FILE*, align 8
@stdout = external global %struct._IO_FILE*, align 8
@stdin = external global %struct._IO_FILE*, align 8

; Function Attrs: nounwind uwtable
define void @_ZN4llvm12DenseMapBaseINS_8DenseMapIPvcNS_12DenseMapInfoIS2_EEEES2_cS4_E18moveFromOldBucketsEPSt4pairIS2_cES9_(%"struct.std::pair"* %OldBucketsBegin) local_unnamed_addr #0 align 2 !dbg !2645 {
entry:
  call void @llvm.dbg.value(metadata %"struct.std::pair"* %OldBucketsBegin, metadata !2649, metadata !DIExpression()), !dbg !2662
  br i1 undef, label %_ZN4llvm12DenseMapBaseINS_8DenseMapIPvcNS_12DenseMapInfoIS2_EEEES2_cS4_E9initEmptyEv.exit, label %for.body.i.preheader

for.body.i.preheader:                             ; preds = %entry
  br i1 undef, label %for.body.i.prol.loopexit, label %for.body.i.prol

for.body.i.prol:                                  ; preds = %for.body.i.prol, %for.body.i.preheader
  br i1 undef, label %for.body.i.prol.loopexit, label %for.body.i.prol, !llvm.loop !2663

for.body.i.prol.loopexit:                         ; preds = %for.body.i.prol, %for.body.i.preheader
  br label %_ZN4llvm12DenseMapBaseINS_8DenseMapIPvcNS_12DenseMapInfoIS2_EEEES2_cS4_E9initEmptyEv.exit

_ZN4llvm12DenseMapBaseINS_8DenseMapIPvcNS_12DenseMapInfoIS2_EEEES2_cS4_E9initEmptyEv.exit: ; preds = %for.body.i.prol.loopexit, %entry
  br label %for.body

for.body:                                         ; preds = %if.end, %_ZN4llvm12DenseMapBaseINS_8DenseMapIPvcNS_12DenseMapInfoIS2_EEEES2_cS4_E9initEmptyEv.exit
  %B.038 = phi %"struct.std::pair"* [ %incdec.ptr, %if.end ], [ %OldBucketsBegin, %_ZN4llvm12DenseMapBaseINS_8DenseMapIPvcNS_12DenseMapInfoIS2_EEEES2_cS4_E9initEmptyEv.exit ]
  %0 = bitcast %"struct.std::pair"* %B.038 to i64*
  %1 = load i64, i64* %0, align 8
  switch i64 %1, label %if.then [
    i64 -4, label %if.end
    i64 -8, label %if.end
  ], !dbg !2665

if.then:                                          ; preds = %for.body
  ret void

if.end:                                           ; preds = %for.body, %for.body
  %incdec.ptr = getelementptr inbounds %"struct.std::pair", %"struct.std::pair"* %B.038, i64 1
  br label %for.body
}

; Function Attrs: nounwind readnone speculatable willreturn
declare void @llvm.dbg.value(metadata, metadata, metadata) #1

attributes #0 = { nounwind uwtable "correctly-rounded-divide-sqrt-fp-math"="false" "denormal-fp-math"="ieee,ieee" "denormal-fp-math-f32"="ieee,ieee" "disable-tail-calls"="false" "frame-pointer"="none" "less-precise-fpmad"="false" "min-legal-vector-width"="0" "no-infs-fp-math"="false" "no-jump-tables"="false" "no-nans-fp-math"="false" "no-signed-zeros-fp-math"="false" "no-trapping-math"="false" "stack-protector-buffer-size"="8" "target-cpu"="x86-64" "target-features"="+cx8,+fxsr,+mmx,+sse,+sse2,+x87" "unsafe-fp-math"="false" "use-soft-float"="false" }
attributes #1 = { nounwind readnone speculatable willreturn }

!llvm.dbg.cu = !{!2}
!llvm.module.flags = !{!2641, !2642, !2643, !2644}

!0 = !DIGlobalVariableExpression(var: !1, expr: !DIExpression())
!1 = distinct !DIGlobalVariable(name: "SymbolsMutex", linkageName: "_ZL12SymbolsMutex", scope: !2, file: !348, line: 28, type: !2619, isLocal: true, isDefinition: true)
!2 = distinct !DICompileUnit(language: DW_LANG_C_plus_plus_14, file: !3, producer: "clang version 11.0.0 (git@github.com:llvm/llvm-project 804e68485f4ea133b88c01fd24dcfbbb39797021)", isOptimized: true, runtimeVersion: 0, emissionKind: FullDebug, enums: !4, retainedTypes: !300, globals: !1250, imports: !1300, splitDebugInlining: false, nameTableKind: None)
!3 = !DIFile(filename: "/faster/fs/llvm34/lib/Support/DynamicLibrary.cpp", directory: "/fast/fs/build34reldebinfo")
!4 = !{!5, !288}
!5 = distinct !DICompositeType(tag: DW_TAG_enumeration_type, scope: !7, file: !6, line: 39, baseType: !19, size: 32, elements: !286, identifier: "_ZTSN4llvm7AlignOfINS_14StringMapEntryIPvEEEUt_E")
!6 = !DIFile(filename: "/faster/fs/llvm34/include/llvm/Support/AlignOf.h", directory: "")
!7 = distinct !DICompositeType(tag: DW_TAG_structure_type, name: "AlignOf<llvm::StringMapEntry<void *> >", scope: !8, file: !6, line: 38, size: 8, flags: DIFlagTypePassByValue, elements: !9, templateParams: !10, identifier: "_ZTSN4llvm7AlignOfINS_14StringMapEntryIPvEEEE")
!8 = !DINamespace(name: "llvm", scope: null)
!9 = !{}
!10 = !{!11}
!11 = !DITemplateTypeParameter(name: "T", type: !12)
!12 = distinct !DICompositeType(tag: DW_TAG_class_type, name: "StringMapEntry<void *>", scope: !8, file: !13, line: 118, size: 128, flags: DIFlagTypePassByReference | DIFlagNonTrivial, elements: !14, templateParams: !284, identifier: "_ZTSN4llvm14StringMapEntryIPvEE")
!13 = !DIFile(filename: "/faster/fs/llvm34/include/llvm/ADT/StringMap.h", directory: "")
!14 = !{!15, !29, !31, !36, !39, !44, !253, !256, !260, !263, !266, !267, !271, !274, !278, !281}
!15 = !DIDerivedType(tag: DW_TAG_inheritance, scope: !12, baseType: !16, flags: DIFlagPublic, extraData: i32 0)
!16 = distinct !DICompositeType(tag: DW_TAG_class_type, name: "StringMapEntryBase", scope: !8, file: !13, line: 43, size: 32, flags: DIFlagTypePassByValue | DIFlagNonTrivial, elements: !17, identifier: "_ZTSN4llvm18StringMapEntryBaseE")
!17 = !{!18, !20, !24}
!18 = !DIDerivedType(tag: DW_TAG_member, name: "StrLen", scope: !16, file: !13, line: 44, baseType: !19, size: 32)
!19 = !DIBasicType(name: "unsigned int", size: 32, encoding: DW_ATE_unsigned)
!20 = !DISubprogram(name: "StringMapEntryBase", scope: !16, file: !13, line: 46, type: !21, scopeLine: 46, flags: DIFlagPublic | DIFlagExplicit | DIFlagPrototyped, spFlags: DISPFlagOptimized)
!21 = !DISubroutineType(types: !22)
!22 = !{null, !23, !19}
!23 = !DIDerivedType(tag: DW_TAG_pointer_type, baseType: !16, size: 64, flags: DIFlagArtificial | DIFlagObjectPointer)
!24 = !DISubprogram(name: "getKeyLength", linkageName: "_ZNK4llvm18StringMapEntryBase12getKeyLengthEv", scope: !16, file: !13, line: 48, type: !25, scopeLine: 48, flags: DIFlagPublic | DIFlagPrototyped, spFlags: DISPFlagOptimized)
!25 = !DISubroutineType(types: !26)
!26 = !{!19, !27}
!27 = !DIDerivedType(tag: DW_TAG_pointer_type, baseType: !28, size: 64, flags: DIFlagArtificial | DIFlagObjectPointer)
!28 = !DIDerivedType(tag: DW_TAG_const_type, baseType: !16)
!29 = !DIDerivedType(tag: DW_TAG_member, name: "second", scope: !12, file: !13, line: 121, baseType: !30, size: 64, offset: 64, flags: DIFlagPublic)
!30 = !DIDerivedType(tag: DW_TAG_pointer_type, baseType: null, size: 64)
!31 = !DISubprogram(name: "StringMapEntry", scope: !12, file: !13, line: 119, type: !32, scopeLine: 119, flags: DIFlagPrototyped, spFlags: DISPFlagOptimized | DISPFlagDeleted)
!32 = !DISubroutineType(types: !33)
!33 = !{null, !34, !35}
!34 = !DIDerivedType(tag: DW_TAG_pointer_type, baseType: !12, size: 64, flags: DIFlagArtificial | DIFlagObjectPointer)
!35 = !DIDerivedType(tag: DW_TAG_reference_type, baseType: !12, size: 64)
!36 = !DISubprogram(name: "StringMapEntry", scope: !12, file: !13, line: 123, type: !37, scopeLine: 123, flags: DIFlagPublic | DIFlagExplicit | DIFlagPrototyped, spFlags: DISPFlagOptimized)
!37 = !DISubroutineType(types: !38)
!38 = !{null, !34, !19}
!39 = !DISubprogram(name: "StringMapEntry", scope: !12, file: !13, line: 125, type: !40, scopeLine: 125, flags: DIFlagPublic | DIFlagPrototyped, spFlags: DISPFlagOptimized)
!40 = !DISubroutineType(types: !41)
!41 = !{null, !34, !19, !42}
!42 = !DIDerivedType(tag: DW_TAG_reference_type, baseType: !43, size: 64)
!43 = !DIDerivedType(tag: DW_TAG_const_type, baseType: !30)
!44 = !DISubprogram(name: "getKey", linkageName: "_ZNK4llvm14StringMapEntryIPvE6getKeyEv", scope: !12, file: !13, line: 128, type: !45, scopeLine: 128, flags: DIFlagPublic | DIFlagPrototyped, spFlags: DISPFlagOptimized)
!45 = !DISubroutineType(types: !46)
!46 = !{!47, !251}
!47 = distinct !DICompositeType(tag: DW_TAG_class_type, name: "StringRef", scope: !8, file: !48, line: 41, size: 128, flags: DIFlagTypePassByValue | DIFlagNonTrivial, elements: !49, identifier: "_ZTSN4llvm9StringRefE")
!48 = !DIFile(filename: "/faster/fs/llvm34/include/llvm/ADT/StringRef.h", directory: "")
!49 = !{!50, !55, !59, !60, !63, !64, !68, !72, !75, !78, !89, !95, !96, !99, !103, !106, !109, !110, !113, !114, !117, !118, !119, !122, !125, !128, !129, !130, !131, !132, !133, !136, !139, !140, !143, !144, !145, !146, !147, !148, !149, !150, !151, !154, !155, !160, !161, !162, !165, !168, !169, !170, !237, !240, !245, !246, !249, !250}
!50 = !DIDerivedType(tag: DW_TAG_member, name: "npos", scope: !47, file: !48, line: 45, baseType: !51, flags: DIFlagPublic | DIFlagStaticMember, extraData: i64 -1)
!51 = !DIDerivedType(tag: DW_TAG_const_type, baseType: !52)
!52 = !DIDerivedType(tag: DW_TAG_typedef, name: "size_t", file: !53, line: 46, baseType: !54)
!53 = !DIFile(filename: "llvm-project/build/lib/clang/11.0.0/include/stddef.h", directory: "/fast/fs")
!54 = !DIBasicType(name: "long unsigned int", size: 64, encoding: DW_ATE_unsigned)
!55 = !DIDerivedType(tag: DW_TAG_member, name: "Data", scope: !47, file: !48, line: 50, baseType: !56, size: 64)
!56 = !DIDerivedType(tag: DW_TAG_pointer_type, baseType: !57, size: 64)
!57 = !DIDerivedType(tag: DW_TAG_const_type, baseType: !58)
!58 = !DIBasicType(name: "char", size: 8, encoding: DW_ATE_signed_char)
!59 = !DIDerivedType(tag: DW_TAG_member, name: "Length", scope: !47, file: !48, line: 53, baseType: !52, size: 64, offset: 64)
!60 = !DISubprogram(name: "min", linkageName: "_ZN4llvm9StringRef3minEmm", scope: !47, file: !48, line: 58, type: !61, scopeLine: 58, flags: DIFlagPrototyped | DIFlagStaticMember, spFlags: DISPFlagOptimized)
!61 = !DISubroutineType(types: !62)
!62 = !{!52, !52, !52}
!63 = !DISubprogram(name: "max", linkageName: "_ZN4llvm9StringRef3maxEmm", scope: !47, file: !48, line: 59, type: !61, scopeLine: 59, flags: DIFlagPrototyped | DIFlagStaticMember, spFlags: DISPFlagOptimized)
!64 = !DISubprogram(name: "compareMemory", linkageName: "_ZN4llvm9StringRef13compareMemoryEPKcS2_m", scope: !47, file: !48, line: 63, type: !65, scopeLine: 63, flags: DIFlagPrototyped | DIFlagStaticMember, spFlags: DISPFlagOptimized)
!65 = !DISubroutineType(types: !66)
!66 = !{!67, !56, !56, !52}
!67 = !DIBasicType(name: "int", size: 32, encoding: DW_ATE_signed)
!68 = !DISubprogram(name: "StringRef", scope: !47, file: !48, line: 73, type: !69, scopeLine: 73, flags: DIFlagPublic | DIFlagPrototyped, spFlags: DISPFlagOptimized)
!69 = !DISubroutineType(types: !70)
!70 = !{null, !71}
!71 = !DIDerivedType(tag: DW_TAG_pointer_type, baseType: !47, size: 64, flags: DIFlagArtificial | DIFlagObjectPointer)
!72 = !DISubprogram(name: "StringRef", scope: !47, file: !48, line: 76, type: !73, scopeLine: 76, flags: DIFlagPublic | DIFlagPrototyped, spFlags: DISPFlagOptimized)
!73 = !DISubroutineType(types: !74)
!74 = !{null, !71, !56}
!75 = !DISubprogram(name: "StringRef", scope: !47, file: !48, line: 83, type: !76, scopeLine: 83, flags: DIFlagPublic | DIFlagPrototyped, spFlags: DISPFlagOptimized)
!76 = !DISubroutineType(types: !77)
!77 = !{null, !71, !56, !52}
!78 = !DISubprogram(name: "StringRef", scope: !47, file: !48, line: 90, type: !79, scopeLine: 90, flags: DIFlagPublic | DIFlagPrototyped, spFlags: DISPFlagOptimized)
!79 = !DISubroutineType(types: !80)
!80 = !{null, !71, !81}
!81 = !DIDerivedType(tag: DW_TAG_reference_type, baseType: !82, size: 64)
!82 = !DIDerivedType(tag: DW_TAG_const_type, baseType: !83)
!83 = !DIDerivedType(tag: DW_TAG_typedef, name: "string", scope: !85, file: !84, line: 74, baseType: !87)
!84 = !DIFile(filename: "/usr/lib/gcc/x86_64-linux-gnu/7.5.0/../../../../include/c++/7.5.0/bits/stringfwd.h", directory: "")
!85 = !DINamespace(name: "__cxx11", scope: !86, exportSymbols: true)
!86 = !DINamespace(name: "std", scope: null)
!87 = distinct !DICompositeType(tag: DW_TAG_class_type, name: "basic_string<char, std::char_traits<char>, std::allocator<char> >", scope: !85, file: !88, line: 1607, flags: DIFlagFwdDecl, identifier: "_ZTSNSt7__cxx1112basic_stringIcSt11char_traitsIcESaIcEEE")
!88 = !DIFile(filename: "/usr/lib/gcc/x86_64-linux-gnu/7.5.0/../../../../include/c++/7.5.0/bits/basic_string.tcc", directory: "")
!89 = !DISubprogram(name: "begin", linkageName: "_ZNK4llvm9StringRef5beginEv", scope: !47, file: !48, line: 97, type: !90, scopeLine: 97, flags: DIFlagPublic | DIFlagPrototyped, spFlags: DISPFlagOptimized)
!90 = !DISubroutineType(types: !91)
!91 = !{!92, !93}
!92 = !DIDerivedType(tag: DW_TAG_typedef, name: "iterator", scope: !47, file: !48, line: 43, baseType: !56)
!93 = !DIDerivedType(tag: DW_TAG_pointer_type, baseType: !94, size: 64, flags: DIFlagArtificial | DIFlagObjectPointer)
!94 = !DIDerivedType(tag: DW_TAG_const_type, baseType: !47)
!95 = !DISubprogram(name: "end", linkageName: "_ZNK4llvm9StringRef3endEv", scope: !47, file: !48, line: 99, type: !90, scopeLine: 99, flags: DIFlagPublic | DIFlagPrototyped, spFlags: DISPFlagOptimized)
!96 = !DISubprogram(name: "data", linkageName: "_ZNK4llvm9StringRef4dataEv", scope: !47, file: !48, line: 107, type: !97, scopeLine: 107, flags: DIFlagPublic | DIFlagPrototyped, spFlags: DISPFlagOptimized)
!97 = !DISubroutineType(types: !98)
!98 = !{!56, !93}
!99 = !DISubprogram(name: "empty", linkageName: "_ZNK4llvm9StringRef5emptyEv", scope: !47, file: !48, line: 110, type: !100, scopeLine: 110, flags: DIFlagPublic | DIFlagPrototyped, spFlags: DISPFlagOptimized)
!100 = !DISubroutineType(types: !101)
!101 = !{!102, !93}
!102 = !DIBasicType(name: "bool", size: 8, encoding: DW_ATE_boolean)
!103 = !DISubprogram(name: "size", linkageName: "_ZNK4llvm9StringRef4sizeEv", scope: !47, file: !48, line: 113, type: !104, scopeLine: 113, flags: DIFlagPublic | DIFlagPrototyped, spFlags: DISPFlagOptimized)
!104 = !DISubroutineType(types: !105)
!105 = !{!52, !93}
!106 = !DISubprogram(name: "front", linkageName: "_ZNK4llvm9StringRef5frontEv", scope: !47, file: !48, line: 116, type: !107, scopeLine: 116, flags: DIFlagPublic | DIFlagPrototyped, spFlags: DISPFlagOptimized)
!107 = !DISubroutineType(types: !108)
!108 = !{!58, !93}
!109 = !DISubprogram(name: "back", linkageName: "_ZNK4llvm9StringRef4backEv", scope: !47, file: !48, line: 122, type: !107, scopeLine: 122, flags: DIFlagPublic | DIFlagPrototyped, spFlags: DISPFlagOptimized)
!110 = !DISubprogram(name: "equals", linkageName: "_ZNK4llvm9StringRef6equalsES0_", scope: !47, file: !48, line: 129, type: !111, scopeLine: 129, flags: DIFlagPublic | DIFlagPrototyped, spFlags: DISPFlagOptimized)
!111 = !DISubroutineType(types: !112)
!112 = !{!102, !93, !47}
!113 = !DISubprogram(name: "equals_lower", linkageName: "_ZNK4llvm9StringRef12equals_lowerES0_", scope: !47, file: !48, line: 135, type: !111, scopeLine: 135, flags: DIFlagPublic | DIFlagPrototyped, spFlags: DISPFlagOptimized)
!114 = !DISubprogram(name: "compare", linkageName: "_ZNK4llvm9StringRef7compareES0_", scope: !47, file: !48, line: 141, type: !115, scopeLine: 141, flags: DIFlagPublic | DIFlagPrototyped, spFlags: DISPFlagOptimized)
!115 = !DISubroutineType(types: !116)
!116 = !{!67, !93, !47}
!117 = !DISubprogram(name: "compare_lower", linkageName: "_ZNK4llvm9StringRef13compare_lowerES0_", scope: !47, file: !48, line: 153, type: !115, scopeLine: 153, flags: DIFlagPublic | DIFlagPrototyped, spFlags: DISPFlagOptimized)
!118 = !DISubprogram(name: "compare_numeric", linkageName: "_ZNK4llvm9StringRef15compare_numericES0_", scope: !47, file: !48, line: 157, type: !115, scopeLine: 157, flags: DIFlagPublic | DIFlagPrototyped, spFlags: DISPFlagOptimized)
!119 = !DISubprogram(name: "edit_distance", linkageName: "_ZNK4llvm9StringRef13edit_distanceES0_bj", scope: !47, file: !48, line: 177, type: !120, scopeLine: 177, flags: DIFlagPublic | DIFlagPrototyped, spFlags: DISPFlagOptimized)
!120 = !DISubroutineType(types: !121)
!121 = !{!19, !93, !47, !102, !19}
!122 = !DISubprogram(name: "str", linkageName: "_ZNK4llvm9StringRef3strB5cxx11Ev", scope: !47, file: !48, line: 181, type: !123, scopeLine: 181, flags: DIFlagPublic | DIFlagPrototyped, spFlags: DISPFlagOptimized)
!123 = !DISubroutineType(types: !124)
!124 = !{!83, !93}
!125 = !DISubprogram(name: "operator[]", linkageName: "_ZNK4llvm9StringRefixEm", scope: !47, file: !48, line: 190, type: !126, scopeLine: 190, flags: DIFlagPublic | DIFlagPrototyped, spFlags: DISPFlagOptimized)
!126 = !DISubroutineType(types: !127)
!127 = !{!58, !93, !52}
!128 = !DISubprogram(name: "operator basic_string", linkageName: "_ZNK4llvm9StringRefcvNSt7__cxx1112basic_stringIcSt11char_traitsIcESaIcEEEEv", scope: !47, file: !48, line: 199, type: !123, scopeLine: 199, flags: DIFlagPublic | DIFlagPrototyped, spFlags: DISPFlagOptimized)
!129 = !DISubprogram(name: "startswith", linkageName: "_ZNK4llvm9StringRef10startswithES0_", scope: !47, file: !48, line: 208, type: !111, scopeLine: 208, flags: DIFlagPublic | DIFlagPrototyped, spFlags: DISPFlagOptimized)
!130 = !DISubprogram(name: "startswith_lower", linkageName: "_ZNK4llvm9StringRef16startswith_lowerES0_", scope: !47, file: !48, line: 214, type: !111, scopeLine: 214, flags: DIFlagPublic | DIFlagPrototyped, spFlags: DISPFlagOptimized)
!131 = !DISubprogram(name: "endswith", linkageName: "_ZNK4llvm9StringRef8endswithES0_", scope: !47, file: !48, line: 217, type: !111, scopeLine: 217, flags: DIFlagPublic | DIFlagPrototyped, spFlags: DISPFlagOptimized)
!132 = !DISubprogram(name: "endswith_lower", linkageName: "_ZNK4llvm9StringRef14endswith_lowerES0_", scope: !47, file: !48, line: 223, type: !111, scopeLine: 223, flags: DIFlagPublic | DIFlagPrototyped, spFlags: DISPFlagOptimized)
!133 = !DISubprogram(name: "find", linkageName: "_ZNK4llvm9StringRef4findEcm", scope: !47, file: !48, line: 233, type: !134, scopeLine: 233, flags: DIFlagPublic | DIFlagPrototyped, spFlags: DISPFlagOptimized)
!134 = !DISubroutineType(types: !135)
!135 = !{!52, !93, !58, !52}
!136 = !DISubprogram(name: "find", linkageName: "_ZNK4llvm9StringRef4findES0_m", scope: !47, file: !48, line: 244, type: !137, scopeLine: 244, flags: DIFlagPublic | DIFlagPrototyped, spFlags: DISPFlagOptimized)
!137 = !DISubroutineType(types: !138)
!138 = !{!52, !93, !47, !52}
!139 = !DISubprogram(name: "rfind", linkageName: "_ZNK4llvm9StringRef5rfindEcm", scope: !47, file: !48, line: 250, type: !134, scopeLine: 250, flags: DIFlagPublic | DIFlagPrototyped, spFlags: DISPFlagOptimized)
!140 = !DISubprogram(name: "rfind", linkageName: "_ZNK4llvm9StringRef5rfindES0_", scope: !47, file: !48, line: 265, type: !141, scopeLine: 265, flags: DIFlagPublic | DIFlagPrototyped, spFlags: DISPFlagOptimized)
!141 = !DISubroutineType(types: !142)
!142 = !{!52, !93, !47}
!143 = !DISubprogram(name: "find_first_of", linkageName: "_ZNK4llvm9StringRef13find_first_ofEcm", scope: !47, file: !48, line: 269, type: !134, scopeLine: 269, flags: DIFlagPublic | DIFlagPrototyped, spFlags: DISPFlagOptimized)
!144 = !DISubprogram(name: "find_first_of", linkageName: "_ZNK4llvm9StringRef13find_first_ofES0_m", scope: !47, file: !48, line: 277, type: !137, scopeLine: 277, flags: DIFlagPublic | DIFlagPrototyped, spFlags: DISPFlagOptimized)
!145 = !DISubprogram(name: "find_first_not_of", linkageName: "_ZNK4llvm9StringRef17find_first_not_ofEcm", scope: !47, file: !48, line: 281, type: !134, scopeLine: 281, flags: DIFlagPublic | DIFlagPrototyped, spFlags: DISPFlagOptimized)
!146 = !DISubprogram(name: "find_first_not_of", linkageName: "_ZNK4llvm9StringRef17find_first_not_ofES0_m", scope: !47, file: !48, line: 287, type: !137, scopeLine: 287, flags: DIFlagPublic | DIFlagPrototyped, spFlags: DISPFlagOptimized)
!147 = !DISubprogram(name: "find_last_of", linkageName: "_ZNK4llvm9StringRef12find_last_ofEcm", scope: !47, file: !48, line: 291, type: !134, scopeLine: 291, flags: DIFlagPublic | DIFlagPrototyped, spFlags: DISPFlagOptimized)
!148 = !DISubprogram(name: "find_last_of", linkageName: "_ZNK4llvm9StringRef12find_last_ofES0_m", scope: !47, file: !48, line: 299, type: !137, scopeLine: 299, flags: DIFlagPublic | DIFlagPrototyped, spFlags: DISPFlagOptimized)
!149 = !DISubprogram(name: "find_last_not_of", linkageName: "_ZNK4llvm9StringRef16find_last_not_ofEcm", scope: !47, file: !48, line: 303, type: !134, scopeLine: 303, flags: DIFlagPublic | DIFlagPrototyped, spFlags: DISPFlagOptimized)
!150 = !DISubprogram(name: "find_last_not_of", linkageName: "_ZNK4llvm9StringRef16find_last_not_ofES0_m", scope: !47, file: !48, line: 309, type: !137, scopeLine: 309, flags: DIFlagPublic | DIFlagPrototyped, spFlags: DISPFlagOptimized)
!151 = !DISubprogram(name: "count", linkageName: "_ZNK4llvm9StringRef5countEc", scope: !47, file: !48, line: 316, type: !152, scopeLine: 316, flags: DIFlagPublic | DIFlagPrototyped, spFlags: DISPFlagOptimized)
!152 = !DISubroutineType(types: !153)
!153 = !{!52, !93, !58}
!154 = !DISubprogram(name: "count", linkageName: "_ZNK4llvm9StringRef5countES0_", scope: !47, file: !48, line: 326, type: !141, scopeLine: 326, flags: DIFlagPublic | DIFlagPrototyped, spFlags: DISPFlagOptimized)
!155 = !DISubprogram(name: "getAsInteger", linkageName: "_ZNK4llvm9StringRef12getAsIntegerEjRNS_5APIntE", scope: !47, file: !48, line: 367, type: !156, scopeLine: 367, flags: DIFlagPublic | DIFlagPrototyped, spFlags: DISPFlagOptimized)
!156 = !DISubroutineType(types: !157)
!157 = !{!102, !93, !19, !158}
!158 = !DIDerivedType(tag: DW_TAG_reference_type, baseType: !159, size: 64)
!159 = distinct !DICompositeType(tag: DW_TAG_class_type, name: "APInt", scope: !8, file: !48, line: 24, flags: DIFlagFwdDecl, identifier: "_ZTSN4llvm5APIntE")
!160 = !DISubprogram(name: "lower", linkageName: "_ZNK4llvm9StringRef5lowerB5cxx11Ev", scope: !47, file: !48, line: 374, type: !123, scopeLine: 374, flags: DIFlagPublic | DIFlagPrototyped, spFlags: DISPFlagOptimized)
!161 = !DISubprogram(name: "upper", linkageName: "_ZNK4llvm9StringRef5upperB5cxx11Ev", scope: !47, file: !48, line: 377, type: !123, scopeLine: 377, flags: DIFlagPublic | DIFlagPrototyped, spFlags: DISPFlagOptimized)
!162 = !DISubprogram(name: "substr", linkageName: "_ZNK4llvm9StringRef6substrEmm", scope: !47, file: !48, line: 392, type: !163, scopeLine: 392, flags: DIFlagPublic | DIFlagPrototyped, spFlags: DISPFlagOptimized)
!163 = !DISubroutineType(types: !164)
!164 = !{!47, !93, !52, !52}
!165 = !DISubprogram(name: "drop_front", linkageName: "_ZNK4llvm9StringRef10drop_frontEm", scope: !47, file: !48, line: 399, type: !166, scopeLine: 399, flags: DIFlagPublic | DIFlagPrototyped, spFlags: DISPFlagOptimized)
!166 = !DISubroutineType(types: !167)
!167 = !{!47, !93, !52}
!168 = !DISubprogram(name: "drop_back", linkageName: "_ZNK4llvm9StringRef9drop_backEm", scope: !47, file: !48, line: 406, type: !166, scopeLine: 406, flags: DIFlagPublic | DIFlagPrototyped, spFlags: DISPFlagOptimized)
!169 = !DISubprogram(name: "slice", linkageName: "_ZNK4llvm9StringRef5sliceEmm", scope: !47, file: !48, line: 421, type: !163, scopeLine: 421, flags: DIFlagPublic | DIFlagPrototyped, spFlags: DISPFlagOptimized)
!170 = !DISubprogram(name: "split", linkageName: "_ZNK4llvm9StringRef5splitEc", scope: !47, file: !48, line: 437, type: !171, scopeLine: 437, flags: DIFlagPublic | DIFlagPrototyped, spFlags: DISPFlagOptimized)
!171 = !DISubroutineType(types: !172)
!172 = !{!173, !93, !58}
!173 = distinct !DICompositeType(tag: DW_TAG_structure_type, name: "pair<llvm::StringRef, llvm::StringRef>", scope: !86, file: !174, line: 208, size: 256, flags: DIFlagTypePassByValue | DIFlagNonTrivial, elements: !175, templateParams: !234, identifier: "_ZTSSt4pairIN4llvm9StringRefES1_E")
!174 = !DIFile(filename: "/usr/lib/gcc/x86_64-linux-gnu/7.5.0/../../../../include/c++/7.5.0/bits/stl_pair.h", directory: "")
!175 = !{!176, !196, !197, !198, !204, !208, !222, !231}
!176 = !DIDerivedType(tag: DW_TAG_inheritance, scope: !173, baseType: !177, flags: DIFlagPrivate, extraData: i32 0)
!177 = distinct !DICompositeType(tag: DW_TAG_class_type, name: "__pair_base<llvm::StringRef, llvm::StringRef>", scope: !86, file: !174, line: 190, size: 8, flags: DIFlagTypePassByValue, elements: !178, templateParams: !193, identifier: "_ZTSSt11__pair_baseIN4llvm9StringRefES1_E")
!178 = !{!179, !183, !184, !189}
!179 = !DISubprogram(name: "__pair_base", scope: !177, file: !174, line: 194, type: !180, scopeLine: 194, flags: DIFlagPrototyped, spFlags: DISPFlagOptimized)
!180 = !DISubroutineType(types: !181)
!181 = !{null, !182}
!182 = !DIDerivedType(tag: DW_TAG_pointer_type, baseType: !177, size: 64, flags: DIFlagArtificial | DIFlagObjectPointer)
!183 = !DISubprogram(name: "~__pair_base", scope: !177, file: !174, line: 195, type: !180, scopeLine: 195, flags: DIFlagPrototyped, spFlags: DISPFlagOptimized)
!184 = !DISubprogram(name: "__pair_base", scope: !177, file: !174, line: 196, type: !185, scopeLine: 196, flags: DIFlagPrototyped, spFlags: DISPFlagOptimized)
!185 = !DISubroutineType(types: !186)
!186 = !{null, !182, !187}
!187 = !DIDerivedType(tag: DW_TAG_reference_type, baseType: !188, size: 64)
!188 = !DIDerivedType(tag: DW_TAG_const_type, baseType: !177)
!189 = !DISubprogram(name: "operator=", linkageName: "_ZNSt11__pair_baseIN4llvm9StringRefES1_EaSERKS2_", scope: !177, file: !174, line: 197, type: !190, scopeLine: 197, flags: DIFlagPrototyped, spFlags: DISPFlagOptimized | DISPFlagDeleted)
!190 = !DISubroutineType(types: !191)
!191 = !{!192, !182, !187}
!192 = !DIDerivedType(tag: DW_TAG_reference_type, baseType: !177, size: 64)
!193 = !{!194, !195}
!194 = !DITemplateTypeParameter(name: "_U1", type: !47)
!195 = !DITemplateTypeParameter(name: "_U2", type: !47)
!196 = !DIDerivedType(tag: DW_TAG_member, name: "first", scope: !173, file: !174, line: 214, baseType: !47, size: 128)
!197 = !DIDerivedType(tag: DW_TAG_member, name: "second", scope: !173, file: !174, line: 215, baseType: !47, size: 128, offset: 128)
!198 = !DISubprogram(name: "pair", scope: !173, file: !174, line: 303, type: !199, scopeLine: 303, flags: DIFlagPrototyped, spFlags: DISPFlagOptimized)
!199 = !DISubroutineType(types: !200)
!200 = !{null, !201, !202}
!201 = !DIDerivedType(tag: DW_TAG_pointer_type, baseType: !173, size: 64, flags: DIFlagArtificial | DIFlagObjectPointer)
!202 = !DIDerivedType(tag: DW_TAG_reference_type, baseType: !203, size: 64)
!203 = !DIDerivedType(tag: DW_TAG_const_type, baseType: !173)
!204 = !DISubprogram(name: "pair", scope: !173, file: !174, line: 304, type: !205, scopeLine: 304, flags: DIFlagPrototyped, spFlags: DISPFlagOptimized)
!205 = !DISubroutineType(types: !206)
!206 = !{null, !201, !207}
!207 = !DIDerivedType(tag: DW_TAG_rvalue_reference_type, baseType: !173, size: 64)
!208 = !DISubprogram(name: "operator=", linkageName: "_ZNSt4pairIN4llvm9StringRefES1_EaSERKS2_", scope: !173, file: !174, line: 378, type: !209, scopeLine: 378, flags: DIFlagPrototyped, spFlags: DISPFlagOptimized)
!209 = !DISubroutineType(types: !210)
!210 = !{!211, !201, !212}
!211 = !DIDerivedType(tag: DW_TAG_reference_type, baseType: !173, size: 64)
!212 = !DIDerivedType(tag: DW_TAG_typedef, name: "type", scope: !214, file: !213, line: 2166, baseType: !202)
!213 = !DIFile(filename: "/usr/lib/gcc/x86_64-linux-gnu/7.5.0/../../../../include/c++/7.5.0/type_traits", directory: "")
!214 = distinct !DICompositeType(tag: DW_TAG_structure_type, name: "conditional<true, const std::pair<llvm::StringRef, llvm::StringRef> &, const std::__nonesuch_no_braces &>", scope: !86, file: !213, line: 2165, size: 8, flags: DIFlagTypePassByValue, elements: !9, templateParams: !215, identifier: "_ZTSSt11conditionalILb1ERKSt4pairIN4llvm9StringRefES2_ERKSt20__nonesuch_no_bracesE")
!215 = !{!216, !217, !218}
!216 = !DITemplateValueParameter(name: "_Cond", type: !102, value: i8 1)
!217 = !DITemplateTypeParameter(name: "_Iftrue", type: !202)
!218 = !DITemplateTypeParameter(name: "_Iffalse", type: !219)
!219 = !DIDerivedType(tag: DW_TAG_reference_type, baseType: !220, size: 64)
!220 = !DIDerivedType(tag: DW_TAG_const_type, baseType: !221)
!221 = distinct !DICompositeType(tag: DW_TAG_structure_type, name: "__nonesuch_no_braces", scope: !86, file: !174, line: 185, flags: DIFlagFwdDecl, identifier: "_ZTSSt20__nonesuch_no_braces")
!222 = !DISubprogram(name: "operator=", linkageName: "_ZNSt4pairIN4llvm9StringRefES1_EaSEOS2_", scope: !173, file: !174, line: 389, type: !223, scopeLine: 389, flags: DIFlagPrototyped, spFlags: DISPFlagOptimized)
!223 = !DISubroutineType(types: !224)
!224 = !{!211, !201, !225}
!225 = !DIDerivedType(tag: DW_TAG_typedef, name: "type", scope: !226, file: !213, line: 2166, baseType: !207)
!226 = distinct !DICompositeType(tag: DW_TAG_structure_type, name: "conditional<true, std::pair<llvm::StringRef, llvm::StringRef> &&, std::__nonesuch_no_braces &&>", scope: !86, file: !213, line: 2165, size: 8, flags: DIFlagTypePassByValue, elements: !9, templateParams: !227, identifier: "_ZTSSt11conditionalILb1EOSt4pairIN4llvm9StringRefES2_EOSt20__nonesuch_no_bracesE")
!227 = !{!216, !228, !229}
!228 = !DITemplateTypeParameter(name: "_Iftrue", type: !207)
!229 = !DITemplateTypeParameter(name: "_Iffalse", type: !230)
!230 = !DIDerivedType(tag: DW_TAG_rvalue_reference_type, baseType: !221, size: 64)
!231 = !DISubprogram(name: "swap", linkageName: "_ZNSt4pairIN4llvm9StringRefES1_E4swapERS2_", scope: !173, file: !174, line: 424, type: !232, scopeLine: 424, flags: DIFlagPrototyped, spFlags: DISPFlagOptimized)
!232 = !DISubroutineType(types: !233)
!233 = !{null, !201, !211}
!234 = !{!235, !236}
!235 = !DITemplateTypeParameter(name: "_T1", type: !47)
!236 = !DITemplateTypeParameter(name: "_T2", type: !47)
!237 = !DISubprogram(name: "split", linkageName: "_ZNK4llvm9StringRef5splitES0_", scope: !47, file: !48, line: 454, type: !238, scopeLine: 454, flags: DIFlagPublic | DIFlagPrototyped, spFlags: DISPFlagOptimized)
!238 = !DISubroutineType(types: !239)
!239 = !{!173, !93, !47}
!240 = !DISubprogram(name: "split", linkageName: "_ZNK4llvm9StringRef5splitERNS_15SmallVectorImplIS0_EES0_ib", scope: !47, file: !48, line: 475, type: !241, scopeLine: 475, flags: DIFlagPublic | DIFlagPrototyped, spFlags: DISPFlagOptimized)
!241 = !DISubroutineType(types: !242)
!242 = !{null, !93, !243, !47, !67, !102}
!243 = !DIDerivedType(tag: DW_TAG_reference_type, baseType: !244, size: 64)
!244 = distinct !DICompositeType(tag: DW_TAG_class_type, name: "SmallVectorImpl<llvm::StringRef>", scope: !8, file: !48, line: 23, flags: DIFlagFwdDecl, identifier: "_ZTSN4llvm15SmallVectorImplINS_9StringRefEEE")
!245 = !DISubprogram(name: "rsplit", linkageName: "_ZNK4llvm9StringRef6rsplitEc", scope: !47, file: !48, line: 489, type: !171, scopeLine: 489, flags: DIFlagPublic | DIFlagPrototyped, spFlags: DISPFlagOptimized)
!246 = !DISubprogram(name: "ltrim", linkageName: "_ZNK4llvm9StringRef5ltrimES0_", scope: !47, file: !48, line: 498, type: !247, scopeLine: 498, flags: DIFlagPublic | DIFlagPrototyped, spFlags: DISPFlagOptimized)
!247 = !DISubroutineType(types: !248)
!248 = !{!47, !93, !47}
!249 = !DISubprogram(name: "rtrim", linkageName: "_ZNK4llvm9StringRef5rtrimES0_", scope: !47, file: !48, line: 504, type: !247, scopeLine: 504, flags: DIFlagPublic | DIFlagPrototyped, spFlags: DISPFlagOptimized)
!250 = !DISubprogram(name: "trim", linkageName: "_ZNK4llvm9StringRef4trimES0_", scope: !47, file: !48, line: 510, type: !247, scopeLine: 510, flags: DIFlagPublic | DIFlagPrototyped, spFlags: DISPFlagOptimized)
!251 = !DIDerivedType(tag: DW_TAG_pointer_type, baseType: !252, size: 64, flags: DIFlagArtificial | DIFlagObjectPointer)
!252 = !DIDerivedType(tag: DW_TAG_const_type, baseType: !12)
!253 = !DISubprogram(name: "getValue", linkageName: "_ZNK4llvm14StringMapEntryIPvE8getValueEv", scope: !12, file: !13, line: 132, type: !254, scopeLine: 132, flags: DIFlagPublic | DIFlagPrototyped, spFlags: DISPFlagOptimized)
!254 = !DISubroutineType(types: !255)
!255 = !{!42, !251}
!256 = !DISubprogram(name: "getValue", linkageName: "_ZN4llvm14StringMapEntryIPvE8getValueEv", scope: !12, file: !13, line: 133, type: !257, scopeLine: 133, flags: DIFlagPublic | DIFlagPrototyped, spFlags: DISPFlagOptimized)
!257 = !DISubroutineType(types: !258)
!258 = !{!259, !34}
!259 = !DIDerivedType(tag: DW_TAG_reference_type, baseType: !30, size: 64)
!260 = !DISubprogram(name: "setValue", linkageName: "_ZN4llvm14StringMapEntryIPvE8setValueERKS1_", scope: !12, file: !13, line: 135, type: !261, scopeLine: 135, flags: DIFlagPublic | DIFlagPrototyped, spFlags: DISPFlagOptimized)
!261 = !DISubroutineType(types: !262)
!262 = !{null, !34, !42}
!263 = !DISubprogram(name: "getKeyData", linkageName: "_ZNK4llvm14StringMapEntryIPvE10getKeyDataEv", scope: !12, file: !13, line: 140, type: !264, scopeLine: 140, flags: DIFlagPublic | DIFlagPrototyped, spFlags: DISPFlagOptimized)
!264 = !DISubroutineType(types: !265)
!265 = !{!56, !251}
!266 = !DISubprogram(name: "first", linkageName: "_ZNK4llvm14StringMapEntryIPvE5firstEv", scope: !12, file: !13, line: 142, type: !45, scopeLine: 142, flags: DIFlagPublic | DIFlagPrototyped, spFlags: DISPFlagOptimized)
!267 = !DISubprogram(name: "Create", linkageName: "_ZN4llvm14StringMapEntryIPvE6CreateEPKcS4_", scope: !12, file: !13, line: 190, type: !268, scopeLine: 190, flags: DIFlagPublic | DIFlagPrototyped | DIFlagStaticMember, spFlags: DISPFlagOptimized)
!268 = !DISubroutineType(types: !269)
!269 = !{!270, !56, !56}
!270 = !DIDerivedType(tag: DW_TAG_pointer_type, baseType: !12, size: 64)
!271 = !DISubprogram(name: "GetStringMapEntryFromValue", linkageName: "_ZN4llvm14StringMapEntryIPvE26GetStringMapEntryFromValueERS1_", scope: !12, file: !13, line: 196, type: !272, scopeLine: 196, flags: DIFlagPublic | DIFlagPrototyped | DIFlagStaticMember, spFlags: DISPFlagOptimized)
!272 = !DISubroutineType(types: !273)
!273 = !{!35, !259}
!274 = !DISubprogram(name: "GetStringMapEntryFromValue", linkageName: "_ZN4llvm14StringMapEntryIPvE26GetStringMapEntryFromValueERKS1_", scope: !12, file: !13, line: 203, type: !275, scopeLine: 203, flags: DIFlagPublic | DIFlagPrototyped | DIFlagStaticMember, spFlags: DISPFlagOptimized)
!275 = !DISubroutineType(types: !276)
!276 = !{!277, !42}
!277 = !DIDerivedType(tag: DW_TAG_reference_type, baseType: !252, size: 64)
!278 = !DISubprogram(name: "GetStringMapEntryFromKeyData", linkageName: "_ZN4llvm14StringMapEntryIPvE28GetStringMapEntryFromKeyDataEPKc", scope: !12, file: !13, line: 209, type: !279, scopeLine: 209, flags: DIFlagPublic | DIFlagPrototyped | DIFlagStaticMember, spFlags: DISPFlagOptimized)
!279 = !DISubroutineType(types: !280)
!280 = !{!35, !56}
!281 = !DISubprogram(name: "Destroy", linkageName: "_ZN4llvm14StringMapEntryIPvE7DestroyEv", scope: !12, file: !13, line: 224, type: !282, scopeLine: 224, flags: DIFlagPublic | DIFlagPrototyped, spFlags: DISPFlagOptimized)
!282 = !DISubroutineType(types: !283)
!283 = !{null, !34}
!284 = !{!285}
!285 = !DITemplateTypeParameter(name: "ValueTy", type: !30)
!286 = !{!287}
!287 = !DIEnumerator(name: "Alignment", value: 8, isUnsigned: true)
!288 = distinct !DICompositeType(tag: DW_TAG_enumeration_type, scope: !290, file: !289, line: 47, baseType: !19, size: 32, elements: !298, identifier: "_ZTSN4llvm21PointerLikeTypeTraitsIPvEUt_E")
!289 = !DIFile(filename: "/faster/fs/llvm34/include/llvm/Support/PointerLikeTypeTraits.h", directory: "")
!290 = distinct !DICompositeType(tag: DW_TAG_class_type, name: "PointerLikeTypeTraits<void *>", scope: !8, file: !289, line: 34, size: 8, flags: DIFlagTypePassByValue, elements: !291, templateParams: !296, identifier: "_ZTSN4llvm21PointerLikeTypeTraitsIPvEE")
!291 = !{!292, !295}
!292 = !DISubprogram(name: "getAsVoidPointer", linkageName: "_ZN4llvm21PointerLikeTypeTraitsIPvE16getAsVoidPointerES1_", scope: !290, file: !289, line: 36, type: !293, scopeLine: 36, flags: DIFlagPublic | DIFlagPrototyped | DIFlagStaticMember, spFlags: DISPFlagOptimized)
!293 = !DISubroutineType(types: !294)
!294 = !{!30, !30}
!295 = !DISubprogram(name: "getFromVoidPointer", linkageName: "_ZN4llvm21PointerLikeTypeTraitsIPvE18getFromVoidPointerES1_", scope: !290, file: !289, line: 37, type: !293, scopeLine: 37, flags: DIFlagPublic | DIFlagPrototyped | DIFlagStaticMember, spFlags: DISPFlagOptimized)
!296 = !{!297}
!297 = !DITemplateTypeParameter(name: "T", type: !30)
!298 = !{!299}
!299 = !DIEnumerator(name: "NumLowBitsAvailable", value: 2, isUnsigned: true)
!300 = !{!301, !305, !309, !312, !344, !347, !349, !353, !357, !402, !19, !619, !600, !410, !30, !270, !308, !56, !623, !677, !1092, !1096, !1097, !1099, !1100, !989, !1101, !1102}
!301 = !DISubprogram(name: "dlopen", scope: !302, file: !302, line: 56, type: !303, flags: DIFlagPrototyped, spFlags: DISPFlagOptimized, retainedNodes: !9)
!302 = !DIFile(filename: "/usr/include/dlfcn.h", directory: "")
!303 = !DISubroutineType(types: !304)
!304 = !{!30, !56, !67}
!305 = !DISubprogram(name: "dlerror", scope: !302, file: !302, line: 82, type: !306, flags: DIFlagPrototyped, spFlags: DISPFlagOptimized, retainedNodes: !9)
!306 = !DISubroutineType(types: !307)
!307 = !{!308}
!308 = !DIDerivedType(tag: DW_TAG_pointer_type, baseType: !58, size: 64)
!309 = !DISubprogram(name: "dlclose", scope: !302, file: !302, line: 60, type: !310, flags: DIFlagPrototyped, spFlags: DISPFlagOptimized, retainedNodes: !9)
!310 = !DISubroutineType(types: !311)
!311 = !{!67, !30}
!312 = distinct !DICompositeType(tag: DW_TAG_class_type, name: "DynamicLibrary", scope: !314, file: !313, line: 37, size: 64, flags: DIFlagTypePassByValue | DIFlagNonTrivial, elements: !315, identifier: "_ZTSN4llvm3sys14DynamicLibraryE")
!313 = !DIFile(filename: "/faster/fs/llvm34/include/llvm/Support/DynamicLibrary.h", directory: "")
!314 = !DINamespace(name: "sys", scope: !8)
!315 = !{!316, !317, !318, !322, !325, !328, !332, !335, !338, !341}
!316 = !DIDerivedType(tag: DW_TAG_member, name: "Invalid", scope: !312, file: !313, line: 41, baseType: !58, flags: DIFlagStaticMember)
!317 = !DIDerivedType(tag: DW_TAG_member, name: "Data", scope: !312, file: !313, line: 44, baseType: !30, size: 64)
!318 = !DISubprogram(name: "DynamicLibrary", scope: !312, file: !313, line: 46, type: !319, scopeLine: 46, flags: DIFlagExplicit | DIFlagPrototyped, spFlags: DISPFlagOptimized)
!319 = !DISubroutineType(types: !320)
!320 = !{null, !321, !30}
!321 = !DIDerivedType(tag: DW_TAG_pointer_type, baseType: !312, size: 64, flags: DIFlagArtificial | DIFlagObjectPointer)
!322 = !DISubprogram(name: "isValid", linkageName: "_ZN4llvm3sys14DynamicLibrary7isValidEv", scope: !312, file: !313, line: 49, type: !323, scopeLine: 49, flags: DIFlagPublic | DIFlagPrototyped, spFlags: DISPFlagOptimized)
!323 = !DISubroutineType(types: !324)
!324 = !{!102, !321}
!325 = !DISubprogram(name: "getAddressOfSymbol", linkageName: "_ZN4llvm3sys14DynamicLibrary18getAddressOfSymbolEPKc", scope: !312, file: !313, line: 57, type: !326, scopeLine: 57, flags: DIFlagPublic | DIFlagPrototyped, spFlags: DISPFlagOptimized)
!326 = !DISubroutineType(types: !327)
!327 = !{!30, !321, !56}
!328 = !DISubprogram(name: "getPermanentLibrary", linkageName: "_ZN4llvm3sys14DynamicLibrary19getPermanentLibraryEPKcPNSt7__cxx1112basic_stringIcSt11char_traitsIcESaIcEEE", scope: !312, file: !313, line: 67, type: !329, scopeLine: 67, flags: DIFlagPublic | DIFlagPrototyped | DIFlagStaticMember, spFlags: DISPFlagOptimized)
!329 = !DISubroutineType(types: !330)
!330 = !{!312, !56, !331}
!331 = !DIDerivedType(tag: DW_TAG_pointer_type, baseType: !83, size: 64)
!332 = !DISubprogram(name: "LoadLibraryPermanently", linkageName: "_ZN4llvm3sys14DynamicLibrary22LoadLibraryPermanentlyEPKcPNSt7__cxx1112basic_stringIcSt11char_traitsIcESaIcEEE", scope: !312, file: !313, line: 75, type: !333, scopeLine: 75, flags: DIFlagPublic | DIFlagPrototyped | DIFlagStaticMember, spFlags: DISPFlagOptimized)
!333 = !DISubroutineType(types: !334)
!334 = !{!102, !56, !331}
!335 = !DISubprogram(name: "SearchForAddressOfSymbol", linkageName: "_ZN4llvm3sys14DynamicLibrary24SearchForAddressOfSymbolEPKc", scope: !312, file: !313, line: 87, type: !336, scopeLine: 87, flags: DIFlagPublic | DIFlagPrototyped | DIFlagStaticMember, spFlags: DISPFlagOptimized)
!336 = !DISubroutineType(types: !337)
!337 = !{!30, !56}
!338 = !DISubprogram(name: "SearchForAddressOfSymbol", linkageName: "_ZN4llvm3sys14DynamicLibrary24SearchForAddressOfSymbolERKNSt7__cxx1112basic_stringIcSt11char_traitsIcESaIcEEE", scope: !312, file: !313, line: 90, type: !339, scopeLine: 90, flags: DIFlagPublic | DIFlagPrototyped | DIFlagStaticMember, spFlags: DISPFlagOptimized)
!339 = !DISubroutineType(types: !340)
!340 = !{!30, !81}
!341 = !DISubprogram(name: "AddSymbol", linkageName: "_ZN4llvm3sys14DynamicLibrary9AddSymbolENS_9StringRefEPv", scope: !312, file: !313, line: 98, type: !342, scopeLine: 98, flags: DIFlagPublic | DIFlagPrototyped | DIFlagStaticMember, spFlags: DISPFlagOptimized)
!342 = !DISubroutineType(types: !343)
!343 = !{null, !47, !30}
!344 = !DISubprogram(name: "dlsym", scope: !302, file: !302, line: 64, type: !345, flags: DIFlagPrototyped, spFlags: DISPFlagOptimized, retainedNodes: !9)
!345 = !DISubroutineType(types: !346)
!346 = !{!30, !30, !56}
!347 = !DISubprogram(name: "SearchForAddressOfSpecialSymbol", linkageName: "_ZN4llvm31SearchForAddressOfSpecialSymbolEPKc", scope: !8, file: !348, line: 108, type: !336, flags: DIFlagPrototyped, spFlags: DISPFlagOptimized, retainedNodes: !9)
!348 = !DIFile(filename: "/faster/fs/llvm34/lib/Support/DynamicLibrary.cpp", directory: "")
!349 = !DISubprogram(name: "llvm_is_multithreaded", linkageName: "_ZN4llvm21llvm_is_multithreadedEv", scope: !8, file: !350, line: 34, type: !351, flags: DIFlagPrototyped, spFlags: DISPFlagOptimized, retainedNodes: !9)
!350 = !DIFile(filename: "/faster/fs/llvm34/include/llvm/Support/Threading.h", directory: "")
!351 = !DISubroutineType(types: !352)
!352 = !{!102}
!353 = !DISubprogram(name: "MemoryFence", linkageName: "_ZN4llvm3sys11MemoryFenceEv", scope: !314, file: !354, line: 21, type: !355, flags: DIFlagPrototyped, spFlags: DISPFlagOptimized, retainedNodes: !9)
!354 = !DIFile(filename: "/faster/fs/llvm34/include/llvm/Support/Atomic.h", directory: "")
!355 = !DISubroutineType(types: !356)
!356 = !{null}
!357 = !DIDerivedType(tag: DW_TAG_pointer_type, baseType: !358, size: 64)
!358 = distinct !DICompositeType(tag: DW_TAG_class_type, name: "SmartMutex<true>", scope: !314, file: !359, line: 89, size: 128, flags: DIFlagTypePassByReference | DIFlagNonTrivial, elements: !360, templateParams: !400, identifier: "_ZTSN4llvm3sys10SmartMutexILb1EEE")
!359 = !DIFile(filename: "/faster/fs/llvm34/include/llvm/Support/Mutex.h", directory: "")
!360 = !{!361, !383, !384, !385, !389, !392, !393, !394, !399}
!361 = !DIDerivedType(tag: DW_TAG_inheritance, scope: !358, baseType: !362, flags: DIFlagPublic, extraData: i32 0)
!362 = distinct !DICompositeType(tag: DW_TAG_class_type, name: "MutexImpl", scope: !314, file: !359, line: 26, size: 64, flags: DIFlagTypePassByReference | DIFlagNonTrivial, elements: !363, identifier: "_ZTSN4llvm3sys9MutexImplE")
!363 = !{!364, !365, !369, !372, !375, !376, !377, !382}
!364 = !DIDerivedType(tag: DW_TAG_member, name: "data_", scope: !362, file: !359, line: 73, baseType: !30, size: 64)
!365 = !DISubprogram(name: "MutexImpl", scope: !362, file: !359, line: 37, type: !366, scopeLine: 37, flags: DIFlagPublic | DIFlagExplicit | DIFlagPrototyped, spFlags: DISPFlagOptimized)
!366 = !DISubroutineType(types: !367)
!367 = !{null, !368, !102}
!368 = !DIDerivedType(tag: DW_TAG_pointer_type, baseType: !362, size: 64, flags: DIFlagArtificial | DIFlagObjectPointer)
!369 = !DISubprogram(name: "~MutexImpl", scope: !362, file: !359, line: 41, type: !370, scopeLine: 41, flags: DIFlagPublic | DIFlagPrototyped, spFlags: DISPFlagOptimized)
!370 = !DISubroutineType(types: !371)
!371 = !{null, !368}
!372 = !DISubprogram(name: "acquire", linkageName: "_ZN4llvm3sys9MutexImpl7acquireEv", scope: !362, file: !359, line: 52, type: !373, scopeLine: 52, flags: DIFlagPublic | DIFlagPrototyped, spFlags: DISPFlagOptimized)
!373 = !DISubroutineType(types: !374)
!374 = !{!102, !368}
!375 = !DISubprogram(name: "release", linkageName: "_ZN4llvm3sys9MutexImpl7releaseEv", scope: !362, file: !359, line: 59, type: !373, scopeLine: 59, flags: DIFlagPublic | DIFlagPrototyped, spFlags: DISPFlagOptimized)
!376 = !DISubprogram(name: "tryacquire", linkageName: "_ZN4llvm3sys9MutexImpl10tryacquireEv", scope: !362, file: !359, line: 67, type: !373, scopeLine: 67, flags: DIFlagPublic | DIFlagPrototyped, spFlags: DISPFlagOptimized)
!377 = !DISubprogram(name: "MutexImpl", scope: !362, file: !359, line: 79, type: !378, scopeLine: 79, flags: DIFlagPrototyped, spFlags: DISPFlagOptimized | DISPFlagDeleted)
!378 = !DISubroutineType(types: !379)
!379 = !{null, !368, !380}
!380 = !DIDerivedType(tag: DW_TAG_reference_type, baseType: !381, size: 64)
!381 = !DIDerivedType(tag: DW_TAG_const_type, baseType: !362)
!382 = !DISubprogram(name: "operator=", linkageName: "_ZN4llvm3sys9MutexImplaSERKS1_", scope: !362, file: !359, line: 80, type: !378, scopeLine: 80, flags: DIFlagPrototyped, spFlags: DISPFlagOptimized | DISPFlagDeleted)
!383 = !DIDerivedType(tag: DW_TAG_member, name: "acquired", scope: !358, file: !359, line: 90, baseType: !19, size: 32, offset: 64)
!384 = !DIDerivedType(tag: DW_TAG_member, name: "recursive", scope: !358, file: !359, line: 91, baseType: !102, size: 8, offset: 96)
!385 = !DISubprogram(name: "SmartMutex", scope: !358, file: !359, line: 93, type: !386, scopeLine: 93, flags: DIFlagPublic | DIFlagExplicit | DIFlagPrototyped, spFlags: DISPFlagOptimized)
!386 = !DISubroutineType(types: !387)
!387 = !{null, !388, !102}
!388 = !DIDerivedType(tag: DW_TAG_pointer_type, baseType: !358, size: 64, flags: DIFlagArtificial | DIFlagObjectPointer)
!389 = !DISubprogram(name: "acquire", linkageName: "_ZN4llvm3sys10SmartMutexILb1EE7acquireEv", scope: !358, file: !359, line: 96, type: !390, scopeLine: 96, flags: DIFlagPublic | DIFlagPrototyped, spFlags: DISPFlagOptimized)
!390 = !DISubroutineType(types: !391)
!391 = !{!102, !388}
!392 = !DISubprogram(name: "release", linkageName: "_ZN4llvm3sys10SmartMutexILb1EE7releaseEv", scope: !358, file: !359, line: 109, type: !390, scopeLine: 109, flags: DIFlagPublic | DIFlagPrototyped, spFlags: DISPFlagOptimized)
!393 = !DISubprogram(name: "tryacquire", linkageName: "_ZN4llvm3sys10SmartMutexILb1EE10tryacquireEv", scope: !358, file: !359, line: 123, type: !390, scopeLine: 123, flags: DIFlagPublic | DIFlagPrototyped, spFlags: DISPFlagOptimized)
!394 = !DISubprogram(name: "SmartMutex", scope: !358, file: !359, line: 130, type: !395, scopeLine: 130, flags: DIFlagPrototyped, spFlags: DISPFlagOptimized)
!395 = !DISubroutineType(types: !396)
!396 = !{null, !388, !397}
!397 = !DIDerivedType(tag: DW_TAG_reference_type, baseType: !398, size: 64)
!398 = !DIDerivedType(tag: DW_TAG_const_type, baseType: !358)
!399 = !DISubprogram(name: "operator=", linkageName: "_ZN4llvm3sys10SmartMutexILb1EEaSERKS2_", scope: !358, file: !359, line: 131, type: !395, scopeLine: 131, flags: DIFlagPrototyped, spFlags: DISPFlagOptimized)
!400 = !{!401}
!401 = !DITemplateValueParameter(name: "mt_only", type: !102, value: i8 1)
!402 = !DIDerivedType(tag: DW_TAG_pointer_type, baseType: !403, size: 64)
!403 = distinct !DICompositeType(tag: DW_TAG_class_type, name: "StringMap<void *, llvm::MallocAllocator>", scope: !8, file: !13, line: 236, size: 256, flags: DIFlagTypePassByReference | DIFlagNonTrivial, elements: !404, templateParams: !617, identifier: "_ZTSN4llvm9StringMapIPvNS_15MallocAllocatorEEE")
!404 = !{!405, !455, !478, !482, !485, !488, !491, !496, !497, !506, !516, !575, !576, !580, !581, !584, !587, !590, !593, !597, !602, !603, !607, !610, !613, !616}
!405 = !DIDerivedType(tag: DW_TAG_inheritance, scope: !403, baseType: !406, flags: DIFlagPublic, extraData: i32 0)
!406 = distinct !DICompositeType(tag: DW_TAG_class_type, name: "StringMapImpl", scope: !8, file: !13, line: 53, size: 192, flags: DIFlagTypePassByValue | DIFlagNonTrivial, elements: !407, identifier: "_ZTSN4llvm13StringMapImplE")
!407 = !{!408, !411, !412, !413, !414, !415, !419, !422, !425, !428, !433, !436, !439, !440, !443, !446, !447, !450, !451}
!408 = !DIDerivedType(tag: DW_TAG_member, name: "TheTable", scope: !406, file: !13, line: 58, baseType: !409, size: 64, flags: DIFlagProtected)
!409 = !DIDerivedType(tag: DW_TAG_pointer_type, baseType: !410, size: 64)
!410 = !DIDerivedType(tag: DW_TAG_pointer_type, baseType: !16, size: 64)
!411 = !DIDerivedType(tag: DW_TAG_member, name: "NumBuckets", scope: !406, file: !13, line: 59, baseType: !19, size: 32, offset: 64, flags: DIFlagProtected)
!412 = !DIDerivedType(tag: DW_TAG_member, name: "NumItems", scope: !406, file: !13, line: 60, baseType: !19, size: 32, offset: 96, flags: DIFlagProtected)
!413 = !DIDerivedType(tag: DW_TAG_member, name: "NumTombstones", scope: !406, file: !13, line: 61, baseType: !19, size: 32, offset: 128, flags: DIFlagProtected)
!414 = !DIDerivedType(tag: DW_TAG_member, name: "ItemSize", scope: !406, file: !13, line: 62, baseType: !19, size: 32, offset: 160, flags: DIFlagProtected)
!415 = !DISubprogram(name: "StringMapImpl", scope: !406, file: !13, line: 64, type: !416, scopeLine: 64, flags: DIFlagProtected | DIFlagExplicit | DIFlagPrototyped, spFlags: DISPFlagOptimized)
!416 = !DISubroutineType(types: !417)
!417 = !{null, !418, !19}
!418 = !DIDerivedType(tag: DW_TAG_pointer_type, baseType: !406, size: 64, flags: DIFlagArtificial | DIFlagObjectPointer)
!419 = !DISubprogram(name: "StringMapImpl", scope: !406, file: !13, line: 71, type: !420, scopeLine: 71, flags: DIFlagProtected | DIFlagPrototyped, spFlags: DISPFlagOptimized)
!420 = !DISubroutineType(types: !421)
!421 = !{null, !418, !19, !19}
!422 = !DISubprogram(name: "RehashTable", linkageName: "_ZN4llvm13StringMapImpl11RehashTableEv", scope: !406, file: !13, line: 72, type: !423, scopeLine: 72, flags: DIFlagProtected | DIFlagPrototyped, spFlags: DISPFlagOptimized)
!423 = !DISubroutineType(types: !424)
!424 = !{null, !418}
!425 = !DISubprogram(name: "LookupBucketFor", linkageName: "_ZN4llvm13StringMapImpl15LookupBucketForENS_9StringRefE", scope: !406, file: !13, line: 79, type: !426, scopeLine: 79, flags: DIFlagProtected | DIFlagPrototyped, spFlags: DISPFlagOptimized)
!426 = !DISubroutineType(types: !427)
!427 = !{!19, !418, !47}
!428 = !DISubprogram(name: "FindKey", linkageName: "_ZNK4llvm13StringMapImpl7FindKeyENS_9StringRefE", scope: !406, file: !13, line: 84, type: !429, scopeLine: 84, flags: DIFlagProtected | DIFlagPrototyped, spFlags: DISPFlagOptimized)
!429 = !DISubroutineType(types: !430)
!430 = !{!67, !431, !47}
!431 = !DIDerivedType(tag: DW_TAG_pointer_type, baseType: !432, size: 64, flags: DIFlagArtificial | DIFlagObjectPointer)
!432 = !DIDerivedType(tag: DW_TAG_const_type, baseType: !406)
!433 = !DISubprogram(name: "RemoveKey", linkageName: "_ZN4llvm13StringMapImpl9RemoveKeyEPNS_18StringMapEntryBaseE", scope: !406, file: !13, line: 88, type: !434, scopeLine: 88, flags: DIFlagProtected | DIFlagPrototyped, spFlags: DISPFlagOptimized)
!434 = !DISubroutineType(types: !435)
!435 = !{null, !418, !410}
!436 = !DISubprogram(name: "RemoveKey", linkageName: "_ZN4llvm13StringMapImpl9RemoveKeyENS_9StringRefE", scope: !406, file: !13, line: 92, type: !437, scopeLine: 92, flags: DIFlagProtected | DIFlagPrototyped, spFlags: DISPFlagOptimized)
!437 = !DISubroutineType(types: !438)
!438 = !{!410, !418, !47}
!439 = !DISubprogram(name: "init", linkageName: "_ZN4llvm13StringMapImpl4initEj", scope: !406, file: !13, line: 94, type: !416, scopeLine: 94, flags: DIFlagPrototyped, spFlags: DISPFlagOptimized)
!440 = !DISubprogram(name: "getTombstoneVal", linkageName: "_ZN4llvm13StringMapImpl15getTombstoneValEv", scope: !406, file: !13, line: 96, type: !441, scopeLine: 96, flags: DIFlagPublic | DIFlagPrototyped | DIFlagStaticMember, spFlags: DISPFlagOptimized)
!441 = !DISubroutineType(types: !442)
!442 = !{!410}
!443 = !DISubprogram(name: "getNumBuckets", linkageName: "_ZNK4llvm13StringMapImpl13getNumBucketsEv", scope: !406, file: !13, line: 100, type: !444, scopeLine: 100, flags: DIFlagPublic | DIFlagPrototyped, spFlags: DISPFlagOptimized)
!444 = !DISubroutineType(types: !445)
!445 = !{!19, !431}
!446 = !DISubprogram(name: "getNumItems", linkageName: "_ZNK4llvm13StringMapImpl11getNumItemsEv", scope: !406, file: !13, line: 101, type: !444, scopeLine: 101, flags: DIFlagPublic | DIFlagPrototyped, spFlags: DISPFlagOptimized)
!447 = !DISubprogram(name: "empty", linkageName: "_ZNK4llvm13StringMapImpl5emptyEv", scope: !406, file: !13, line: 103, type: !448, scopeLine: 103, flags: DIFlagPublic | DIFlagPrototyped, spFlags: DISPFlagOptimized)
!448 = !DISubroutineType(types: !449)
!449 = !{!102, !431}
!450 = !DISubprogram(name: "size", linkageName: "_ZNK4llvm13StringMapImpl4sizeEv", scope: !406, file: !13, line: 104, type: !444, scopeLine: 104, flags: DIFlagPublic | DIFlagPrototyped, spFlags: DISPFlagOptimized)
!451 = !DISubprogram(name: "swap", linkageName: "_ZN4llvm13StringMapImpl4swapERS0_", scope: !406, file: !13, line: 106, type: !452, scopeLine: 106, flags: DIFlagPublic | DIFlagPrototyped, spFlags: DISPFlagOptimized)
!452 = !DISubroutineType(types: !453)
!453 = !{null, !418, !454}
!454 = !DIDerivedType(tag: DW_TAG_reference_type, baseType: !406, size: 64)
!455 = !DIDerivedType(tag: DW_TAG_member, name: "Allocator", scope: !403, file: !13, line: 237, baseType: !456, size: 8, offset: 192)
!456 = distinct !DICompositeType(tag: DW_TAG_class_type, name: "MallocAllocator", scope: !8, file: !457, line: 29, size: 8, flags: DIFlagTypePassByReference | DIFlagNonTrivial, elements: !458, identifier: "_ZTSN4llvm15MallocAllocatorE")
!457 = !DIFile(filename: "/faster/fs/llvm34/include/llvm/Support/Allocator.h", directory: "")
!458 = !{!459, !463, !464, !465, !468, !473}
!459 = !DISubprogram(name: "MallocAllocator", scope: !456, file: !457, line: 31, type: !460, scopeLine: 31, flags: DIFlagPublic | DIFlagPrototyped, spFlags: DISPFlagOptimized)
!460 = !DISubroutineType(types: !461)
!461 = !{null, !462}
!462 = !DIDerivedType(tag: DW_TAG_pointer_type, baseType: !456, size: 64, flags: DIFlagArtificial | DIFlagObjectPointer)
!463 = !DISubprogram(name: "~MallocAllocator", scope: !456, file: !457, line: 32, type: !460, scopeLine: 32, flags: DIFlagPublic | DIFlagPrototyped, spFlags: DISPFlagOptimized)
!464 = !DISubprogram(name: "Reset", linkageName: "_ZN4llvm15MallocAllocator5ResetEv", scope: !456, file: !457, line: 34, type: !460, scopeLine: 34, flags: DIFlagPublic | DIFlagPrototyped, spFlags: DISPFlagOptimized)
!465 = !DISubprogram(name: "Allocate", linkageName: "_ZN4llvm15MallocAllocator8AllocateEmm", scope: !456, file: !457, line: 36, type: !466, scopeLine: 36, flags: DIFlagPublic | DIFlagPrototyped, spFlags: DISPFlagOptimized)
!466 = !DISubroutineType(types: !467)
!467 = !{!30, !462, !52, !52}
!468 = !DISubprogram(name: "Deallocate", linkageName: "_ZN4llvm15MallocAllocator10DeallocateEPKv", scope: !456, file: !457, line: 46, type: !469, scopeLine: 46, flags: DIFlagPublic | DIFlagPrototyped, spFlags: DISPFlagOptimized)
!469 = !DISubroutineType(types: !470)
!470 = !{null, !462, !471}
!471 = !DIDerivedType(tag: DW_TAG_pointer_type, baseType: !472, size: 64)
!472 = !DIDerivedType(tag: DW_TAG_const_type, baseType: null)
!473 = !DISubprogram(name: "PrintStats", linkageName: "_ZNK4llvm15MallocAllocator10PrintStatsEv", scope: !456, file: !457, line: 48, type: !474, scopeLine: 48, flags: DIFlagPublic | DIFlagPrototyped, spFlags: DISPFlagOptimized)
!474 = !DISubroutineType(types: !475)
!475 = !{null, !476}
!476 = !DIDerivedType(tag: DW_TAG_pointer_type, baseType: !477, size: 64, flags: DIFlagArtificial | DIFlagObjectPointer)
!477 = !DIDerivedType(tag: DW_TAG_const_type, baseType: !456)
!478 = !DISubprogram(name: "StringMap", scope: !403, file: !13, line: 241, type: !479, scopeLine: 241, flags: DIFlagPublic | DIFlagPrototyped, spFlags: DISPFlagOptimized)
!479 = !DISubroutineType(types: !480)
!480 = !{null, !481}
!481 = !DIDerivedType(tag: DW_TAG_pointer_type, baseType: !403, size: 64, flags: DIFlagArtificial | DIFlagObjectPointer)
!482 = !DISubprogram(name: "StringMap", scope: !403, file: !13, line: 242, type: !483, scopeLine: 242, flags: DIFlagPublic | DIFlagExplicit | DIFlagPrototyped, spFlags: DISPFlagOptimized)
!483 = !DISubroutineType(types: !484)
!484 = !{null, !481, !19}
!485 = !DISubprogram(name: "StringMap", scope: !403, file: !13, line: 245, type: !486, scopeLine: 245, flags: DIFlagPublic | DIFlagExplicit | DIFlagPrototyped, spFlags: DISPFlagOptimized)
!486 = !DISubroutineType(types: !487)
!487 = !{null, !481, !456}
!488 = !DISubprogram(name: "StringMap", scope: !403, file: !13, line: 248, type: !489, scopeLine: 248, flags: DIFlagPublic | DIFlagPrototyped, spFlags: DISPFlagOptimized)
!489 = !DISubroutineType(types: !490)
!490 = !{null, !481, !19, !456}
!491 = !DISubprogram(name: "StringMap", scope: !403, file: !13, line: 252, type: !492, scopeLine: 252, flags: DIFlagPublic | DIFlagPrototyped, spFlags: DISPFlagOptimized)
!492 = !DISubroutineType(types: !493)
!493 = !{null, !481, !494}
!494 = !DIDerivedType(tag: DW_TAG_reference_type, baseType: !495, size: 64)
!495 = !DIDerivedType(tag: DW_TAG_const_type, baseType: !403)
!496 = !DISubprogram(name: "operator=", linkageName: "_ZN4llvm9StringMapIPvNS_15MallocAllocatorEEaSERKS3_", scope: !403, file: !13, line: 258, type: !492, scopeLine: 258, flags: DIFlagPublic | DIFlagPrototyped, spFlags: DISPFlagOptimized)
!497 = !DISubprogram(name: "getAllocator", linkageName: "_ZN4llvm9StringMapIPvNS_15MallocAllocatorEE12getAllocatorEv", scope: !403, file: !13, line: 267, type: !498, scopeLine: 267, flags: DIFlagPublic | DIFlagPrototyped, spFlags: DISPFlagOptimized)
!498 = !DISubroutineType(types: !499)
!499 = !{!500, !481}
!500 = !DIDerivedType(tag: DW_TAG_typedef, name: "AllocatorRefTy", scope: !403, file: !13, line: 265, baseType: !501)
!501 = !DIDerivedType(tag: DW_TAG_typedef, name: "result", scope: !502, file: !457, line: 26, baseType: !505)
!502 = distinct !DICompositeType(tag: DW_TAG_structure_type, name: "ReferenceAdder<llvm::MallocAllocator>", scope: !8, file: !457, line: 26, size: 8, flags: DIFlagTypePassByValue, elements: !9, templateParams: !503, identifier: "_ZTSN4llvm14ReferenceAdderINS_15MallocAllocatorEEE")
!503 = !{!504}
!504 = !DITemplateTypeParameter(name: "T", type: !456)
!505 = !DIDerivedType(tag: DW_TAG_reference_type, baseType: !456, size: 64)
!506 = !DISubprogram(name: "getAllocator", linkageName: "_ZNK4llvm9StringMapIPvNS_15MallocAllocatorEE12getAllocatorEv", scope: !403, file: !13, line: 268, type: !507, scopeLine: 268, flags: DIFlagPublic | DIFlagPrototyped, spFlags: DISPFlagOptimized)
!507 = !DISubroutineType(types: !508)
!508 = !{!509, !515}
!509 = !DIDerivedType(tag: DW_TAG_typedef, name: "AllocatorCRefTy", scope: !403, file: !13, line: 266, baseType: !510)
!510 = !DIDerivedType(tag: DW_TAG_typedef, name: "result", scope: !511, file: !457, line: 26, baseType: !514)
!511 = distinct !DICompositeType(tag: DW_TAG_structure_type, name: "ReferenceAdder<const llvm::MallocAllocator>", scope: !8, file: !457, line: 26, size: 8, flags: DIFlagTypePassByValue, elements: !9, templateParams: !512, identifier: "_ZTSN4llvm14ReferenceAdderIKNS_15MallocAllocatorEEE")
!512 = !{!513}
!513 = !DITemplateTypeParameter(name: "T", type: !477)
!514 = !DIDerivedType(tag: DW_TAG_reference_type, baseType: !477, size: 64)
!515 = !DIDerivedType(tag: DW_TAG_pointer_type, baseType: !495, size: 64, flags: DIFlagArtificial | DIFlagObjectPointer)
!516 = !DISubprogram(name: "begin", linkageName: "_ZN4llvm9StringMapIPvNS_15MallocAllocatorEE5beginEv", scope: !403, file: !13, line: 278, type: !517, scopeLine: 278, flags: DIFlagPublic | DIFlagPrototyped, spFlags: DISPFlagOptimized)
!517 = !DISubroutineType(types: !518)
!518 = !{!519, !481}
!519 = !DIDerivedType(tag: DW_TAG_typedef, name: "iterator", scope: !403, file: !13, line: 276, baseType: !520)
!520 = distinct !DICompositeType(tag: DW_TAG_class_type, name: "StringMapIterator<void *>", scope: !8, file: !13, line: 459, size: 64, flags: DIFlagTypePassByValue | DIFlagNonTrivial, elements: !521, templateParams: !558, identifier: "_ZTSN4llvm17StringMapIteratorIPvEE")
!521 = !{!522, !560, !564, !567, !572}
!522 = !DIDerivedType(tag: DW_TAG_inheritance, scope: !520, baseType: !523, flags: DIFlagPublic, extraData: i32 0)
!523 = distinct !DICompositeType(tag: DW_TAG_class_type, name: "StringMapConstIterator<void *>", scope: !8, file: !13, line: 414, size: 64, flags: DIFlagTypePassByValue | DIFlagNonTrivial, elements: !524, templateParams: !558, identifier: "_ZTSN4llvm22StringMapConstIteratorIPvEE")
!524 = !{!525, !526, !530, !533, !541, !545, !549, !550, !554, !557}
!525 = !DIDerivedType(tag: DW_TAG_member, name: "Ptr", scope: !523, file: !13, line: 416, baseType: !409, size: 64, flags: DIFlagProtected)
!526 = !DISubprogram(name: "StringMapConstIterator", scope: !523, file: !13, line: 420, type: !527, scopeLine: 420, flags: DIFlagPublic | DIFlagPrototyped, spFlags: DISPFlagOptimized)
!527 = !DISubroutineType(types: !528)
!528 = !{null, !529}
!529 = !DIDerivedType(tag: DW_TAG_pointer_type, baseType: !523, size: 64, flags: DIFlagArtificial | DIFlagObjectPointer)
!530 = !DISubprogram(name: "StringMapConstIterator", scope: !523, file: !13, line: 422, type: !531, scopeLine: 422, flags: DIFlagPublic | DIFlagExplicit | DIFlagPrototyped, spFlags: DISPFlagOptimized)
!531 = !DISubroutineType(types: !532)
!532 = !{null, !529, !409, !102}
!533 = !DISubprogram(name: "operator*", linkageName: "_ZNK4llvm22StringMapConstIteratorIPvEdeEv", scope: !523, file: !13, line: 428, type: !534, scopeLine: 428, flags: DIFlagPublic | DIFlagPrototyped, spFlags: DISPFlagOptimized)
!534 = !DISubroutineType(types: !535)
!535 = !{!536, !539}
!536 = !DIDerivedType(tag: DW_TAG_reference_type, baseType: !537, size: 64)
!537 = !DIDerivedType(tag: DW_TAG_const_type, baseType: !538)
!538 = !DIDerivedType(tag: DW_TAG_typedef, name: "value_type", scope: !523, file: !13, line: 418, baseType: !12)
!539 = !DIDerivedType(tag: DW_TAG_pointer_type, baseType: !540, size: 64, flags: DIFlagArtificial | DIFlagObjectPointer)
!540 = !DIDerivedType(tag: DW_TAG_const_type, baseType: !523)
!541 = !DISubprogram(name: "operator->", linkageName: "_ZNK4llvm22StringMapConstIteratorIPvEptEv", scope: !523, file: !13, line: 431, type: !542, scopeLine: 431, flags: DIFlagPublic | DIFlagPrototyped, spFlags: DISPFlagOptimized)
!542 = !DISubroutineType(types: !543)
!543 = !{!544, !539}
!544 = !DIDerivedType(tag: DW_TAG_pointer_type, baseType: !537, size: 64)
!545 = !DISubprogram(name: "operator==", linkageName: "_ZNK4llvm22StringMapConstIteratorIPvEeqERKS2_", scope: !523, file: !13, line: 435, type: !546, scopeLine: 435, flags: DIFlagPublic | DIFlagPrototyped, spFlags: DISPFlagOptimized)
!546 = !DISubroutineType(types: !547)
!547 = !{!102, !539, !548}
!548 = !DIDerivedType(tag: DW_TAG_reference_type, baseType: !540, size: 64)
!549 = !DISubprogram(name: "operator!=", linkageName: "_ZNK4llvm22StringMapConstIteratorIPvEneERKS2_", scope: !523, file: !13, line: 438, type: !546, scopeLine: 438, flags: DIFlagPublic | DIFlagPrototyped, spFlags: DISPFlagOptimized)
!550 = !DISubprogram(name: "operator++", linkageName: "_ZN4llvm22StringMapConstIteratorIPvEppEv", scope: !523, file: !13, line: 442, type: !551, scopeLine: 442, flags: DIFlagPublic | DIFlagPrototyped, spFlags: DISPFlagOptimized)
!551 = !DISubroutineType(types: !552)
!552 = !{!553, !529}
!553 = !DIDerivedType(tag: DW_TAG_reference_type, baseType: !523, size: 64)
!554 = !DISubprogram(name: "operator++", linkageName: "_ZN4llvm22StringMapConstIteratorIPvEppEi", scope: !523, file: !13, line: 447, type: !555, scopeLine: 447, flags: DIFlagPublic | DIFlagPrototyped, spFlags: DISPFlagOptimized)
!555 = !DISubroutineType(types: !556)
!556 = !{!523, !529, !67}
!557 = !DISubprogram(name: "AdvancePastEmptyBuckets", linkageName: "_ZN4llvm22StringMapConstIteratorIPvE23AdvancePastEmptyBucketsEv", scope: !523, file: !13, line: 452, type: !527, scopeLine: 452, flags: DIFlagPrototyped, spFlags: DISPFlagOptimized)
!558 = !{!559}
!559 = !DITemplateTypeParameter(name: "ValueT", type: !30)
!560 = !DISubprogram(name: "StringMapIterator", scope: !520, file: !13, line: 461, type: !561, scopeLine: 461, flags: DIFlagPublic | DIFlagPrototyped, spFlags: DISPFlagOptimized)
!561 = !DISubroutineType(types: !562)
!562 = !{null, !563}
!563 = !DIDerivedType(tag: DW_TAG_pointer_type, baseType: !520, size: 64, flags: DIFlagArtificial | DIFlagObjectPointer)
!564 = !DISubprogram(name: "StringMapIterator", scope: !520, file: !13, line: 462, type: !565, scopeLine: 462, flags: DIFlagPublic | DIFlagExplicit | DIFlagPrototyped, spFlags: DISPFlagOptimized)
!565 = !DISubroutineType(types: !566)
!566 = !{null, !563, !409, !102}
!567 = !DISubprogram(name: "operator*", linkageName: "_ZNK4llvm17StringMapIteratorIPvEdeEv", scope: !520, file: !13, line: 466, type: !568, scopeLine: 466, flags: DIFlagPublic | DIFlagPrototyped, spFlags: DISPFlagOptimized)
!568 = !DISubroutineType(types: !569)
!569 = !{!35, !570}
!570 = !DIDerivedType(tag: DW_TAG_pointer_type, baseType: !571, size: 64, flags: DIFlagArtificial | DIFlagObjectPointer)
!571 = !DIDerivedType(tag: DW_TAG_const_type, baseType: !520)
!572 = !DISubprogram(name: "operator->", linkageName: "_ZNK4llvm17StringMapIteratorIPvEptEv", scope: !520, file: !13, line: 469, type: !573, scopeLine: 469, flags: DIFlagPublic | DIFlagPrototyped, spFlags: DISPFlagOptimized)
!573 = !DISubroutineType(types: !574)
!574 = !{!270, !570}
!575 = !DISubprogram(name: "end", linkageName: "_ZN4llvm9StringMapIPvNS_15MallocAllocatorEE3endEv", scope: !403, file: !13, line: 281, type: !517, scopeLine: 281, flags: DIFlagPublic | DIFlagPrototyped, spFlags: DISPFlagOptimized)
!576 = !DISubprogram(name: "begin", linkageName: "_ZNK4llvm9StringMapIPvNS_15MallocAllocatorEE5beginEv", scope: !403, file: !13, line: 284, type: !577, scopeLine: 284, flags: DIFlagPublic | DIFlagPrototyped, spFlags: DISPFlagOptimized)
!577 = !DISubroutineType(types: !578)
!578 = !{!579, !515}
!579 = !DIDerivedType(tag: DW_TAG_typedef, name: "const_iterator", scope: !403, file: !13, line: 275, baseType: !523)
!580 = !DISubprogram(name: "end", linkageName: "_ZNK4llvm9StringMapIPvNS_15MallocAllocatorEE3endEv", scope: !403, file: !13, line: 287, type: !577, scopeLine: 287, flags: DIFlagPublic | DIFlagPrototyped, spFlags: DISPFlagOptimized)
!581 = !DISubprogram(name: "find", linkageName: "_ZN4llvm9StringMapIPvNS_15MallocAllocatorEE4findENS_9StringRefE", scope: !403, file: !13, line: 291, type: !582, scopeLine: 291, flags: DIFlagPublic | DIFlagPrototyped, spFlags: DISPFlagOptimized)
!582 = !DISubroutineType(types: !583)
!583 = !{!519, !481, !47}
!584 = !DISubprogram(name: "find", linkageName: "_ZNK4llvm9StringMapIPvNS_15MallocAllocatorEE4findENS_9StringRefE", scope: !403, file: !13, line: 297, type: !585, scopeLine: 297, flags: DIFlagPublic | DIFlagPrototyped, spFlags: DISPFlagOptimized)
!585 = !DISubroutineType(types: !586)
!586 = !{!579, !515, !47}
!587 = !DISubprogram(name: "lookup", linkageName: "_ZNK4llvm9StringMapIPvNS_15MallocAllocatorEE6lookupENS_9StringRefE", scope: !403, file: !13, line: 305, type: !588, scopeLine: 305, flags: DIFlagPublic | DIFlagPrototyped, spFlags: DISPFlagOptimized)
!588 = !DISubroutineType(types: !589)
!589 = !{!30, !515, !47}
!590 = !DISubprogram(name: "operator[]", linkageName: "_ZN4llvm9StringMapIPvNS_15MallocAllocatorEEixENS_9StringRefE", scope: !403, file: !13, line: 312, type: !591, scopeLine: 312, flags: DIFlagPublic | DIFlagPrototyped, spFlags: DISPFlagOptimized)
!591 = !DISubroutineType(types: !592)
!592 = !{!259, !481, !47}
!593 = !DISubprogram(name: "count", linkageName: "_ZNK4llvm9StringMapIPvNS_15MallocAllocatorEE5countENS_9StringRefE", scope: !403, file: !13, line: 316, type: !594, scopeLine: 316, flags: DIFlagPublic | DIFlagPrototyped, spFlags: DISPFlagOptimized)
!594 = !DISubroutineType(types: !595)
!595 = !{!596, !515, !47}
!596 = !DIDerivedType(tag: DW_TAG_typedef, name: "size_type", scope: !403, file: !13, line: 273, baseType: !52)
!597 = !DISubprogram(name: "insert", linkageName: "_ZN4llvm9StringMapIPvNS_15MallocAllocatorEE6insertEPNS_14StringMapEntryIS1_EE", scope: !403, file: !13, line: 323, type: !598, scopeLine: 323, flags: DIFlagPublic | DIFlagPrototyped, spFlags: DISPFlagOptimized)
!598 = !DISubroutineType(types: !599)
!599 = !{!102, !481, !600}
!600 = !DIDerivedType(tag: DW_TAG_pointer_type, baseType: !601, size: 64)
!601 = !DIDerivedType(tag: DW_TAG_typedef, name: "MapEntryTy", scope: !403, file: !13, line: 239, baseType: !12)
!602 = !DISubprogram(name: "clear", linkageName: "_ZN4llvm9StringMapIPvNS_15MallocAllocatorEE5clearEv", scope: !403, file: !13, line: 340, type: !479, scopeLine: 340, flags: DIFlagPublic | DIFlagPrototyped, spFlags: DISPFlagOptimized)
!603 = !DISubprogram(name: "GetOrCreateValue", linkageName: "_ZN4llvm9StringMapIPvNS_15MallocAllocatorEE16GetOrCreateValueENS_9StringRefE", scope: !403, file: !13, line: 383, type: !604, scopeLine: 383, flags: DIFlagPublic | DIFlagPrototyped, spFlags: DISPFlagOptimized)
!604 = !DISubroutineType(types: !605)
!605 = !{!606, !481, !47}
!606 = !DIDerivedType(tag: DW_TAG_reference_type, baseType: !601, size: 64)
!607 = !DISubprogram(name: "remove", linkageName: "_ZN4llvm9StringMapIPvNS_15MallocAllocatorEE6removeEPNS_14StringMapEntryIS1_EE", scope: !403, file: !13, line: 389, type: !608, scopeLine: 389, flags: DIFlagPublic | DIFlagPrototyped, spFlags: DISPFlagOptimized)
!608 = !DISubroutineType(types: !609)
!609 = !{null, !481, !600}
!610 = !DISubprogram(name: "erase", linkageName: "_ZN4llvm9StringMapIPvNS_15MallocAllocatorEE5eraseENS_17StringMapIteratorIS1_EE", scope: !403, file: !13, line: 393, type: !611, scopeLine: 393, flags: DIFlagPublic | DIFlagPrototyped, spFlags: DISPFlagOptimized)
!611 = !DISubroutineType(types: !612)
!612 = !{null, !481, !519}
!613 = !DISubprogram(name: "erase", linkageName: "_ZN4llvm9StringMapIPvNS_15MallocAllocatorEE5eraseENS_9StringRefE", scope: !403, file: !13, line: 399, type: !614, scopeLine: 399, flags: DIFlagPublic | DIFlagPrototyped, spFlags: DISPFlagOptimized)
!614 = !DISubroutineType(types: !615)
!615 = !{!102, !481, !47}
!616 = !DISubprogram(name: "~StringMap", scope: !403, file: !13, line: 406, type: !479, scopeLine: 406, flags: DIFlagPublic | DIFlagPrototyped, spFlags: DISPFlagOptimized)
!617 = !{!285, !618}
!618 = !DITemplateTypeParameter(name: "AllocatorTy", type: !456, defaulted: true)
!619 = !DISubprogram(name: "free", scope: !620, file: !620, line: 563, type: !621, flags: DIFlagPrototyped, spFlags: DISPFlagOptimized, retainedNodes: !9)
!620 = !DIFile(filename: "/usr/include/stdlib.h", directory: "")
!621 = !DISubroutineType(types: !622)
!622 = !{null, !30}
!623 = !DIDerivedType(tag: DW_TAG_typedef, name: "size_type", scope: !87, file: !624, line: 88, baseType: !625)
!624 = !DIFile(filename: "/usr/lib/gcc/x86_64-linux-gnu/7.5.0/../../../../include/c++/7.5.0/bits/basic_string.h", directory: "")
!625 = !DIDerivedType(tag: DW_TAG_typedef, name: "size_type", scope: !627, file: !626, line: 61, baseType: !655)
!626 = !DIFile(filename: "/usr/lib/gcc/x86_64-linux-gnu/7.5.0/../../../../include/c++/7.5.0/ext/alloc_traits.h", directory: "")
!627 = distinct !DICompositeType(tag: DW_TAG_structure_type, name: "__alloc_traits<std::allocator<char> >", scope: !628, file: !626, line: 50, size: 8, flags: DIFlagTypePassByValue, elements: !629, templateParams: !661, identifier: "_ZTSN9__gnu_cxx14__alloc_traitsISaIcEEE")
!628 = !DINamespace(name: "__gnu_cxx", scope: null)
!629 = !{!630, !663, !668, !672, !673, !674, !675, !676}
!630 = !DIDerivedType(tag: DW_TAG_inheritance, scope: !627, baseType: !631, extraData: i32 0)
!631 = distinct !DICompositeType(tag: DW_TAG_structure_type, name: "allocator_traits<std::allocator<char> >", scope: !86, file: !632, line: 384, size: 8, flags: DIFlagTypePassByValue, elements: !633, templateParams: !661, identifier: "_ZTSSt16allocator_traitsISaIcEE")
!632 = !DIFile(filename: "/usr/lib/gcc/x86_64-linux-gnu/7.5.0/../../../../include/c++/7.5.0/bits/alloc_traits.h", directory: "")
!633 = !{!634, !645, !649, !652, !658}
!634 = !DISubprogram(name: "allocate", linkageName: "_ZNSt16allocator_traitsISaIcEE8allocateERS0_m", scope: !631, file: !632, line: 435, type: !635, scopeLine: 435, flags: DIFlagPrototyped | DIFlagStaticMember, spFlags: DISPFlagOptimized)
!635 = !DISubroutineType(types: !636)
!636 = !{!637, !638, !642}
!637 = !DIDerivedType(tag: DW_TAG_typedef, name: "pointer", scope: !631, file: !632, line: 392, baseType: !308)
!638 = !DIDerivedType(tag: DW_TAG_reference_type, baseType: !639, size: 64)
!639 = !DIDerivedType(tag: DW_TAG_typedef, name: "allocator_type", scope: !631, file: !632, line: 387, baseType: !640)
!640 = distinct !DICompositeType(tag: DW_TAG_class_type, name: "allocator<char>", scope: !86, file: !641, line: 173, flags: DIFlagFwdDecl, identifier: "_ZTSSaIcE")
!641 = !DIFile(filename: "/usr/lib/gcc/x86_64-linux-gnu/7.5.0/../../../../include/c++/7.5.0/bits/allocator.h", directory: "")
!642 = !DIDerivedType(tag: DW_TAG_typedef, name: "size_type", file: !632, line: 407, baseType: !643)
!643 = !DIDerivedType(tag: DW_TAG_typedef, name: "size_t", scope: !86, file: !644, line: 231, baseType: !54)
!644 = !DIFile(filename: "/usr/lib/gcc/x86_64-linux-gnu/7.5.0/../../../../include/x86_64-linux-gnu/c++/7.5.0/bits/c++config.h", directory: "")
!645 = !DISubprogram(name: "allocate", linkageName: "_ZNSt16allocator_traitsISaIcEE8allocateERS0_mPKv", scope: !631, file: !632, line: 449, type: !646, scopeLine: 449, flags: DIFlagPrototyped | DIFlagStaticMember, spFlags: DISPFlagOptimized)
!646 = !DISubroutineType(types: !647)
!647 = !{!637, !638, !642, !648}
!648 = !DIDerivedType(tag: DW_TAG_typedef, name: "const_void_pointer", file: !632, line: 401, baseType: !471)
!649 = !DISubprogram(name: "deallocate", linkageName: "_ZNSt16allocator_traitsISaIcEE10deallocateERS0_Pcm", scope: !631, file: !632, line: 461, type: !650, scopeLine: 461, flags: DIFlagPrototyped | DIFlagStaticMember, spFlags: DISPFlagOptimized)
!650 = !DISubroutineType(types: !651)
!651 = !{null, !638, !637, !642}
!652 = !DISubprogram(name: "max_size", linkageName: "_ZNSt16allocator_traitsISaIcEE8max_sizeERKS0_", scope: !631, file: !632, line: 495, type: !653, scopeLine: 495, flags: DIFlagPrototyped | DIFlagStaticMember, spFlags: DISPFlagOptimized)
!653 = !DISubroutineType(types: !654)
!654 = !{!655, !656}
!655 = !DIDerivedType(tag: DW_TAG_typedef, name: "size_type", scope: !631, file: !632, line: 407, baseType: !643)
!656 = !DIDerivedType(tag: DW_TAG_reference_type, baseType: !657, size: 64)
!657 = !DIDerivedType(tag: DW_TAG_const_type, baseType: !639)
!658 = !DISubprogram(name: "select_on_container_copy_construction", linkageName: "_ZNSt16allocator_traitsISaIcEE37select_on_container_copy_constructionERKS0_", scope: !631, file: !632, line: 504, type: !659, scopeLine: 504, flags: DIFlagPrototyped | DIFlagStaticMember, spFlags: DISPFlagOptimized)
!659 = !DISubroutineType(types: !660)
!660 = !{!639, !656}
!661 = !{!662}
!662 = !DITemplateTypeParameter(name: "_Alloc", type: !640)
!663 = !DISubprogram(name: "_S_select_on_copy", linkageName: "_ZN9__gnu_cxx14__alloc_traitsISaIcEE17_S_select_on_copyERKS1_", scope: !627, file: !626, line: 94, type: !664, scopeLine: 94, flags: DIFlagPrototyped | DIFlagStaticMember, spFlags: DISPFlagOptimized)
!664 = !DISubroutineType(types: !665)
!665 = !{!640, !666}
!666 = !DIDerivedType(tag: DW_TAG_reference_type, baseType: !667, size: 64)
!667 = !DIDerivedType(tag: DW_TAG_const_type, baseType: !640)
!668 = !DISubprogram(name: "_S_on_swap", linkageName: "_ZN9__gnu_cxx14__alloc_traitsISaIcEE10_S_on_swapERS1_S3_", scope: !627, file: !626, line: 97, type: !669, scopeLine: 97, flags: DIFlagPrototyped | DIFlagStaticMember, spFlags: DISPFlagOptimized)
!669 = !DISubroutineType(types: !670)
!670 = !{null, !671, !671}
!671 = !DIDerivedType(tag: DW_TAG_reference_type, baseType: !640, size: 64)
!672 = !DISubprogram(name: "_S_propagate_on_copy_assign", linkageName: "_ZN9__gnu_cxx14__alloc_traitsISaIcEE27_S_propagate_on_copy_assignEv", scope: !627, file: !626, line: 100, type: !351, scopeLine: 100, flags: DIFlagPrototyped | DIFlagStaticMember, spFlags: DISPFlagOptimized)
!673 = !DISubprogram(name: "_S_propagate_on_move_assign", linkageName: "_ZN9__gnu_cxx14__alloc_traitsISaIcEE27_S_propagate_on_move_assignEv", scope: !627, file: !626, line: 103, type: !351, scopeLine: 103, flags: DIFlagPrototyped | DIFlagStaticMember, spFlags: DISPFlagOptimized)
!674 = !DISubprogram(name: "_S_propagate_on_swap", linkageName: "_ZN9__gnu_cxx14__alloc_traitsISaIcEE20_S_propagate_on_swapEv", scope: !627, file: !626, line: 106, type: !351, scopeLine: 106, flags: DIFlagPrototyped | DIFlagStaticMember, spFlags: DISPFlagOptimized)
!675 = !DISubprogram(name: "_S_always_equal", linkageName: "_ZN9__gnu_cxx14__alloc_traitsISaIcEE15_S_always_equalEv", scope: !627, file: !626, line: 109, type: !351, scopeLine: 109, flags: DIFlagPrototyped | DIFlagStaticMember, spFlags: DISPFlagOptimized)
!676 = !DISubprogram(name: "_S_nothrow_move", linkageName: "_ZN9__gnu_cxx14__alloc_traitsISaIcEE15_S_nothrow_moveEv", scope: !627, file: !626, line: 112, type: !351, scopeLine: 112, flags: DIFlagPrototyped | DIFlagStaticMember, spFlags: DISPFlagOptimized)
!677 = !DIDerivedType(tag: DW_TAG_pointer_type, baseType: !678, size: 64)
!678 = !DIDerivedType(tag: DW_TAG_typedef, name: "BucketT", scope: !680, file: !679, line: 540, baseType: !965)
!679 = !DIFile(filename: "/faster/fs/llvm34/include/llvm/ADT/DenseMap.h", directory: "")
!680 = distinct !DICompositeType(tag: DW_TAG_class_type, name: "DenseMap<void *, char, llvm::DenseMapInfo<void *> >", scope: !8, file: !679, line: 534, size: 192, flags: DIFlagTypePassByReference | DIFlagNonTrivial, elements: !681, templateParams: !1091, identifier: "_ZTSN4llvm8DenseMapIPvcNS_12DenseMapInfoIS1_EEEE")
!681 = !{!682, !1043, !1044, !1045, !1046, !1047, !1051, !1056, !1060, !1063, !1067, !1070, !1073, !1074, !1075, !1076, !1077, !1081, !1082, !1083, !1084, !1087, !1088}
!682 = !DIDerivedType(tag: DW_TAG_inheritance, scope: !680, baseType: !683, flags: DIFlagPublic, extraData: i32 0)
!683 = distinct !DICompositeType(tag: DW_TAG_class_type, name: "DenseMapBase<llvm::DenseMap<void *, char, llvm::DenseMapInfo<void *> >, void *, char, llvm::DenseMapInfo<void *> >", scope: !8, file: !679, line: 41, size: 8, flags: DIFlagTypePassByValue | DIFlagNonTrivial, elements: !684, templateParams: !1041, identifier: "_ZTSN4llvm12DenseMapBaseINS_8DenseMapIPvcNS_12DenseMapInfoIS2_EEEES2_cS4_EE")
!684 = !{!685, !861, !862, !868, !869, !872, !875, !878, !881, !884, !887, !890, !893, !951, !954, !957, !960, !966, !970, !974, !977, !980, !983, !984, !985, !986, !990, !994, !997, !1000, !1001, !1002, !1005, !1006, !1007, !1008, !1009, !1010, !1011, !1016, !1019, !1020, !1021, !1022, !1023, !1024, !1028, !1032, !1035, !1038}
!685 = !DISubprogram(name: "begin", linkageName: "_ZN4llvm12DenseMapBaseINS_8DenseMapIPvcNS_12DenseMapInfoIS2_EEEES2_cS4_E5beginEv", scope: !683, file: !679, line: 53, type: !686, scopeLine: 53, flags: DIFlagPublic | DIFlagPrototyped, spFlags: DISPFlagOptimized)
!686 = !DISubroutineType(types: !687)
!687 = !{!688, !860}
!688 = !DIDerivedType(tag: DW_TAG_typedef, name: "iterator", scope: !683, file: !679, line: 50, baseType: !689)
!689 = distinct !DICompositeType(tag: DW_TAG_class_type, name: "DenseMapIterator<void *, char, llvm::DenseMapInfo<void *>, false>", scope: !8, file: !679, line: 987, size: 128, flags: DIFlagTypePassByReference | DIFlagNonTrivial, elements: !690, templateParams: !858, identifier: "_ZTSN4llvm16DenseMapIteratorIPvcNS_12DenseMapInfoIS1_EELb0EEE")
!690 = !{!691, !757, !758, !762, !765, !770, !776, !779, !849, !850, !854, !857}
!691 = !DIDerivedType(tag: DW_TAG_member, name: "Ptr", scope: !689, file: !679, line: 999, baseType: !692, size: 64)
!692 = !DIDerivedType(tag: DW_TAG_typedef, name: "pointer", scope: !689, file: !679, line: 995, baseType: !693)
!693 = !DIDerivedType(tag: DW_TAG_pointer_type, baseType: !694, size: 64)
!694 = !DIDerivedType(tag: DW_TAG_typedef, name: "value_type", scope: !689, file: !679, line: 994, baseType: !695)
!695 = !DIDerivedType(tag: DW_TAG_typedef, name: "type", scope: !697, file: !696, line: 236, baseType: !702)
!696 = !DIFile(filename: "/faster/fs/llvm34/include/llvm/Support/type_traits.h", directory: "")
!697 = distinct !DICompositeType(tag: DW_TAG_structure_type, name: "conditional<false, const std::pair<void *, char>, std::pair<void *, char> >", scope: !8, file: !696, line: 236, size: 8, flags: DIFlagTypePassByValue, elements: !9, templateParams: !698, identifier: "_ZTSN4llvm11conditionalILb0EKSt4pairIPvcES3_EE")
!698 = !{!699, !700, !756}
!699 = !DITemplateValueParameter(type: !102, value: i8 0)
!700 = !DITemplateTypeParameter(name: "T", type: !701)
!701 = !DIDerivedType(tag: DW_TAG_const_type, baseType: !702)
!702 = distinct !DICompositeType(tag: DW_TAG_structure_type, name: "pair<void *, char>", scope: !86, file: !174, line: 208, size: 128, flags: DIFlagTypePassByValue | DIFlagNonTrivial, elements: !703, templateParams: !753, identifier: "_ZTSSt4pairIPvcE")
!703 = !{!704, !724, !725, !726, !731, !735, !743, !750}
!704 = !DIDerivedType(tag: DW_TAG_inheritance, scope: !702, baseType: !705, flags: DIFlagPrivate, extraData: i32 0)
!705 = distinct !DICompositeType(tag: DW_TAG_class_type, name: "__pair_base<void *, char>", scope: !86, file: !174, line: 190, size: 8, flags: DIFlagTypePassByValue, elements: !706, templateParams: !721, identifier: "_ZTSSt11__pair_baseIPvcE")
!706 = !{!707, !711, !712, !717}
!707 = !DISubprogram(name: "__pair_base", scope: !705, file: !174, line: 194, type: !708, scopeLine: 194, flags: DIFlagPrototyped, spFlags: DISPFlagOptimized)
!708 = !DISubroutineType(types: !709)
!709 = !{null, !710}
!710 = !DIDerivedType(tag: DW_TAG_pointer_type, baseType: !705, size: 64, flags: DIFlagArtificial | DIFlagObjectPointer)
!711 = !DISubprogram(name: "~__pair_base", scope: !705, file: !174, line: 195, type: !708, scopeLine: 195, flags: DIFlagPrototyped, spFlags: DISPFlagOptimized)
!712 = !DISubprogram(name: "__pair_base", scope: !705, file: !174, line: 196, type: !713, scopeLine: 196, flags: DIFlagPrototyped, spFlags: DISPFlagOptimized)
!713 = !DISubroutineType(types: !714)
!714 = !{null, !710, !715}
!715 = !DIDerivedType(tag: DW_TAG_reference_type, baseType: !716, size: 64)
!716 = !DIDerivedType(tag: DW_TAG_const_type, baseType: !705)
!717 = !DISubprogram(name: "operator=", linkageName: "_ZNSt11__pair_baseIPvcEaSERKS1_", scope: !705, file: !174, line: 197, type: !718, scopeLine: 197, flags: DIFlagPrototyped, spFlags: DISPFlagOptimized | DISPFlagDeleted)
!718 = !DISubroutineType(types: !719)
!719 = !{!720, !710, !715}
!720 = !DIDerivedType(tag: DW_TAG_reference_type, baseType: !705, size: 64)
!721 = !{!722, !723}
!722 = !DITemplateTypeParameter(name: "_U1", type: !30)
!723 = !DITemplateTypeParameter(name: "_U2", type: !58)
!724 = !DIDerivedType(tag: DW_TAG_member, name: "first", scope: !702, file: !174, line: 214, baseType: !30, size: 64)
!725 = !DIDerivedType(tag: DW_TAG_member, name: "second", scope: !702, file: !174, line: 215, baseType: !58, size: 8, offset: 64)
!726 = !DISubprogram(name: "pair", scope: !702, file: !174, line: 303, type: !727, scopeLine: 303, flags: DIFlagPrototyped, spFlags: DISPFlagOptimized)
!727 = !DISubroutineType(types: !728)
!728 = !{null, !729, !730}
!729 = !DIDerivedType(tag: DW_TAG_pointer_type, baseType: !702, size: 64, flags: DIFlagArtificial | DIFlagObjectPointer)
!730 = !DIDerivedType(tag: DW_TAG_reference_type, baseType: !701, size: 64)
!731 = !DISubprogram(name: "pair", scope: !702, file: !174, line: 304, type: !732, scopeLine: 304, flags: DIFlagPrototyped, spFlags: DISPFlagOptimized)
!732 = !DISubroutineType(types: !733)
!733 = !{null, !729, !734}
!734 = !DIDerivedType(tag: DW_TAG_rvalue_reference_type, baseType: !702, size: 64)
!735 = !DISubprogram(name: "operator=", linkageName: "_ZNSt4pairIPvcEaSERKS1_", scope: !702, file: !174, line: 378, type: !736, scopeLine: 378, flags: DIFlagPrototyped, spFlags: DISPFlagOptimized)
!736 = !DISubroutineType(types: !737)
!737 = !{!738, !729, !739}
!738 = !DIDerivedType(tag: DW_TAG_reference_type, baseType: !702, size: 64)
!739 = !DIDerivedType(tag: DW_TAG_typedef, name: "type", scope: !740, file: !213, line: 2166, baseType: !730)
!740 = distinct !DICompositeType(tag: DW_TAG_structure_type, name: "conditional<true, const std::pair<void *, char> &, const std::__nonesuch_no_braces &>", scope: !86, file: !213, line: 2165, size: 8, flags: DIFlagTypePassByValue, elements: !9, templateParams: !741, identifier: "_ZTSSt11conditionalILb1ERKSt4pairIPvcERKSt20__nonesuch_no_bracesE")
!741 = !{!216, !742, !218}
!742 = !DITemplateTypeParameter(name: "_Iftrue", type: !730)
!743 = !DISubprogram(name: "operator=", linkageName: "_ZNSt4pairIPvcEaSEOS1_", scope: !702, file: !174, line: 389, type: !744, scopeLine: 389, flags: DIFlagPrototyped, spFlags: DISPFlagOptimized)
!744 = !DISubroutineType(types: !745)
!745 = !{!738, !729, !746}
!746 = !DIDerivedType(tag: DW_TAG_typedef, name: "type", scope: !747, file: !213, line: 2166, baseType: !734)
!747 = distinct !DICompositeType(tag: DW_TAG_structure_type, name: "conditional<true, std::pair<void *, char> &&, std::__nonesuch_no_braces &&>", scope: !86, file: !213, line: 2165, size: 8, flags: DIFlagTypePassByValue, elements: !9, templateParams: !748, identifier: "_ZTSSt11conditionalILb1EOSt4pairIPvcEOSt20__nonesuch_no_bracesE")
!748 = !{!216, !749, !229}
!749 = !DITemplateTypeParameter(name: "_Iftrue", type: !734)
!750 = !DISubprogram(name: "swap", linkageName: "_ZNSt4pairIPvcE4swapERS1_", scope: !702, file: !174, line: 424, type: !751, scopeLine: 424, flags: DIFlagPrototyped, spFlags: DISPFlagOptimized)
!751 = !DISubroutineType(types: !752)
!752 = !{null, !729, !738}
!753 = !{!754, !755}
!754 = !DITemplateTypeParameter(name: "_T1", type: !30)
!755 = !DITemplateTypeParameter(name: "_T2", type: !58)
!756 = !DITemplateTypeParameter(name: "F", type: !702)
!757 = !DIDerivedType(tag: DW_TAG_member, name: "End", scope: !689, file: !679, line: 999, baseType: !692, size: 64, offset: 64)
!758 = !DISubprogram(name: "DenseMapIterator", scope: !689, file: !679, line: 1001, type: !759, scopeLine: 1001, flags: DIFlagPublic | DIFlagPrototyped, spFlags: DISPFlagOptimized)
!759 = !DISubroutineType(types: !760)
!760 = !{null, !761}
!761 = !DIDerivedType(tag: DW_TAG_pointer_type, baseType: !689, size: 64, flags: DIFlagArtificial | DIFlagObjectPointer)
!762 = !DISubprogram(name: "DenseMapIterator", scope: !689, file: !679, line: 1003, type: !763, scopeLine: 1003, flags: DIFlagPublic | DIFlagPrototyped, spFlags: DISPFlagOptimized)
!763 = !DISubroutineType(types: !764)
!764 = !{null, !761, !692, !692, !102}
!765 = !DISubprogram(name: "DenseMapIterator", scope: !689, file: !679, line: 1011, type: !766, scopeLine: 1011, flags: DIFlagPublic | DIFlagPrototyped, spFlags: DISPFlagOptimized)
!766 = !DISubroutineType(types: !767)
!767 = !{null, !761, !768}
!768 = !DIDerivedType(tag: DW_TAG_reference_type, baseType: !769, size: 64)
!769 = !DIDerivedType(tag: DW_TAG_const_type, baseType: !689)
!770 = !DISubprogram(name: "operator*", linkageName: "_ZNK4llvm16DenseMapIteratorIPvcNS_12DenseMapInfoIS1_EELb0EEdeEv", scope: !689, file: !679, line: 1015, type: !771, scopeLine: 1015, flags: DIFlagPublic | DIFlagPrototyped, spFlags: DISPFlagOptimized)
!771 = !DISubroutineType(types: !772)
!772 = !{!773, !775}
!773 = !DIDerivedType(tag: DW_TAG_typedef, name: "reference", scope: !689, file: !679, line: 996, baseType: !774)
!774 = !DIDerivedType(tag: DW_TAG_reference_type, baseType: !694, size: 64)
!775 = !DIDerivedType(tag: DW_TAG_pointer_type, baseType: !769, size: 64, flags: DIFlagArtificial | DIFlagObjectPointer)
!776 = !DISubprogram(name: "operator->", linkageName: "_ZNK4llvm16DenseMapIteratorIPvcNS_12DenseMapInfoIS1_EELb0EEptEv", scope: !689, file: !679, line: 1018, type: !777, scopeLine: 1018, flags: DIFlagPublic | DIFlagPrototyped, spFlags: DISPFlagOptimized)
!777 = !DISubroutineType(types: !778)
!778 = !{!692, !775}
!779 = !DISubprogram(name: "operator==", linkageName: "_ZNK4llvm16DenseMapIteratorIPvcNS_12DenseMapInfoIS1_EELb0EEeqERKNS0_IS1_cS3_Lb1EEE", scope: !689, file: !679, line: 1022, type: !780, scopeLine: 1022, flags: DIFlagPublic | DIFlagPrototyped, spFlags: DISPFlagOptimized)
!780 = !DISubroutineType(types: !781)
!781 = !{!102, !775, !782}
!782 = !DIDerivedType(tag: DW_TAG_reference_type, baseType: !783, size: 64)
!783 = !DIDerivedType(tag: DW_TAG_const_type, baseType: !784)
!784 = !DIDerivedType(tag: DW_TAG_typedef, name: "ConstIterator", scope: !689, file: !679, line: 990, baseType: !785)
!785 = distinct !DICompositeType(tag: DW_TAG_class_type, name: "DenseMapIterator<void *, char, llvm::DenseMapInfo<void *>, true>", scope: !8, file: !679, line: 987, size: 128, flags: DIFlagTypePassByValue | DIFlagNonTrivial, elements: !786, templateParams: !831, identifier: "_ZTSN4llvm16DenseMapIteratorIPvcNS_12DenseMapInfoIS1_EELb1EEE")
!786 = !{!787, !795, !796, !800, !803, !806, !813, !816, !822, !823, !827, !830}
!787 = !DIDerivedType(tag: DW_TAG_member, name: "Ptr", scope: !785, file: !679, line: 999, baseType: !788, size: 64)
!788 = !DIDerivedType(tag: DW_TAG_typedef, name: "pointer", scope: !785, file: !679, line: 995, baseType: !789)
!789 = !DIDerivedType(tag: DW_TAG_pointer_type, baseType: !790, size: 64)
!790 = !DIDerivedType(tag: DW_TAG_typedef, name: "value_type", scope: !785, file: !679, line: 994, baseType: !791)
!791 = !DIDerivedType(tag: DW_TAG_typedef, name: "type", scope: !792, file: !696, line: 233, baseType: !701)
!792 = distinct !DICompositeType(tag: DW_TAG_structure_type, name: "conditional<true, const std::pair<void *, char>, std::pair<void *, char> >", scope: !8, file: !696, line: 233, size: 8, flags: DIFlagTypePassByValue, elements: !9, templateParams: !793, identifier: "_ZTSN4llvm11conditionalILb1EKSt4pairIPvcES3_EE")
!793 = !{!794, !700, !756}
!794 = !DITemplateValueParameter(type: !102, value: i8 1)
!795 = !DIDerivedType(tag: DW_TAG_member, name: "End", scope: !785, file: !679, line: 999, baseType: !788, size: 64, offset: 64)
!796 = !DISubprogram(name: "DenseMapIterator", scope: !785, file: !679, line: 1001, type: !797, scopeLine: 1001, flags: DIFlagPublic | DIFlagPrototyped, spFlags: DISPFlagOptimized)
!797 = !DISubroutineType(types: !798)
!798 = !{null, !799}
!799 = !DIDerivedType(tag: DW_TAG_pointer_type, baseType: !785, size: 64, flags: DIFlagArtificial | DIFlagObjectPointer)
!800 = !DISubprogram(name: "DenseMapIterator", scope: !785, file: !679, line: 1003, type: !801, scopeLine: 1003, flags: DIFlagPublic | DIFlagPrototyped, spFlags: DISPFlagOptimized)
!801 = !DISubroutineType(types: !802)
!802 = !{null, !799, !788, !788, !102}
!803 = !DISubprogram(name: "DenseMapIterator", scope: !785, file: !679, line: 1011, type: !804, scopeLine: 1011, flags: DIFlagPublic | DIFlagPrototyped, spFlags: DISPFlagOptimized)
!804 = !DISubroutineType(types: !805)
!805 = !{null, !799, !768}
!806 = !DISubprogram(name: "operator*", linkageName: "_ZNK4llvm16DenseMapIteratorIPvcNS_12DenseMapInfoIS1_EELb1EEdeEv", scope: !785, file: !679, line: 1015, type: !807, scopeLine: 1015, flags: DIFlagPublic | DIFlagPrototyped, spFlags: DISPFlagOptimized)
!807 = !DISubroutineType(types: !808)
!808 = !{!809, !811}
!809 = !DIDerivedType(tag: DW_TAG_typedef, name: "reference", scope: !785, file: !679, line: 996, baseType: !810)
!810 = !DIDerivedType(tag: DW_TAG_reference_type, baseType: !790, size: 64)
!811 = !DIDerivedType(tag: DW_TAG_pointer_type, baseType: !812, size: 64, flags: DIFlagArtificial | DIFlagObjectPointer)
!812 = !DIDerivedType(tag: DW_TAG_const_type, baseType: !785)
!813 = !DISubprogram(name: "operator->", linkageName: "_ZNK4llvm16DenseMapIteratorIPvcNS_12DenseMapInfoIS1_EELb1EEptEv", scope: !785, file: !679, line: 1018, type: !814, scopeLine: 1018, flags: DIFlagPublic | DIFlagPrototyped, spFlags: DISPFlagOptimized)
!814 = !DISubroutineType(types: !815)
!815 = !{!788, !811}
!816 = !DISubprogram(name: "operator==", linkageName: "_ZNK4llvm16DenseMapIteratorIPvcNS_12DenseMapInfoIS1_EELb1EEeqERKS4_", scope: !785, file: !679, line: 1022, type: !817, scopeLine: 1022, flags: DIFlagPublic | DIFlagPrototyped, spFlags: DISPFlagOptimized)
!817 = !DISubroutineType(types: !818)
!818 = !{!102, !811, !819}
!819 = !DIDerivedType(tag: DW_TAG_reference_type, baseType: !820, size: 64)
!820 = !DIDerivedType(tag: DW_TAG_const_type, baseType: !821)
!821 = !DIDerivedType(tag: DW_TAG_typedef, name: "ConstIterator", scope: !785, file: !679, line: 990, baseType: !785)
!822 = !DISubprogram(name: "operator!=", linkageName: "_ZNK4llvm16DenseMapIteratorIPvcNS_12DenseMapInfoIS1_EELb1EEneERKS4_", scope: !785, file: !679, line: 1025, type: !817, scopeLine: 1025, flags: DIFlagPublic | DIFlagPrototyped, spFlags: DISPFlagOptimized)
!823 = !DISubprogram(name: "operator++", linkageName: "_ZN4llvm16DenseMapIteratorIPvcNS_12DenseMapInfoIS1_EELb1EEppEv", scope: !785, file: !679, line: 1029, type: !824, scopeLine: 1029, flags: DIFlagPublic | DIFlagPrototyped, spFlags: DISPFlagOptimized)
!824 = !DISubroutineType(types: !825)
!825 = !{!826, !799}
!826 = !DIDerivedType(tag: DW_TAG_reference_type, baseType: !785, size: 64)
!827 = !DISubprogram(name: "operator++", linkageName: "_ZN4llvm16DenseMapIteratorIPvcNS_12DenseMapInfoIS1_EELb1EEppEi", scope: !785, file: !679, line: 1034, type: !828, scopeLine: 1034, flags: DIFlagPublic | DIFlagPrototyped, spFlags: DISPFlagOptimized)
!828 = !DISubroutineType(types: !829)
!829 = !{!785, !799, !67}
!830 = !DISubprogram(name: "AdvancePastEmptyBuckets", linkageName: "_ZN4llvm16DenseMapIteratorIPvcNS_12DenseMapInfoIS1_EELb1EE23AdvancePastEmptyBucketsEv", scope: !785, file: !679, line: 1039, type: !797, scopeLine: 1039, flags: DIFlagPrototyped, spFlags: DISPFlagOptimized)
!831 = !{!832, !833, !834, !848}
!832 = !DITemplateTypeParameter(name: "KeyT", type: !30)
!833 = !DITemplateTypeParameter(name: "ValueT", type: !58)
!834 = !DITemplateTypeParameter(name: "KeyInfoT", type: !835)
!835 = distinct !DICompositeType(tag: DW_TAG_structure_type, name: "DenseMapInfo<void *>", scope: !8, file: !836, line: 32, size: 8, flags: DIFlagTypePassByValue, elements: !837, templateParams: !296, identifier: "_ZTSN4llvm12DenseMapInfoIPvEE")
!836 = !DIFile(filename: "/faster/fs/llvm34/include/llvm/ADT/DenseMapInfo.h", directory: "")
!837 = !{!838, !841, !842, !845}
!838 = !DISubprogram(name: "getEmptyKey", linkageName: "_ZN4llvm12DenseMapInfoIPvE11getEmptyKeyEv", scope: !835, file: !836, line: 33, type: !839, scopeLine: 33, flags: DIFlagPrototyped | DIFlagStaticMember, spFlags: DISPFlagOptimized)
!839 = !DISubroutineType(types: !840)
!840 = !{!30}
!841 = !DISubprogram(name: "getTombstoneKey", linkageName: "_ZN4llvm12DenseMapInfoIPvE15getTombstoneKeyEv", scope: !835, file: !836, line: 38, type: !839, scopeLine: 38, flags: DIFlagPrototyped | DIFlagStaticMember, spFlags: DISPFlagOptimized)
!842 = !DISubprogram(name: "getHashValue", linkageName: "_ZN4llvm12DenseMapInfoIPvE12getHashValueEPKv", scope: !835, file: !836, line: 43, type: !843, scopeLine: 43, flags: DIFlagPrototyped | DIFlagStaticMember, spFlags: DISPFlagOptimized)
!843 = !DISubroutineType(types: !844)
!844 = !{!19, !471}
!845 = !DISubprogram(name: "isEqual", linkageName: "_ZN4llvm12DenseMapInfoIPvE7isEqualEPKvS4_", scope: !835, file: !836, line: 47, type: !846, scopeLine: 47, flags: DIFlagPrototyped | DIFlagStaticMember, spFlags: DISPFlagOptimized)
!846 = !DISubroutineType(types: !847)
!847 = !{!102, !471, !471}
!848 = !DITemplateValueParameter(name: "IsConst", type: !102, value: i8 1)
!849 = !DISubprogram(name: "operator!=", linkageName: "_ZNK4llvm16DenseMapIteratorIPvcNS_12DenseMapInfoIS1_EELb0EEneERKNS0_IS1_cS3_Lb1EEE", scope: !689, file: !679, line: 1025, type: !780, scopeLine: 1025, flags: DIFlagPublic | DIFlagPrototyped, spFlags: DISPFlagOptimized)
!850 = !DISubprogram(name: "operator++", linkageName: "_ZN4llvm16DenseMapIteratorIPvcNS_12DenseMapInfoIS1_EELb0EEppEv", scope: !689, file: !679, line: 1029, type: !851, scopeLine: 1029, flags: DIFlagPublic | DIFlagPrototyped, spFlags: DISPFlagOptimized)
!851 = !DISubroutineType(types: !852)
!852 = !{!853, !761}
!853 = !DIDerivedType(tag: DW_TAG_reference_type, baseType: !689, size: 64)
!854 = !DISubprogram(name: "operator++", linkageName: "_ZN4llvm16DenseMapIteratorIPvcNS_12DenseMapInfoIS1_EELb0EEppEi", scope: !689, file: !679, line: 1034, type: !855, scopeLine: 1034, flags: DIFlagPublic | DIFlagPrototyped, spFlags: DISPFlagOptimized)
!855 = !DISubroutineType(types: !856)
!856 = !{!689, !761, !67}
!857 = !DISubprogram(name: "AdvancePastEmptyBuckets", linkageName: "_ZN4llvm16DenseMapIteratorIPvcNS_12DenseMapInfoIS1_EELb0EE23AdvancePastEmptyBucketsEv", scope: !689, file: !679, line: 1039, type: !759, scopeLine: 1039, flags: DIFlagPrototyped, spFlags: DISPFlagOptimized)
!858 = !{!832, !833, !834, !859}
!859 = !DITemplateValueParameter(name: "IsConst", type: !102, value: i8 0)
!860 = !DIDerivedType(tag: DW_TAG_pointer_type, baseType: !683, size: 64, flags: DIFlagArtificial | DIFlagObjectPointer)
!861 = !DISubprogram(name: "end", linkageName: "_ZN4llvm12DenseMapBaseINS_8DenseMapIPvcNS_12DenseMapInfoIS2_EEEES2_cS4_E3endEv", scope: !683, file: !679, line: 57, type: !686, scopeLine: 57, flags: DIFlagPublic | DIFlagPrototyped, spFlags: DISPFlagOptimized)
!862 = !DISubprogram(name: "begin", linkageName: "_ZNK4llvm12DenseMapBaseINS_8DenseMapIPvcNS_12DenseMapInfoIS2_EEEES2_cS4_E5beginEv", scope: !683, file: !679, line: 60, type: !863, scopeLine: 60, flags: DIFlagPublic | DIFlagPrototyped, spFlags: DISPFlagOptimized)
!863 = !DISubroutineType(types: !864)
!864 = !{!865, !866}
!865 = !DIDerivedType(tag: DW_TAG_typedef, name: "const_iterator", scope: !683, file: !679, line: 52, baseType: !785)
!866 = !DIDerivedType(tag: DW_TAG_pointer_type, baseType: !867, size: 64, flags: DIFlagArtificial | DIFlagObjectPointer)
!867 = !DIDerivedType(tag: DW_TAG_const_type, baseType: !683)
!868 = !DISubprogram(name: "end", linkageName: "_ZNK4llvm12DenseMapBaseINS_8DenseMapIPvcNS_12DenseMapInfoIS2_EEEES2_cS4_E3endEv", scope: !683, file: !679, line: 63, type: !863, scopeLine: 63, flags: DIFlagPublic | DIFlagPrototyped, spFlags: DISPFlagOptimized)
!869 = !DISubprogram(name: "empty", linkageName: "_ZNK4llvm12DenseMapBaseINS_8DenseMapIPvcNS_12DenseMapInfoIS2_EEEES2_cS4_E5emptyEv", scope: !683, file: !679, line: 67, type: !870, scopeLine: 67, flags: DIFlagPublic | DIFlagPrototyped, spFlags: DISPFlagOptimized)
!870 = !DISubroutineType(types: !871)
!871 = !{!102, !866}
!872 = !DISubprogram(name: "size", linkageName: "_ZNK4llvm12DenseMapBaseINS_8DenseMapIPvcNS_12DenseMapInfoIS2_EEEES2_cS4_E4sizeEv", scope: !683, file: !679, line: 70, type: !873, scopeLine: 70, flags: DIFlagPublic | DIFlagPrototyped, spFlags: DISPFlagOptimized)
!873 = !DISubroutineType(types: !874)
!874 = !{!19, !866}
!875 = !DISubprogram(name: "resize", linkageName: "_ZN4llvm12DenseMapBaseINS_8DenseMapIPvcNS_12DenseMapInfoIS2_EEEES2_cS4_E6resizeEm", scope: !683, file: !679, line: 73, type: !876, scopeLine: 73, flags: DIFlagPublic | DIFlagPrototyped, spFlags: DISPFlagOptimized)
!876 = !DISubroutineType(types: !877)
!877 = !{null, !860, !52}
!878 = !DISubprogram(name: "clear", linkageName: "_ZN4llvm12DenseMapBaseINS_8DenseMapIPvcNS_12DenseMapInfoIS2_EEEES2_cS4_E5clearEv", scope: !683, file: !679, line: 78, type: !879, scopeLine: 78, flags: DIFlagPublic | DIFlagPrototyped, spFlags: DISPFlagOptimized)
!879 = !DISubroutineType(types: !880)
!880 = !{null, !860}
!881 = !DISubprogram(name: "count", linkageName: "_ZNK4llvm12DenseMapBaseINS_8DenseMapIPvcNS_12DenseMapInfoIS2_EEEES2_cS4_E5countERKS2_", scope: !683, file: !679, line: 103, type: !882, scopeLine: 103, flags: DIFlagPublic | DIFlagPrototyped, spFlags: DISPFlagOptimized)
!882 = !DISubroutineType(types: !883)
!883 = !{!102, !866, !42}
!884 = !DISubprogram(name: "find", linkageName: "_ZN4llvm12DenseMapBaseINS_8DenseMapIPvcNS_12DenseMapInfoIS2_EEEES2_cS4_E4findERKS2_", scope: !683, file: !679, line: 108, type: !885, scopeLine: 108, flags: DIFlagPublic | DIFlagPrototyped, spFlags: DISPFlagOptimized)
!885 = !DISubroutineType(types: !886)
!886 = !{!688, !860, !42}
!887 = !DISubprogram(name: "find", linkageName: "_ZNK4llvm12DenseMapBaseINS_8DenseMapIPvcNS_12DenseMapInfoIS2_EEEES2_cS4_E4findERKS2_", scope: !683, file: !679, line: 114, type: !888, scopeLine: 114, flags: DIFlagPublic | DIFlagPrototyped, spFlags: DISPFlagOptimized)
!888 = !DISubroutineType(types: !889)
!889 = !{!865, !866, !42}
!890 = !DISubprogram(name: "lookup", linkageName: "_ZNK4llvm12DenseMapBaseINS_8DenseMapIPvcNS_12DenseMapInfoIS2_EEEES2_cS4_E6lookupERKS2_", scope: !683, file: !679, line: 143, type: !891, scopeLine: 143, flags: DIFlagPublic | DIFlagPrototyped, spFlags: DISPFlagOptimized)
!891 = !DISubroutineType(types: !892)
!892 = !{!58, !866, !42}
!893 = !DISubprogram(name: "insert", linkageName: "_ZN4llvm12DenseMapBaseINS_8DenseMapIPvcNS_12DenseMapInfoIS2_EEEES2_cS4_E6insertERKSt4pairIS2_cE", scope: !683, file: !679, line: 153, type: !894, scopeLine: 153, flags: DIFlagPublic | DIFlagPrototyped, spFlags: DISPFlagOptimized)
!894 = !DISubroutineType(types: !895)
!895 = !{!896, !860, !730}
!896 = distinct !DICompositeType(tag: DW_TAG_structure_type, name: "pair<llvm::DenseMapIterator<void *, char, llvm::DenseMapInfo<void *>, false>, bool>", scope: !86, file: !174, line: 208, size: 192, flags: DIFlagTypePassByReference | DIFlagNonTrivial, elements: !897, templateParams: !948, identifier: "_ZTSSt4pairIN4llvm16DenseMapIteratorIPvcNS0_12DenseMapInfoIS2_EELb0EEEbE")
!897 = !{!898, !918, !919, !920, !926, !930, !938, !945}
!898 = !DIDerivedType(tag: DW_TAG_inheritance, scope: !896, baseType: !899, flags: DIFlagPrivate, extraData: i32 0)
!899 = distinct !DICompositeType(tag: DW_TAG_class_type, name: "__pair_base<llvm::DenseMapIterator<void *, char, llvm::DenseMapInfo<void *>, false>, bool>", scope: !86, file: !174, line: 190, size: 8, flags: DIFlagTypePassByValue, elements: !900, templateParams: !915, identifier: "_ZTSSt11__pair_baseIN4llvm16DenseMapIteratorIPvcNS0_12DenseMapInfoIS2_EELb0EEEbE")
!900 = !{!901, !905, !906, !911}
!901 = !DISubprogram(name: "__pair_base", scope: !899, file: !174, line: 194, type: !902, scopeLine: 194, flags: DIFlagPrototyped, spFlags: DISPFlagOptimized)
!902 = !DISubroutineType(types: !903)
!903 = !{null, !904}
!904 = !DIDerivedType(tag: DW_TAG_pointer_type, baseType: !899, size: 64, flags: DIFlagArtificial | DIFlagObjectPointer)
!905 = !DISubprogram(name: "~__pair_base", scope: !899, file: !174, line: 195, type: !902, scopeLine: 195, flags: DIFlagPrototyped, spFlags: DISPFlagOptimized)
!906 = !DISubprogram(name: "__pair_base", scope: !899, file: !174, line: 196, type: !907, scopeLine: 196, flags: DIFlagPrototyped, spFlags: DISPFlagOptimized)
!907 = !DISubroutineType(types: !908)
!908 = !{null, !904, !909}
!909 = !DIDerivedType(tag: DW_TAG_reference_type, baseType: !910, size: 64)
!910 = !DIDerivedType(tag: DW_TAG_const_type, baseType: !899)
!911 = !DISubprogram(name: "operator=", linkageName: "_ZNSt11__pair_baseIN4llvm16DenseMapIteratorIPvcNS0_12DenseMapInfoIS2_EELb0EEEbEaSERKS6_", scope: !899, file: !174, line: 197, type: !912, scopeLine: 197, flags: DIFlagPrototyped, spFlags: DISPFlagOptimized | DISPFlagDeleted)
!912 = !DISubroutineType(types: !913)
!913 = !{!914, !904, !909}
!914 = !DIDerivedType(tag: DW_TAG_reference_type, baseType: !899, size: 64)
!915 = !{!916, !917}
!916 = !DITemplateTypeParameter(name: "_U1", type: !689)
!917 = !DITemplateTypeParameter(name: "_U2", type: !102)
!918 = !DIDerivedType(tag: DW_TAG_member, name: "first", scope: !896, file: !174, line: 214, baseType: !689, size: 128)
!919 = !DIDerivedType(tag: DW_TAG_member, name: "second", scope: !896, file: !174, line: 215, baseType: !102, size: 8, offset: 128)
!920 = !DISubprogram(name: "pair", scope: !896, file: !174, line: 303, type: !921, scopeLine: 303, flags: DIFlagPrototyped, spFlags: DISPFlagOptimized)
!921 = !DISubroutineType(types: !922)
!922 = !{null, !923, !924}
!923 = !DIDerivedType(tag: DW_TAG_pointer_type, baseType: !896, size: 64, flags: DIFlagArtificial | DIFlagObjectPointer)
!924 = !DIDerivedType(tag: DW_TAG_reference_type, baseType: !925, size: 64)
!925 = !DIDerivedType(tag: DW_TAG_const_type, baseType: !896)
!926 = !DISubprogram(name: "pair", scope: !896, file: !174, line: 304, type: !927, scopeLine: 304, flags: DIFlagPrototyped, spFlags: DISPFlagOptimized)
!927 = !DISubroutineType(types: !928)
!928 = !{null, !923, !929}
!929 = !DIDerivedType(tag: DW_TAG_rvalue_reference_type, baseType: !896, size: 64)
!930 = !DISubprogram(name: "operator=", linkageName: "_ZNSt4pairIN4llvm16DenseMapIteratorIPvcNS0_12DenseMapInfoIS2_EELb0EEEbEaSERKS6_", scope: !896, file: !174, line: 378, type: !931, scopeLine: 378, flags: DIFlagPrototyped, spFlags: DISPFlagOptimized)
!931 = !DISubroutineType(types: !932)
!932 = !{!933, !923, !934}
!933 = !DIDerivedType(tag: DW_TAG_reference_type, baseType: !896, size: 64)
!934 = !DIDerivedType(tag: DW_TAG_typedef, name: "type", scope: !935, file: !213, line: 2166, baseType: !924)
!935 = distinct !DICompositeType(tag: DW_TAG_structure_type, name: "conditional<true, const std::pair<llvm::DenseMapIterator<void *, char, llvm::DenseMapInfo<void *>, false>, bool> &, const std::__nonesuch_no_braces &>", scope: !86, file: !213, line: 2165, size: 8, flags: DIFlagTypePassByValue, elements: !9, templateParams: !936, identifier: "_ZTSSt11conditionalILb1ERKSt4pairIN4llvm16DenseMapIteratorIPvcNS1_12DenseMapInfoIS3_EELb0EEEbERKSt20__nonesuch_no_bracesE")
!936 = !{!216, !937, !218}
!937 = !DITemplateTypeParameter(name: "_Iftrue", type: !924)
!938 = !DISubprogram(name: "operator=", linkageName: "_ZNSt4pairIN4llvm16DenseMapIteratorIPvcNS0_12DenseMapInfoIS2_EELb0EEEbEaSEOS6_", scope: !896, file: !174, line: 389, type: !939, scopeLine: 389, flags: DIFlagPrototyped, spFlags: DISPFlagOptimized)
!939 = !DISubroutineType(types: !940)
!940 = !{!933, !923, !941}
!941 = !DIDerivedType(tag: DW_TAG_typedef, name: "type", scope: !942, file: !213, line: 2166, baseType: !929)
!942 = distinct !DICompositeType(tag: DW_TAG_structure_type, name: "conditional<true, std::pair<llvm::DenseMapIterator<void *, char, llvm::DenseMapInfo<void *>, false>, bool> &&, std::__nonesuch_no_braces &&>", scope: !86, file: !213, line: 2165, size: 8, flags: DIFlagTypePassByValue, elements: !9, templateParams: !943, identifier: "_ZTSSt11conditionalILb1EOSt4pairIN4llvm16DenseMapIteratorIPvcNS1_12DenseMapInfoIS3_EELb0EEEbEOSt20__nonesuch_no_bracesE")
!943 = !{!216, !944, !229}
!944 = !DITemplateTypeParameter(name: "_Iftrue", type: !929)
!945 = !DISubprogram(name: "swap", linkageName: "_ZNSt4pairIN4llvm16DenseMapIteratorIPvcNS0_12DenseMapInfoIS2_EELb0EEEbE4swapERS6_", scope: !896, file: !174, line: 424, type: !946, scopeLine: 424, flags: DIFlagPrototyped, spFlags: DISPFlagOptimized)
!946 = !DISubroutineType(types: !947)
!947 = !{null, !923, !933}
!948 = !{!949, !950}
!949 = !DITemplateTypeParameter(name: "_T1", type: !689)
!950 = !DITemplateTypeParameter(name: "_T2", type: !102)
!951 = !DISubprogram(name: "insert", linkageName: "_ZN4llvm12DenseMapBaseINS_8DenseMapIPvcNS_12DenseMapInfoIS2_EEEES2_cS4_E6insertEOSt4pairIS2_cE", scope: !683, file: !679, line: 168, type: !952, scopeLine: 168, flags: DIFlagPublic | DIFlagPrototyped, spFlags: DISPFlagOptimized)
!952 = !DISubroutineType(types: !953)
!953 = !{!896, !860, !734}
!954 = !DISubprogram(name: "erase", linkageName: "_ZN4llvm12DenseMapBaseINS_8DenseMapIPvcNS_12DenseMapInfoIS2_EEEES2_cS4_E5eraseERKS2_", scope: !683, file: !679, line: 190, type: !955, scopeLine: 190, flags: DIFlagPublic | DIFlagPrototyped, spFlags: DISPFlagOptimized)
!955 = !DISubroutineType(types: !956)
!956 = !{!102, !860, !42}
!957 = !DISubprogram(name: "erase", linkageName: "_ZN4llvm12DenseMapBaseINS_8DenseMapIPvcNS_12DenseMapInfoIS2_EEEES2_cS4_E5eraseENS_16DenseMapIteratorIS2_cS4_Lb0EEE", scope: !683, file: !679, line: 201, type: !958, scopeLine: 201, flags: DIFlagPublic | DIFlagPrototyped, spFlags: DISPFlagOptimized)
!958 = !DISubroutineType(types: !959)
!959 = !{null, !860, !688}
!960 = !DISubprogram(name: "FindAndConstruct", linkageName: "_ZN4llvm12DenseMapBaseINS_8DenseMapIPvcNS_12DenseMapInfoIS2_EEEES2_cS4_E16FindAndConstructERKS2_", scope: !683, file: !679, line: 209, type: !961, scopeLine: 209, flags: DIFlagPublic | DIFlagPrototyped, spFlags: DISPFlagOptimized)
!961 = !DISubroutineType(types: !962)
!962 = !{!963, !860, !42}
!963 = !DIDerivedType(tag: DW_TAG_reference_type, baseType: !964, size: 64)
!964 = !DIDerivedType(tag: DW_TAG_typedef, name: "value_type", scope: !683, file: !679, line: 48, baseType: !965)
!965 = !DIDerivedType(tag: DW_TAG_typedef, name: "BucketT", scope: !683, file: !679, line: 43, baseType: !702)
!966 = !DISubprogram(name: "operator[]", linkageName: "_ZN4llvm12DenseMapBaseINS_8DenseMapIPvcNS_12DenseMapInfoIS2_EEEES2_cS4_EixERKS2_", scope: !683, file: !679, line: 217, type: !967, scopeLine: 217, flags: DIFlagPublic | DIFlagPrototyped, spFlags: DISPFlagOptimized)
!967 = !DISubroutineType(types: !968)
!968 = !{!969, !860, !42}
!969 = !DIDerivedType(tag: DW_TAG_reference_type, baseType: !58, size: 64)
!970 = !DISubprogram(name: "FindAndConstruct", linkageName: "_ZN4llvm12DenseMapBaseINS_8DenseMapIPvcNS_12DenseMapInfoIS2_EEEES2_cS4_E16FindAndConstructEOS2_", scope: !683, file: !679, line: 222, type: !971, scopeLine: 222, flags: DIFlagPublic | DIFlagPrototyped, spFlags: DISPFlagOptimized)
!971 = !DISubroutineType(types: !972)
!972 = !{!963, !860, !973}
!973 = !DIDerivedType(tag: DW_TAG_rvalue_reference_type, baseType: !30, size: 64)
!974 = !DISubprogram(name: "operator[]", linkageName: "_ZN4llvm12DenseMapBaseINS_8DenseMapIPvcNS_12DenseMapInfoIS2_EEEES2_cS4_EixEOS2_", scope: !683, file: !679, line: 230, type: !975, scopeLine: 230, flags: DIFlagPublic | DIFlagPrototyped, spFlags: DISPFlagOptimized)
!975 = !DISubroutineType(types: !976)
!976 = !{!969, !860, !973}
!977 = !DISubprogram(name: "isPointerIntoBucketsArray", linkageName: "_ZNK4llvm12DenseMapBaseINS_8DenseMapIPvcNS_12DenseMapInfoIS2_EEEES2_cS4_E25isPointerIntoBucketsArrayEPKv", scope: !683, file: !679, line: 238, type: !978, scopeLine: 238, flags: DIFlagPublic | DIFlagPrototyped, spFlags: DISPFlagOptimized)
!978 = !DISubroutineType(types: !979)
!979 = !{!102, !866, !471}
!980 = !DISubprogram(name: "getPointerIntoBucketsArray", linkageName: "_ZNK4llvm12DenseMapBaseINS_8DenseMapIPvcNS_12DenseMapInfoIS2_EEEES2_cS4_E26getPointerIntoBucketsArrayEv", scope: !683, file: !679, line: 245, type: !981, scopeLine: 245, flags: DIFlagPublic | DIFlagPrototyped, spFlags: DISPFlagOptimized)
!981 = !DISubroutineType(types: !982)
!982 = !{!471, !866}
!983 = !DISubprogram(name: "DenseMapBase", scope: !683, file: !679, line: 248, type: !879, scopeLine: 248, flags: DIFlagProtected | DIFlagPrototyped, spFlags: DISPFlagOptimized)
!984 = !DISubprogram(name: "destroyAll", linkageName: "_ZN4llvm12DenseMapBaseINS_8DenseMapIPvcNS_12DenseMapInfoIS2_EEEES2_cS4_E10destroyAllEv", scope: !683, file: !679, line: 250, type: !879, scopeLine: 250, flags: DIFlagProtected | DIFlagPrototyped, spFlags: DISPFlagOptimized)
!985 = !DISubprogram(name: "initEmpty", linkageName: "_ZN4llvm12DenseMapBaseINS_8DenseMapIPvcNS_12DenseMapInfoIS2_EEEES2_cS4_E9initEmptyEv", scope: !683, file: !679, line: 267, type: !879, scopeLine: 267, flags: DIFlagProtected | DIFlagPrototyped, spFlags: DISPFlagOptimized)
!986 = !DISubprogram(name: "moveFromOldBuckets", linkageName: "_ZN4llvm12DenseMapBaseINS_8DenseMapIPvcNS_12DenseMapInfoIS2_EEEES2_cS4_E18moveFromOldBucketsEPSt4pairIS2_cES9_", scope: !683, file: !679, line: 278, type: !987, scopeLine: 278, flags: DIFlagProtected | DIFlagPrototyped, spFlags: DISPFlagOptimized)
!987 = !DISubroutineType(types: !988)
!988 = !{null, !860, !989, !989}
!989 = !DIDerivedType(tag: DW_TAG_pointer_type, baseType: !965, size: 64)
!990 = !DISubprogram(name: "swap", linkageName: "_ZN4llvm12DenseMapBaseINS_8DenseMapIPvcNS_12DenseMapInfoIS2_EEEES2_cS4_E4swapERS6_", scope: !683, file: !679, line: 328, type: !991, scopeLine: 328, flags: DIFlagProtected | DIFlagPrototyped, spFlags: DISPFlagOptimized)
!991 = !DISubroutineType(types: !992)
!992 = !{null, !860, !993}
!993 = !DIDerivedType(tag: DW_TAG_reference_type, baseType: !683, size: 64)
!994 = !DISubprogram(name: "getHashValue", linkageName: "_ZN4llvm12DenseMapBaseINS_8DenseMapIPvcNS_12DenseMapInfoIS2_EEEES2_cS4_E12getHashValueERKS2_", scope: !683, file: !679, line: 333, type: !995, scopeLine: 333, flags: DIFlagProtected | DIFlagPrototyped | DIFlagStaticMember, spFlags: DISPFlagOptimized)
!995 = !DISubroutineType(types: !996)
!996 = !{!19, !42}
!997 = !DISubprogram(name: "getEmptyKey", linkageName: "_ZN4llvm12DenseMapBaseINS_8DenseMapIPvcNS_12DenseMapInfoIS2_EEEES2_cS4_E11getEmptyKeyEv", scope: !683, file: !679, line: 340, type: !998, scopeLine: 340, flags: DIFlagProtected | DIFlagPrototyped | DIFlagStaticMember, spFlags: DISPFlagOptimized)
!998 = !DISubroutineType(types: !999)
!999 = !{!43}
!1000 = !DISubprogram(name: "getTombstoneKey", linkageName: "_ZN4llvm12DenseMapBaseINS_8DenseMapIPvcNS_12DenseMapInfoIS2_EEEES2_cS4_E15getTombstoneKeyEv", scope: !683, file: !679, line: 343, type: !998, scopeLine: 343, flags: DIFlagProtected | DIFlagPrototyped | DIFlagStaticMember, spFlags: DISPFlagOptimized)
!1001 = !DISubprogram(name: "getNumEntries", linkageName: "_ZNK4llvm12DenseMapBaseINS_8DenseMapIPvcNS_12DenseMapInfoIS2_EEEES2_cS4_E13getNumEntriesEv", scope: !683, file: !679, line: 348, type: !873, scopeLine: 348, flags: DIFlagPrototyped, spFlags: DISPFlagOptimized)
!1002 = !DISubprogram(name: "setNumEntries", linkageName: "_ZN4llvm12DenseMapBaseINS_8DenseMapIPvcNS_12DenseMapInfoIS2_EEEES2_cS4_E13setNumEntriesEj", scope: !683, file: !679, line: 351, type: !1003, scopeLine: 351, flags: DIFlagPrototyped, spFlags: DISPFlagOptimized)
!1003 = !DISubroutineType(types: !1004)
!1004 = !{null, !860, !19}
!1005 = !DISubprogram(name: "incrementNumEntries", linkageName: "_ZN4llvm12DenseMapBaseINS_8DenseMapIPvcNS_12DenseMapInfoIS2_EEEES2_cS4_E19incrementNumEntriesEv", scope: !683, file: !679, line: 354, type: !879, scopeLine: 354, flags: DIFlagPrototyped, spFlags: DISPFlagOptimized)
!1006 = !DISubprogram(name: "decrementNumEntries", linkageName: "_ZN4llvm12DenseMapBaseINS_8DenseMapIPvcNS_12DenseMapInfoIS2_EEEES2_cS4_E19decrementNumEntriesEv", scope: !683, file: !679, line: 357, type: !879, scopeLine: 357, flags: DIFlagPrototyped, spFlags: DISPFlagOptimized)
!1007 = !DISubprogram(name: "getNumTombstones", linkageName: "_ZNK4llvm12DenseMapBaseINS_8DenseMapIPvcNS_12DenseMapInfoIS2_EEEES2_cS4_E16getNumTombstonesEv", scope: !683, file: !679, line: 360, type: !873, scopeLine: 360, flags: DIFlagPrototyped, spFlags: DISPFlagOptimized)
!1008 = !DISubprogram(name: "setNumTombstones", linkageName: "_ZN4llvm12DenseMapBaseINS_8DenseMapIPvcNS_12DenseMapInfoIS2_EEEES2_cS4_E16setNumTombstonesEj", scope: !683, file: !679, line: 363, type: !1003, scopeLine: 363, flags: DIFlagPrototyped, spFlags: DISPFlagOptimized)
!1009 = !DISubprogram(name: "incrementNumTombstones", linkageName: "_ZN4llvm12DenseMapBaseINS_8DenseMapIPvcNS_12DenseMapInfoIS2_EEEES2_cS4_E22incrementNumTombstonesEv", scope: !683, file: !679, line: 366, type: !879, scopeLine: 366, flags: DIFlagPrototyped, spFlags: DISPFlagOptimized)
!1010 = !DISubprogram(name: "decrementNumTombstones", linkageName: "_ZN4llvm12DenseMapBaseINS_8DenseMapIPvcNS_12DenseMapInfoIS2_EEEES2_cS4_E22decrementNumTombstonesEv", scope: !683, file: !679, line: 369, type: !879, scopeLine: 369, flags: DIFlagPrototyped, spFlags: DISPFlagOptimized)
!1011 = !DISubprogram(name: "getBuckets", linkageName: "_ZNK4llvm12DenseMapBaseINS_8DenseMapIPvcNS_12DenseMapInfoIS2_EEEES2_cS4_E10getBucketsEv", scope: !683, file: !679, line: 372, type: !1012, scopeLine: 372, flags: DIFlagPrototyped, spFlags: DISPFlagOptimized)
!1012 = !DISubroutineType(types: !1013)
!1013 = !{!1014, !866}
!1014 = !DIDerivedType(tag: DW_TAG_pointer_type, baseType: !1015, size: 64)
!1015 = !DIDerivedType(tag: DW_TAG_const_type, baseType: !965)
!1016 = !DISubprogram(name: "getBuckets", linkageName: "_ZN4llvm12DenseMapBaseINS_8DenseMapIPvcNS_12DenseMapInfoIS2_EEEES2_cS4_E10getBucketsEv", scope: !683, file: !679, line: 375, type: !1017, scopeLine: 375, flags: DIFlagPrototyped, spFlags: DISPFlagOptimized)
!1017 = !DISubroutineType(types: !1018)
!1018 = !{!989, !860}
!1019 = !DISubprogram(name: "getNumBuckets", linkageName: "_ZNK4llvm12DenseMapBaseINS_8DenseMapIPvcNS_12DenseMapInfoIS2_EEEES2_cS4_E13getNumBucketsEv", scope: !683, file: !679, line: 378, type: !873, scopeLine: 378, flags: DIFlagPrototyped, spFlags: DISPFlagOptimized)
!1020 = !DISubprogram(name: "getBucketsEnd", linkageName: "_ZN4llvm12DenseMapBaseINS_8DenseMapIPvcNS_12DenseMapInfoIS2_EEEES2_cS4_E13getBucketsEndEv", scope: !683, file: !679, line: 381, type: !1017, scopeLine: 381, flags: DIFlagPrototyped, spFlags: DISPFlagOptimized)
!1021 = !DISubprogram(name: "getBucketsEnd", linkageName: "_ZNK4llvm12DenseMapBaseINS_8DenseMapIPvcNS_12DenseMapInfoIS2_EEEES2_cS4_E13getBucketsEndEv", scope: !683, file: !679, line: 384, type: !1012, scopeLine: 384, flags: DIFlagPrototyped, spFlags: DISPFlagOptimized)
!1022 = !DISubprogram(name: "grow", linkageName: "_ZN4llvm12DenseMapBaseINS_8DenseMapIPvcNS_12DenseMapInfoIS2_EEEES2_cS4_E4growEj", scope: !683, file: !679, line: 388, type: !1003, scopeLine: 388, flags: DIFlagPrototyped, spFlags: DISPFlagOptimized)
!1023 = !DISubprogram(name: "shrink_and_clear", linkageName: "_ZN4llvm12DenseMapBaseINS_8DenseMapIPvcNS_12DenseMapInfoIS2_EEEES2_cS4_E16shrink_and_clearEv", scope: !683, file: !679, line: 392, type: !879, scopeLine: 392, flags: DIFlagPrototyped, spFlags: DISPFlagOptimized)
!1024 = !DISubprogram(name: "InsertIntoBucket", linkageName: "_ZN4llvm12DenseMapBaseINS_8DenseMapIPvcNS_12DenseMapInfoIS2_EEEES2_cS4_E16InsertIntoBucketERKS2_RKcPSt4pairIS2_cE", scope: !683, file: !679, line: 397, type: !1025, scopeLine: 397, flags: DIFlagPrototyped, spFlags: DISPFlagOptimized)
!1025 = !DISubroutineType(types: !1026)
!1026 = !{!989, !860, !42, !1027, !989}
!1027 = !DIDerivedType(tag: DW_TAG_reference_type, baseType: !57, size: 64)
!1028 = !DISubprogram(name: "InsertIntoBucket", linkageName: "_ZN4llvm12DenseMapBaseINS_8DenseMapIPvcNS_12DenseMapInfoIS2_EEEES2_cS4_E16InsertIntoBucketERKS2_OcPSt4pairIS2_cE", scope: !683, file: !679, line: 407, type: !1029, scopeLine: 407, flags: DIFlagPrototyped, spFlags: DISPFlagOptimized)
!1029 = !DISubroutineType(types: !1030)
!1030 = !{!989, !860, !42, !1031, !989}
!1031 = !DIDerivedType(tag: DW_TAG_rvalue_reference_type, baseType: !58, size: 64)
!1032 = !DISubprogram(name: "InsertIntoBucket", linkageName: "_ZN4llvm12DenseMapBaseINS_8DenseMapIPvcNS_12DenseMapInfoIS2_EEEES2_cS4_E16InsertIntoBucketEOS2_OcPSt4pairIS2_cE", scope: !683, file: !679, line: 416, type: !1033, scopeLine: 416, flags: DIFlagPrototyped, spFlags: DISPFlagOptimized)
!1033 = !DISubroutineType(types: !1034)
!1034 = !{!989, !860, !973, !1031, !989}
!1035 = !DISubprogram(name: "InsertIntoBucketImpl", linkageName: "_ZN4llvm12DenseMapBaseINS_8DenseMapIPvcNS_12DenseMapInfoIS2_EEEES2_cS4_E20InsertIntoBucketImplERKS2_PSt4pairIS2_cE", scope: !683, file: !679, line: 425, type: !1036, scopeLine: 425, flags: DIFlagPrototyped, spFlags: DISPFlagOptimized)
!1036 = !DISubroutineType(types: !1037)
!1037 = !{!989, !860, !42, !989}
!1038 = !DISubprogram(name: "getMemorySize", linkageName: "_ZNK4llvm12DenseMapBaseINS_8DenseMapIPvcNS_12DenseMapInfoIS2_EEEES2_cS4_E13getMemorySizeEv", scope: !683, file: !679, line: 527, type: !1039, scopeLine: 527, flags: DIFlagPublic | DIFlagPrototyped, spFlags: DISPFlagOptimized)
!1039 = !DISubroutineType(types: !1040)
!1040 = !{!52, !866}
!1041 = !{!1042, !832, !833, !834}
!1042 = !DITemplateTypeParameter(name: "DerivedT", type: !680)
!1043 = !DIDerivedType(tag: DW_TAG_member, name: "Buckets", scope: !680, file: !679, line: 543, baseType: !677, size: 64)
!1044 = !DIDerivedType(tag: DW_TAG_member, name: "NumEntries", scope: !680, file: !679, line: 544, baseType: !19, size: 32, offset: 64)
!1045 = !DIDerivedType(tag: DW_TAG_member, name: "NumTombstones", scope: !680, file: !679, line: 545, baseType: !19, size: 32, offset: 96)
!1046 = !DIDerivedType(tag: DW_TAG_member, name: "NumBuckets", scope: !680, file: !679, line: 546, baseType: !19, size: 32, offset: 128)
!1047 = !DISubprogram(name: "DenseMap", scope: !680, file: !679, line: 549, type: !1048, scopeLine: 549, flags: DIFlagPublic | DIFlagExplicit | DIFlagPrototyped, spFlags: DISPFlagOptimized)
!1048 = !DISubroutineType(types: !1049)
!1049 = !{null, !1050, !19}
!1050 = !DIDerivedType(tag: DW_TAG_pointer_type, baseType: !680, size: 64, flags: DIFlagArtificial | DIFlagObjectPointer)
!1051 = !DISubprogram(name: "DenseMap", scope: !680, file: !679, line: 553, type: !1052, scopeLine: 553, flags: DIFlagPublic | DIFlagPrototyped, spFlags: DISPFlagOptimized)
!1052 = !DISubroutineType(types: !1053)
!1053 = !{null, !1050, !1054}
!1054 = !DIDerivedType(tag: DW_TAG_reference_type, baseType: !1055, size: 64)
!1055 = !DIDerivedType(tag: DW_TAG_const_type, baseType: !680)
!1056 = !DISubprogram(name: "DenseMap", scope: !680, file: !679, line: 559, type: !1057, scopeLine: 559, flags: DIFlagPublic | DIFlagPrototyped, spFlags: DISPFlagOptimized)
!1057 = !DISubroutineType(types: !1058)
!1058 = !{null, !1050, !1059}
!1059 = !DIDerivedType(tag: DW_TAG_rvalue_reference_type, baseType: !680, size: 64)
!1060 = !DISubprogram(name: "~DenseMap", scope: !680, file: !679, line: 571, type: !1061, scopeLine: 571, flags: DIFlagPublic | DIFlagPrototyped, spFlags: DISPFlagOptimized)
!1061 = !DISubroutineType(types: !1062)
!1062 = !{null, !1050}
!1063 = !DISubprogram(name: "swap", linkageName: "_ZN4llvm8DenseMapIPvcNS_12DenseMapInfoIS1_EEE4swapERS4_", scope: !680, file: !679, line: 576, type: !1064, scopeLine: 576, flags: DIFlagPublic | DIFlagPrototyped, spFlags: DISPFlagOptimized)
!1064 = !DISubroutineType(types: !1065)
!1065 = !{null, !1050, !1066}
!1066 = !DIDerivedType(tag: DW_TAG_reference_type, baseType: !680, size: 64)
!1067 = !DISubprogram(name: "operator=", linkageName: "_ZN4llvm8DenseMapIPvcNS_12DenseMapInfoIS1_EEEaSERKS4_", scope: !680, file: !679, line: 583, type: !1068, scopeLine: 583, flags: DIFlagPublic | DIFlagPrototyped, spFlags: DISPFlagOptimized)
!1068 = !DISubroutineType(types: !1069)
!1069 = !{!1066, !1050, !1054}
!1070 = !DISubprogram(name: "operator=", linkageName: "_ZN4llvm8DenseMapIPvcNS_12DenseMapInfoIS1_EEEaSEOS4_", scope: !680, file: !679, line: 589, type: !1071, scopeLine: 589, flags: DIFlagPublic | DIFlagPrototyped, spFlags: DISPFlagOptimized)
!1071 = !DISubroutineType(types: !1072)
!1072 = !{!1066, !1050, !1059}
!1073 = !DISubprogram(name: "copyFrom", linkageName: "_ZN4llvm8DenseMapIPvcNS_12DenseMapInfoIS1_EEE8copyFromERKS4_", scope: !680, file: !679, line: 598, type: !1052, scopeLine: 598, flags: DIFlagPublic | DIFlagPrototyped, spFlags: DISPFlagOptimized)
!1074 = !DISubprogram(name: "init", linkageName: "_ZN4llvm8DenseMapIPvcNS_12DenseMapInfoIS1_EEE4initEj", scope: !680, file: !679, line: 609, type: !1048, scopeLine: 609, flags: DIFlagPublic | DIFlagPrototyped, spFlags: DISPFlagOptimized)
!1075 = !DISubprogram(name: "grow", linkageName: "_ZN4llvm8DenseMapIPvcNS_12DenseMapInfoIS1_EEE4growEj", scope: !680, file: !679, line: 618, type: !1048, scopeLine: 618, flags: DIFlagPublic | DIFlagPrototyped, spFlags: DISPFlagOptimized)
!1076 = !DISubprogram(name: "shrink_and_clear", linkageName: "_ZN4llvm8DenseMapIPvcNS_12DenseMapInfoIS1_EEE16shrink_and_clearEv", scope: !680, file: !679, line: 635, type: !1061, scopeLine: 635, flags: DIFlagPublic | DIFlagPrototyped, spFlags: DISPFlagOptimized)
!1077 = !DISubprogram(name: "getNumEntries", linkageName: "_ZNK4llvm8DenseMapIPvcNS_12DenseMapInfoIS1_EEE13getNumEntriesEv", scope: !680, file: !679, line: 653, type: !1078, scopeLine: 653, flags: DIFlagPrototyped, spFlags: DISPFlagOptimized)
!1078 = !DISubroutineType(types: !1079)
!1079 = !{!19, !1080}
!1080 = !DIDerivedType(tag: DW_TAG_pointer_type, baseType: !1055, size: 64, flags: DIFlagArtificial | DIFlagObjectPointer)
!1081 = !DISubprogram(name: "setNumEntries", linkageName: "_ZN4llvm8DenseMapIPvcNS_12DenseMapInfoIS1_EEE13setNumEntriesEj", scope: !680, file: !679, line: 656, type: !1048, scopeLine: 656, flags: DIFlagPrototyped, spFlags: DISPFlagOptimized)
!1082 = !DISubprogram(name: "getNumTombstones", linkageName: "_ZNK4llvm8DenseMapIPvcNS_12DenseMapInfoIS1_EEE16getNumTombstonesEv", scope: !680, file: !679, line: 660, type: !1078, scopeLine: 660, flags: DIFlagPrototyped, spFlags: DISPFlagOptimized)
!1083 = !DISubprogram(name: "setNumTombstones", linkageName: "_ZN4llvm8DenseMapIPvcNS_12DenseMapInfoIS1_EEE16setNumTombstonesEj", scope: !680, file: !679, line: 663, type: !1048, scopeLine: 663, flags: DIFlagPrototyped, spFlags: DISPFlagOptimized)
!1084 = !DISubprogram(name: "getBuckets", linkageName: "_ZNK4llvm8DenseMapIPvcNS_12DenseMapInfoIS1_EEE10getBucketsEv", scope: !680, file: !679, line: 667, type: !1085, scopeLine: 667, flags: DIFlagPrototyped, spFlags: DISPFlagOptimized)
!1085 = !DISubroutineType(types: !1086)
!1086 = !{!677, !1080}
!1087 = !DISubprogram(name: "getNumBuckets", linkageName: "_ZNK4llvm8DenseMapIPvcNS_12DenseMapInfoIS1_EEE13getNumBucketsEv", scope: !680, file: !679, line: 671, type: !1078, scopeLine: 671, flags: DIFlagPrototyped, spFlags: DISPFlagOptimized)
!1088 = !DISubprogram(name: "allocateBuckets", linkageName: "_ZN4llvm8DenseMapIPvcNS_12DenseMapInfoIS1_EEE15allocateBucketsEj", scope: !680, file: !679, line: 675, type: !1089, scopeLine: 675, flags: DIFlagPrototyped, spFlags: DISPFlagOptimized)
!1089 = !DISubroutineType(types: !1090)
!1090 = !{!102, !1050, !19}
!1091 = !{!832, !833, !834}
!1092 = !DISubprogram(name: "operator new", linkageName: "_Znwm", scope: !1093, file: !1093, line: 120, type: !1094, flags: DIFlagPrototyped, spFlags: DISPFlagOptimized, retainedNodes: !9)
!1093 = !DIFile(filename: "/usr/lib/gcc/x86_64-linux-gnu/7.5.0/../../../../include/c++/7.5.0/new", directory: "")
!1094 = !DISubroutineType(types: !1095)
!1095 = !{!30, !54}
!1096 = !DIDerivedType(tag: DW_TAG_pointer_type, baseType: !680, size: 64)
!1097 = !DIDerivedType(tag: DW_TAG_typedef, name: "uintptr_t", file: !1098, line: 100, baseType: !54)
!1098 = !DIFile(filename: "/usr/include/stdint.h", directory: "")
!1099 = !DIDerivedType(tag: DW_TAG_pointer_type, baseType: !1055, size: 64)
!1100 = !DIDerivedType(tag: DW_TAG_pointer_type, baseType: !867, size: 64)
!1101 = !DISubprogram(name: "operator delete", linkageName: "_ZdlPv", scope: !1093, file: !1093, line: 124, type: !621, flags: DIFlagPrototyped, spFlags: DISPFlagOptimized, retainedNodes: !9)
!1102 = distinct !DICompositeType(tag: DW_TAG_class_type, name: "Iterator", scope: !1104, file: !1103, line: 64, size: 128, flags: DIFlagTypePassByReference | DIFlagNonTrivial, elements: !1224, identifier: "_ZTSN4llvm8DenseSetIPvNS_12DenseMapInfoIS1_EEE8IteratorE")
!1103 = !DIFile(filename: "/faster/fs/llvm34/include/llvm/ADT/DenseSet.h", directory: "")
!1104 = distinct !DICompositeType(tag: DW_TAG_class_type, name: "DenseSet<void *, llvm::DenseMapInfo<void *> >", scope: !8, file: !1103, line: 26, size: 192, flags: DIFlagTypePassByReference | DIFlagNonTrivial, elements: !1105, templateParams: !1222, identifier: "_ZTSN4llvm8DenseSetIPvNS_12DenseMapInfoIS1_EEEE")
!1105 = !{!1106, !1108, !1114, !1117, !1121, !1124, !1127, !1130, !1133, !1136, !1139, !1143, !1146, !1150, !1151, !1156, !1157, !1160, !1163, !1166}
!1106 = !DIDerivedType(tag: DW_TAG_member, name: "TheMap", scope: !1104, file: !1103, line: 28, baseType: !1107, size: 192)
!1107 = !DIDerivedType(tag: DW_TAG_typedef, name: "MapTy", scope: !1104, file: !1103, line: 27, baseType: !680)
!1108 = !DISubprogram(name: "DenseSet", scope: !1104, file: !1103, line: 30, type: !1109, scopeLine: 30, flags: DIFlagPublic | DIFlagPrototyped, spFlags: DISPFlagOptimized)
!1109 = !DISubroutineType(types: !1110)
!1110 = !{null, !1111, !1112}
!1111 = !DIDerivedType(tag: DW_TAG_pointer_type, baseType: !1104, size: 64, flags: DIFlagArtificial | DIFlagObjectPointer)
!1112 = !DIDerivedType(tag: DW_TAG_reference_type, baseType: !1113, size: 64)
!1113 = !DIDerivedType(tag: DW_TAG_const_type, baseType: !1104)
!1114 = !DISubprogram(name: "DenseSet", scope: !1104, file: !1103, line: 31, type: !1115, scopeLine: 31, flags: DIFlagPublic | DIFlagExplicit | DIFlagPrototyped, spFlags: DISPFlagOptimized)
!1115 = !DISubroutineType(types: !1116)
!1116 = !{null, !1111, !19}
!1117 = !DISubprogram(name: "empty", linkageName: "_ZNK4llvm8DenseSetIPvNS_12DenseMapInfoIS1_EEE5emptyEv", scope: !1104, file: !1103, line: 33, type: !1118, scopeLine: 33, flags: DIFlagPublic | DIFlagPrototyped, spFlags: DISPFlagOptimized)
!1118 = !DISubroutineType(types: !1119)
!1119 = !{!102, !1120}
!1120 = !DIDerivedType(tag: DW_TAG_pointer_type, baseType: !1113, size: 64, flags: DIFlagArtificial | DIFlagObjectPointer)
!1121 = !DISubprogram(name: "size", linkageName: "_ZNK4llvm8DenseSetIPvNS_12DenseMapInfoIS1_EEE4sizeEv", scope: !1104, file: !1103, line: 34, type: !1122, scopeLine: 34, flags: DIFlagPublic | DIFlagPrototyped, spFlags: DISPFlagOptimized)
!1122 = !DISubroutineType(types: !1123)
!1123 = !{!19, !1120}
!1124 = !DISubprogram(name: "getMemorySize", linkageName: "_ZNK4llvm8DenseSetIPvNS_12DenseMapInfoIS1_EEE13getMemorySizeEv", scope: !1104, file: !1103, line: 35, type: !1125, scopeLine: 35, flags: DIFlagPublic | DIFlagPrototyped, spFlags: DISPFlagOptimized)
!1125 = !DISubroutineType(types: !1126)
!1126 = !{!52, !1120}
!1127 = !DISubprogram(name: "resize", linkageName: "_ZN4llvm8DenseSetIPvNS_12DenseMapInfoIS1_EEE6resizeEm", scope: !1104, file: !1103, line: 39, type: !1128, scopeLine: 39, flags: DIFlagPublic | DIFlagPrototyped, spFlags: DISPFlagOptimized)
!1128 = !DISubroutineType(types: !1129)
!1129 = !{null, !1111, !52}
!1130 = !DISubprogram(name: "clear", linkageName: "_ZN4llvm8DenseSetIPvNS_12DenseMapInfoIS1_EEE5clearEv", scope: !1104, file: !1103, line: 41, type: !1131, scopeLine: 41, flags: DIFlagPublic | DIFlagPrototyped, spFlags: DISPFlagOptimized)
!1131 = !DISubroutineType(types: !1132)
!1132 = !{null, !1111}
!1133 = !DISubprogram(name: "count", linkageName: "_ZNK4llvm8DenseSetIPvNS_12DenseMapInfoIS1_EEE5countERKS1_", scope: !1104, file: !1103, line: 45, type: !1134, scopeLine: 45, flags: DIFlagPublic | DIFlagPrototyped, spFlags: DISPFlagOptimized)
!1134 = !DISubroutineType(types: !1135)
!1135 = !{!102, !1120, !42}
!1136 = !DISubprogram(name: "erase", linkageName: "_ZN4llvm8DenseSetIPvNS_12DenseMapInfoIS1_EEE5eraseERKS1_", scope: !1104, file: !1103, line: 49, type: !1137, scopeLine: 49, flags: DIFlagPublic | DIFlagPrototyped, spFlags: DISPFlagOptimized)
!1137 = !DISubroutineType(types: !1138)
!1138 = !{!102, !1111, !42}
!1139 = !DISubprogram(name: "swap", linkageName: "_ZN4llvm8DenseSetIPvNS_12DenseMapInfoIS1_EEE4swapERS4_", scope: !1104, file: !1103, line: 53, type: !1140, scopeLine: 53, flags: DIFlagPublic | DIFlagPrototyped, spFlags: DISPFlagOptimized)
!1140 = !DISubroutineType(types: !1141)
!1141 = !{null, !1111, !1142}
!1142 = !DIDerivedType(tag: DW_TAG_reference_type, baseType: !1104, size: 64)
!1143 = !DISubprogram(name: "operator=", linkageName: "_ZN4llvm8DenseSetIPvNS_12DenseMapInfoIS1_EEEaSERKS4_", scope: !1104, file: !1103, line: 57, type: !1144, scopeLine: 57, flags: DIFlagPublic | DIFlagPrototyped, spFlags: DISPFlagOptimized)
!1144 = !DISubroutineType(types: !1145)
!1145 = !{!1142, !1111, !1112}
!1146 = !DISubprogram(name: "begin", linkageName: "_ZN4llvm8DenseSetIPvNS_12DenseMapInfoIS1_EEE5beginEv", scope: !1104, file: !1103, line: 107, type: !1147, scopeLine: 107, flags: DIFlagPublic | DIFlagPrototyped, spFlags: DISPFlagOptimized)
!1147 = !DISubroutineType(types: !1148)
!1148 = !{!1149, !1111}
!1149 = !DIDerivedType(tag: DW_TAG_typedef, name: "iterator", scope: !1104, file: !1103, line: 104, baseType: !1102)
!1150 = !DISubprogram(name: "end", linkageName: "_ZN4llvm8DenseSetIPvNS_12DenseMapInfoIS1_EEE3endEv", scope: !1104, file: !1103, line: 108, type: !1147, scopeLine: 108, flags: DIFlagPublic | DIFlagPrototyped, spFlags: DISPFlagOptimized)
!1151 = !DISubprogram(name: "begin", linkageName: "_ZNK4llvm8DenseSetIPvNS_12DenseMapInfoIS1_EEE5beginEv", scope: !1104, file: !1103, line: 110, type: !1152, scopeLine: 110, flags: DIFlagPublic | DIFlagPrototyped, spFlags: DISPFlagOptimized)
!1152 = !DISubroutineType(types: !1153)
!1153 = !{!1154, !1120}
!1154 = !DIDerivedType(tag: DW_TAG_typedef, name: "const_iterator", scope: !1104, file: !1103, line: 105, baseType: !1155)
!1155 = distinct !DICompositeType(tag: DW_TAG_class_type, name: "ConstIterator", scope: !1104, file: !1103, line: 84, flags: DIFlagFwdDecl, identifier: "_ZTSN4llvm8DenseSetIPvNS_12DenseMapInfoIS1_EEE13ConstIteratorE")
!1156 = !DISubprogram(name: "end", linkageName: "_ZNK4llvm8DenseSetIPvNS_12DenseMapInfoIS1_EEE3endEv", scope: !1104, file: !1103, line: 111, type: !1152, scopeLine: 111, flags: DIFlagPublic | DIFlagPrototyped, spFlags: DISPFlagOptimized)
!1157 = !DISubprogram(name: "find", linkageName: "_ZN4llvm8DenseSetIPvNS_12DenseMapInfoIS1_EEE4findERKS1_", scope: !1104, file: !1103, line: 113, type: !1158, scopeLine: 113, flags: DIFlagPublic | DIFlagPrototyped, spFlags: DISPFlagOptimized)
!1158 = !DISubroutineType(types: !1159)
!1159 = !{!1149, !1111, !42}
!1160 = !DISubprogram(name: "erase", linkageName: "_ZN4llvm8DenseSetIPvNS_12DenseMapInfoIS1_EEE5eraseENS4_8IteratorE", scope: !1104, file: !1103, line: 114, type: !1161, scopeLine: 114, flags: DIFlagPublic | DIFlagPrototyped, spFlags: DISPFlagOptimized)
!1161 = !DISubroutineType(types: !1162)
!1162 = !{null, !1111, !1102}
!1163 = !DISubprogram(name: "erase", linkageName: "_ZN4llvm8DenseSetIPvNS_12DenseMapInfoIS1_EEE5eraseENS4_13ConstIteratorE", scope: !1104, file: !1103, line: 115, type: !1164, scopeLine: 115, flags: DIFlagPublic | DIFlagPrototyped, spFlags: DISPFlagOptimized)
!1164 = !DISubroutineType(types: !1165)
!1165 = !{null, !1111, !1155}
!1166 = !DISubprogram(name: "insert", linkageName: "_ZN4llvm8DenseSetIPvNS_12DenseMapInfoIS1_EEE6insertERKS1_", scope: !1104, file: !1103, line: 117, type: !1167, scopeLine: 117, flags: DIFlagPublic | DIFlagPrototyped, spFlags: DISPFlagOptimized)
!1167 = !DISubroutineType(types: !1168)
!1168 = !{!1169, !1111, !42}
!1169 = distinct !DICompositeType(tag: DW_TAG_structure_type, name: "pair<llvm::DenseSet<void *, llvm::DenseMapInfo<void *> >::Iterator, bool>", scope: !86, file: !174, line: 208, size: 192, flags: DIFlagTypePassByReference | DIFlagNonTrivial, elements: !1170, templateParams: !1220, identifier: "_ZTSSt4pairIN4llvm8DenseSetIPvNS0_12DenseMapInfoIS2_EEE8IteratorEbE")
!1170 = !{!1171, !1190, !1191, !1192, !1198, !1202, !1210, !1217}
!1171 = !DIDerivedType(tag: DW_TAG_inheritance, scope: !1169, baseType: !1172, flags: DIFlagPrivate, extraData: i32 0)
!1172 = distinct !DICompositeType(tag: DW_TAG_class_type, name: "__pair_base<llvm::DenseSet<void *, llvm::DenseMapInfo<void *> >::Iterator, bool>", scope: !86, file: !174, line: 190, size: 8, flags: DIFlagTypePassByValue, elements: !1173, templateParams: !1188, identifier: "_ZTSSt11__pair_baseIN4llvm8DenseSetIPvNS0_12DenseMapInfoIS2_EEE8IteratorEbE")
!1173 = !{!1174, !1178, !1179, !1184}
!1174 = !DISubprogram(name: "__pair_base", scope: !1172, file: !174, line: 194, type: !1175, scopeLine: 194, flags: DIFlagPrototyped, spFlags: DISPFlagOptimized)
!1175 = !DISubroutineType(types: !1176)
!1176 = !{null, !1177}
!1177 = !DIDerivedType(tag: DW_TAG_pointer_type, baseType: !1172, size: 64, flags: DIFlagArtificial | DIFlagObjectPointer)
!1178 = !DISubprogram(name: "~__pair_base", scope: !1172, file: !174, line: 195, type: !1175, scopeLine: 195, flags: DIFlagPrototyped, spFlags: DISPFlagOptimized)
!1179 = !DISubprogram(name: "__pair_base", scope: !1172, file: !174, line: 196, type: !1180, scopeLine: 196, flags: DIFlagPrototyped, spFlags: DISPFlagOptimized)
!1180 = !DISubroutineType(types: !1181)
!1181 = !{null, !1177, !1182}
!1182 = !DIDerivedType(tag: DW_TAG_reference_type, baseType: !1183, size: 64)
!1183 = !DIDerivedType(tag: DW_TAG_const_type, baseType: !1172)
!1184 = !DISubprogram(name: "operator=", linkageName: "_ZNSt11__pair_baseIN4llvm8DenseSetIPvNS0_12DenseMapInfoIS2_EEE8IteratorEbEaSERKS7_", scope: !1172, file: !174, line: 197, type: !1185, scopeLine: 197, flags: DIFlagPrototyped, spFlags: DISPFlagOptimized | DISPFlagDeleted)
!1185 = !DISubroutineType(types: !1186)
!1186 = !{!1187, !1177, !1182}
!1187 = !DIDerivedType(tag: DW_TAG_reference_type, baseType: !1172, size: 64)
!1188 = !{!1189, !917}
!1189 = !DITemplateTypeParameter(name: "_U1", type: !1102)
!1190 = !DIDerivedType(tag: DW_TAG_member, name: "first", scope: !1169, file: !174, line: 214, baseType: !1102, size: 128)
!1191 = !DIDerivedType(tag: DW_TAG_member, name: "second", scope: !1169, file: !174, line: 215, baseType: !102, size: 8, offset: 128)
!1192 = !DISubprogram(name: "pair", scope: !1169, file: !174, line: 303, type: !1193, scopeLine: 303, flags: DIFlagPrototyped, spFlags: DISPFlagOptimized)
!1193 = !DISubroutineType(types: !1194)
!1194 = !{null, !1195, !1196}
!1195 = !DIDerivedType(tag: DW_TAG_pointer_type, baseType: !1169, size: 64, flags: DIFlagArtificial | DIFlagObjectPointer)
!1196 = !DIDerivedType(tag: DW_TAG_reference_type, baseType: !1197, size: 64)
!1197 = !DIDerivedType(tag: DW_TAG_const_type, baseType: !1169)
!1198 = !DISubprogram(name: "pair", scope: !1169, file: !174, line: 304, type: !1199, scopeLine: 304, flags: DIFlagPrototyped, spFlags: DISPFlagOptimized)
!1199 = !DISubroutineType(types: !1200)
!1200 = !{null, !1195, !1201}
!1201 = !DIDerivedType(tag: DW_TAG_rvalue_reference_type, baseType: !1169, size: 64)
!1202 = !DISubprogram(name: "operator=", linkageName: "_ZNSt4pairIN4llvm8DenseSetIPvNS0_12DenseMapInfoIS2_EEE8IteratorEbEaSERKS7_", scope: !1169, file: !174, line: 378, type: !1203, scopeLine: 378, flags: DIFlagPrototyped, spFlags: DISPFlagOptimized)
!1203 = !DISubroutineType(types: !1204)
!1204 = !{!1205, !1195, !1206}
!1205 = !DIDerivedType(tag: DW_TAG_reference_type, baseType: !1169, size: 64)
!1206 = !DIDerivedType(tag: DW_TAG_typedef, name: "type", scope: !1207, file: !213, line: 2166, baseType: !1196)
!1207 = distinct !DICompositeType(tag: DW_TAG_structure_type, name: "conditional<true, const std::pair<llvm::DenseSet<void *, llvm::DenseMapInfo<void *> >::Iterator, bool> &, const std::__nonesuch_no_braces &>", scope: !86, file: !213, line: 2165, size: 8, flags: DIFlagTypePassByValue, elements: !9, templateParams: !1208, identifier: "_ZTSSt11conditionalILb1ERKSt4pairIN4llvm8DenseSetIPvNS1_12DenseMapInfoIS3_EEE8IteratorEbERKSt20__nonesuch_no_bracesE")
!1208 = !{!216, !1209, !218}
!1209 = !DITemplateTypeParameter(name: "_Iftrue", type: !1196)
!1210 = !DISubprogram(name: "operator=", linkageName: "_ZNSt4pairIN4llvm8DenseSetIPvNS0_12DenseMapInfoIS2_EEE8IteratorEbEaSEOS7_", scope: !1169, file: !174, line: 389, type: !1211, scopeLine: 389, flags: DIFlagPrototyped, spFlags: DISPFlagOptimized)
!1211 = !DISubroutineType(types: !1212)
!1212 = !{!1205, !1195, !1213}
!1213 = !DIDerivedType(tag: DW_TAG_typedef, name: "type", scope: !1214, file: !213, line: 2166, baseType: !1201)
!1214 = distinct !DICompositeType(tag: DW_TAG_structure_type, name: "conditional<true, std::pair<llvm::DenseSet<void *, llvm::DenseMapInfo<void *> >::Iterator, bool> &&, std::__nonesuch_no_braces &&>", scope: !86, file: !213, line: 2165, size: 8, flags: DIFlagTypePassByValue, elements: !9, templateParams: !1215, identifier: "_ZTSSt11conditionalILb1EOSt4pairIN4llvm8DenseSetIPvNS1_12DenseMapInfoIS3_EEE8IteratorEbEOSt20__nonesuch_no_bracesE")
!1215 = !{!216, !1216, !229}
!1216 = !DITemplateTypeParameter(name: "_Iftrue", type: !1201)
!1217 = !DISubprogram(name: "swap", linkageName: "_ZNSt4pairIN4llvm8DenseSetIPvNS0_12DenseMapInfoIS2_EEE8IteratorEbE4swapERS7_", scope: !1169, file: !174, line: 424, type: !1218, scopeLine: 424, flags: DIFlagPrototyped, spFlags: DISPFlagOptimized)
!1218 = !DISubroutineType(types: !1219)
!1219 = !{null, !1195, !1205}
!1220 = !{!1221, !950}
!1221 = !DITemplateTypeParameter(name: "_T1", type: !1102)
!1222 = !{!559, !1223}
!1223 = !DITemplateTypeParameter(name: "ValueInfoT", type: !835)
!1224 = !{!1225, !1226, !1232, !1235, !1239, !1243, !1249}
!1225 = !DIDerivedType(tag: DW_TAG_member, name: "I", scope: !1102, file: !1103, line: 65, baseType: !688, size: 128)
!1226 = !DISubprogram(name: "Iterator", scope: !1102, file: !1103, line: 74, type: !1227, scopeLine: 74, flags: DIFlagPublic | DIFlagPrototyped, spFlags: DISPFlagOptimized)
!1227 = !DISubroutineType(types: !1228)
!1228 = !{null, !1229, !1230}
!1229 = !DIDerivedType(tag: DW_TAG_pointer_type, baseType: !1102, size: 64, flags: DIFlagArtificial | DIFlagObjectPointer)
!1230 = !DIDerivedType(tag: DW_TAG_reference_type, baseType: !1231, size: 64)
!1231 = !DIDerivedType(tag: DW_TAG_const_type, baseType: !688)
!1232 = !DISubprogram(name: "operator*", linkageName: "_ZN4llvm8DenseSetIPvNS_12DenseMapInfoIS1_EEE8IteratordeEv", scope: !1102, file: !1103, line: 76, type: !1233, scopeLine: 76, flags: DIFlagPublic | DIFlagPrototyped, spFlags: DISPFlagOptimized)
!1233 = !DISubroutineType(types: !1234)
!1234 = !{!259, !1229}
!1235 = !DISubprogram(name: "operator->", linkageName: "_ZN4llvm8DenseSetIPvNS_12DenseMapInfoIS1_EEE8IteratorptEv", scope: !1102, file: !1103, line: 77, type: !1236, scopeLine: 77, flags: DIFlagPublic | DIFlagPrototyped, spFlags: DISPFlagOptimized)
!1236 = !DISubroutineType(types: !1237)
!1237 = !{!1238, !1229}
!1238 = !DIDerivedType(tag: DW_TAG_pointer_type, baseType: !30, size: 64)
!1239 = !DISubprogram(name: "operator++", linkageName: "_ZN4llvm8DenseSetIPvNS_12DenseMapInfoIS1_EEE8IteratorppEv", scope: !1102, file: !1103, line: 79, type: !1240, scopeLine: 79, flags: DIFlagPublic | DIFlagPrototyped, spFlags: DISPFlagOptimized)
!1240 = !DISubroutineType(types: !1241)
!1241 = !{!1242, !1229}
!1242 = !DIDerivedType(tag: DW_TAG_reference_type, baseType: !1102, size: 64)
!1243 = !DISubprogram(name: "operator==", linkageName: "_ZNK4llvm8DenseSetIPvNS_12DenseMapInfoIS1_EEE8IteratoreqERKS5_", scope: !1102, file: !1103, line: 80, type: !1244, scopeLine: 80, flags: DIFlagPublic | DIFlagPrototyped, spFlags: DISPFlagOptimized)
!1244 = !DISubroutineType(types: !1245)
!1245 = !{!102, !1246, !1248}
!1246 = !DIDerivedType(tag: DW_TAG_pointer_type, baseType: !1247, size: 64, flags: DIFlagArtificial | DIFlagObjectPointer)
!1247 = !DIDerivedType(tag: DW_TAG_const_type, baseType: !1102)
!1248 = !DIDerivedType(tag: DW_TAG_reference_type, baseType: !1247, size: 64)
!1249 = !DISubprogram(name: "operator!=", linkageName: "_ZNK4llvm8DenseSetIPvNS_12DenseMapInfoIS1_EEE8IteratorneERKS5_", scope: !1102, file: !1103, line: 81, type: !1244, scopeLine: 81, flags: DIFlagPublic | DIFlagPrototyped, spFlags: DISPFlagOptimized)
!1250 = !{!1251, !0, !1253, !1297}
!1251 = !DIGlobalVariableExpression(var: !1252, expr: !DIExpression())
!1252 = distinct !DIGlobalVariable(name: "Invalid", linkageName: "_ZN4llvm3sys14DynamicLibrary7InvalidE", scope: !2, file: !348, line: 36, type: !58, isLocal: false, isDefinition: true, declaration: !316)
!1253 = !DIGlobalVariableExpression(var: !1254, expr: !DIExpression())
!1254 = distinct !DIGlobalVariable(name: "ExplicitSymbols", linkageName: "_ZL15ExplicitSymbols", scope: !2, file: !348, line: 27, type: !1255, isLocal: true, isDefinition: true)
!1255 = distinct !DICompositeType(tag: DW_TAG_class_type, name: "ManagedStatic<llvm::StringMap<void *, llvm::MallocAllocator> >", scope: !8, file: !1256, line: 61, size: 192, flags: DIFlagTypePassByValue, elements: !1257, templateParams: !1295, identifier: "_ZTSN4llvm13ManagedStaticINS_9StringMapIPvNS_15MallocAllocatorEEEEE")
!1256 = !DIFile(filename: "/faster/fs/llvm34/include/llvm/Support/ManagedStatic.h", directory: "")
!1257 = !{!1258, !1278, !1283, !1286, !1291}
!1258 = !DIDerivedType(tag: DW_TAG_inheritance, scope: !1255, baseType: !1259, flags: DIFlagPublic, extraData: i32 0)
!1259 = distinct !DICompositeType(tag: DW_TAG_class_type, name: "ManagedStaticBase", scope: !8, file: !1256, line: 39, size: 192, flags: DIFlagTypePassByValue, elements: !1260, identifier: "_ZTSN4llvm17ManagedStaticBaseE")
!1260 = !{!1261, !1262, !1264, !1267, !1272, !1275}
!1261 = !DIDerivedType(tag: DW_TAG_member, name: "Ptr", scope: !1259, file: !1256, line: 43, baseType: !30, size: 64, flags: DIFlagProtected)
!1262 = !DIDerivedType(tag: DW_TAG_member, name: "DeleterFn", scope: !1259, file: !1256, line: 44, baseType: !1263, size: 64, offset: 64, flags: DIFlagProtected)
!1263 = !DIDerivedType(tag: DW_TAG_pointer_type, baseType: !621, size: 64)
!1264 = !DIDerivedType(tag: DW_TAG_member, name: "Next", scope: !1259, file: !1256, line: 45, baseType: !1265, size: 64, offset: 128, flags: DIFlagProtected)
!1265 = !DIDerivedType(tag: DW_TAG_pointer_type, baseType: !1266, size: 64)
!1266 = !DIDerivedType(tag: DW_TAG_const_type, baseType: !1259)
!1267 = !DISubprogram(name: "RegisterManagedStatic", linkageName: "_ZNK4llvm17ManagedStaticBase21RegisterManagedStaticEPFPvvEPFvS1_E", scope: !1259, file: !1256, line: 47, type: !1268, scopeLine: 47, flags: DIFlagProtected | DIFlagPrototyped, spFlags: DISPFlagOptimized)
!1268 = !DISubroutineType(types: !1269)
!1269 = !{null, !1270, !1271, !1263}
!1270 = !DIDerivedType(tag: DW_TAG_pointer_type, baseType: !1266, size: 64, flags: DIFlagArtificial | DIFlagObjectPointer)
!1271 = !DIDerivedType(tag: DW_TAG_pointer_type, baseType: !839, size: 64)
!1272 = !DISubprogram(name: "isConstructed", linkageName: "_ZNK4llvm17ManagedStaticBase13isConstructedEv", scope: !1259, file: !1256, line: 50, type: !1273, scopeLine: 50, flags: DIFlagPublic | DIFlagPrototyped, spFlags: DISPFlagOptimized)
!1273 = !DISubroutineType(types: !1274)
!1274 = !{!102, !1270}
!1275 = !DISubprogram(name: "destroy", linkageName: "_ZNK4llvm17ManagedStaticBase7destroyEv", scope: !1259, file: !1256, line: 52, type: !1276, scopeLine: 52, flags: DIFlagPublic | DIFlagPrototyped, spFlags: DISPFlagOptimized)
!1276 = !DISubroutineType(types: !1277)
!1277 = !{null, !1270}
!1278 = !DISubprogram(name: "operator*", linkageName: "_ZN4llvm13ManagedStaticINS_9StringMapIPvNS_15MallocAllocatorEEEEdeEv", scope: !1255, file: !1256, line: 65, type: !1279, scopeLine: 65, flags: DIFlagPublic | DIFlagPrototyped, spFlags: DISPFlagOptimized)
!1279 = !DISubroutineType(types: !1280)
!1280 = !{!1281, !1282}
!1281 = !DIDerivedType(tag: DW_TAG_reference_type, baseType: !403, size: 64)
!1282 = !DIDerivedType(tag: DW_TAG_pointer_type, baseType: !1255, size: 64, flags: DIFlagArtificial | DIFlagObjectPointer)
!1283 = !DISubprogram(name: "operator->", linkageName: "_ZN4llvm13ManagedStaticINS_9StringMapIPvNS_15MallocAllocatorEEEEptEv", scope: !1255, file: !1256, line: 73, type: !1284, scopeLine: 73, flags: DIFlagPublic | DIFlagPrototyped, spFlags: DISPFlagOptimized)
!1284 = !DISubroutineType(types: !1285)
!1285 = !{!402, !1282}
!1286 = !DISubprogram(name: "operator*", linkageName: "_ZNK4llvm13ManagedStaticINS_9StringMapIPvNS_15MallocAllocatorEEEEdeEv", scope: !1255, file: !1256, line: 81, type: !1287, scopeLine: 81, flags: DIFlagPublic | DIFlagPrototyped, spFlags: DISPFlagOptimized)
!1287 = !DISubroutineType(types: !1288)
!1288 = !{!494, !1289}
!1289 = !DIDerivedType(tag: DW_TAG_pointer_type, baseType: !1290, size: 64, flags: DIFlagArtificial | DIFlagObjectPointer)
!1290 = !DIDerivedType(tag: DW_TAG_const_type, baseType: !1255)
!1291 = !DISubprogram(name: "operator->", linkageName: "_ZNK4llvm13ManagedStaticINS_9StringMapIPvNS_15MallocAllocatorEEEEptEv", scope: !1255, file: !1256, line: 89, type: !1292, scopeLine: 89, flags: DIFlagPublic | DIFlagPrototyped, spFlags: DISPFlagOptimized)
!1292 = !DISubroutineType(types: !1293)
!1293 = !{!1294, !1289}
!1294 = !DIDerivedType(tag: DW_TAG_pointer_type, baseType: !495, size: 64)
!1295 = !{!1296}
!1296 = !DITemplateTypeParameter(name: "C", type: !403)
!1297 = !DIGlobalVariableExpression(var: !1298, expr: !DIExpression())
!1298 = distinct !DIGlobalVariable(name: "OpenedHandles", linkageName: "_ZL13OpenedHandles", scope: !2, file: !348, line: 54, type: !1299, isLocal: true, isDefinition: true)
!1299 = !DIDerivedType(tag: DW_TAG_pointer_type, baseType: !1104, size: 64)
!1300 = !{!1301, !1305, !1322, !1325, !1330, !1386, !1394, !1398, !1405, !1409, !1413, !1415, !1417, !1421, !1428, !1432, !1438, !1444, !1446, !1450, !1454, !1458, !1462, !1473, !1475, !1479, !1483, !1487, !1489, !1494, !1498, !1502, !1504, !1506, !1510, !1518, !1522, !1526, !1530, !1532, !1538, !1540, !1547, !1552, !1556, !1560, !1564, !1568, !1572, !1574, !1576, !1580, !1584, !1588, !1590, !1594, !1598, !1600, !1602, !1606, !1611, !1616, !1621, !1622, !1623, !1624, !1625, !1626, !1627, !1628, !1629, !1630, !1631, !1636, !1640, !1643, !1646, !1648, !1650, !1652, !1654, !1656, !1658, !1660, !1662, !1665, !1667, !1672, !1675, !1678, !1681, !1683, !1685, !1687, !1689, !1691, !1693, !1695, !1697, !1700, !1701, !1755, !1759, !1761, !1763, !1767, !1771, !1776, !1782, !1784, !1786, !1788, !1790, !1792, !1794, !1796, !1798, !1800, !1802, !1804, !1806, !1808, !1811, !1815, !1821, !1823, !1828, !1830, !1835, !1839, !1843, !1852, !1856, !1860, !1864, !1866, !1870, !1874, !1878, !1882, !1886, !1890, !1894, !1898, !1900, !1904, !1908, !1912, !1918, !1922, !1926, !1928, !1932, !1936, !1942, !1944, !1948, !1952, !1956, !1960, !1964, !1968, !1972, !1973, !1974, !1975, !1977, !1978, !1979, !1980, !1981, !1982, !1983, !1987, !1993, !1998, !2002, !2004, !2006, !2008, !2010, !2017, !2021, !2025, !2029, !2033, !2037, !2042, !2046, !2048, !2052, !2058, !2062, !2067, !2069, !2072, !2076, !2080, !2082, !2084, !2086, !2088, !2092, !2094, !2096, !2100, !2104, !2108, !2112, !2116, !2120, !2122, !2126, !2130, !2134, !2138, !2140, !2142, !2146, !2150, !2151, !2152, !2153, !2154, !2155, !2161, !2163, !2165, !2169, !2171, !2173, !2175, !2177, !2179, !2181, !2183, !2188, !2192, !2194, !2196, !2201, !2203, !2205, !2207, !2209, !2211, !2213, !2216, !2218, !2220, !2224, !2228, !2230, !2232, !2234, !2236, !2238, !2240, !2242, !2244, !2246, !2248, !2252, !2256, !2258, !2260, !2262, !2264, !2266, !2268, !2270, !2272, !2274, !2276, !2278, !2280, !2282, !2284, !2286, !2290, !2294, !2298, !2300, !2302, !2304, !2306, !2308, !2310, !2312, !2314, !2316, !2320, !2324, !2328, !2330, !2332, !2334, !2338, !2342, !2346, !2348, !2350, !2352, !2354, !2356, !2358, !2360, !2362, !2364, !2366, !2368, !2370, !2374, !2378, !2382, !2384, !2386, !2388, !2390, !2394, !2398, !2400, !2402, !2404, !2406, !2408, !2410, !2414, !2418, !2420, !2422, !2424, !2426, !2430, !2434, !2438, !2440, !2442, !2444, !2446, !2448, !2450, !2454, !2458, !2462, !2464, !2468, !2472, !2474, !2476, !2478, !2480, !2482, !2484, !2489, !2495, !2499, !2503, !2507, !2511, !2515, !2517, !2519, !2521, !2525, !2529, !2533, !2537, !2539, !2541, !2543, !2545, !2549, !2553, !2557, !2559, !2561, !2567, !2570, !2571, !2573, !2575, !2577, !2579, !2583, !2585, !2587, !2589, !2591, !2593, !2595, !2597, !2599, !2603, !2607, !2609, !2613, !2617, !2618}
!1301 = !DIImportedEntity(tag: DW_TAG_imported_module, scope: !1302, entity: !1303, file: !1304, line: 58)
!1302 = !DINamespace(name: "__gnu_debug", scope: null)
!1303 = !DINamespace(name: "__debug", scope: !86)
!1304 = !DIFile(filename: "/usr/lib/gcc/x86_64-linux-gnu/7.5.0/../../../../include/c++/7.5.0/debug/debug.h", directory: "")
!1305 = !DIImportedEntity(tag: DW_TAG_imported_declaration, scope: !86, entity: !1306, file: !1321, line: 64)
!1306 = !DIDerivedType(tag: DW_TAG_typedef, name: "mbstate_t", file: !1307, line: 6, baseType: !1308)
!1307 = !DIFile(filename: "/usr/include/x86_64-linux-gnu/bits/types/mbstate_t.h", directory: "")
!1308 = !DIDerivedType(tag: DW_TAG_typedef, name: "__mbstate_t", file: !1309, line: 21, baseType: !1310)
!1309 = !DIFile(filename: "/usr/include/x86_64-linux-gnu/bits/types/__mbstate_t.h", directory: "")
!1310 = distinct !DICompositeType(tag: DW_TAG_structure_type, file: !1309, line: 13, size: 64, flags: DIFlagTypePassByValue, elements: !1311, identifier: "_ZTS11__mbstate_t")
!1311 = !{!1312, !1313}
!1312 = !DIDerivedType(tag: DW_TAG_member, name: "__count", scope: !1310, file: !1309, line: 15, baseType: !67, size: 32)
!1313 = !DIDerivedType(tag: DW_TAG_member, name: "__value", scope: !1310, file: !1309, line: 20, baseType: !1314, size: 32, offset: 32)
!1314 = distinct !DICompositeType(tag: DW_TAG_union_type, scope: !1310, file: !1309, line: 16, size: 32, flags: DIFlagTypePassByValue, elements: !1315, identifier: "_ZTSN11__mbstate_tUt_E")
!1315 = !{!1316, !1317}
!1316 = !DIDerivedType(tag: DW_TAG_member, name: "__wch", scope: !1314, file: !1309, line: 18, baseType: !19, size: 32)
!1317 = !DIDerivedType(tag: DW_TAG_member, name: "__wchb", scope: !1314, file: !1309, line: 19, baseType: !1318, size: 32)
!1318 = !DICompositeType(tag: DW_TAG_array_type, baseType: !58, size: 32, elements: !1319)
!1319 = !{!1320}
!1320 = !DISubrange(count: 4)
!1321 = !DIFile(filename: "/usr/lib/gcc/x86_64-linux-gnu/7.5.0/../../../../include/c++/7.5.0/cwchar", directory: "")
!1322 = !DIImportedEntity(tag: DW_TAG_imported_declaration, scope: !86, entity: !1323, file: !1321, line: 139)
!1323 = !DIDerivedType(tag: DW_TAG_typedef, name: "wint_t", file: !1324, line: 20, baseType: !19)
!1324 = !DIFile(filename: "/usr/include/x86_64-linux-gnu/bits/types/wint_t.h", directory: "")
!1325 = !DIImportedEntity(tag: DW_TAG_imported_declaration, scope: !86, entity: !1326, file: !1321, line: 141)
!1326 = !DISubprogram(name: "btowc", scope: !1327, file: !1327, line: 318, type: !1328, flags: DIFlagPrototyped, spFlags: DISPFlagOptimized)
!1327 = !DIFile(filename: "/usr/include/wchar.h", directory: "")
!1328 = !DISubroutineType(types: !1329)
!1329 = !{!1323, !67}
!1330 = !DIImportedEntity(tag: DW_TAG_imported_declaration, scope: !86, entity: !1331, file: !1321, line: 142)
!1331 = !DISubprogram(name: "fgetwc", scope: !1327, file: !1327, line: 727, type: !1332, flags: DIFlagPrototyped, spFlags: DISPFlagOptimized)
!1332 = !DISubroutineType(types: !1333)
!1333 = !{!1323, !1334}
!1334 = !DIDerivedType(tag: DW_TAG_pointer_type, baseType: !1335, size: 64)
!1335 = !DIDerivedType(tag: DW_TAG_typedef, name: "__FILE", file: !1336, line: 5, baseType: !1337)
!1336 = !DIFile(filename: "/usr/include/x86_64-linux-gnu/bits/types/__FILE.h", directory: "")
!1337 = distinct !DICompositeType(tag: DW_TAG_structure_type, name: "_IO_FILE", file: !1338, line: 245, size: 1728, flags: DIFlagTypePassByValue, elements: !1339, identifier: "_ZTS8_IO_FILE")
!1338 = !DIFile(filename: "/usr/include/x86_64-linux-gnu/bits/libio.h", directory: "")
!1339 = !{!1340, !1341, !1342, !1343, !1344, !1345, !1346, !1347, !1348, !1349, !1350, !1351, !1352, !1355, !1357, !1358, !1359, !1363, !1365, !1367, !1371, !1374, !1376, !1377, !1378, !1379, !1380, !1381, !1382}
!1340 = !DIDerivedType(tag: DW_TAG_member, name: "_flags", scope: !1337, file: !1338, line: 246, baseType: !67, size: 32)
!1341 = !DIDerivedType(tag: DW_TAG_member, name: "_IO_read_ptr", scope: !1337, file: !1338, line: 251, baseType: !308, size: 64, offset: 64)
!1342 = !DIDerivedType(tag: DW_TAG_member, name: "_IO_read_end", scope: !1337, file: !1338, line: 252, baseType: !308, size: 64, offset: 128)
!1343 = !DIDerivedType(tag: DW_TAG_member, name: "_IO_read_base", scope: !1337, file: !1338, line: 253, baseType: !308, size: 64, offset: 192)
!1344 = !DIDerivedType(tag: DW_TAG_member, name: "_IO_write_base", scope: !1337, file: !1338, line: 254, baseType: !308, size: 64, offset: 256)
!1345 = !DIDerivedType(tag: DW_TAG_member, name: "_IO_write_ptr", scope: !1337, file: !1338, line: 255, baseType: !308, size: 64, offset: 320)
!1346 = !DIDerivedType(tag: DW_TAG_member, name: "_IO_write_end", scope: !1337, file: !1338, line: 256, baseType: !308, size: 64, offset: 384)
!1347 = !DIDerivedType(tag: DW_TAG_member, name: "_IO_buf_base", scope: !1337, file: !1338, line: 257, baseType: !308, size: 64, offset: 448)
!1348 = !DIDerivedType(tag: DW_TAG_member, name: "_IO_buf_end", scope: !1337, file: !1338, line: 258, baseType: !308, size: 64, offset: 512)
!1349 = !DIDerivedType(tag: DW_TAG_member, name: "_IO_save_base", scope: !1337, file: !1338, line: 260, baseType: !308, size: 64, offset: 576)
!1350 = !DIDerivedType(tag: DW_TAG_member, name: "_IO_backup_base", scope: !1337, file: !1338, line: 261, baseType: !308, size: 64, offset: 640)
!1351 = !DIDerivedType(tag: DW_TAG_member, name: "_IO_save_end", scope: !1337, file: !1338, line: 262, baseType: !308, size: 64, offset: 704)
!1352 = !DIDerivedType(tag: DW_TAG_member, name: "_markers", scope: !1337, file: !1338, line: 264, baseType: !1353, size: 64, offset: 768)
!1353 = !DIDerivedType(tag: DW_TAG_pointer_type, baseType: !1354, size: 64)
!1354 = distinct !DICompositeType(tag: DW_TAG_structure_type, name: "_IO_marker", file: !1338, line: 160, flags: DIFlagFwdDecl, identifier: "_ZTS10_IO_marker")
!1355 = !DIDerivedType(tag: DW_TAG_member, name: "_chain", scope: !1337, file: !1338, line: 266, baseType: !1356, size: 64, offset: 832)
!1356 = !DIDerivedType(tag: DW_TAG_pointer_type, baseType: !1337, size: 64)
!1357 = !DIDerivedType(tag: DW_TAG_member, name: "_fileno", scope: !1337, file: !1338, line: 268, baseType: !67, size: 32, offset: 896)
!1358 = !DIDerivedType(tag: DW_TAG_member, name: "_flags2", scope: !1337, file: !1338, line: 272, baseType: !67, size: 32, offset: 928)
!1359 = !DIDerivedType(tag: DW_TAG_member, name: "_old_offset", scope: !1337, file: !1338, line: 274, baseType: !1360, size: 64, offset: 960)
!1360 = !DIDerivedType(tag: DW_TAG_typedef, name: "__off_t", file: !1361, line: 140, baseType: !1362)
!1361 = !DIFile(filename: "/usr/include/x86_64-linux-gnu/bits/types.h", directory: "")
!1362 = !DIBasicType(name: "long int", size: 64, encoding: DW_ATE_signed)
!1363 = !DIDerivedType(tag: DW_TAG_member, name: "_cur_column", scope: !1337, file: !1338, line: 278, baseType: !1364, size: 16, offset: 1024)
!1364 = !DIBasicType(name: "unsigned short", size: 16, encoding: DW_ATE_unsigned)
!1365 = !DIDerivedType(tag: DW_TAG_member, name: "_vtable_offset", scope: !1337, file: !1338, line: 279, baseType: !1366, size: 8, offset: 1040)
!1366 = !DIBasicType(name: "signed char", size: 8, encoding: DW_ATE_signed_char)
!1367 = !DIDerivedType(tag: DW_TAG_member, name: "_shortbuf", scope: !1337, file: !1338, line: 280, baseType: !1368, size: 8, offset: 1048)
!1368 = !DICompositeType(tag: DW_TAG_array_type, baseType: !58, size: 8, elements: !1369)
!1369 = !{!1370}
!1370 = !DISubrange(count: 1)
!1371 = !DIDerivedType(tag: DW_TAG_member, name: "_lock", scope: !1337, file: !1338, line: 284, baseType: !1372, size: 64, offset: 1088)
!1372 = !DIDerivedType(tag: DW_TAG_pointer_type, baseType: !1373, size: 64)
!1373 = !DIDerivedType(tag: DW_TAG_typedef, name: "_IO_lock_t", file: !1338, line: 154, baseType: null)
!1374 = !DIDerivedType(tag: DW_TAG_member, name: "_offset", scope: !1337, file: !1338, line: 293, baseType: !1375, size: 64, offset: 1152)
!1375 = !DIDerivedType(tag: DW_TAG_typedef, name: "__off64_t", file: !1361, line: 141, baseType: !1362)
!1376 = !DIDerivedType(tag: DW_TAG_member, name: "__pad1", scope: !1337, file: !1338, line: 301, baseType: !30, size: 64, offset: 1216)
!1377 = !DIDerivedType(tag: DW_TAG_member, name: "__pad2", scope: !1337, file: !1338, line: 302, baseType: !30, size: 64, offset: 1280)
!1378 = !DIDerivedType(tag: DW_TAG_member, name: "__pad3", scope: !1337, file: !1338, line: 303, baseType: !30, size: 64, offset: 1344)
!1379 = !DIDerivedType(tag: DW_TAG_member, name: "__pad4", scope: !1337, file: !1338, line: 304, baseType: !30, size: 64, offset: 1408)
!1380 = !DIDerivedType(tag: DW_TAG_member, name: "__pad5", scope: !1337, file: !1338, line: 306, baseType: !52, size: 64, offset: 1472)
!1381 = !DIDerivedType(tag: DW_TAG_member, name: "_mode", scope: !1337, file: !1338, line: 307, baseType: !67, size: 32, offset: 1536)
!1382 = !DIDerivedType(tag: DW_TAG_member, name: "_unused2", scope: !1337, file: !1338, line: 309, baseType: !1383, size: 160, offset: 1568)
!1383 = !DICompositeType(tag: DW_TAG_array_type, baseType: !58, size: 160, elements: !1384)
!1384 = !{!1385}
!1385 = !DISubrange(count: 20)
!1386 = !DIImportedEntity(tag: DW_TAG_imported_declaration, scope: !86, entity: !1387, file: !1321, line: 143)
!1387 = !DISubprogram(name: "fgetws", scope: !1327, file: !1327, line: 756, type: !1388, flags: DIFlagPrototyped, spFlags: DISPFlagOptimized)
!1388 = !DISubroutineType(types: !1389)
!1389 = !{!1390, !1392, !67, !1393}
!1390 = !DIDerivedType(tag: DW_TAG_pointer_type, baseType: !1391, size: 64)
!1391 = !DIBasicType(name: "wchar_t", size: 32, encoding: DW_ATE_signed)
!1392 = !DIDerivedType(tag: DW_TAG_restrict_type, baseType: !1390)
!1393 = !DIDerivedType(tag: DW_TAG_restrict_type, baseType: !1334)
!1394 = !DIImportedEntity(tag: DW_TAG_imported_declaration, scope: !86, entity: !1395, file: !1321, line: 144)
!1395 = !DISubprogram(name: "fputwc", scope: !1327, file: !1327, line: 741, type: !1396, flags: DIFlagPrototyped, spFlags: DISPFlagOptimized)
!1396 = !DISubroutineType(types: !1397)
!1397 = !{!1323, !1391, !1334}
!1398 = !DIImportedEntity(tag: DW_TAG_imported_declaration, scope: !86, entity: !1399, file: !1321, line: 145)
!1399 = !DISubprogram(name: "fputws", scope: !1327, file: !1327, line: 763, type: !1400, flags: DIFlagPrototyped, spFlags: DISPFlagOptimized)
!1400 = !DISubroutineType(types: !1401)
!1401 = !{!67, !1402, !1393}
!1402 = !DIDerivedType(tag: DW_TAG_restrict_type, baseType: !1403)
!1403 = !DIDerivedType(tag: DW_TAG_pointer_type, baseType: !1404, size: 64)
!1404 = !DIDerivedType(tag: DW_TAG_const_type, baseType: !1391)
!1405 = !DIImportedEntity(tag: DW_TAG_imported_declaration, scope: !86, entity: !1406, file: !1321, line: 146)
!1406 = !DISubprogram(name: "fwide", scope: !1327, file: !1327, line: 573, type: !1407, flags: DIFlagPrototyped, spFlags: DISPFlagOptimized)
!1407 = !DISubroutineType(types: !1408)
!1408 = !{!67, !1334, !67}
!1409 = !DIImportedEntity(tag: DW_TAG_imported_declaration, scope: !86, entity: !1410, file: !1321, line: 147)
!1410 = !DISubprogram(name: "fwprintf", scope: !1327, file: !1327, line: 580, type: !1411, flags: DIFlagPrototyped, spFlags: DISPFlagOptimized)
!1411 = !DISubroutineType(types: !1412)
!1412 = !{!67, !1393, !1402, null}
!1413 = !DIImportedEntity(tag: DW_TAG_imported_declaration, scope: !86, entity: !1414, file: !1321, line: 148)
!1414 = !DISubprogram(name: "fwscanf", scope: !1327, file: !1327, line: 621, type: !1411, flags: DIFlagPrototyped, spFlags: DISPFlagOptimized)
!1415 = !DIImportedEntity(tag: DW_TAG_imported_declaration, scope: !86, entity: !1416, file: !1321, line: 149)
!1416 = !DISubprogram(name: "getwc", scope: !1327, file: !1327, line: 728, type: !1332, flags: DIFlagPrototyped, spFlags: DISPFlagOptimized)
!1417 = !DIImportedEntity(tag: DW_TAG_imported_declaration, scope: !86, entity: !1418, file: !1321, line: 150)
!1418 = !DISubprogram(name: "getwchar", scope: !1327, file: !1327, line: 734, type: !1419, flags: DIFlagPrototyped, spFlags: DISPFlagOptimized)
!1419 = !DISubroutineType(types: !1420)
!1420 = !{!1323}
!1421 = !DIImportedEntity(tag: DW_TAG_imported_declaration, scope: !86, entity: !1422, file: !1321, line: 151)
!1422 = !DISubprogram(name: "mbrlen", scope: !1327, file: !1327, line: 329, type: !1423, flags: DIFlagPrototyped, spFlags: DISPFlagOptimized)
!1423 = !DISubroutineType(types: !1424)
!1424 = !{!52, !1425, !52, !1426}
!1425 = !DIDerivedType(tag: DW_TAG_restrict_type, baseType: !56)
!1426 = !DIDerivedType(tag: DW_TAG_restrict_type, baseType: !1427)
!1427 = !DIDerivedType(tag: DW_TAG_pointer_type, baseType: !1306, size: 64)
!1428 = !DIImportedEntity(tag: DW_TAG_imported_declaration, scope: !86, entity: !1429, file: !1321, line: 152)
!1429 = !DISubprogram(name: "mbrtowc", scope: !1327, file: !1327, line: 296, type: !1430, flags: DIFlagPrototyped, spFlags: DISPFlagOptimized)
!1430 = !DISubroutineType(types: !1431)
!1431 = !{!52, !1392, !1425, !52, !1426}
!1432 = !DIImportedEntity(tag: DW_TAG_imported_declaration, scope: !86, entity: !1433, file: !1321, line: 153)
!1433 = !DISubprogram(name: "mbsinit", scope: !1327, file: !1327, line: 292, type: !1434, flags: DIFlagPrototyped, spFlags: DISPFlagOptimized)
!1434 = !DISubroutineType(types: !1435)
!1435 = !{!67, !1436}
!1436 = !DIDerivedType(tag: DW_TAG_pointer_type, baseType: !1437, size: 64)
!1437 = !DIDerivedType(tag: DW_TAG_const_type, baseType: !1306)
!1438 = !DIImportedEntity(tag: DW_TAG_imported_declaration, scope: !86, entity: !1439, file: !1321, line: 154)
!1439 = !DISubprogram(name: "mbsrtowcs", scope: !1327, file: !1327, line: 337, type: !1440, flags: DIFlagPrototyped, spFlags: DISPFlagOptimized)
!1440 = !DISubroutineType(types: !1441)
!1441 = !{!52, !1392, !1442, !52, !1426}
!1442 = !DIDerivedType(tag: DW_TAG_restrict_type, baseType: !1443)
!1443 = !DIDerivedType(tag: DW_TAG_pointer_type, baseType: !56, size: 64)
!1444 = !DIImportedEntity(tag: DW_TAG_imported_declaration, scope: !86, entity: !1445, file: !1321, line: 155)
!1445 = !DISubprogram(name: "putwc", scope: !1327, file: !1327, line: 742, type: !1396, flags: DIFlagPrototyped, spFlags: DISPFlagOptimized)
!1446 = !DIImportedEntity(tag: DW_TAG_imported_declaration, scope: !86, entity: !1447, file: !1321, line: 156)
!1447 = !DISubprogram(name: "putwchar", scope: !1327, file: !1327, line: 748, type: !1448, flags: DIFlagPrototyped, spFlags: DISPFlagOptimized)
!1448 = !DISubroutineType(types: !1449)
!1449 = !{!1323, !1391}
!1450 = !DIImportedEntity(tag: DW_TAG_imported_declaration, scope: !86, entity: !1451, file: !1321, line: 158)
!1451 = !DISubprogram(name: "swprintf", scope: !1327, file: !1327, line: 590, type: !1452, flags: DIFlagPrototyped, spFlags: DISPFlagOptimized)
!1452 = !DISubroutineType(types: !1453)
!1453 = !{!67, !1392, !52, !1402, null}
!1454 = !DIImportedEntity(tag: DW_TAG_imported_declaration, scope: !86, entity: !1455, file: !1321, line: 160)
!1455 = !DISubprogram(name: "swscanf", scope: !1327, file: !1327, line: 631, type: !1456, flags: DIFlagPrototyped, spFlags: DISPFlagOptimized)
!1456 = !DISubroutineType(types: !1457)
!1457 = !{!67, !1402, !1402, null}
!1458 = !DIImportedEntity(tag: DW_TAG_imported_declaration, scope: !86, entity: !1459, file: !1321, line: 161)
!1459 = !DISubprogram(name: "ungetwc", scope: !1327, file: !1327, line: 771, type: !1460, flags: DIFlagPrototyped, spFlags: DISPFlagOptimized)
!1460 = !DISubroutineType(types: !1461)
!1461 = !{!1323, !1323, !1334}
!1462 = !DIImportedEntity(tag: DW_TAG_imported_declaration, scope: !86, entity: !1463, file: !1321, line: 162)
!1463 = !DISubprogram(name: "vfwprintf", scope: !1327, file: !1327, line: 598, type: !1464, flags: DIFlagPrototyped, spFlags: DISPFlagOptimized)
!1464 = !DISubroutineType(types: !1465)
!1465 = !{!67, !1393, !1402, !1466}
!1466 = !DIDerivedType(tag: DW_TAG_pointer_type, baseType: !1467, size: 64)
!1467 = distinct !DICompositeType(tag: DW_TAG_structure_type, name: "__va_list_tag", file: !3, size: 192, flags: DIFlagTypePassByValue, elements: !1468, identifier: "_ZTS13__va_list_tag")
!1468 = !{!1469, !1470, !1471, !1472}
!1469 = !DIDerivedType(tag: DW_TAG_member, name: "gp_offset", scope: !1467, file: !3, baseType: !19, size: 32)
!1470 = !DIDerivedType(tag: DW_TAG_member, name: "fp_offset", scope: !1467, file: !3, baseType: !19, size: 32, offset: 32)
!1471 = !DIDerivedType(tag: DW_TAG_member, name: "overflow_arg_area", scope: !1467, file: !3, baseType: !30, size: 64, offset: 64)
!1472 = !DIDerivedType(tag: DW_TAG_member, name: "reg_save_area", scope: !1467, file: !3, baseType: !30, size: 64, offset: 128)
!1473 = !DIImportedEntity(tag: DW_TAG_imported_declaration, scope: !86, entity: !1474, file: !1321, line: 164)
!1474 = !DISubprogram(name: "vfwscanf", scope: !1327, file: !1327, line: 673, type: !1464, flags: DIFlagPrototyped, spFlags: DISPFlagOptimized)
!1475 = !DIImportedEntity(tag: DW_TAG_imported_declaration, scope: !86, entity: !1476, file: !1321, line: 167)
!1476 = !DISubprogram(name: "vswprintf", scope: !1327, file: !1327, line: 611, type: !1477, flags: DIFlagPrototyped, spFlags: DISPFlagOptimized)
!1477 = !DISubroutineType(types: !1478)
!1478 = !{!67, !1392, !52, !1402, !1466}
!1479 = !DIImportedEntity(tag: DW_TAG_imported_declaration, scope: !86, entity: !1480, file: !1321, line: 170)
!1480 = !DISubprogram(name: "vswscanf", scope: !1327, file: !1327, line: 685, type: !1481, flags: DIFlagPrototyped, spFlags: DISPFlagOptimized)
!1481 = !DISubroutineType(types: !1482)
!1482 = !{!67, !1402, !1402, !1466}
!1483 = !DIImportedEntity(tag: DW_TAG_imported_declaration, scope: !86, entity: !1484, file: !1321, line: 172)
!1484 = !DISubprogram(name: "vwprintf", scope: !1327, file: !1327, line: 606, type: !1485, flags: DIFlagPrototyped, spFlags: DISPFlagOptimized)
!1485 = !DISubroutineType(types: !1486)
!1486 = !{!67, !1402, !1466}
!1487 = !DIImportedEntity(tag: DW_TAG_imported_declaration, scope: !86, entity: !1488, file: !1321, line: 174)
!1488 = !DISubprogram(name: "vwscanf", scope: !1327, file: !1327, line: 681, type: !1485, flags: DIFlagPrototyped, spFlags: DISPFlagOptimized)
!1489 = !DIImportedEntity(tag: DW_TAG_imported_declaration, scope: !86, entity: !1490, file: !1321, line: 176)
!1490 = !DISubprogram(name: "wcrtomb", scope: !1327, file: !1327, line: 301, type: !1491, flags: DIFlagPrototyped, spFlags: DISPFlagOptimized)
!1491 = !DISubroutineType(types: !1492)
!1492 = !{!52, !1493, !1391, !1426}
!1493 = !DIDerivedType(tag: DW_TAG_restrict_type, baseType: !308)
!1494 = !DIImportedEntity(tag: DW_TAG_imported_declaration, scope: !86, entity: !1495, file: !1321, line: 177)
!1495 = !DISubprogram(name: "wcscat", scope: !1327, file: !1327, line: 97, type: !1496, flags: DIFlagPrototyped, spFlags: DISPFlagOptimized)
!1496 = !DISubroutineType(types: !1497)
!1497 = !{!1390, !1392, !1402}
!1498 = !DIImportedEntity(tag: DW_TAG_imported_declaration, scope: !86, entity: !1499, file: !1321, line: 178)
!1499 = !DISubprogram(name: "wcscmp", scope: !1327, file: !1327, line: 106, type: !1500, flags: DIFlagPrototyped, spFlags: DISPFlagOptimized)
!1500 = !DISubroutineType(types: !1501)
!1501 = !{!67, !1403, !1403}
!1502 = !DIImportedEntity(tag: DW_TAG_imported_declaration, scope: !86, entity: !1503, file: !1321, line: 179)
!1503 = !DISubprogram(name: "wcscoll", scope: !1327, file: !1327, line: 131, type: !1500, flags: DIFlagPrototyped, spFlags: DISPFlagOptimized)
!1504 = !DIImportedEntity(tag: DW_TAG_imported_declaration, scope: !86, entity: !1505, file: !1321, line: 180)
!1505 = !DISubprogram(name: "wcscpy", scope: !1327, file: !1327, line: 87, type: !1496, flags: DIFlagPrototyped, spFlags: DISPFlagOptimized)
!1506 = !DIImportedEntity(tag: DW_TAG_imported_declaration, scope: !86, entity: !1507, file: !1321, line: 181)
!1507 = !DISubprogram(name: "wcscspn", scope: !1327, file: !1327, line: 187, type: !1508, flags: DIFlagPrototyped, spFlags: DISPFlagOptimized)
!1508 = !DISubroutineType(types: !1509)
!1509 = !{!52, !1403, !1403}
!1510 = !DIImportedEntity(tag: DW_TAG_imported_declaration, scope: !86, entity: !1511, file: !1321, line: 182)
!1511 = !DISubprogram(name: "wcsftime", scope: !1327, file: !1327, line: 835, type: !1512, flags: DIFlagPrototyped, spFlags: DISPFlagOptimized)
!1512 = !DISubroutineType(types: !1513)
!1513 = !{!52, !1392, !52, !1402, !1514}
!1514 = !DIDerivedType(tag: DW_TAG_restrict_type, baseType: !1515)
!1515 = !DIDerivedType(tag: DW_TAG_pointer_type, baseType: !1516, size: 64)
!1516 = !DIDerivedType(tag: DW_TAG_const_type, baseType: !1517)
!1517 = distinct !DICompositeType(tag: DW_TAG_structure_type, name: "tm", file: !1327, line: 83, flags: DIFlagFwdDecl, identifier: "_ZTS2tm")
!1518 = !DIImportedEntity(tag: DW_TAG_imported_declaration, scope: !86, entity: !1519, file: !1321, line: 183)
!1519 = !DISubprogram(name: "wcslen", scope: !1327, file: !1327, line: 222, type: !1520, flags: DIFlagPrototyped, spFlags: DISPFlagOptimized)
!1520 = !DISubroutineType(types: !1521)
!1521 = !{!52, !1403}
!1522 = !DIImportedEntity(tag: DW_TAG_imported_declaration, scope: !86, entity: !1523, file: !1321, line: 184)
!1523 = !DISubprogram(name: "wcsncat", scope: !1327, file: !1327, line: 101, type: !1524, flags: DIFlagPrototyped, spFlags: DISPFlagOptimized)
!1524 = !DISubroutineType(types: !1525)
!1525 = !{!1390, !1392, !1402, !52}
!1526 = !DIImportedEntity(tag: DW_TAG_imported_declaration, scope: !86, entity: !1527, file: !1321, line: 185)
!1527 = !DISubprogram(name: "wcsncmp", scope: !1327, file: !1327, line: 109, type: !1528, flags: DIFlagPrototyped, spFlags: DISPFlagOptimized)
!1528 = !DISubroutineType(types: !1529)
!1529 = !{!67, !1403, !1403, !52}
!1530 = !DIImportedEntity(tag: DW_TAG_imported_declaration, scope: !86, entity: !1531, file: !1321, line: 186)
!1531 = !DISubprogram(name: "wcsncpy", scope: !1327, file: !1327, line: 92, type: !1524, flags: DIFlagPrototyped, spFlags: DISPFlagOptimized)
!1532 = !DIImportedEntity(tag: DW_TAG_imported_declaration, scope: !86, entity: !1533, file: !1321, line: 187)
!1533 = !DISubprogram(name: "wcsrtombs", scope: !1327, file: !1327, line: 343, type: !1534, flags: DIFlagPrototyped, spFlags: DISPFlagOptimized)
!1534 = !DISubroutineType(types: !1535)
!1535 = !{!52, !1493, !1536, !52, !1426}
!1536 = !DIDerivedType(tag: DW_TAG_restrict_type, baseType: !1537)
!1537 = !DIDerivedType(tag: DW_TAG_pointer_type, baseType: !1403, size: 64)
!1538 = !DIImportedEntity(tag: DW_TAG_imported_declaration, scope: !86, entity: !1539, file: !1321, line: 188)
!1539 = !DISubprogram(name: "wcsspn", scope: !1327, file: !1327, line: 191, type: !1508, flags: DIFlagPrototyped, spFlags: DISPFlagOptimized)
!1540 = !DIImportedEntity(tag: DW_TAG_imported_declaration, scope: !86, entity: !1541, file: !1321, line: 189)
!1541 = !DISubprogram(name: "wcstod", scope: !1327, file: !1327, line: 377, type: !1542, flags: DIFlagPrototyped, spFlags: DISPFlagOptimized)
!1542 = !DISubroutineType(types: !1543)
!1543 = !{!1544, !1402, !1545}
!1544 = !DIBasicType(name: "double", size: 64, encoding: DW_ATE_float)
!1545 = !DIDerivedType(tag: DW_TAG_restrict_type, baseType: !1546)
!1546 = !DIDerivedType(tag: DW_TAG_pointer_type, baseType: !1390, size: 64)
!1547 = !DIImportedEntity(tag: DW_TAG_imported_declaration, scope: !86, entity: !1548, file: !1321, line: 191)
!1548 = !DISubprogram(name: "wcstof", scope: !1327, file: !1327, line: 382, type: !1549, flags: DIFlagPrototyped, spFlags: DISPFlagOptimized)
!1549 = !DISubroutineType(types: !1550)
!1550 = !{!1551, !1402, !1545}
!1551 = !DIBasicType(name: "float", size: 32, encoding: DW_ATE_float)
!1552 = !DIImportedEntity(tag: DW_TAG_imported_declaration, scope: !86, entity: !1553, file: !1321, line: 193)
!1553 = !DISubprogram(name: "wcstok", scope: !1327, file: !1327, line: 217, type: !1554, flags: DIFlagPrototyped, spFlags: DISPFlagOptimized)
!1554 = !DISubroutineType(types: !1555)
!1555 = !{!1390, !1392, !1402, !1545}
!1556 = !DIImportedEntity(tag: DW_TAG_imported_declaration, scope: !86, entity: !1557, file: !1321, line: 194)
!1557 = !DISubprogram(name: "wcstol", scope: !1327, file: !1327, line: 428, type: !1558, flags: DIFlagPrototyped, spFlags: DISPFlagOptimized)
!1558 = !DISubroutineType(types: !1559)
!1559 = !{!1362, !1402, !1545, !67}
!1560 = !DIImportedEntity(tag: DW_TAG_imported_declaration, scope: !86, entity: !1561, file: !1321, line: 195)
!1561 = !DISubprogram(name: "wcstoul", scope: !1327, file: !1327, line: 433, type: !1562, flags: DIFlagPrototyped, spFlags: DISPFlagOptimized)
!1562 = !DISubroutineType(types: !1563)
!1563 = !{!54, !1402, !1545, !67}
!1564 = !DIImportedEntity(tag: DW_TAG_imported_declaration, scope: !86, entity: !1565, file: !1321, line: 196)
!1565 = !DISubprogram(name: "wcsxfrm", scope: !1327, file: !1327, line: 135, type: !1566, flags: DIFlagPrototyped, spFlags: DISPFlagOptimized)
!1566 = !DISubroutineType(types: !1567)
!1567 = !{!52, !1392, !1402, !52}
!1568 = !DIImportedEntity(tag: DW_TAG_imported_declaration, scope: !86, entity: !1569, file: !1321, line: 197)
!1569 = !DISubprogram(name: "wctob", scope: !1327, file: !1327, line: 324, type: !1570, flags: DIFlagPrototyped, spFlags: DISPFlagOptimized)
!1570 = !DISubroutineType(types: !1571)
!1571 = !{!67, !1323}
!1572 = !DIImportedEntity(tag: DW_TAG_imported_declaration, scope: !86, entity: !1573, file: !1321, line: 198)
!1573 = !DISubprogram(name: "wmemcmp", scope: !1327, file: !1327, line: 258, type: !1528, flags: DIFlagPrototyped, spFlags: DISPFlagOptimized)
!1574 = !DIImportedEntity(tag: DW_TAG_imported_declaration, scope: !86, entity: !1575, file: !1321, line: 199)
!1575 = !DISubprogram(name: "wmemcpy", scope: !1327, file: !1327, line: 262, type: !1524, flags: DIFlagPrototyped, spFlags: DISPFlagOptimized)
!1576 = !DIImportedEntity(tag: DW_TAG_imported_declaration, scope: !86, entity: !1577, file: !1321, line: 200)
!1577 = !DISubprogram(name: "wmemmove", scope: !1327, file: !1327, line: 267, type: !1578, flags: DIFlagPrototyped, spFlags: DISPFlagOptimized)
!1578 = !DISubroutineType(types: !1579)
!1579 = !{!1390, !1390, !1403, !52}
!1580 = !DIImportedEntity(tag: DW_TAG_imported_declaration, scope: !86, entity: !1581, file: !1321, line: 201)
!1581 = !DISubprogram(name: "wmemset", scope: !1327, file: !1327, line: 271, type: !1582, flags: DIFlagPrototyped, spFlags: DISPFlagOptimized)
!1582 = !DISubroutineType(types: !1583)
!1583 = !{!1390, !1390, !1391, !52}
!1584 = !DIImportedEntity(tag: DW_TAG_imported_declaration, scope: !86, entity: !1585, file: !1321, line: 202)
!1585 = !DISubprogram(name: "wprintf", scope: !1327, file: !1327, line: 587, type: !1586, flags: DIFlagPrototyped, spFlags: DISPFlagOptimized)
!1586 = !DISubroutineType(types: !1587)
!1587 = !{!67, !1402, null}
!1588 = !DIImportedEntity(tag: DW_TAG_imported_declaration, scope: !86, entity: !1589, file: !1321, line: 203)
!1589 = !DISubprogram(name: "wscanf", scope: !1327, file: !1327, line: 628, type: !1586, flags: DIFlagPrototyped, spFlags: DISPFlagOptimized)
!1590 = !DIImportedEntity(tag: DW_TAG_imported_declaration, scope: !86, entity: !1591, file: !1321, line: 204)
!1591 = !DISubprogram(name: "wcschr", scope: !1327, file: !1327, line: 164, type: !1592, flags: DIFlagPrototyped, spFlags: DISPFlagOptimized)
!1592 = !DISubroutineType(types: !1593)
!1593 = !{!1390, !1403, !1391}
!1594 = !DIImportedEntity(tag: DW_TAG_imported_declaration, scope: !86, entity: !1595, file: !1321, line: 205)
!1595 = !DISubprogram(name: "wcspbrk", scope: !1327, file: !1327, line: 201, type: !1596, flags: DIFlagPrototyped, spFlags: DISPFlagOptimized)
!1596 = !DISubroutineType(types: !1597)
!1597 = !{!1390, !1403, !1403}
!1598 = !DIImportedEntity(tag: DW_TAG_imported_declaration, scope: !86, entity: !1599, file: !1321, line: 206)
!1599 = !DISubprogram(name: "wcsrchr", scope: !1327, file: !1327, line: 174, type: !1592, flags: DIFlagPrototyped, spFlags: DISPFlagOptimized)
!1600 = !DIImportedEntity(tag: DW_TAG_imported_declaration, scope: !86, entity: !1601, file: !1321, line: 207)
!1601 = !DISubprogram(name: "wcsstr", scope: !1327, file: !1327, line: 212, type: !1596, flags: DIFlagPrototyped, spFlags: DISPFlagOptimized)
!1602 = !DIImportedEntity(tag: DW_TAG_imported_declaration, scope: !86, entity: !1603, file: !1321, line: 208)
!1603 = !DISubprogram(name: "wmemchr", scope: !1327, file: !1327, line: 253, type: !1604, flags: DIFlagPrototyped, spFlags: DISPFlagOptimized)
!1604 = !DISubroutineType(types: !1605)
!1605 = !{!1390, !1403, !1391, !52}
!1606 = !DIImportedEntity(tag: DW_TAG_imported_declaration, scope: !628, entity: !1607, file: !1321, line: 248)
!1607 = !DISubprogram(name: "wcstold", scope: !1327, file: !1327, line: 384, type: !1608, flags: DIFlagPrototyped, spFlags: DISPFlagOptimized)
!1608 = !DISubroutineType(types: !1609)
!1609 = !{!1610, !1402, !1545}
!1610 = !DIBasicType(name: "long double", size: 128, encoding: DW_ATE_float)
!1611 = !DIImportedEntity(tag: DW_TAG_imported_declaration, scope: !628, entity: !1612, file: !1321, line: 257)
!1612 = !DISubprogram(name: "wcstoll", scope: !1327, file: !1327, line: 441, type: !1613, flags: DIFlagPrototyped, spFlags: DISPFlagOptimized)
!1613 = !DISubroutineType(types: !1614)
!1614 = !{!1615, !1402, !1545, !67}
!1615 = !DIBasicType(name: "long long int", size: 64, encoding: DW_ATE_signed)
!1616 = !DIImportedEntity(tag: DW_TAG_imported_declaration, scope: !628, entity: !1617, file: !1321, line: 258)
!1617 = !DISubprogram(name: "wcstoull", scope: !1327, file: !1327, line: 448, type: !1618, flags: DIFlagPrototyped, spFlags: DISPFlagOptimized)
!1618 = !DISubroutineType(types: !1619)
!1619 = !{!1620, !1402, !1545, !67}
!1620 = !DIBasicType(name: "long long unsigned int", size: 64, encoding: DW_ATE_unsigned)
!1621 = !DIImportedEntity(tag: DW_TAG_imported_declaration, scope: !86, entity: !1607, file: !1321, line: 264)
!1622 = !DIImportedEntity(tag: DW_TAG_imported_declaration, scope: !86, entity: !1612, file: !1321, line: 265)
!1623 = !DIImportedEntity(tag: DW_TAG_imported_declaration, scope: !86, entity: !1617, file: !1321, line: 266)
!1624 = !DIImportedEntity(tag: DW_TAG_imported_declaration, scope: !86, entity: !1548, file: !1321, line: 280)
!1625 = !DIImportedEntity(tag: DW_TAG_imported_declaration, scope: !86, entity: !1474, file: !1321, line: 283)
!1626 = !DIImportedEntity(tag: DW_TAG_imported_declaration, scope: !86, entity: !1480, file: !1321, line: 286)
!1627 = !DIImportedEntity(tag: DW_TAG_imported_declaration, scope: !86, entity: !1488, file: !1321, line: 289)
!1628 = !DIImportedEntity(tag: DW_TAG_imported_declaration, scope: !86, entity: !1607, file: !1321, line: 293)
!1629 = !DIImportedEntity(tag: DW_TAG_imported_declaration, scope: !86, entity: !1612, file: !1321, line: 294)
!1630 = !DIImportedEntity(tag: DW_TAG_imported_declaration, scope: !86, entity: !1617, file: !1321, line: 295)
!1631 = !DIImportedEntity(tag: DW_TAG_imported_declaration, scope: !86, entity: !1632, file: !1635, line: 48)
!1632 = !DIDerivedType(tag: DW_TAG_typedef, name: "int8_t", file: !1633, line: 24, baseType: !1634)
!1633 = !DIFile(filename: "/usr/include/x86_64-linux-gnu/bits/stdint-intn.h", directory: "")
!1634 = !DIDerivedType(tag: DW_TAG_typedef, name: "__int8_t", file: !1361, line: 36, baseType: !1366)
!1635 = !DIFile(filename: "/usr/lib/gcc/x86_64-linux-gnu/7.5.0/../../../../include/c++/7.5.0/cstdint", directory: "")
!1636 = !DIImportedEntity(tag: DW_TAG_imported_declaration, scope: !86, entity: !1637, file: !1635, line: 49)
!1637 = !DIDerivedType(tag: DW_TAG_typedef, name: "int16_t", file: !1633, line: 25, baseType: !1638)
!1638 = !DIDerivedType(tag: DW_TAG_typedef, name: "__int16_t", file: !1361, line: 38, baseType: !1639)
!1639 = !DIBasicType(name: "short", size: 16, encoding: DW_ATE_signed)
!1640 = !DIImportedEntity(tag: DW_TAG_imported_declaration, scope: !86, entity: !1641, file: !1635, line: 50)
!1641 = !DIDerivedType(tag: DW_TAG_typedef, name: "int32_t", file: !1633, line: 26, baseType: !1642)
!1642 = !DIDerivedType(tag: DW_TAG_typedef, name: "__int32_t", file: !1361, line: 40, baseType: !67)
!1643 = !DIImportedEntity(tag: DW_TAG_imported_declaration, scope: !86, entity: !1644, file: !1635, line: 51)
!1644 = !DIDerivedType(tag: DW_TAG_typedef, name: "int64_t", file: !1633, line: 27, baseType: !1645)
!1645 = !DIDerivedType(tag: DW_TAG_typedef, name: "__int64_t", file: !1361, line: 43, baseType: !1362)
!1646 = !DIImportedEntity(tag: DW_TAG_imported_declaration, scope: !86, entity: !1647, file: !1635, line: 53)
!1647 = !DIDerivedType(tag: DW_TAG_typedef, name: "int_fast8_t", file: !1098, line: 68, baseType: !1366)
!1648 = !DIImportedEntity(tag: DW_TAG_imported_declaration, scope: !86, entity: !1649, file: !1635, line: 54)
!1649 = !DIDerivedType(tag: DW_TAG_typedef, name: "int_fast16_t", file: !1098, line: 70, baseType: !1362)
!1650 = !DIImportedEntity(tag: DW_TAG_imported_declaration, scope: !86, entity: !1651, file: !1635, line: 55)
!1651 = !DIDerivedType(tag: DW_TAG_typedef, name: "int_fast32_t", file: !1098, line: 71, baseType: !1362)
!1652 = !DIImportedEntity(tag: DW_TAG_imported_declaration, scope: !86, entity: !1653, file: !1635, line: 56)
!1653 = !DIDerivedType(tag: DW_TAG_typedef, name: "int_fast64_t", file: !1098, line: 72, baseType: !1362)
!1654 = !DIImportedEntity(tag: DW_TAG_imported_declaration, scope: !86, entity: !1655, file: !1635, line: 58)
!1655 = !DIDerivedType(tag: DW_TAG_typedef, name: "int_least8_t", file: !1098, line: 43, baseType: !1366)
!1656 = !DIImportedEntity(tag: DW_TAG_imported_declaration, scope: !86, entity: !1657, file: !1635, line: 59)
!1657 = !DIDerivedType(tag: DW_TAG_typedef, name: "int_least16_t", file: !1098, line: 44, baseType: !1639)
!1658 = !DIImportedEntity(tag: DW_TAG_imported_declaration, scope: !86, entity: !1659, file: !1635, line: 60)
!1659 = !DIDerivedType(tag: DW_TAG_typedef, name: "int_least32_t", file: !1098, line: 45, baseType: !67)
!1660 = !DIImportedEntity(tag: DW_TAG_imported_declaration, scope: !86, entity: !1661, file: !1635, line: 61)
!1661 = !DIDerivedType(tag: DW_TAG_typedef, name: "int_least64_t", file: !1098, line: 47, baseType: !1362)
!1662 = !DIImportedEntity(tag: DW_TAG_imported_declaration, scope: !86, entity: !1663, file: !1635, line: 63)
!1663 = !DIDerivedType(tag: DW_TAG_typedef, name: "intmax_t", file: !1098, line: 111, baseType: !1664)
!1664 = !DIDerivedType(tag: DW_TAG_typedef, name: "__intmax_t", file: !1361, line: 61, baseType: !1362)
!1665 = !DIImportedEntity(tag: DW_TAG_imported_declaration, scope: !86, entity: !1666, file: !1635, line: 64)
!1666 = !DIDerivedType(tag: DW_TAG_typedef, name: "intptr_t", file: !1098, line: 97, baseType: !1362)
!1667 = !DIImportedEntity(tag: DW_TAG_imported_declaration, scope: !86, entity: !1668, file: !1635, line: 66)
!1668 = !DIDerivedType(tag: DW_TAG_typedef, name: "uint8_t", file: !1669, line: 24, baseType: !1670)
!1669 = !DIFile(filename: "/usr/include/x86_64-linux-gnu/bits/stdint-uintn.h", directory: "")
!1670 = !DIDerivedType(tag: DW_TAG_typedef, name: "__uint8_t", file: !1361, line: 37, baseType: !1671)
!1671 = !DIBasicType(name: "unsigned char", size: 8, encoding: DW_ATE_unsigned_char)
!1672 = !DIImportedEntity(tag: DW_TAG_imported_declaration, scope: !86, entity: !1673, file: !1635, line: 67)
!1673 = !DIDerivedType(tag: DW_TAG_typedef, name: "uint16_t", file: !1669, line: 25, baseType: !1674)
!1674 = !DIDerivedType(tag: DW_TAG_typedef, name: "__uint16_t", file: !1361, line: 39, baseType: !1364)
!1675 = !DIImportedEntity(tag: DW_TAG_imported_declaration, scope: !86, entity: !1676, file: !1635, line: 68)
!1676 = !DIDerivedType(tag: DW_TAG_typedef, name: "uint32_t", file: !1669, line: 26, baseType: !1677)
!1677 = !DIDerivedType(tag: DW_TAG_typedef, name: "__uint32_t", file: !1361, line: 41, baseType: !19)
!1678 = !DIImportedEntity(tag: DW_TAG_imported_declaration, scope: !86, entity: !1679, file: !1635, line: 69)
!1679 = !DIDerivedType(tag: DW_TAG_typedef, name: "uint64_t", file: !1669, line: 27, baseType: !1680)
!1680 = !DIDerivedType(tag: DW_TAG_typedef, name: "__uint64_t", file: !1361, line: 44, baseType: !54)
!1681 = !DIImportedEntity(tag: DW_TAG_imported_declaration, scope: !86, entity: !1682, file: !1635, line: 71)
!1682 = !DIDerivedType(tag: DW_TAG_typedef, name: "uint_fast8_t", file: !1098, line: 81, baseType: !1671)
!1683 = !DIImportedEntity(tag: DW_TAG_imported_declaration, scope: !86, entity: !1684, file: !1635, line: 72)
!1684 = !DIDerivedType(tag: DW_TAG_typedef, name: "uint_fast16_t", file: !1098, line: 83, baseType: !54)
!1685 = !DIImportedEntity(tag: DW_TAG_imported_declaration, scope: !86, entity: !1686, file: !1635, line: 73)
!1686 = !DIDerivedType(tag: DW_TAG_typedef, name: "uint_fast32_t", file: !1098, line: 84, baseType: !54)
!1687 = !DIImportedEntity(tag: DW_TAG_imported_declaration, scope: !86, entity: !1688, file: !1635, line: 74)
!1688 = !DIDerivedType(tag: DW_TAG_typedef, name: "uint_fast64_t", file: !1098, line: 85, baseType: !54)
!1689 = !DIImportedEntity(tag: DW_TAG_imported_declaration, scope: !86, entity: !1690, file: !1635, line: 76)
!1690 = !DIDerivedType(tag: DW_TAG_typedef, name: "uint_least8_t", file: !1098, line: 54, baseType: !1671)
!1691 = !DIImportedEntity(tag: DW_TAG_imported_declaration, scope: !86, entity: !1692, file: !1635, line: 77)
!1692 = !DIDerivedType(tag: DW_TAG_typedef, name: "uint_least16_t", file: !1098, line: 55, baseType: !1364)
!1693 = !DIImportedEntity(tag: DW_TAG_imported_declaration, scope: !86, entity: !1694, file: !1635, line: 78)
!1694 = !DIDerivedType(tag: DW_TAG_typedef, name: "uint_least32_t", file: !1098, line: 56, baseType: !19)
!1695 = !DIImportedEntity(tag: DW_TAG_imported_declaration, scope: !86, entity: !1696, file: !1635, line: 79)
!1696 = !DIDerivedType(tag: DW_TAG_typedef, name: "uint_least64_t", file: !1098, line: 58, baseType: !54)
!1697 = !DIImportedEntity(tag: DW_TAG_imported_declaration, scope: !86, entity: !1698, file: !1635, line: 81)
!1698 = !DIDerivedType(tag: DW_TAG_typedef, name: "uintmax_t", file: !1098, line: 112, baseType: !1699)
!1699 = !DIDerivedType(tag: DW_TAG_typedef, name: "__uintmax_t", file: !1361, line: 62, baseType: !54)
!1700 = !DIImportedEntity(tag: DW_TAG_imported_declaration, scope: !86, entity: !1097, file: !1635, line: 82)
!1701 = !DIImportedEntity(tag: DW_TAG_imported_declaration, scope: !86, entity: !1702, file: !1703, line: 57)
!1702 = distinct !DICompositeType(tag: DW_TAG_class_type, name: "exception_ptr", scope: !1704, file: !1703, line: 79, size: 64, flags: DIFlagTypePassByReference | DIFlagNonTrivial, elements: !1705, identifier: "_ZTSNSt15__exception_ptr13exception_ptrE")
!1703 = !DIFile(filename: "/usr/lib/gcc/x86_64-linux-gnu/7.5.0/../../../../include/c++/7.5.0/bits/exception_ptr.h", directory: "")
!1704 = !DINamespace(name: "__exception_ptr", scope: !86)
!1705 = !{!1706, !1707, !1711, !1714, !1715, !1720, !1721, !1725, !1730, !1734, !1738, !1741, !1742, !1745, !1748}
!1706 = !DIDerivedType(tag: DW_TAG_member, name: "_M_exception_object", scope: !1702, file: !1703, line: 81, baseType: !30, size: 64)
!1707 = !DISubprogram(name: "exception_ptr", scope: !1702, file: !1703, line: 83, type: !1708, scopeLine: 83, flags: DIFlagExplicit | DIFlagPrototyped, spFlags: DISPFlagOptimized)
!1708 = !DISubroutineType(types: !1709)
!1709 = !{null, !1710, !30}
!1710 = !DIDerivedType(tag: DW_TAG_pointer_type, baseType: !1702, size: 64, flags: DIFlagArtificial | DIFlagObjectPointer)
!1711 = !DISubprogram(name: "_M_addref", linkageName: "_ZNSt15__exception_ptr13exception_ptr9_M_addrefEv", scope: !1702, file: !1703, line: 85, type: !1712, scopeLine: 85, flags: DIFlagPrototyped, spFlags: DISPFlagOptimized)
!1712 = !DISubroutineType(types: !1713)
!1713 = !{null, !1710}
!1714 = !DISubprogram(name: "_M_release", linkageName: "_ZNSt15__exception_ptr13exception_ptr10_M_releaseEv", scope: !1702, file: !1703, line: 86, type: !1712, scopeLine: 86, flags: DIFlagPrototyped, spFlags: DISPFlagOptimized)
!1715 = !DISubprogram(name: "_M_get", linkageName: "_ZNKSt15__exception_ptr13exception_ptr6_M_getEv", scope: !1702, file: !1703, line: 88, type: !1716, scopeLine: 88, flags: DIFlagPrototyped, spFlags: DISPFlagOptimized)
!1716 = !DISubroutineType(types: !1717)
!1717 = !{!30, !1718}
!1718 = !DIDerivedType(tag: DW_TAG_pointer_type, baseType: !1719, size: 64, flags: DIFlagArtificial | DIFlagObjectPointer)
!1719 = !DIDerivedType(tag: DW_TAG_const_type, baseType: !1702)
!1720 = !DISubprogram(name: "exception_ptr", scope: !1702, file: !1703, line: 96, type: !1712, scopeLine: 96, flags: DIFlagPublic | DIFlagPrototyped, spFlags: DISPFlagOptimized)
!1721 = !DISubprogram(name: "exception_ptr", scope: !1702, file: !1703, line: 98, type: !1722, scopeLine: 98, flags: DIFlagPublic | DIFlagPrototyped, spFlags: DISPFlagOptimized)
!1722 = !DISubroutineType(types: !1723)
!1723 = !{null, !1710, !1724}
!1724 = !DIDerivedType(tag: DW_TAG_reference_type, baseType: !1719, size: 64)
!1725 = !DISubprogram(name: "exception_ptr", scope: !1702, file: !1703, line: 101, type: !1726, scopeLine: 101, flags: DIFlagPublic | DIFlagPrototyped, spFlags: DISPFlagOptimized)
!1726 = !DISubroutineType(types: !1727)
!1727 = !{null, !1710, !1728}
!1728 = !DIDerivedType(tag: DW_TAG_typedef, name: "nullptr_t", scope: !86, file: !644, line: 235, baseType: !1729)
!1729 = !DIBasicType(tag: DW_TAG_unspecified_type, name: "decltype(nullptr)")
!1730 = !DISubprogram(name: "exception_ptr", scope: !1702, file: !1703, line: 105, type: !1731, scopeLine: 105, flags: DIFlagPublic | DIFlagPrototyped, spFlags: DISPFlagOptimized)
!1731 = !DISubroutineType(types: !1732)
!1732 = !{null, !1710, !1733}
!1733 = !DIDerivedType(tag: DW_TAG_rvalue_reference_type, baseType: !1702, size: 64)
!1734 = !DISubprogram(name: "operator=", linkageName: "_ZNSt15__exception_ptr13exception_ptraSERKS0_", scope: !1702, file: !1703, line: 118, type: !1735, scopeLine: 118, flags: DIFlagPublic | DIFlagPrototyped, spFlags: DISPFlagOptimized)
!1735 = !DISubroutineType(types: !1736)
!1736 = !{!1737, !1710, !1724}
!1737 = !DIDerivedType(tag: DW_TAG_reference_type, baseType: !1702, size: 64)
!1738 = !DISubprogram(name: "operator=", linkageName: "_ZNSt15__exception_ptr13exception_ptraSEOS0_", scope: !1702, file: !1703, line: 122, type: !1739, scopeLine: 122, flags: DIFlagPublic | DIFlagPrototyped, spFlags: DISPFlagOptimized)
!1739 = !DISubroutineType(types: !1740)
!1740 = !{!1737, !1710, !1733}
!1741 = !DISubprogram(name: "~exception_ptr", scope: !1702, file: !1703, line: 129, type: !1712, scopeLine: 129, flags: DIFlagPublic | DIFlagPrototyped, spFlags: DISPFlagOptimized)
!1742 = !DISubprogram(name: "swap", linkageName: "_ZNSt15__exception_ptr13exception_ptr4swapERS0_", scope: !1702, file: !1703, line: 132, type: !1743, scopeLine: 132, flags: DIFlagPublic | DIFlagPrototyped, spFlags: DISPFlagOptimized)
!1743 = !DISubroutineType(types: !1744)
!1744 = !{null, !1710, !1737}
!1745 = !DISubprogram(name: "operator bool", linkageName: "_ZNKSt15__exception_ptr13exception_ptrcvbEv", scope: !1702, file: !1703, line: 144, type: !1746, scopeLine: 144, flags: DIFlagPublic | DIFlagExplicit | DIFlagPrototyped, spFlags: DISPFlagOptimized)
!1746 = !DISubroutineType(types: !1747)
!1747 = !{!102, !1718}
!1748 = !DISubprogram(name: "__cxa_exception_type", linkageName: "_ZNKSt15__exception_ptr13exception_ptr20__cxa_exception_typeEv", scope: !1702, file: !1703, line: 153, type: !1749, scopeLine: 153, flags: DIFlagPublic | DIFlagPrototyped, spFlags: DISPFlagOptimized)
!1749 = !DISubroutineType(types: !1750)
!1750 = !{!1751, !1718}
!1751 = !DIDerivedType(tag: DW_TAG_pointer_type, baseType: !1752, size: 64)
!1752 = !DIDerivedType(tag: DW_TAG_const_type, baseType: !1753)
!1753 = distinct !DICompositeType(tag: DW_TAG_class_type, name: "type_info", scope: !86, file: !1754, line: 88, flags: DIFlagFwdDecl, identifier: "_ZTSSt9type_info")
!1754 = !DIFile(filename: "/usr/lib/gcc/x86_64-linux-gnu/7.5.0/../../../../include/c++/7.5.0/typeinfo", directory: "")
!1755 = !DIImportedEntity(tag: DW_TAG_imported_declaration, scope: !1704, entity: !1756, file: !1703, line: 73)
!1756 = !DISubprogram(name: "rethrow_exception", linkageName: "_ZSt17rethrow_exceptionNSt15__exception_ptr13exception_ptrE", scope: !86, file: !1703, line: 69, type: !1757, flags: DIFlagPrototyped | DIFlagNoReturn, spFlags: DISPFlagOptimized)
!1757 = !DISubroutineType(types: !1758)
!1758 = !{null, !1702}
!1759 = !DIImportedEntity(tag: DW_TAG_imported_declaration, scope: !628, entity: !643, file: !1760, line: 44)
!1760 = !DIFile(filename: "/usr/lib/gcc/x86_64-linux-gnu/7.5.0/../../../../include/c++/7.5.0/ext/new_allocator.h", directory: "")
!1761 = !DIImportedEntity(tag: DW_TAG_imported_declaration, scope: !628, entity: !1762, file: !1760, line: 45)
!1762 = !DIDerivedType(tag: DW_TAG_typedef, name: "ptrdiff_t", scope: !86, file: !644, line: 232, baseType: !1362)
!1763 = !DIImportedEntity(tag: DW_TAG_imported_declaration, scope: !86, entity: !1764, file: !1766, line: 53)
!1764 = distinct !DICompositeType(tag: DW_TAG_structure_type, name: "lconv", file: !1765, line: 51, flags: DIFlagFwdDecl, identifier: "_ZTS5lconv")
!1765 = !DIFile(filename: "/usr/include/locale.h", directory: "")
!1766 = !DIFile(filename: "/usr/lib/gcc/x86_64-linux-gnu/7.5.0/../../../../include/c++/7.5.0/clocale", directory: "")
!1767 = !DIImportedEntity(tag: DW_TAG_imported_declaration, scope: !86, entity: !1768, file: !1766, line: 54)
!1768 = !DISubprogram(name: "setlocale", scope: !1765, file: !1765, line: 122, type: !1769, flags: DIFlagPrototyped, spFlags: DISPFlagOptimized)
!1769 = !DISubroutineType(types: !1770)
!1770 = !{!308, !67, !56}
!1771 = !DIImportedEntity(tag: DW_TAG_imported_declaration, scope: !86, entity: !1772, file: !1766, line: 55)
!1772 = !DISubprogram(name: "localeconv", scope: !1765, file: !1765, line: 125, type: !1773, flags: DIFlagPrototyped, spFlags: DISPFlagOptimized)
!1773 = !DISubroutineType(types: !1774)
!1774 = !{!1775}
!1775 = !DIDerivedType(tag: DW_TAG_pointer_type, baseType: !1764, size: 64)
!1776 = !DIImportedEntity(tag: DW_TAG_imported_declaration, scope: !86, entity: !1777, file: !1781, line: 64)
!1777 = !DISubprogram(name: "isalnum", scope: !1778, file: !1778, line: 108, type: !1779, flags: DIFlagPrototyped, spFlags: DISPFlagOptimized)
!1778 = !DIFile(filename: "/usr/include/ctype.h", directory: "")
!1779 = !DISubroutineType(types: !1780)
!1780 = !{!67, !67}
!1781 = !DIFile(filename: "/usr/lib/gcc/x86_64-linux-gnu/7.5.0/../../../../include/c++/7.5.0/cctype", directory: "")
!1782 = !DIImportedEntity(tag: DW_TAG_imported_declaration, scope: !86, entity: !1783, file: !1781, line: 65)
!1783 = !DISubprogram(name: "isalpha", scope: !1778, file: !1778, line: 109, type: !1779, flags: DIFlagPrototyped, spFlags: DISPFlagOptimized)
!1784 = !DIImportedEntity(tag: DW_TAG_imported_declaration, scope: !86, entity: !1785, file: !1781, line: 66)
!1785 = !DISubprogram(name: "iscntrl", scope: !1778, file: !1778, line: 110, type: !1779, flags: DIFlagPrototyped, spFlags: DISPFlagOptimized)
!1786 = !DIImportedEntity(tag: DW_TAG_imported_declaration, scope: !86, entity: !1787, file: !1781, line: 67)
!1787 = !DISubprogram(name: "isdigit", scope: !1778, file: !1778, line: 111, type: !1779, flags: DIFlagPrototyped, spFlags: DISPFlagOptimized)
!1788 = !DIImportedEntity(tag: DW_TAG_imported_declaration, scope: !86, entity: !1789, file: !1781, line: 68)
!1789 = !DISubprogram(name: "isgraph", scope: !1778, file: !1778, line: 113, type: !1779, flags: DIFlagPrototyped, spFlags: DISPFlagOptimized)
!1790 = !DIImportedEntity(tag: DW_TAG_imported_declaration, scope: !86, entity: !1791, file: !1781, line: 69)
!1791 = !DISubprogram(name: "islower", scope: !1778, file: !1778, line: 112, type: !1779, flags: DIFlagPrototyped, spFlags: DISPFlagOptimized)
!1792 = !DIImportedEntity(tag: DW_TAG_imported_declaration, scope: !86, entity: !1793, file: !1781, line: 70)
!1793 = !DISubprogram(name: "isprint", scope: !1778, file: !1778, line: 114, type: !1779, flags: DIFlagPrototyped, spFlags: DISPFlagOptimized)
!1794 = !DIImportedEntity(tag: DW_TAG_imported_declaration, scope: !86, entity: !1795, file: !1781, line: 71)
!1795 = !DISubprogram(name: "ispunct", scope: !1778, file: !1778, line: 115, type: !1779, flags: DIFlagPrototyped, spFlags: DISPFlagOptimized)
!1796 = !DIImportedEntity(tag: DW_TAG_imported_declaration, scope: !86, entity: !1797, file: !1781, line: 72)
!1797 = !DISubprogram(name: "isspace", scope: !1778, file: !1778, line: 116, type: !1779, flags: DIFlagPrototyped, spFlags: DISPFlagOptimized)
!1798 = !DIImportedEntity(tag: DW_TAG_imported_declaration, scope: !86, entity: !1799, file: !1781, line: 73)
!1799 = !DISubprogram(name: "isupper", scope: !1778, file: !1778, line: 117, type: !1779, flags: DIFlagPrototyped, spFlags: DISPFlagOptimized)
!1800 = !DIImportedEntity(tag: DW_TAG_imported_declaration, scope: !86, entity: !1801, file: !1781, line: 74)
!1801 = !DISubprogram(name: "isxdigit", scope: !1778, file: !1778, line: 118, type: !1779, flags: DIFlagPrototyped, spFlags: DISPFlagOptimized)
!1802 = !DIImportedEntity(tag: DW_TAG_imported_declaration, scope: !86, entity: !1803, file: !1781, line: 75)
!1803 = !DISubprogram(name: "tolower", scope: !1778, file: !1778, line: 122, type: !1779, flags: DIFlagPrototyped, spFlags: DISPFlagOptimized)
!1804 = !DIImportedEntity(tag: DW_TAG_imported_declaration, scope: !86, entity: !1805, file: !1781, line: 76)
!1805 = !DISubprogram(name: "toupper", scope: !1778, file: !1778, line: 125, type: !1779, flags: DIFlagPrototyped, spFlags: DISPFlagOptimized)
!1806 = !DIImportedEntity(tag: DW_TAG_imported_declaration, scope: !86, entity: !1807, file: !1781, line: 87)
!1807 = !DISubprogram(name: "isblank", scope: !1778, file: !1778, line: 130, type: !1779, flags: DIFlagPrototyped, spFlags: DISPFlagOptimized)
!1808 = !DIImportedEntity(tag: DW_TAG_imported_declaration, scope: !86, entity: !1809, file: !1810, line: 52)
!1809 = !DISubprogram(name: "abs", scope: !620, file: !620, line: 837, type: !1779, flags: DIFlagPrototyped, spFlags: DISPFlagOptimized)
!1810 = !DIFile(filename: "/usr/lib/gcc/x86_64-linux-gnu/7.5.0/../../../../include/c++/7.5.0/bits/std_abs.h", directory: "")
!1811 = !DIImportedEntity(tag: DW_TAG_imported_declaration, scope: !86, entity: !1812, file: !1814, line: 127)
!1812 = !DIDerivedType(tag: DW_TAG_typedef, name: "div_t", file: !620, line: 62, baseType: !1813)
!1813 = distinct !DICompositeType(tag: DW_TAG_structure_type, file: !620, line: 58, flags: DIFlagFwdDecl, identifier: "_ZTS5div_t")
!1814 = !DIFile(filename: "/usr/lib/gcc/x86_64-linux-gnu/7.5.0/../../../../include/c++/7.5.0/cstdlib", directory: "")
!1815 = !DIImportedEntity(tag: DW_TAG_imported_declaration, scope: !86, entity: !1816, file: !1814, line: 128)
!1816 = !DIDerivedType(tag: DW_TAG_typedef, name: "ldiv_t", file: !620, line: 70, baseType: !1817)
!1817 = distinct !DICompositeType(tag: DW_TAG_structure_type, file: !620, line: 66, size: 128, flags: DIFlagTypePassByValue, elements: !1818, identifier: "_ZTS6ldiv_t")
!1818 = !{!1819, !1820}
!1819 = !DIDerivedType(tag: DW_TAG_member, name: "quot", scope: !1817, file: !620, line: 68, baseType: !1362, size: 64)
!1820 = !DIDerivedType(tag: DW_TAG_member, name: "rem", scope: !1817, file: !620, line: 69, baseType: !1362, size: 64, offset: 64)
!1821 = !DIImportedEntity(tag: DW_TAG_imported_declaration, scope: !86, entity: !1822, file: !1814, line: 130)
!1822 = !DISubprogram(name: "abort", scope: !620, file: !620, line: 588, type: !355, flags: DIFlagPrototyped | DIFlagNoReturn, spFlags: DISPFlagOptimized)
!1823 = !DIImportedEntity(tag: DW_TAG_imported_declaration, scope: !86, entity: !1824, file: !1814, line: 134)
!1824 = !DISubprogram(name: "atexit", scope: !620, file: !620, line: 592, type: !1825, flags: DIFlagPrototyped, spFlags: DISPFlagOptimized)
!1825 = !DISubroutineType(types: !1826)
!1826 = !{!67, !1827}
!1827 = !DIDerivedType(tag: DW_TAG_pointer_type, baseType: !355, size: 64)
!1828 = !DIImportedEntity(tag: DW_TAG_imported_declaration, scope: !86, entity: !1829, file: !1814, line: 137)
!1829 = !DISubprogram(name: "at_quick_exit", scope: !620, file: !620, line: 597, type: !1825, flags: DIFlagPrototyped, spFlags: DISPFlagOptimized)
!1830 = !DIImportedEntity(tag: DW_TAG_imported_declaration, scope: !86, entity: !1831, file: !1814, line: 140)
!1831 = !DISubprogram(name: "atof", scope: !1832, file: !1832, line: 25, type: !1833, flags: DIFlagPrototyped, spFlags: DISPFlagOptimized)
!1832 = !DIFile(filename: "/usr/include/x86_64-linux-gnu/bits/stdlib-float.h", directory: "")
!1833 = !DISubroutineType(types: !1834)
!1834 = !{!1544, !56}
!1835 = !DIImportedEntity(tag: DW_TAG_imported_declaration, scope: !86, entity: !1836, file: !1814, line: 141)
!1836 = !DISubprogram(name: "atoi", scope: !620, file: !620, line: 361, type: !1837, flags: DIFlagPrototyped, spFlags: DISPFlagOptimized)
!1837 = !DISubroutineType(types: !1838)
!1838 = !{!67, !56}
!1839 = !DIImportedEntity(tag: DW_TAG_imported_declaration, scope: !86, entity: !1840, file: !1814, line: 142)
!1840 = !DISubprogram(name: "atol", scope: !620, file: !620, line: 366, type: !1841, flags: DIFlagPrototyped, spFlags: DISPFlagOptimized)
!1841 = !DISubroutineType(types: !1842)
!1842 = !{!1362, !56}
!1843 = !DIImportedEntity(tag: DW_TAG_imported_declaration, scope: !86, entity: !1844, file: !1814, line: 143)
!1844 = !DISubprogram(name: "bsearch", scope: !1845, file: !1845, line: 20, type: !1846, flags: DIFlagPrototyped, spFlags: DISPFlagOptimized)
!1845 = !DIFile(filename: "/usr/include/x86_64-linux-gnu/bits/stdlib-bsearch.h", directory: "")
!1846 = !DISubroutineType(types: !1847)
!1847 = !{!30, !471, !471, !52, !52, !1848}
!1848 = !DIDerivedType(tag: DW_TAG_typedef, name: "__compar_fn_t", file: !620, line: 805, baseType: !1849)
!1849 = !DIDerivedType(tag: DW_TAG_pointer_type, baseType: !1850, size: 64)
!1850 = !DISubroutineType(types: !1851)
!1851 = !{!67, !471, !471}
!1852 = !DIImportedEntity(tag: DW_TAG_imported_declaration, scope: !86, entity: !1853, file: !1814, line: 144)
!1853 = !DISubprogram(name: "calloc", scope: !620, file: !620, line: 541, type: !1854, flags: DIFlagPrototyped, spFlags: DISPFlagOptimized)
!1854 = !DISubroutineType(types: !1855)
!1855 = !{!30, !52, !52}
!1856 = !DIImportedEntity(tag: DW_TAG_imported_declaration, scope: !86, entity: !1857, file: !1814, line: 145)
!1857 = !DISubprogram(name: "div", scope: !620, file: !620, line: 849, type: !1858, flags: DIFlagPrototyped, spFlags: DISPFlagOptimized)
!1858 = !DISubroutineType(types: !1859)
!1859 = !{!1812, !67, !67}
!1860 = !DIImportedEntity(tag: DW_TAG_imported_declaration, scope: !86, entity: !1861, file: !1814, line: 146)
!1861 = !DISubprogram(name: "exit", scope: !620, file: !620, line: 614, type: !1862, flags: DIFlagPrototyped | DIFlagNoReturn, spFlags: DISPFlagOptimized)
!1862 = !DISubroutineType(types: !1863)
!1863 = !{null, !67}
!1864 = !DIImportedEntity(tag: DW_TAG_imported_declaration, scope: !86, entity: !1865, file: !1814, line: 147)
!1865 = !DISubprogram(name: "free", scope: !620, file: !620, line: 563, type: !621, flags: DIFlagPrototyped, spFlags: DISPFlagOptimized)
!1866 = !DIImportedEntity(tag: DW_TAG_imported_declaration, scope: !86, entity: !1867, file: !1814, line: 148)
!1867 = !DISubprogram(name: "getenv", scope: !620, file: !620, line: 631, type: !1868, flags: DIFlagPrototyped, spFlags: DISPFlagOptimized)
!1868 = !DISubroutineType(types: !1869)
!1869 = !{!308, !56}
!1870 = !DIImportedEntity(tag: DW_TAG_imported_declaration, scope: !86, entity: !1871, file: !1814, line: 149)
!1871 = !DISubprogram(name: "labs", scope: !620, file: !620, line: 838, type: !1872, flags: DIFlagPrototyped, spFlags: DISPFlagOptimized)
!1872 = !DISubroutineType(types: !1873)
!1873 = !{!1362, !1362}
!1874 = !DIImportedEntity(tag: DW_TAG_imported_declaration, scope: !86, entity: !1875, file: !1814, line: 150)
!1875 = !DISubprogram(name: "ldiv", scope: !620, file: !620, line: 851, type: !1876, flags: DIFlagPrototyped, spFlags: DISPFlagOptimized)
!1876 = !DISubroutineType(types: !1877)
!1877 = !{!1816, !1362, !1362}
!1878 = !DIImportedEntity(tag: DW_TAG_imported_declaration, scope: !86, entity: !1879, file: !1814, line: 151)
!1879 = !DISubprogram(name: "malloc", scope: !620, file: !620, line: 539, type: !1880, flags: DIFlagPrototyped, spFlags: DISPFlagOptimized)
!1880 = !DISubroutineType(types: !1881)
!1881 = !{!30, !52}
!1882 = !DIImportedEntity(tag: DW_TAG_imported_declaration, scope: !86, entity: !1883, file: !1814, line: 153)
!1883 = !DISubprogram(name: "mblen", scope: !620, file: !620, line: 919, type: !1884, flags: DIFlagPrototyped, spFlags: DISPFlagOptimized)
!1884 = !DISubroutineType(types: !1885)
!1885 = !{!67, !56, !52}
!1886 = !DIImportedEntity(tag: DW_TAG_imported_declaration, scope: !86, entity: !1887, file: !1814, line: 154)
!1887 = !DISubprogram(name: "mbstowcs", scope: !620, file: !620, line: 930, type: !1888, flags: DIFlagPrototyped, spFlags: DISPFlagOptimized)
!1888 = !DISubroutineType(types: !1889)
!1889 = !{!52, !1392, !1425, !52}
!1890 = !DIImportedEntity(tag: DW_TAG_imported_declaration, scope: !86, entity: !1891, file: !1814, line: 155)
!1891 = !DISubprogram(name: "mbtowc", scope: !620, file: !620, line: 922, type: !1892, flags: DIFlagPrototyped, spFlags: DISPFlagOptimized)
!1892 = !DISubroutineType(types: !1893)
!1893 = !{!67, !1392, !1425, !52}
!1894 = !DIImportedEntity(tag: DW_TAG_imported_declaration, scope: !86, entity: !1895, file: !1814, line: 157)
!1895 = !DISubprogram(name: "qsort", scope: !620, file: !620, line: 827, type: !1896, flags: DIFlagPrototyped, spFlags: DISPFlagOptimized)
!1896 = !DISubroutineType(types: !1897)
!1897 = !{null, !30, !52, !52, !1848}
!1898 = !DIImportedEntity(tag: DW_TAG_imported_declaration, scope: !86, entity: !1899, file: !1814, line: 160)
!1899 = !DISubprogram(name: "quick_exit", scope: !620, file: !620, line: 620, type: !1862, flags: DIFlagPrototyped | DIFlagNoReturn, spFlags: DISPFlagOptimized)
!1900 = !DIImportedEntity(tag: DW_TAG_imported_declaration, scope: !86, entity: !1901, file: !1814, line: 163)
!1901 = !DISubprogram(name: "rand", scope: !620, file: !620, line: 453, type: !1902, flags: DIFlagPrototyped, spFlags: DISPFlagOptimized)
!1902 = !DISubroutineType(types: !1903)
!1903 = !{!67}
!1904 = !DIImportedEntity(tag: DW_TAG_imported_declaration, scope: !86, entity: !1905, file: !1814, line: 164)
!1905 = !DISubprogram(name: "realloc", scope: !620, file: !620, line: 549, type: !1906, flags: DIFlagPrototyped, spFlags: DISPFlagOptimized)
!1906 = !DISubroutineType(types: !1907)
!1907 = !{!30, !30, !52}
!1908 = !DIImportedEntity(tag: DW_TAG_imported_declaration, scope: !86, entity: !1909, file: !1814, line: 165)
!1909 = !DISubprogram(name: "srand", scope: !620, file: !620, line: 455, type: !1910, flags: DIFlagPrototyped, spFlags: DISPFlagOptimized)
!1910 = !DISubroutineType(types: !1911)
!1911 = !{null, !19}
!1912 = !DIImportedEntity(tag: DW_TAG_imported_declaration, scope: !86, entity: !1913, file: !1814, line: 166)
!1913 = !DISubprogram(name: "strtod", scope: !620, file: !620, line: 117, type: !1914, flags: DIFlagPrototyped, spFlags: DISPFlagOptimized)
!1914 = !DISubroutineType(types: !1915)
!1915 = !{!1544, !1425, !1916}
!1916 = !DIDerivedType(tag: DW_TAG_restrict_type, baseType: !1917)
!1917 = !DIDerivedType(tag: DW_TAG_pointer_type, baseType: !308, size: 64)
!1918 = !DIImportedEntity(tag: DW_TAG_imported_declaration, scope: !86, entity: !1919, file: !1814, line: 167)
!1919 = !DISubprogram(name: "strtol", scope: !620, file: !620, line: 176, type: !1920, flags: DIFlagPrototyped, spFlags: DISPFlagOptimized)
!1920 = !DISubroutineType(types: !1921)
!1921 = !{!1362, !1425, !1916, !67}
!1922 = !DIImportedEntity(tag: DW_TAG_imported_declaration, scope: !86, entity: !1923, file: !1814, line: 168)
!1923 = !DISubprogram(name: "strtoul", scope: !620, file: !620, line: 180, type: !1924, flags: DIFlagPrototyped, spFlags: DISPFlagOptimized)
!1924 = !DISubroutineType(types: !1925)
!1925 = !{!54, !1425, !1916, !67}
!1926 = !DIImportedEntity(tag: DW_TAG_imported_declaration, scope: !86, entity: !1927, file: !1814, line: 169)
!1927 = !DISubprogram(name: "system", scope: !620, file: !620, line: 781, type: !1837, flags: DIFlagPrototyped, spFlags: DISPFlagOptimized)
!1928 = !DIImportedEntity(tag: DW_TAG_imported_declaration, scope: !86, entity: !1929, file: !1814, line: 171)
!1929 = !DISubprogram(name: "wcstombs", scope: !620, file: !620, line: 933, type: !1930, flags: DIFlagPrototyped, spFlags: DISPFlagOptimized)
!1930 = !DISubroutineType(types: !1931)
!1931 = !{!52, !1493, !1402, !52}
!1932 = !DIImportedEntity(tag: DW_TAG_imported_declaration, scope: !86, entity: !1933, file: !1814, line: 172)
!1933 = !DISubprogram(name: "wctomb", scope: !620, file: !620, line: 926, type: !1934, flags: DIFlagPrototyped, spFlags: DISPFlagOptimized)
!1934 = !DISubroutineType(types: !1935)
!1935 = !{!67, !308, !1391}
!1936 = !DIImportedEntity(tag: DW_TAG_imported_declaration, scope: !628, entity: !1937, file: !1814, line: 200)
!1937 = !DIDerivedType(tag: DW_TAG_typedef, name: "lldiv_t", file: !620, line: 80, baseType: !1938)
!1938 = distinct !DICompositeType(tag: DW_TAG_structure_type, file: !620, line: 76, size: 128, flags: DIFlagTypePassByValue, elements: !1939, identifier: "_ZTS7lldiv_t")
!1939 = !{!1940, !1941}
!1940 = !DIDerivedType(tag: DW_TAG_member, name: "quot", scope: !1938, file: !620, line: 78, baseType: !1615, size: 64)
!1941 = !DIDerivedType(tag: DW_TAG_member, name: "rem", scope: !1938, file: !620, line: 79, baseType: !1615, size: 64, offset: 64)
!1942 = !DIImportedEntity(tag: DW_TAG_imported_declaration, scope: !628, entity: !1943, file: !1814, line: 206)
!1943 = !DISubprogram(name: "_Exit", scope: !620, file: !620, line: 626, type: !1862, flags: DIFlagPrototyped | DIFlagNoReturn, spFlags: DISPFlagOptimized)
!1944 = !DIImportedEntity(tag: DW_TAG_imported_declaration, scope: !628, entity: !1945, file: !1814, line: 210)
!1945 = !DISubprogram(name: "llabs", scope: !620, file: !620, line: 841, type: !1946, flags: DIFlagPrototyped, spFlags: DISPFlagOptimized)
!1946 = !DISubroutineType(types: !1947)
!1947 = !{!1615, !1615}
!1948 = !DIImportedEntity(tag: DW_TAG_imported_declaration, scope: !628, entity: !1949, file: !1814, line: 216)
!1949 = !DISubprogram(name: "lldiv", scope: !620, file: !620, line: 855, type: !1950, flags: DIFlagPrototyped, spFlags: DISPFlagOptimized)
!1950 = !DISubroutineType(types: !1951)
!1951 = !{!1937, !1615, !1615}
!1952 = !DIImportedEntity(tag: DW_TAG_imported_declaration, scope: !628, entity: !1953, file: !1814, line: 227)
!1953 = !DISubprogram(name: "atoll", scope: !620, file: !620, line: 373, type: !1954, flags: DIFlagPrototyped, spFlags: DISPFlagOptimized)
!1954 = !DISubroutineType(types: !1955)
!1955 = !{!1615, !56}
!1956 = !DIImportedEntity(tag: DW_TAG_imported_declaration, scope: !628, entity: !1957, file: !1814, line: 228)
!1957 = !DISubprogram(name: "strtoll", scope: !620, file: !620, line: 200, type: !1958, flags: DIFlagPrototyped, spFlags: DISPFlagOptimized)
!1958 = !DISubroutineType(types: !1959)
!1959 = !{!1615, !1425, !1916, !67}
!1960 = !DIImportedEntity(tag: DW_TAG_imported_declaration, scope: !628, entity: !1961, file: !1814, line: 229)
!1961 = !DISubprogram(name: "strtoull", scope: !620, file: !620, line: 205, type: !1962, flags: DIFlagPrototyped, spFlags: DISPFlagOptimized)
!1962 = !DISubroutineType(types: !1963)
!1963 = !{!1620, !1425, !1916, !67}
!1964 = !DIImportedEntity(tag: DW_TAG_imported_declaration, scope: !628, entity: !1965, file: !1814, line: 231)
!1965 = !DISubprogram(name: "strtof", scope: !620, file: !620, line: 123, type: !1966, flags: DIFlagPrototyped, spFlags: DISPFlagOptimized)
!1966 = !DISubroutineType(types: !1967)
!1967 = !{!1551, !1425, !1916}
!1968 = !DIImportedEntity(tag: DW_TAG_imported_declaration, scope: !628, entity: !1969, file: !1814, line: 232)
!1969 = !DISubprogram(name: "strtold", scope: !620, file: !620, line: 126, type: !1970, flags: DIFlagPrototyped, spFlags: DISPFlagOptimized)
!1970 = !DISubroutineType(types: !1971)
!1971 = !{!1610, !1425, !1916}
!1972 = !DIImportedEntity(tag: DW_TAG_imported_declaration, scope: !86, entity: !1937, file: !1814, line: 240)
!1973 = !DIImportedEntity(tag: DW_TAG_imported_declaration, scope: !86, entity: !1943, file: !1814, line: 242)
!1974 = !DIImportedEntity(tag: DW_TAG_imported_declaration, scope: !86, entity: !1945, file: !1814, line: 244)
!1975 = !DIImportedEntity(tag: DW_TAG_imported_declaration, scope: !86, entity: !1976, file: !1814, line: 245)
!1976 = !DISubprogram(name: "div", linkageName: "_ZN9__gnu_cxx3divExx", scope: !628, file: !1814, line: 213, type: !1950, flags: DIFlagPrototyped, spFlags: DISPFlagOptimized)
!1977 = !DIImportedEntity(tag: DW_TAG_imported_declaration, scope: !86, entity: !1949, file: !1814, line: 246)
!1978 = !DIImportedEntity(tag: DW_TAG_imported_declaration, scope: !86, entity: !1953, file: !1814, line: 248)
!1979 = !DIImportedEntity(tag: DW_TAG_imported_declaration, scope: !86, entity: !1965, file: !1814, line: 249)
!1980 = !DIImportedEntity(tag: DW_TAG_imported_declaration, scope: !86, entity: !1957, file: !1814, line: 250)
!1981 = !DIImportedEntity(tag: DW_TAG_imported_declaration, scope: !86, entity: !1961, file: !1814, line: 251)
!1982 = !DIImportedEntity(tag: DW_TAG_imported_declaration, scope: !86, entity: !1969, file: !1814, line: 252)
!1983 = !DIImportedEntity(tag: DW_TAG_imported_declaration, scope: !86, entity: !1984, file: !1986, line: 98)
!1984 = !DIDerivedType(tag: DW_TAG_typedef, name: "FILE", file: !1985, line: 7, baseType: !1337)
!1985 = !DIFile(filename: "/usr/include/x86_64-linux-gnu/bits/types/FILE.h", directory: "")
!1986 = !DIFile(filename: "/usr/lib/gcc/x86_64-linux-gnu/7.5.0/../../../../include/c++/7.5.0/cstdio", directory: "")
!1987 = !DIImportedEntity(tag: DW_TAG_imported_declaration, scope: !86, entity: !1988, file: !1986, line: 99)
!1988 = !DIDerivedType(tag: DW_TAG_typedef, name: "fpos_t", file: !1989, line: 78, baseType: !1990)
!1989 = !DIFile(filename: "/usr/include/stdio.h", directory: "")
!1990 = !DIDerivedType(tag: DW_TAG_typedef, name: "_G_fpos_t", file: !1991, line: 30, baseType: !1992)
!1991 = !DIFile(filename: "/usr/include/x86_64-linux-gnu/bits/_G_config.h", directory: "")
!1992 = distinct !DICompositeType(tag: DW_TAG_structure_type, file: !1991, line: 26, flags: DIFlagFwdDecl, identifier: "_ZTS9_G_fpos_t")
!1993 = !DIImportedEntity(tag: DW_TAG_imported_declaration, scope: !86, entity: !1994, file: !1986, line: 101)
!1994 = !DISubprogram(name: "clearerr", scope: !1989, file: !1989, line: 757, type: !1995, flags: DIFlagPrototyped, spFlags: DISPFlagOptimized)
!1995 = !DISubroutineType(types: !1996)
!1996 = !{null, !1997}
!1997 = !DIDerivedType(tag: DW_TAG_pointer_type, baseType: !1984, size: 64)
!1998 = !DIImportedEntity(tag: DW_TAG_imported_declaration, scope: !86, entity: !1999, file: !1986, line: 102)
!1999 = !DISubprogram(name: "fclose", scope: !1989, file: !1989, line: 199, type: !2000, flags: DIFlagPrototyped, spFlags: DISPFlagOptimized)
!2000 = !DISubroutineType(types: !2001)
!2001 = !{!67, !1997}
!2002 = !DIImportedEntity(tag: DW_TAG_imported_declaration, scope: !86, entity: !2003, file: !1986, line: 103)
!2003 = !DISubprogram(name: "feof", scope: !1989, file: !1989, line: 759, type: !2000, flags: DIFlagPrototyped, spFlags: DISPFlagOptimized)
!2004 = !DIImportedEntity(tag: DW_TAG_imported_declaration, scope: !86, entity: !2005, file: !1986, line: 104)
!2005 = !DISubprogram(name: "ferror", scope: !1989, file: !1989, line: 761, type: !2000, flags: DIFlagPrototyped, spFlags: DISPFlagOptimized)
!2006 = !DIImportedEntity(tag: DW_TAG_imported_declaration, scope: !86, entity: !2007, file: !1986, line: 105)
!2007 = !DISubprogram(name: "fflush", scope: !1989, file: !1989, line: 204, type: !2000, flags: DIFlagPrototyped, spFlags: DISPFlagOptimized)
!2008 = !DIImportedEntity(tag: DW_TAG_imported_declaration, scope: !86, entity: !2009, file: !1986, line: 106)
!2009 = !DISubprogram(name: "fgetc", scope: !1989, file: !1989, line: 477, type: !2000, flags: DIFlagPrototyped, spFlags: DISPFlagOptimized)
!2010 = !DIImportedEntity(tag: DW_TAG_imported_declaration, scope: !86, entity: !2011, file: !1986, line: 107)
!2011 = !DISubprogram(name: "fgetpos", scope: !1989, file: !1989, line: 731, type: !2012, flags: DIFlagPrototyped, spFlags: DISPFlagOptimized)
!2012 = !DISubroutineType(types: !2013)
!2013 = !{!67, !2014, !2015}
!2014 = !DIDerivedType(tag: DW_TAG_restrict_type, baseType: !1997)
!2015 = !DIDerivedType(tag: DW_TAG_restrict_type, baseType: !2016)
!2016 = !DIDerivedType(tag: DW_TAG_pointer_type, baseType: !1988, size: 64)
!2017 = !DIImportedEntity(tag: DW_TAG_imported_declaration, scope: !86, entity: !2018, file: !1986, line: 108)
!2018 = !DISubprogram(name: "fgets", scope: !1989, file: !1989, line: 564, type: !2019, flags: DIFlagPrototyped, spFlags: DISPFlagOptimized)
!2019 = !DISubroutineType(types: !2020)
!2020 = !{!308, !1493, !67, !2014}
!2021 = !DIImportedEntity(tag: DW_TAG_imported_declaration, scope: !86, entity: !2022, file: !1986, line: 109)
!2022 = !DISubprogram(name: "fopen", scope: !1989, file: !1989, line: 232, type: !2023, flags: DIFlagPrototyped, spFlags: DISPFlagOptimized)
!2023 = !DISubroutineType(types: !2024)
!2024 = !{!1997, !1425, !1425}
!2025 = !DIImportedEntity(tag: DW_TAG_imported_declaration, scope: !86, entity: !2026, file: !1986, line: 110)
!2026 = !DISubprogram(name: "fprintf", scope: !1989, file: !1989, line: 312, type: !2027, flags: DIFlagPrototyped, spFlags: DISPFlagOptimized)
!2027 = !DISubroutineType(types: !2028)
!2028 = !{!67, !2014, !1425, null}
!2029 = !DIImportedEntity(tag: DW_TAG_imported_declaration, scope: !86, entity: !2030, file: !1986, line: 111)
!2030 = !DISubprogram(name: "fputc", scope: !1989, file: !1989, line: 517, type: !2031, flags: DIFlagPrototyped, spFlags: DISPFlagOptimized)
!2031 = !DISubroutineType(types: !2032)
!2032 = !{!67, !67, !1997}
!2033 = !DIImportedEntity(tag: DW_TAG_imported_declaration, scope: !86, entity: !2034, file: !1986, line: 112)
!2034 = !DISubprogram(name: "fputs", scope: !1989, file: !1989, line: 626, type: !2035, flags: DIFlagPrototyped, spFlags: DISPFlagOptimized)
!2035 = !DISubroutineType(types: !2036)
!2036 = !{!67, !1425, !2014}
!2037 = !DIImportedEntity(tag: DW_TAG_imported_declaration, scope: !86, entity: !2038, file: !1986, line: 113)
!2038 = !DISubprogram(name: "fread", scope: !1989, file: !1989, line: 646, type: !2039, flags: DIFlagPrototyped, spFlags: DISPFlagOptimized)
!2039 = !DISubroutineType(types: !2040)
!2040 = !{!52, !2041, !52, !52, !2014}
!2041 = !DIDerivedType(tag: DW_TAG_restrict_type, baseType: !30)
!2042 = !DIImportedEntity(tag: DW_TAG_imported_declaration, scope: !86, entity: !2043, file: !1986, line: 114)
!2043 = !DISubprogram(name: "freopen", scope: !1989, file: !1989, line: 238, type: !2044, flags: DIFlagPrototyped, spFlags: DISPFlagOptimized)
!2044 = !DISubroutineType(types: !2045)
!2045 = !{!1997, !1425, !1425, !2014}
!2046 = !DIImportedEntity(tag: DW_TAG_imported_declaration, scope: !86, entity: !2047, file: !1986, line: 115)
!2047 = !DISubprogram(name: "fscanf", scope: !1989, file: !1989, line: 377, type: !2027, flags: DIFlagPrototyped, spFlags: DISPFlagOptimized)
!2048 = !DIImportedEntity(tag: DW_TAG_imported_declaration, scope: !86, entity: !2049, file: !1986, line: 116)
!2049 = !DISubprogram(name: "fseek", scope: !1989, file: !1989, line: 684, type: !2050, flags: DIFlagPrototyped, spFlags: DISPFlagOptimized)
!2050 = !DISubroutineType(types: !2051)
!2051 = !{!67, !1997, !1362, !67}
!2052 = !DIImportedEntity(tag: DW_TAG_imported_declaration, scope: !86, entity: !2053, file: !1986, line: 117)
!2053 = !DISubprogram(name: "fsetpos", scope: !1989, file: !1989, line: 736, type: !2054, flags: DIFlagPrototyped, spFlags: DISPFlagOptimized)
!2054 = !DISubroutineType(types: !2055)
!2055 = !{!67, !1997, !2056}
!2056 = !DIDerivedType(tag: DW_TAG_pointer_type, baseType: !2057, size: 64)
!2057 = !DIDerivedType(tag: DW_TAG_const_type, baseType: !1988)
!2058 = !DIImportedEntity(tag: DW_TAG_imported_declaration, scope: !86, entity: !2059, file: !1986, line: 118)
!2059 = !DISubprogram(name: "ftell", scope: !1989, file: !1989, line: 689, type: !2060, flags: DIFlagPrototyped, spFlags: DISPFlagOptimized)
!2060 = !DISubroutineType(types: !2061)
!2061 = !{!1362, !1997}
!2062 = !DIImportedEntity(tag: DW_TAG_imported_declaration, scope: !86, entity: !2063, file: !1986, line: 119)
!2063 = !DISubprogram(name: "fwrite", scope: !1989, file: !1989, line: 652, type: !2064, flags: DIFlagPrototyped, spFlags: DISPFlagOptimized)
!2064 = !DISubroutineType(types: !2065)
!2065 = !{!52, !2066, !52, !52, !2014}
!2066 = !DIDerivedType(tag: DW_TAG_restrict_type, baseType: !471)
!2067 = !DIImportedEntity(tag: DW_TAG_imported_declaration, scope: !86, entity: !2068, file: !1986, line: 120)
!2068 = !DISubprogram(name: "getc", scope: !1989, file: !1989, line: 478, type: !2000, flags: DIFlagPrototyped, spFlags: DISPFlagOptimized)
!2069 = !DIImportedEntity(tag: DW_TAG_imported_declaration, scope: !86, entity: !2070, file: !1986, line: 121)
!2070 = !DISubprogram(name: "getchar", scope: !2071, file: !2071, line: 44, type: !1902, flags: DIFlagPrototyped, spFlags: DISPFlagOptimized)
!2071 = !DIFile(filename: "/usr/include/x86_64-linux-gnu/bits/stdio.h", directory: "")
!2072 = !DIImportedEntity(tag: DW_TAG_imported_declaration, scope: !86, entity: !2073, file: !1986, line: 126)
!2073 = !DISubprogram(name: "perror", scope: !1989, file: !1989, line: 775, type: !2074, flags: DIFlagPrototyped, spFlags: DISPFlagOptimized)
!2074 = !DISubroutineType(types: !2075)
!2075 = !{null, !56}
!2076 = !DIImportedEntity(tag: DW_TAG_imported_declaration, scope: !86, entity: !2077, file: !1986, line: 127)
!2077 = !DISubprogram(name: "printf", scope: !1989, file: !1989, line: 318, type: !2078, flags: DIFlagPrototyped, spFlags: DISPFlagOptimized)
!2078 = !DISubroutineType(types: !2079)
!2079 = !{!67, !1425, null}
!2080 = !DIImportedEntity(tag: DW_TAG_imported_declaration, scope: !86, entity: !2081, file: !1986, line: 128)
!2081 = !DISubprogram(name: "putc", scope: !1989, file: !1989, line: 518, type: !2031, flags: DIFlagPrototyped, spFlags: DISPFlagOptimized)
!2082 = !DIImportedEntity(tag: DW_TAG_imported_declaration, scope: !86, entity: !2083, file: !1986, line: 129)
!2083 = !DISubprogram(name: "putchar", scope: !2071, file: !2071, line: 79, type: !1779, flags: DIFlagPrototyped, spFlags: DISPFlagOptimized)
!2084 = !DIImportedEntity(tag: DW_TAG_imported_declaration, scope: !86, entity: !2085, file: !1986, line: 130)
!2085 = !DISubprogram(name: "puts", scope: !1989, file: !1989, line: 632, type: !1837, flags: DIFlagPrototyped, spFlags: DISPFlagOptimized)
!2086 = !DIImportedEntity(tag: DW_TAG_imported_declaration, scope: !86, entity: !2087, file: !1986, line: 131)
!2087 = !DISubprogram(name: "remove", scope: !1989, file: !1989, line: 144, type: !1837, flags: DIFlagPrototyped, spFlags: DISPFlagOptimized)
!2088 = !DIImportedEntity(tag: DW_TAG_imported_declaration, scope: !86, entity: !2089, file: !1986, line: 132)
!2089 = !DISubprogram(name: "rename", scope: !1989, file: !1989, line: 146, type: !2090, flags: DIFlagPrototyped, spFlags: DISPFlagOptimized)
!2090 = !DISubroutineType(types: !2091)
!2091 = !{!67, !56, !56}
!2092 = !DIImportedEntity(tag: DW_TAG_imported_declaration, scope: !86, entity: !2093, file: !1986, line: 133)
!2093 = !DISubprogram(name: "rewind", scope: !1989, file: !1989, line: 694, type: !1995, flags: DIFlagPrototyped, spFlags: DISPFlagOptimized)
!2094 = !DIImportedEntity(tag: DW_TAG_imported_declaration, scope: !86, entity: !2095, file: !1986, line: 134)
!2095 = !DISubprogram(name: "scanf", scope: !1989, file: !1989, line: 383, type: !2078, flags: DIFlagPrototyped, spFlags: DISPFlagOptimized)
!2096 = !DIImportedEntity(tag: DW_TAG_imported_declaration, scope: !86, entity: !2097, file: !1986, line: 135)
!2097 = !DISubprogram(name: "setbuf", scope: !1989, file: !1989, line: 290, type: !2098, flags: DIFlagPrototyped, spFlags: DISPFlagOptimized)
!2098 = !DISubroutineType(types: !2099)
!2099 = !{null, !2014, !1493}
!2100 = !DIImportedEntity(tag: DW_TAG_imported_declaration, scope: !86, entity: !2101, file: !1986, line: 136)
!2101 = !DISubprogram(name: "setvbuf", scope: !1989, file: !1989, line: 294, type: !2102, flags: DIFlagPrototyped, spFlags: DISPFlagOptimized)
!2102 = !DISubroutineType(types: !2103)
!2103 = !{!67, !2014, !1493, !67, !52}
!2104 = !DIImportedEntity(tag: DW_TAG_imported_declaration, scope: !86, entity: !2105, file: !1986, line: 137)
!2105 = !DISubprogram(name: "sprintf", scope: !1989, file: !1989, line: 320, type: !2106, flags: DIFlagPrototyped, spFlags: DISPFlagOptimized)
!2106 = !DISubroutineType(types: !2107)
!2107 = !{!67, !1493, !1425, null}
!2108 = !DIImportedEntity(tag: DW_TAG_imported_declaration, scope: !86, entity: !2109, file: !1986, line: 138)
!2109 = !DISubprogram(name: "sscanf", scope: !1989, file: !1989, line: 385, type: !2110, flags: DIFlagPrototyped, spFlags: DISPFlagOptimized)
!2110 = !DISubroutineType(types: !2111)
!2111 = !{!67, !1425, !1425, null}
!2112 = !DIImportedEntity(tag: DW_TAG_imported_declaration, scope: !86, entity: !2113, file: !1986, line: 139)
!2113 = !DISubprogram(name: "tmpfile", scope: !1989, file: !1989, line: 159, type: !2114, flags: DIFlagPrototyped, spFlags: DISPFlagOptimized)
!2114 = !DISubroutineType(types: !2115)
!2115 = !{!1997}
!2116 = !DIImportedEntity(tag: DW_TAG_imported_declaration, scope: !86, entity: !2117, file: !1986, line: 141)
!2117 = !DISubprogram(name: "tmpnam", scope: !1989, file: !1989, line: 173, type: !2118, flags: DIFlagPrototyped, spFlags: DISPFlagOptimized)
!2118 = !DISubroutineType(types: !2119)
!2119 = !{!308, !308}
!2120 = !DIImportedEntity(tag: DW_TAG_imported_declaration, scope: !86, entity: !2121, file: !1986, line: 143)
!2121 = !DISubprogram(name: "ungetc", scope: !1989, file: !1989, line: 639, type: !2031, flags: DIFlagPrototyped, spFlags: DISPFlagOptimized)
!2122 = !DIImportedEntity(tag: DW_TAG_imported_declaration, scope: !86, entity: !2123, file: !1986, line: 144)
!2123 = !DISubprogram(name: "vfprintf", scope: !1989, file: !1989, line: 327, type: !2124, flags: DIFlagPrototyped, spFlags: DISPFlagOptimized)
!2124 = !DISubroutineType(types: !2125)
!2125 = !{!67, !2014, !1425, !1466}
!2126 = !DIImportedEntity(tag: DW_TAG_imported_declaration, scope: !86, entity: !2127, file: !1986, line: 145)
!2127 = !DISubprogram(name: "vprintf", scope: !2071, file: !2071, line: 36, type: !2128, flags: DIFlagPrototyped, spFlags: DISPFlagOptimized)
!2128 = !DISubroutineType(types: !2129)
!2129 = !{!67, !1425, !1466}
!2130 = !DIImportedEntity(tag: DW_TAG_imported_declaration, scope: !86, entity: !2131, file: !1986, line: 146)
!2131 = !DISubprogram(name: "vsprintf", scope: !1989, file: !1989, line: 335, type: !2132, flags: DIFlagPrototyped, spFlags: DISPFlagOptimized)
!2132 = !DISubroutineType(types: !2133)
!2133 = !{!67, !1493, !1425, !1466}
!2134 = !DIImportedEntity(tag: DW_TAG_imported_declaration, scope: !628, entity: !2135, file: !1986, line: 175)
!2135 = !DISubprogram(name: "snprintf", scope: !1989, file: !1989, line: 340, type: !2136, flags: DIFlagPrototyped, spFlags: DISPFlagOptimized)
!2136 = !DISubroutineType(types: !2137)
!2137 = !{!67, !1493, !52, !1425, null}
!2138 = !DIImportedEntity(tag: DW_TAG_imported_declaration, scope: !628, entity: !2139, file: !1986, line: 176)
!2139 = !DISubprogram(name: "vfscanf", scope: !1989, file: !1989, line: 420, type: !2124, flags: DIFlagPrototyped, spFlags: DISPFlagOptimized)
!2140 = !DIImportedEntity(tag: DW_TAG_imported_declaration, scope: !628, entity: !2141, file: !1986, line: 177)
!2141 = !DISubprogram(name: "vscanf", scope: !1989, file: !1989, line: 428, type: !2128, flags: DIFlagPrototyped, spFlags: DISPFlagOptimized)
!2142 = !DIImportedEntity(tag: DW_TAG_imported_declaration, scope: !628, entity: !2143, file: !1986, line: 178)
!2143 = !DISubprogram(name: "vsnprintf", scope: !1989, file: !1989, line: 344, type: !2144, flags: DIFlagPrototyped, spFlags: DISPFlagOptimized)
!2144 = !DISubroutineType(types: !2145)
!2145 = !{!67, !1493, !52, !1425, !1466}
!2146 = !DIImportedEntity(tag: DW_TAG_imported_declaration, scope: !628, entity: !2147, file: !1986, line: 179)
!2147 = !DISubprogram(name: "vsscanf", scope: !1989, file: !1989, line: 432, type: !2148, flags: DIFlagPrototyped, spFlags: DISPFlagOptimized)
!2148 = !DISubroutineType(types: !2149)
!2149 = !{!67, !1425, !1425, !1466}
!2150 = !DIImportedEntity(tag: DW_TAG_imported_declaration, scope: !86, entity: !2135, file: !1986, line: 185)
!2151 = !DIImportedEntity(tag: DW_TAG_imported_declaration, scope: !86, entity: !2139, file: !1986, line: 186)
!2152 = !DIImportedEntity(tag: DW_TAG_imported_declaration, scope: !86, entity: !2141, file: !1986, line: 187)
!2153 = !DIImportedEntity(tag: DW_TAG_imported_declaration, scope: !86, entity: !2143, file: !1986, line: 188)
!2154 = !DIImportedEntity(tag: DW_TAG_imported_declaration, scope: !86, entity: !2147, file: !1986, line: 189)
!2155 = !DIImportedEntity(tag: DW_TAG_imported_declaration, scope: !86, entity: !2156, file: !2160, line: 83)
!2156 = !DISubprogram(name: "acos", scope: !2157, file: !2157, line: 53, type: !2158, flags: DIFlagPrototyped, spFlags: DISPFlagOptimized)
!2157 = !DIFile(filename: "/usr/include/x86_64-linux-gnu/bits/mathcalls.h", directory: "")
!2158 = !DISubroutineType(types: !2159)
!2159 = !{!1544, !1544}
!2160 = !DIFile(filename: "/usr/lib/gcc/x86_64-linux-gnu/7.5.0/../../../../include/c++/7.5.0/cmath", directory: "")
!2161 = !DIImportedEntity(tag: DW_TAG_imported_declaration, scope: !86, entity: !2162, file: !2160, line: 102)
!2162 = !DISubprogram(name: "asin", scope: !2157, file: !2157, line: 55, type: !2158, flags: DIFlagPrototyped, spFlags: DISPFlagOptimized)
!2163 = !DIImportedEntity(tag: DW_TAG_imported_declaration, scope: !86, entity: !2164, file: !2160, line: 121)
!2164 = !DISubprogram(name: "atan", scope: !2157, file: !2157, line: 57, type: !2158, flags: DIFlagPrototyped, spFlags: DISPFlagOptimized)
!2165 = !DIImportedEntity(tag: DW_TAG_imported_declaration, scope: !86, entity: !2166, file: !2160, line: 140)
!2166 = !DISubprogram(name: "atan2", scope: !2157, file: !2157, line: 59, type: !2167, flags: DIFlagPrototyped, spFlags: DISPFlagOptimized)
!2167 = !DISubroutineType(types: !2168)
!2168 = !{!1544, !1544, !1544}
!2169 = !DIImportedEntity(tag: DW_TAG_imported_declaration, scope: !86, entity: !2170, file: !2160, line: 161)
!2170 = !DISubprogram(name: "ceil", scope: !2157, file: !2157, line: 159, type: !2158, flags: DIFlagPrototyped, spFlags: DISPFlagOptimized)
!2171 = !DIImportedEntity(tag: DW_TAG_imported_declaration, scope: !86, entity: !2172, file: !2160, line: 180)
!2172 = !DISubprogram(name: "cos", scope: !2157, file: !2157, line: 62, type: !2158, flags: DIFlagPrototyped, spFlags: DISPFlagOptimized)
!2173 = !DIImportedEntity(tag: DW_TAG_imported_declaration, scope: !86, entity: !2174, file: !2160, line: 199)
!2174 = !DISubprogram(name: "cosh", scope: !2157, file: !2157, line: 71, type: !2158, flags: DIFlagPrototyped, spFlags: DISPFlagOptimized)
!2175 = !DIImportedEntity(tag: DW_TAG_imported_declaration, scope: !86, entity: !2176, file: !2160, line: 218)
!2176 = !DISubprogram(name: "exp", scope: !2157, file: !2157, line: 95, type: !2158, flags: DIFlagPrototyped, spFlags: DISPFlagOptimized)
!2177 = !DIImportedEntity(tag: DW_TAG_imported_declaration, scope: !86, entity: !2178, file: !2160, line: 237)
!2178 = !DISubprogram(name: "fabs", scope: !2157, file: !2157, line: 162, type: !2158, flags: DIFlagPrototyped, spFlags: DISPFlagOptimized)
!2179 = !DIImportedEntity(tag: DW_TAG_imported_declaration, scope: !86, entity: !2180, file: !2160, line: 256)
!2180 = !DISubprogram(name: "floor", scope: !2157, file: !2157, line: 165, type: !2158, flags: DIFlagPrototyped, spFlags: DISPFlagOptimized)
!2181 = !DIImportedEntity(tag: DW_TAG_imported_declaration, scope: !86, entity: !2182, file: !2160, line: 275)
!2182 = !DISubprogram(name: "fmod", scope: !2157, file: !2157, line: 168, type: !2167, flags: DIFlagPrototyped, spFlags: DISPFlagOptimized)
!2183 = !DIImportedEntity(tag: DW_TAG_imported_declaration, scope: !86, entity: !2184, file: !2160, line: 296)
!2184 = !DISubprogram(name: "frexp", scope: !2157, file: !2157, line: 98, type: !2185, flags: DIFlagPrototyped, spFlags: DISPFlagOptimized)
!2185 = !DISubroutineType(types: !2186)
!2186 = !{!1544, !1544, !2187}
!2187 = !DIDerivedType(tag: DW_TAG_pointer_type, baseType: !67, size: 64)
!2188 = !DIImportedEntity(tag: DW_TAG_imported_declaration, scope: !86, entity: !2189, file: !2160, line: 315)
!2189 = !DISubprogram(name: "ldexp", scope: !2157, file: !2157, line: 101, type: !2190, flags: DIFlagPrototyped, spFlags: DISPFlagOptimized)
!2190 = !DISubroutineType(types: !2191)
!2191 = !{!1544, !1544, !67}
!2192 = !DIImportedEntity(tag: DW_TAG_imported_declaration, scope: !86, entity: !2193, file: !2160, line: 334)
!2193 = !DISubprogram(name: "log", scope: !2157, file: !2157, line: 104, type: !2158, flags: DIFlagPrototyped, spFlags: DISPFlagOptimized)
!2194 = !DIImportedEntity(tag: DW_TAG_imported_declaration, scope: !86, entity: !2195, file: !2160, line: 353)
!2195 = !DISubprogram(name: "log10", scope: !2157, file: !2157, line: 107, type: !2158, flags: DIFlagPrototyped, spFlags: DISPFlagOptimized)
!2196 = !DIImportedEntity(tag: DW_TAG_imported_declaration, scope: !86, entity: !2197, file: !2160, line: 372)
!2197 = !DISubprogram(name: "modf", scope: !2157, file: !2157, line: 110, type: !2198, flags: DIFlagPrototyped, spFlags: DISPFlagOptimized)
!2198 = !DISubroutineType(types: !2199)
!2199 = !{!1544, !1544, !2200}
!2200 = !DIDerivedType(tag: DW_TAG_pointer_type, baseType: !1544, size: 64)
!2201 = !DIImportedEntity(tag: DW_TAG_imported_declaration, scope: !86, entity: !2202, file: !2160, line: 384)
!2202 = !DISubprogram(name: "pow", scope: !2157, file: !2157, line: 140, type: !2167, flags: DIFlagPrototyped, spFlags: DISPFlagOptimized)
!2203 = !DIImportedEntity(tag: DW_TAG_imported_declaration, scope: !86, entity: !2204, file: !2160, line: 421)
!2204 = !DISubprogram(name: "sin", scope: !2157, file: !2157, line: 64, type: !2158, flags: DIFlagPrototyped, spFlags: DISPFlagOptimized)
!2205 = !DIImportedEntity(tag: DW_TAG_imported_declaration, scope: !86, entity: !2206, file: !2160, line: 440)
!2206 = !DISubprogram(name: "sinh", scope: !2157, file: !2157, line: 73, type: !2158, flags: DIFlagPrototyped, spFlags: DISPFlagOptimized)
!2207 = !DIImportedEntity(tag: DW_TAG_imported_declaration, scope: !86, entity: !2208, file: !2160, line: 459)
!2208 = !DISubprogram(name: "sqrt", scope: !2157, file: !2157, line: 143, type: !2158, flags: DIFlagPrototyped, spFlags: DISPFlagOptimized)
!2209 = !DIImportedEntity(tag: DW_TAG_imported_declaration, scope: !86, entity: !2210, file: !2160, line: 478)
!2210 = !DISubprogram(name: "tan", scope: !2157, file: !2157, line: 66, type: !2158, flags: DIFlagPrototyped, spFlags: DISPFlagOptimized)
!2211 = !DIImportedEntity(tag: DW_TAG_imported_declaration, scope: !86, entity: !2212, file: !2160, line: 497)
!2212 = !DISubprogram(name: "tanh", scope: !2157, file: !2157, line: 75, type: !2158, flags: DIFlagPrototyped, spFlags: DISPFlagOptimized)
!2213 = !DIImportedEntity(tag: DW_TAG_imported_declaration, scope: !86, entity: !2214, file: !2160, line: 1080)
!2214 = !DIDerivedType(tag: DW_TAG_typedef, name: "double_t", file: !2215, line: 150, baseType: !1544)
!2215 = !DIFile(filename: "/usr/include/math.h", directory: "")
!2216 = !DIImportedEntity(tag: DW_TAG_imported_declaration, scope: !86, entity: !2217, file: !2160, line: 1081)
!2217 = !DIDerivedType(tag: DW_TAG_typedef, name: "float_t", file: !2215, line: 149, baseType: !1551)
!2218 = !DIImportedEntity(tag: DW_TAG_imported_declaration, scope: !86, entity: !2219, file: !2160, line: 1084)
!2219 = !DISubprogram(name: "acosh", scope: !2157, file: !2157, line: 85, type: !2158, flags: DIFlagPrototyped, spFlags: DISPFlagOptimized)
!2220 = !DIImportedEntity(tag: DW_TAG_imported_declaration, scope: !86, entity: !2221, file: !2160, line: 1085)
!2221 = !DISubprogram(name: "acoshf", scope: !2157, file: !2157, line: 85, type: !2222, flags: DIFlagPrototyped, spFlags: DISPFlagOptimized)
!2222 = !DISubroutineType(types: !2223)
!2223 = !{!1551, !1551}
!2224 = !DIImportedEntity(tag: DW_TAG_imported_declaration, scope: !86, entity: !2225, file: !2160, line: 1086)
!2225 = !DISubprogram(name: "acoshl", scope: !2157, file: !2157, line: 85, type: !2226, flags: DIFlagPrototyped, spFlags: DISPFlagOptimized)
!2226 = !DISubroutineType(types: !2227)
!2227 = !{!1610, !1610}
!2228 = !DIImportedEntity(tag: DW_TAG_imported_declaration, scope: !86, entity: !2229, file: !2160, line: 1088)
!2229 = !DISubprogram(name: "asinh", scope: !2157, file: !2157, line: 87, type: !2158, flags: DIFlagPrototyped, spFlags: DISPFlagOptimized)
!2230 = !DIImportedEntity(tag: DW_TAG_imported_declaration, scope: !86, entity: !2231, file: !2160, line: 1089)
!2231 = !DISubprogram(name: "asinhf", scope: !2157, file: !2157, line: 87, type: !2222, flags: DIFlagPrototyped, spFlags: DISPFlagOptimized)
!2232 = !DIImportedEntity(tag: DW_TAG_imported_declaration, scope: !86, entity: !2233, file: !2160, line: 1090)
!2233 = !DISubprogram(name: "asinhl", scope: !2157, file: !2157, line: 87, type: !2226, flags: DIFlagPrototyped, spFlags: DISPFlagOptimized)
!2234 = !DIImportedEntity(tag: DW_TAG_imported_declaration, scope: !86, entity: !2235, file: !2160, line: 1092)
!2235 = !DISubprogram(name: "atanh", scope: !2157, file: !2157, line: 89, type: !2158, flags: DIFlagPrototyped, spFlags: DISPFlagOptimized)
!2236 = !DIImportedEntity(tag: DW_TAG_imported_declaration, scope: !86, entity: !2237, file: !2160, line: 1093)
!2237 = !DISubprogram(name: "atanhf", scope: !2157, file: !2157, line: 89, type: !2222, flags: DIFlagPrototyped, spFlags: DISPFlagOptimized)
!2238 = !DIImportedEntity(tag: DW_TAG_imported_declaration, scope: !86, entity: !2239, file: !2160, line: 1094)
!2239 = !DISubprogram(name: "atanhl", scope: !2157, file: !2157, line: 89, type: !2226, flags: DIFlagPrototyped, spFlags: DISPFlagOptimized)
!2240 = !DIImportedEntity(tag: DW_TAG_imported_declaration, scope: !86, entity: !2241, file: !2160, line: 1096)
!2241 = !DISubprogram(name: "cbrt", scope: !2157, file: !2157, line: 152, type: !2158, flags: DIFlagPrototyped, spFlags: DISPFlagOptimized)
!2242 = !DIImportedEntity(tag: DW_TAG_imported_declaration, scope: !86, entity: !2243, file: !2160, line: 1097)
!2243 = !DISubprogram(name: "cbrtf", scope: !2157, file: !2157, line: 152, type: !2222, flags: DIFlagPrototyped, spFlags: DISPFlagOptimized)
!2244 = !DIImportedEntity(tag: DW_TAG_imported_declaration, scope: !86, entity: !2245, file: !2160, line: 1098)
!2245 = !DISubprogram(name: "cbrtl", scope: !2157, file: !2157, line: 152, type: !2226, flags: DIFlagPrototyped, spFlags: DISPFlagOptimized)
!2246 = !DIImportedEntity(tag: DW_TAG_imported_declaration, scope: !86, entity: !2247, file: !2160, line: 1100)
!2247 = !DISubprogram(name: "copysign", scope: !2157, file: !2157, line: 196, type: !2167, flags: DIFlagPrototyped, spFlags: DISPFlagOptimized)
!2248 = !DIImportedEntity(tag: DW_TAG_imported_declaration, scope: !86, entity: !2249, file: !2160, line: 1101)
!2249 = !DISubprogram(name: "copysignf", scope: !2157, file: !2157, line: 196, type: !2250, flags: DIFlagPrototyped, spFlags: DISPFlagOptimized)
!2250 = !DISubroutineType(types: !2251)
!2251 = !{!1551, !1551, !1551}
!2252 = !DIImportedEntity(tag: DW_TAG_imported_declaration, scope: !86, entity: !2253, file: !2160, line: 1102)
!2253 = !DISubprogram(name: "copysignl", scope: !2157, file: !2157, line: 196, type: !2254, flags: DIFlagPrototyped, spFlags: DISPFlagOptimized)
!2254 = !DISubroutineType(types: !2255)
!2255 = !{!1610, !1610, !1610}
!2256 = !DIImportedEntity(tag: DW_TAG_imported_declaration, scope: !86, entity: !2257, file: !2160, line: 1104)
!2257 = !DISubprogram(name: "erf", scope: !2157, file: !2157, line: 228, type: !2158, flags: DIFlagPrototyped, spFlags: DISPFlagOptimized)
!2258 = !DIImportedEntity(tag: DW_TAG_imported_declaration, scope: !86, entity: !2259, file: !2160, line: 1105)
!2259 = !DISubprogram(name: "erff", scope: !2157, file: !2157, line: 228, type: !2222, flags: DIFlagPrototyped, spFlags: DISPFlagOptimized)
!2260 = !DIImportedEntity(tag: DW_TAG_imported_declaration, scope: !86, entity: !2261, file: !2160, line: 1106)
!2261 = !DISubprogram(name: "erfl", scope: !2157, file: !2157, line: 228, type: !2226, flags: DIFlagPrototyped, spFlags: DISPFlagOptimized)
!2262 = !DIImportedEntity(tag: DW_TAG_imported_declaration, scope: !86, entity: !2263, file: !2160, line: 1108)
!2263 = !DISubprogram(name: "erfc", scope: !2157, file: !2157, line: 229, type: !2158, flags: DIFlagPrototyped, spFlags: DISPFlagOptimized)
!2264 = !DIImportedEntity(tag: DW_TAG_imported_declaration, scope: !86, entity: !2265, file: !2160, line: 1109)
!2265 = !DISubprogram(name: "erfcf", scope: !2157, file: !2157, line: 229, type: !2222, flags: DIFlagPrototyped, spFlags: DISPFlagOptimized)
!2266 = !DIImportedEntity(tag: DW_TAG_imported_declaration, scope: !86, entity: !2267, file: !2160, line: 1110)
!2267 = !DISubprogram(name: "erfcl", scope: !2157, file: !2157, line: 229, type: !2226, flags: DIFlagPrototyped, spFlags: DISPFlagOptimized)
!2268 = !DIImportedEntity(tag: DW_TAG_imported_declaration, scope: !86, entity: !2269, file: !2160, line: 1112)
!2269 = !DISubprogram(name: "exp2", scope: !2157, file: !2157, line: 130, type: !2158, flags: DIFlagPrototyped, spFlags: DISPFlagOptimized)
!2270 = !DIImportedEntity(tag: DW_TAG_imported_declaration, scope: !86, entity: !2271, file: !2160, line: 1113)
!2271 = !DISubprogram(name: "exp2f", scope: !2157, file: !2157, line: 130, type: !2222, flags: DIFlagPrototyped, spFlags: DISPFlagOptimized)
!2272 = !DIImportedEntity(tag: DW_TAG_imported_declaration, scope: !86, entity: !2273, file: !2160, line: 1114)
!2273 = !DISubprogram(name: "exp2l", scope: !2157, file: !2157, line: 130, type: !2226, flags: DIFlagPrototyped, spFlags: DISPFlagOptimized)
!2274 = !DIImportedEntity(tag: DW_TAG_imported_declaration, scope: !86, entity: !2275, file: !2160, line: 1116)
!2275 = !DISubprogram(name: "expm1", scope: !2157, file: !2157, line: 119, type: !2158, flags: DIFlagPrototyped, spFlags: DISPFlagOptimized)
!2276 = !DIImportedEntity(tag: DW_TAG_imported_declaration, scope: !86, entity: !2277, file: !2160, line: 1117)
!2277 = !DISubprogram(name: "expm1f", scope: !2157, file: !2157, line: 119, type: !2222, flags: DIFlagPrototyped, spFlags: DISPFlagOptimized)
!2278 = !DIImportedEntity(tag: DW_TAG_imported_declaration, scope: !86, entity: !2279, file: !2160, line: 1118)
!2279 = !DISubprogram(name: "expm1l", scope: !2157, file: !2157, line: 119, type: !2226, flags: DIFlagPrototyped, spFlags: DISPFlagOptimized)
!2280 = !DIImportedEntity(tag: DW_TAG_imported_declaration, scope: !86, entity: !2281, file: !2160, line: 1120)
!2281 = !DISubprogram(name: "fdim", scope: !2157, file: !2157, line: 326, type: !2167, flags: DIFlagPrototyped, spFlags: DISPFlagOptimized)
!2282 = !DIImportedEntity(tag: DW_TAG_imported_declaration, scope: !86, entity: !2283, file: !2160, line: 1121)
!2283 = !DISubprogram(name: "fdimf", scope: !2157, file: !2157, line: 326, type: !2250, flags: DIFlagPrototyped, spFlags: DISPFlagOptimized)
!2284 = !DIImportedEntity(tag: DW_TAG_imported_declaration, scope: !86, entity: !2285, file: !2160, line: 1122)
!2285 = !DISubprogram(name: "fdiml", scope: !2157, file: !2157, line: 326, type: !2254, flags: DIFlagPrototyped, spFlags: DISPFlagOptimized)
!2286 = !DIImportedEntity(tag: DW_TAG_imported_declaration, scope: !86, entity: !2287, file: !2160, line: 1124)
!2287 = !DISubprogram(name: "fma", scope: !2157, file: !2157, line: 335, type: !2288, flags: DIFlagPrototyped, spFlags: DISPFlagOptimized)
!2288 = !DISubroutineType(types: !2289)
!2289 = !{!1544, !1544, !1544, !1544}
!2290 = !DIImportedEntity(tag: DW_TAG_imported_declaration, scope: !86, entity: !2291, file: !2160, line: 1125)
!2291 = !DISubprogram(name: "fmaf", scope: !2157, file: !2157, line: 335, type: !2292, flags: DIFlagPrototyped, spFlags: DISPFlagOptimized)
!2292 = !DISubroutineType(types: !2293)
!2293 = !{!1551, !1551, !1551, !1551}
!2294 = !DIImportedEntity(tag: DW_TAG_imported_declaration, scope: !86, entity: !2295, file: !2160, line: 1126)
!2295 = !DISubprogram(name: "fmal", scope: !2157, file: !2157, line: 335, type: !2296, flags: DIFlagPrototyped, spFlags: DISPFlagOptimized)
!2296 = !DISubroutineType(types: !2297)
!2297 = !{!1610, !1610, !1610, !1610}
!2298 = !DIImportedEntity(tag: DW_TAG_imported_declaration, scope: !86, entity: !2299, file: !2160, line: 1128)
!2299 = !DISubprogram(name: "fmax", scope: !2157, file: !2157, line: 329, type: !2167, flags: DIFlagPrototyped, spFlags: DISPFlagOptimized)
!2300 = !DIImportedEntity(tag: DW_TAG_imported_declaration, scope: !86, entity: !2301, file: !2160, line: 1129)
!2301 = !DISubprogram(name: "fmaxf", scope: !2157, file: !2157, line: 329, type: !2250, flags: DIFlagPrototyped, spFlags: DISPFlagOptimized)
!2302 = !DIImportedEntity(tag: DW_TAG_imported_declaration, scope: !86, entity: !2303, file: !2160, line: 1130)
!2303 = !DISubprogram(name: "fmaxl", scope: !2157, file: !2157, line: 329, type: !2254, flags: DIFlagPrototyped, spFlags: DISPFlagOptimized)
!2304 = !DIImportedEntity(tag: DW_TAG_imported_declaration, scope: !86, entity: !2305, file: !2160, line: 1132)
!2305 = !DISubprogram(name: "fmin", scope: !2157, file: !2157, line: 332, type: !2167, flags: DIFlagPrototyped, spFlags: DISPFlagOptimized)
!2306 = !DIImportedEntity(tag: DW_TAG_imported_declaration, scope: !86, entity: !2307, file: !2160, line: 1133)
!2307 = !DISubprogram(name: "fminf", scope: !2157, file: !2157, line: 332, type: !2250, flags: DIFlagPrototyped, spFlags: DISPFlagOptimized)
!2308 = !DIImportedEntity(tag: DW_TAG_imported_declaration, scope: !86, entity: !2309, file: !2160, line: 1134)
!2309 = !DISubprogram(name: "fminl", scope: !2157, file: !2157, line: 332, type: !2254, flags: DIFlagPrototyped, spFlags: DISPFlagOptimized)
!2310 = !DIImportedEntity(tag: DW_TAG_imported_declaration, scope: !86, entity: !2311, file: !2160, line: 1136)
!2311 = !DISubprogram(name: "hypot", scope: !2157, file: !2157, line: 147, type: !2167, flags: DIFlagPrototyped, spFlags: DISPFlagOptimized)
!2312 = !DIImportedEntity(tag: DW_TAG_imported_declaration, scope: !86, entity: !2313, file: !2160, line: 1137)
