; ModuleID = '<stdin>'
source_filename = "/faster/fs/llvm34/lib/Support/Unicode.cpp"
target datalayout = "e-m:e-p270:32:32-p271:32:32-p272:64:64-i64:64-f80:128-n8:16:32:64-S128"
target triple = "x86_64-unknown-linux-gnu"

%"struct.llvm::sys::UnicodeCharRange" = type { i32, i32 }
%"class.llvm::sys::UnicodeCharSet" = type { %"class.llvm::ArrayRef" }
%"class.llvm::ArrayRef" = type { %"struct.llvm::sys::UnicodeCharRange"*, i64 }

@_ZZN4llvm3sys7unicode11isPrintableEiE18NonPrintableRanges = external hidden constant [548 x %"struct.llvm::sys::UnicodeCharRange"], align 16
@_ZZN4llvm3sys7unicode11isPrintableEiE13NonPrintables = external hidden global %"class.llvm::sys::UnicodeCharSet", align 8
@_ZGVZN4llvm3sys7unicode11isPrintableEiE13NonPrintables = external hidden global i64, align 8
@_ZZN4llvm3sys7unicodeL9charWidthEiE24CombiningCharacterRanges = external hidden constant [218 x %"struct.llvm::sys::UnicodeCharRange"], align 16
@_ZZN4llvm3sys7unicodeL9charWidthEiE19CombiningCharacters = external hidden global %"class.llvm::sys::UnicodeCharSet", align 8
@_ZGVZN4llvm3sys7unicodeL9charWidthEiE19CombiningCharacters = external hidden global i64, align 8
@_ZZN4llvm3sys7unicodeL9charWidthEiE26DoubleWidthCharacterRanges = external hidden constant [15 x %"struct.llvm::sys::UnicodeCharRange"], align 16
@_ZZN4llvm3sys7unicodeL9charWidthEiE21DoubleWidthCharacters = external hidden global %"class.llvm::sys::UnicodeCharSet", align 8
@_ZGVZN4llvm3sys7unicodeL9charWidthEiE21DoubleWidthCharacters = external hidden global i64, align 8

; Function Attrs: nounwind uwtable
define i32 @_ZN4llvm3sys7unicode15columnWidthUTF8ENS_9StringRefE(i64 %Text.coerce1) local_unnamed_addr #0 !dbg !1591 {
entry:
  br i1 undef, label %cleanup24, label %for.body, !dbg !1803

for.body:                                         ; preds = %cleanup19, %entry
  %ColumnWidth.064 = phi i32 [ %add1856, %cleanup19 ], [ 0, %entry ]
  call void @llvm.dbg.value(metadata i32 %ColumnWidth.064, metadata !1789, metadata !DIExpression()), !dbg !1805
  br i1 undef, label %cleanup24, label %lor.lhs.false

lor.lhs.false:                                    ; preds = %for.body
  %cmp5 = icmp ugt i64 undef, %Text.coerce1
  br i1 %cmp5, label %cleanup24, label %if.end

if.end:                                           ; preds = %lor.lhs.false
  br label %if.end12

if.end12:                                         ; preds = %if.end
  br label %init.end.i.i

init.end.i.i:                                     ; preds = %if.end12
  br label %land.rhs.i.i

land.rhs.i.i:                                     ; preds = %init.end.i.i
  br i1 undef, label %while.body.lr.ph.i.i.i.i.i, label %_ZSt13__lower_boundIPKN4llvm3sys16UnicodeCharRangeEjN9__gnu_cxx5__ops14_Iter_less_valEET_S8_S8_RKT0_T1_.exit.i.i.i.i, !dbg !1806

while.body.lr.ph.i.i.i.i.i:                       ; preds = %land.rhs.i.i
  br label %while.body.i.i.i.i.i, !dbg !1806

while.body.i.i.i.i.i:                             ; preds = %while.body.i.i.i.i.i, %while.body.lr.ph.i.i.i.i.i
  %cmp.i7.i.i.i.i = icmp sgt i64 undef, 0, !dbg !1859
  br i1 %cmp.i7.i.i.i.i, label %while.body.i.i.i.i.i, label %_ZSt13__lower_boundIPKN4llvm3sys16UnicodeCharRangeEjN9__gnu_cxx5__ops14_Iter_less_valEET_S8_S8_RKT0_T1_.exit.i.i.i.i, !dbg !1806, !llvm.loop !1860

_ZSt13__lower_boundIPKN4llvm3sys16UnicodeCharRangeEjN9__gnu_cxx5__ops14_Iter_less_valEET_S8_S8_RKT0_T1_.exit.i.i.i.i: ; preds = %while.body.i.i.i.i.i, %land.rhs.i.i
  br label %if.end.i

if.end.i:                                         ; preds = %_ZSt13__lower_boundIPKN4llvm3sys16UnicodeCharRangeEjN9__gnu_cxx5__ops14_Iter_less_valEET_S8_S8_RKT0_T1_.exit.i.i.i.i
  br label %init.end.i

init.end.i:                                       ; preds = %if.end.i
  br label %_ZSt13__lower_boundIPKN4llvm3sys16UnicodeCharRangeEjN9__gnu_cxx5__ops14_Iter_less_valEET_S8_S8_RKT0_T1_.exit.i.i39.i

_ZSt13__lower_boundIPKN4llvm3sys16UnicodeCharRangeEjN9__gnu_cxx5__ops14_Iter_less_valEET_S8_S8_RKT0_T1_.exit.i.i39.i: ; preds = %init.end.i
  br label %if.end3.i

if.end3.i:                                        ; preds = %_ZSt13__lower_boundIPKN4llvm3sys16UnicodeCharRangeEjN9__gnu_cxx5__ops14_Iter_less_valEET_S8_S8_RKT0_T1_.exit.i.i39.i
  br label %init.end9.i

init.end9.i:                                      ; preds = %if.end3.i
  br label %_ZSt13__lower_boundIPKN4llvm3sys16UnicodeCharRangeEjN9__gnu_cxx5__ops14_Iter_less_valEET_S8_S8_RKT0_T1_.exit.i.i.i

_ZSt13__lower_boundIPKN4llvm3sys16UnicodeCharRangeEjN9__gnu_cxx5__ops14_Iter_less_valEET_S8_S8_RKT0_T1_.exit.i.i.i: ; preds = %init.end9.i
  br label %cleanup19

cleanup19:                                        ; preds = %_ZSt13__lower_boundIPKN4llvm3sys16UnicodeCharRangeEjN9__gnu_cxx5__ops14_Iter_less_valEET_S8_S8_RKT0_T1_.exit.i.i.i
  %add1856 = add i32 1, %ColumnWidth.064, !dbg !1862
  %cmp = icmp ult i64 undef, %Text.coerce1, !dbg !1863
  br i1 %cmp, label %for.body, label %cleanup24, !dbg !1803

cleanup24:                                        ; preds = %cleanup19, %lor.lhs.false, %for.body, %entry
  %0 = phi i32 [ 0, %entry ], [ -2, %for.body ], [ -2, %lor.lhs.false ], [ %add1856, %cleanup19 ]
  ret i32 %0, !dbg !1864
}

; Function Attrs: nounwind readnone speculatable willreturn
declare void @llvm.dbg.value(metadata, metadata, metadata) #1

attributes #0 = { nounwind uwtable "correctly-rounded-divide-sqrt-fp-math"="false" "denormal-fp-math"="ieee,ieee" "denormal-fp-math-f32"="ieee,ieee" "disable-tail-calls"="false" "frame-pointer"="none" "less-precise-fpmad"="false" "min-legal-vector-width"="0" "no-infs-fp-math"="false" "no-jump-tables"="false" "no-nans-fp-math"="false" "no-signed-zeros-fp-math"="false" "no-trapping-math"="false" "stack-protector-buffer-size"="8" "target-cpu"="x86-64" "target-features"="+cx8,+fxsr,+mmx,+sse,+sse2,+x87" "unsafe-fp-math"="false" "use-soft-float"="false" }
attributes #1 = { nounwind readnone speculatable willreturn }

!llvm.dbg.cu = !{!0}
!llvm.module.flags = !{!1586, !1587, !1588, !1589}
!llvm.ident = !{!1590}

!0 = distinct !DICompileUnit(language: DW_LANG_C_plus_plus_14, file: !1, producer: "clang version 11.0.0 (git@github.com:llvm/llvm-project 01d5be4c3f6d473b638a8241e63e0f2a412878a1)", isOptimized: true, runtimeVersion: 0, emissionKind: FullDebug, enums: !2, retainedTypes: !35, globals: !74, imports: !204, splitDebugInlining: false, nameTableKind: None)
!1 = !DIFile(filename: "/faster/fs/llvm34/lib/Support/Unicode.cpp", directory: "/fast/fs/build34reldebinfo")
!2 = !{!3, !11, !16, !24, !31}
!3 = distinct !DICompositeType(tag: DW_TAG_enumeration_type, name: "_Lock_policy", scope: !5, file: !4, line: 49, baseType: !6, size: 32, elements: !7, identifier: "_ZTSN9__gnu_cxx12_Lock_policyE")
!4 = !DIFile(filename: "/usr/lib/gcc/x86_64-linux-gnu/7.5.0/../../../../include/c++/7.5.0/ext/concurrence.h", directory: "")
!5 = !DINamespace(name: "__gnu_cxx", scope: null)
!6 = !DIBasicType(name: "unsigned int", size: 32, encoding: DW_ATE_unsigned)
!7 = !{!8, !9, !10}
!8 = !DIEnumerator(name: "_S_single", value: 0, isUnsigned: true)
!9 = !DIEnumerator(name: "_S_mutex", value: 1, isUnsigned: true)
!10 = !DIEnumerator(name: "_S_atomic", value: 2, isUnsigned: true)
!11 = distinct !DICompositeType(tag: DW_TAG_enumeration_type, name: "NoneType", scope: !13, file: !12, line: 22, baseType: !6, size: 32, elements: !14, identifier: "_ZTSN4llvm8NoneTypeE")
!12 = !DIFile(filename: "/faster/fs/llvm34/include/llvm/ADT/None.h", directory: "")
!13 = !DINamespace(name: "llvm", scope: null)
!14 = !{!15}
!15 = !DIEnumerator(name: "None", value: 0, isUnsigned: true)
!16 = distinct !DICompositeType(tag: DW_TAG_enumeration_type, name: "ColumnWidthErrors", scope: !18, file: !17, line: 21, baseType: !20, size: 32, elements: !21, identifier: "_ZTSN4llvm3sys7unicode17ColumnWidthErrorsE")
!17 = !DIFile(filename: "/faster/fs/llvm34/include/llvm/Support/Unicode.h", directory: "")
!18 = !DINamespace(name: "unicode", scope: !19)
!19 = !DINamespace(name: "sys", scope: !13)
!20 = !DIBasicType(name: "int", size: 32, encoding: DW_ATE_signed)
!21 = !{!22, !23}
!22 = !DIEnumerator(name: "ErrorInvalidUTF8", value: -2)
!23 = !DIEnumerator(name: "ErrorNonPrintableCharacter", value: -1)
!24 = distinct !DICompositeType(tag: DW_TAG_enumeration_type, file: !25, line: 118, baseType: !6, size: 32, elements: !26, identifier: "_ZTS16ConversionResult")
!25 = !DIFile(filename: "/faster/fs/llvm34/include/llvm/Support/ConvertUTF.h", directory: "")
!26 = !{!27, !28, !29, !30}
!27 = !DIEnumerator(name: "conversionOK", value: 0, isUnsigned: true)
!28 = !DIEnumerator(name: "sourceExhausted", value: 1, isUnsigned: true)
!29 = !DIEnumerator(name: "targetExhausted", value: 2, isUnsigned: true)
!30 = !DIEnumerator(name: "sourceIllegal", value: 3, isUnsigned: true)
!31 = distinct !DICompositeType(tag: DW_TAG_enumeration_type, file: !25, line: 125, baseType: !6, size: 32, elements: !32, identifier: "_ZTS15ConversionFlags")
!32 = !{!33, !34}
!33 = !DIEnumerator(name: "strictConversion", value: 0, isUnsigned: true)
!34 = !DIEnumerator(name: "lenientConversion", value: 1, isUnsigned: true)
!35 = !{!36, !41, !44, !52}
!36 = !DISubprogram(name: "getNumBytesForUTF8", scope: !25, file: !25, line: 163, type: !37, flags: DIFlagPrototyped, spFlags: DISPFlagOptimized, retainedNodes: !40)
!37 = !DISubroutineType(types: !38)
!38 = !{!6, !39}
!39 = !DIBasicType(name: "unsigned char", size: 8, encoding: DW_ATE_unsigned_char)
!40 = !{}
!41 = !DIDerivedType(tag: DW_TAG_pointer_type, baseType: !42, size: 64)
!42 = !DIDerivedType(tag: DW_TAG_const_type, baseType: !43)
!43 = !DIDerivedType(tag: DW_TAG_typedef, name: "UTF8", file: !25, line: 103, baseType: !39)
!44 = !DISubprogram(name: "ConvertUTF8toUTF32", scope: !25, file: !25, line: 139, type: !45, flags: DIFlagPrototyped, spFlags: DISPFlagOptimized, retainedNodes: !40)
!45 = !DISubroutineType(types: !46)
!46 = !{!24, !47, !48, !50, !51, !31}
!47 = !DIDerivedType(tag: DW_TAG_pointer_type, baseType: !48, size: 64)
!48 = !DIDerivedType(tag: DW_TAG_pointer_type, baseType: !49, size: 64)
!49 = !DIDerivedType(tag: DW_TAG_const_type, baseType: !39)
!50 = !DIDerivedType(tag: DW_TAG_pointer_type, baseType: !51, size: 64)
!51 = !DIDerivedType(tag: DW_TAG_pointer_type, baseType: !6, size: 64)
!52 = !DISubprogram(name: "binary_search<const llvm::sys::UnicodeCharRange *, unsigned int>", linkageName: "_ZSt13binary_searchIPKN4llvm3sys16UnicodeCharRangeEjEbT_S5_RKT0_", scope: !54, file: !53, line: 2247, type: !55, flags: DIFlagPrototyped, spFlags: DISPFlagOptimized, templateParams: !71, retainedNodes: !40)
!53 = !DIFile(filename: "/usr/lib/gcc/x86_64-linux-gnu/7.5.0/../../../../include/c++/7.5.0/bits/stl_algo.h", directory: "")
!54 = !DINamespace(name: "std", scope: null)
!55 = !DISubroutineType(types: !56)
!56 = !{!57, !58, !58, !69}
!57 = !DIBasicType(name: "bool", size: 8, encoding: DW_ATE_boolean)
!58 = !DIDerivedType(tag: DW_TAG_pointer_type, baseType: !59, size: 64)
!59 = !DIDerivedType(tag: DW_TAG_const_type, baseType: !60)
!60 = distinct !DICompositeType(tag: DW_TAG_structure_type, name: "UnicodeCharRange", scope: !19, file: !61, line: 26, size: 64, flags: DIFlagTypePassByValue, elements: !62, identifier: "_ZTSN4llvm3sys16UnicodeCharRangeE")
!61 = !DIFile(filename: "/faster/fs/llvm34/include/llvm/Support/UnicodeCharRanges.h", directory: "")
!62 = !{!63, !68}
!63 = !DIDerivedType(tag: DW_TAG_member, name: "Lower", scope: !60, file: !61, line: 27, baseType: !64, size: 32)
!64 = !DIDerivedType(tag: DW_TAG_typedef, name: "uint32_t", file: !65, line: 26, baseType: !66)
!65 = !DIFile(filename: "/usr/include/x86_64-linux-gnu/bits/stdint-uintn.h", directory: "")
!66 = !DIDerivedType(tag: DW_TAG_typedef, name: "__uint32_t", file: !67, line: 41, baseType: !6)
!67 = !DIFile(filename: "/usr/include/x86_64-linux-gnu/bits/types.h", directory: "")
!68 = !DIDerivedType(tag: DW_TAG_member, name: "Upper", scope: !60, file: !61, line: 28, baseType: !64, size: 32, offset: 32)
!69 = !DIDerivedType(tag: DW_TAG_reference_type, baseType: !70, size: 64)
!70 = !DIDerivedType(tag: DW_TAG_const_type, baseType: !6)
!71 = !{!72, !73}
!72 = !DITemplateTypeParameter(name: "_ForwardIterator", type: !58)
!73 = !DITemplateTypeParameter(name: "_Tp", type: !6)
!74 = !{!75, !86, !185, !195, !197, !202}
!75 = !DIGlobalVariableExpression(var: !76, expr: !DIExpression())
!76 = distinct !DIGlobalVariable(name: "NonPrintableRanges", scope: !77, file: !78, line: 26, type: !83, isLocal: true, isDefinition: true)
!77 = distinct !DISubprogram(name: "isPrintable", linkageName: "_ZN4llvm3sys7unicode11isPrintableEi", scope: !18, file: !78, line: 23, type: !79, scopeLine: 23, flags: DIFlagPrototyped | DIFlagAllCallsDescribed, spFlags: DISPFlagDefinition | DISPFlagOptimized, unit: !0, retainedNodes: !81)
!78 = !DIFile(filename: "/faster/fs/llvm34/lib/Support/Unicode.cpp", directory: "")
!79 = !DISubroutineType(types: !80)
!80 = !{!57, !20}
!81 = !{!82}
!82 = !DILocalVariable(name: "UCS", arg: 1, scope: !77, file: !78, line: 23, type: !20)
!83 = !DICompositeType(tag: DW_TAG_array_type, baseType: !59, size: 35072, elements: !84)
!84 = !{!85}
!85 = !DISubrange(count: 548)
!86 = !DIGlobalVariableExpression(var: !87, expr: !DIExpression())
!87 = distinct !DIGlobalVariable(name: "NonPrintables", scope: !77, file: !78, line: 211, type: !88, isLocal: true, isDefinition: true)
!88 = !DIDerivedType(tag: DW_TAG_const_type, baseType: !89)
!89 = distinct !DICompositeType(tag: DW_TAG_class_type, name: "UnicodeCharSet", scope: !19, file: !61, line: 41, size: 128, flags: DIFlagTypePassByValue | DIFlagNonTrivial, elements: !90, identifier: "_ZTSN4llvm3sys14UnicodeCharSetE")
!90 = !{!91, !174, !178, !182}
!91 = !DIDerivedType(tag: DW_TAG_member, name: "Ranges", scope: !89, file: !61, line: 89, baseType: !92, size: 128)
!92 = !DIDerivedType(tag: DW_TAG_const_type, baseType: !93)
!93 = !DIDerivedType(tag: DW_TAG_typedef, name: "CharRanges", scope: !89, file: !61, line: 43, baseType: !94)
!94 = distinct !DICompositeType(tag: DW_TAG_class_type, name: "ArrayRef<llvm::sys::UnicodeCharRange>", scope: !13, file: !95, line: 31, size: 128, flags: DIFlagTypePassByValue | DIFlagNonTrivial, elements: !96, templateParams: !172, identifier: "_ZTSN4llvm8ArrayRefINS_3sys16UnicodeCharRangeEEE")
!95 = !DIFile(filename: "/faster/fs/llvm34/include/llvm/ADT/ArrayRef.h", directory: "")
!96 = !{!97, !98, !103, !107, !110, !114, !117, !120, !127, !133, !134, !140, !141, !144, !147, !150, !153, !154, !157, !160, !163, !166, !171}
!97 = !DIDerivedType(tag: DW_TAG_member, name: "Data", scope: !94, file: !95, line: 41, baseType: !58, size: 64)
!98 = !DIDerivedType(tag: DW_TAG_member, name: "Length", scope: !94, file: !95, line: 44, baseType: !99, size: 64, offset: 64)
!99 = !DIDerivedType(tag: DW_TAG_typedef, name: "size_type", file: !95, line: 35, baseType: !100)
!100 = !DIDerivedType(tag: DW_TAG_typedef, name: "size_t", file: !101, line: 46, baseType: !102)
!101 = !DIFile(filename: "llvm-project/build/lib/clang/11.0.0/include/stddef.h", directory: "/fast/fs")
!102 = !DIBasicType(name: "long unsigned int", size: 64, encoding: DW_ATE_unsigned)
!103 = !DISubprogram(name: "ArrayRef", scope: !94, file: !95, line: 51, type: !104, scopeLine: 51, flags: DIFlagPublic | DIFlagPrototyped, spFlags: DISPFlagOptimized)
!104 = !DISubroutineType(types: !105)
!105 = !{null, !106}
!106 = !DIDerivedType(tag: DW_TAG_pointer_type, baseType: !94, size: 64, flags: DIFlagArtificial | DIFlagObjectPointer)
!107 = !DISubprogram(name: "ArrayRef", scope: !94, file: !95, line: 54, type: !108, scopeLine: 54, flags: DIFlagPublic | DIFlagPrototyped, spFlags: DISPFlagOptimized)
!108 = !DISubroutineType(types: !109)
!109 = !{null, !106, !11}
!110 = !DISubprogram(name: "ArrayRef", scope: !94, file: !95, line: 57, type: !111, scopeLine: 57, flags: DIFlagPublic | DIFlagPrototyped, spFlags: DISPFlagOptimized)
!111 = !DISubroutineType(types: !112)
!112 = !{null, !106, !113}
!113 = !DIDerivedType(tag: DW_TAG_reference_type, baseType: !59, size: 64)
!114 = !DISubprogram(name: "ArrayRef", scope: !94, file: !95, line: 61, type: !115, scopeLine: 61, flags: DIFlagPublic | DIFlagPrototyped, spFlags: DISPFlagOptimized)
!115 = !DISubroutineType(types: !116)
!116 = !{null, !106, !58, !100}
!117 = !DISubprogram(name: "ArrayRef", scope: !94, file: !95, line: 65, type: !118, scopeLine: 65, flags: DIFlagPublic | DIFlagPrototyped, spFlags: DISPFlagOptimized)
!118 = !DISubroutineType(types: !119)
!119 = !{null, !106, !58, !58}
!120 = !DISubprogram(name: "ArrayRef", scope: !94, file: !95, line: 88, type: !121, scopeLine: 88, flags: DIFlagPublic | DIFlagPrototyped, spFlags: DISPFlagOptimized)
!121 = !DISubroutineType(types: !122)
!122 = !{null, !106, !123}
!123 = !DIDerivedType(tag: DW_TAG_reference_type, baseType: !124, size: 64)
!124 = !DIDerivedType(tag: DW_TAG_const_type, baseType: !125)
!125 = distinct !DICompositeType(tag: DW_TAG_class_type, name: "initializer_list<llvm::sys::UnicodeCharRange>", scope: !54, file: !126, line: 47, flags: DIFlagFwdDecl, identifier: "_ZTSSt16initializer_listIN4llvm3sys16UnicodeCharRangeEE")
!126 = !DIFile(filename: "/usr/lib/gcc/x86_64-linux-gnu/7.5.0/../../../../include/c++/7.5.0/initializer_list", directory: "")
!127 = !DISubprogram(name: "begin", linkageName: "_ZNK4llvm8ArrayRefINS_3sys16UnicodeCharRangeEE5beginEv", scope: !94, file: !95, line: 97, type: !128, scopeLine: 97, flags: DIFlagPublic | DIFlagPrototyped, spFlags: DISPFlagOptimized)
!128 = !DISubroutineType(types: !129)
!129 = !{!130, !131}
!130 = !DIDerivedType(tag: DW_TAG_typedef, name: "iterator", scope: !94, file: !95, line: 33, baseType: !58)
!131 = !DIDerivedType(tag: DW_TAG_pointer_type, baseType: !132, size: 64, flags: DIFlagArtificial | DIFlagObjectPointer)
!132 = !DIDerivedType(tag: DW_TAG_const_type, baseType: !94)
!133 = !DISubprogram(name: "end", linkageName: "_ZNK4llvm8ArrayRefINS_3sys16UnicodeCharRangeEE3endEv", scope: !94, file: !95, line: 98, type: !128, scopeLine: 98, flags: DIFlagPublic | DIFlagPrototyped, spFlags: DISPFlagOptimized)
!134 = !DISubprogram(name: "rbegin", linkageName: "_ZNK4llvm8ArrayRefINS_3sys16UnicodeCharRangeEE6rbeginEv", scope: !94, file: !95, line: 100, type: !135, scopeLine: 100, flags: DIFlagPublic | DIFlagPrototyped, spFlags: DISPFlagOptimized)
!135 = !DISubroutineType(types: !136)
!136 = !{!137, !131}
!137 = !DIDerivedType(tag: DW_TAG_typedef, name: "reverse_iterator", scope: !94, file: !95, line: 37, baseType: !138)
!138 = distinct !DICompositeType(tag: DW_TAG_class_type, name: "reverse_iterator<const llvm::sys::UnicodeCharRange *>", scope: !54, file: !139, line: 101, flags: DIFlagFwdDecl, identifier: "_ZTSSt16reverse_iteratorIPKN4llvm3sys16UnicodeCharRangeEE")
!139 = !DIFile(filename: "/usr/lib/gcc/x86_64-linux-gnu/7.5.0/../../../../include/c++/7.5.0/bits/stl_iterator.h", directory: "")
!140 = !DISubprogram(name: "rend", linkageName: "_ZNK4llvm8ArrayRefINS_3sys16UnicodeCharRangeEE4rendEv", scope: !94, file: !95, line: 101, type: !135, scopeLine: 101, flags: DIFlagPublic | DIFlagPrototyped, spFlags: DISPFlagOptimized)
!141 = !DISubprogram(name: "empty", linkageName: "_ZNK4llvm8ArrayRefINS_3sys16UnicodeCharRangeEE5emptyEv", scope: !94, file: !95, line: 104, type: !142, scopeLine: 104, flags: DIFlagPublic | DIFlagPrototyped, spFlags: DISPFlagOptimized)
!142 = !DISubroutineType(types: !143)
!143 = !{!57, !131}
!144 = !DISubprogram(name: "data", linkageName: "_ZNK4llvm8ArrayRefINS_3sys16UnicodeCharRangeEE4dataEv", scope: !94, file: !95, line: 106, type: !145, scopeLine: 106, flags: DIFlagPublic | DIFlagPrototyped, spFlags: DISPFlagOptimized)
!145 = !DISubroutineType(types: !146)
!146 = !{!58, !131}
!147 = !DISubprogram(name: "size", linkageName: "_ZNK4llvm8ArrayRefINS_3sys16UnicodeCharRangeEE4sizeEv", scope: !94, file: !95, line: 109, type: !148, scopeLine: 109, flags: DIFlagPublic | DIFlagPrototyped, spFlags: DISPFlagOptimized)
!148 = !DISubroutineType(types: !149)
!149 = !{!100, !131}
!150 = !DISubprogram(name: "front", linkageName: "_ZNK4llvm8ArrayRefINS_3sys16UnicodeCharRangeEE5frontEv", scope: !94, file: !95, line: 112, type: !151, scopeLine: 112, flags: DIFlagPublic | DIFlagPrototyped, spFlags: DISPFlagOptimized)
!151 = !DISubroutineType(types: !152)
!152 = !{!113, !131}
!153 = !DISubprogram(name: "back", linkageName: "_ZNK4llvm8ArrayRefINS_3sys16UnicodeCharRangeEE4backEv", scope: !94, file: !95, line: 118, type: !151, scopeLine: 118, flags: DIFlagPublic | DIFlagPrototyped, spFlags: DISPFlagOptimized)
!154 = !DISubprogram(name: "equals", linkageName: "_ZNK4llvm8ArrayRefINS_3sys16UnicodeCharRangeEE6equalsES3_", scope: !94, file: !95, line: 124, type: !155, scopeLine: 124, flags: DIFlagPublic | DIFlagPrototyped, spFlags: DISPFlagOptimized)
!155 = !DISubroutineType(types: !156)
!156 = !{!57, !131, !94}
!157 = !DISubprogram(name: "slice", linkageName: "_ZNK4llvm8ArrayRefINS_3sys16UnicodeCharRangeEE5sliceEj", scope: !94, file: !95, line: 134, type: !158, scopeLine: 134, flags: DIFlagPublic | DIFlagPrototyped, spFlags: DISPFlagOptimized)
!158 = !DISubroutineType(types: !159)
!159 = !{!94, !131, !6}
!160 = !DISubprogram(name: "slice", linkageName: "_ZNK4llvm8ArrayRefINS_3sys16UnicodeCharRangeEE5sliceEjj", scope: !94, file: !95, line: 141, type: !161, scopeLine: 141, flags: DIFlagPublic | DIFlagPrototyped, spFlags: DISPFlagOptimized)
!161 = !DISubroutineType(types: !162)
!162 = !{!94, !131, !6, !6}
!163 = !DISubprogram(name: "operator[]", linkageName: "_ZNK4llvm8ArrayRefINS_3sys16UnicodeCharRangeEEixEm", scope: !94, file: !95, line: 149, type: !164, scopeLine: 149, flags: DIFlagPublic | DIFlagPrototyped, spFlags: DISPFlagOptimized)
!164 = !DISubroutineType(types: !165)
!165 = !{!113, !131, !100}
!166 = !DISubprogram(name: "vec", linkageName: "_ZNK4llvm8ArrayRefINS_3sys16UnicodeCharRangeEE3vecEv", scope: !94, file: !95, line: 157, type: !167, scopeLine: 157, flags: DIFlagPublic | DIFlagPrototyped, spFlags: DISPFlagOptimized)
!167 = !DISubroutineType(types: !168)
!168 = !{!169, !131}
!169 = distinct !DICompositeType(tag: DW_TAG_class_type, name: "vector<llvm::sys::UnicodeCharRange, std::allocator<llvm::sys::UnicodeCharRange> >", scope: !54, file: !170, line: 216, flags: DIFlagFwdDecl, identifier: "_ZTSSt6vectorIN4llvm3sys16UnicodeCharRangeESaIS2_EE")
!170 = !DIFile(filename: "/usr/lib/gcc/x86_64-linux-gnu/7.5.0/../../../../include/c++/7.5.0/bits/stl_vector.h", directory: "")
!171 = !DISubprogram(name: "operator vector", linkageName: "_ZNK4llvm8ArrayRefINS_3sys16UnicodeCharRangeEEcvSt6vectorIS2_SaIS2_EEEv", scope: !94, file: !95, line: 164, type: !167, scopeLine: 164, flags: DIFlagPublic | DIFlagPrototyped, spFlags: DISPFlagOptimized)
!172 = !{!173}
!173 = !DITemplateTypeParameter(name: "T", type: !60)
!174 = !DISubprogram(name: "UnicodeCharSet", scope: !89, file: !61, line: 52, type: !175, scopeLine: 52, flags: DIFlagPublic | DIFlagPrototyped, spFlags: DISPFlagOptimized)
!175 = !DISubroutineType(types: !176)
!176 = !{null, !177, !93}
!177 = !DIDerivedType(tag: DW_TAG_pointer_type, baseType: !89, size: 64, flags: DIFlagArtificial | DIFlagObjectPointer)
!178 = !DISubprogram(name: "contains", linkageName: "_ZNK4llvm3sys14UnicodeCharSet8containsEj", scope: !89, file: !61, line: 58, type: !179, scopeLine: 58, flags: DIFlagPublic | DIFlagPrototyped, spFlags: DISPFlagOptimized)
!179 = !DISubroutineType(types: !180)
!180 = !{!57, !181, !64}
!181 = !DIDerivedType(tag: DW_TAG_pointer_type, baseType: !88, size: 64, flags: DIFlagArtificial | DIFlagObjectPointer)
!182 = !DISubprogram(name: "rangesAreValid", linkageName: "_ZNK4llvm3sys14UnicodeCharSet14rangesAreValidEv", scope: !89, file: !61, line: 65, type: !183, scopeLine: 65, flags: DIFlagPrototyped, spFlags: DISPFlagOptimized)
!183 = !DISubroutineType(types: !184)
!184 = !{!57, !181}
!185 = !DIGlobalVariableExpression(var: !186, expr: !DIExpression())
!186 = distinct !DIGlobalVariable(name: "CombiningCharacterRanges", scope: !187, file: !78, line: 235, type: !192, isLocal: true, isDefinition: true)
!187 = distinct !DISubprogram(name: "charWidth", linkageName: "_ZN4llvm3sys7unicodeL9charWidthEi", scope: !18, file: !78, line: 227, type: !188, scopeLine: 228, flags: DIFlagPrototyped | DIFlagAllCallsDescribed, spFlags: DISPFlagLocalToUnit | DISPFlagDefinition | DISPFlagOptimized, unit: !0, retainedNodes: !190)
!188 = !DISubroutineType(types: !189)
!189 = !{!20, !20}
!190 = !{!191}
!191 = !DILocalVariable(name: "UCS", arg: 1, scope: !187, file: !78, line: 227, type: !20)
!192 = !DICompositeType(tag: DW_TAG_array_type, baseType: !59, size: 13952, elements: !193)
!193 = !{!194}
!194 = !DISubrange(count: 218)
!195 = !DIGlobalVariableExpression(var: !196, expr: !DIExpression())
!196 = distinct !DIGlobalVariable(name: "CombiningCharacters", scope: !187, file: !78, line: 310, type: !88, isLocal: true, isDefinition: true)
!197 = !DIGlobalVariableExpression(var: !198, expr: !DIExpression())
!198 = distinct !DIGlobalVariable(name: "DoubleWidthCharacterRanges", scope: !187, file: !78, line: 315, type: !199, isLocal: true, isDefinition: true)
!199 = !DICompositeType(tag: DW_TAG_array_type, baseType: !59, size: 960, elements: !200)
!200 = !{!201}
!201 = !DISubrange(count: 15)
!202 = !DIGlobalVariableExpression(var: !203, expr: !DIExpression())
!203 = distinct !DIGlobalVariable(name: "DoubleWidthCharacters", scope: !187, file: !78, line: 336, type: !88, isLocal: true, isDefinition: true)
!204 = !{!205, !209, !216, !218, !220, !224, !226, !228, !230, !232, !234, !236, !238, !243, !247, !249, !251, !256, !258, !260, !262, !264, !266, !268, !271, !274, !276, !280, !285, !287, !289, !291, !293, !295, !297, !299, !301, !303, !305, !309, !313, !315, !317, !319, !321, !323, !325, !327, !329, !331, !333, !335, !337, !339, !341, !343, !347, !351, !355, !357, !359, !361, !363, !365, !367, !369, !371, !373, !377, !381, !385, !387, !389, !391, !396, !400, !404, !406, !408, !410, !412, !414, !416, !418, !420, !422, !424, !426, !428, !433, !437, !441, !443, !445, !447, !454, !458, !462, !464, !466, !468, !470, !472, !474, !478, !482, !484, !486, !488, !490, !494, !498, !502, !504, !506, !508, !510, !512, !514, !518, !522, !526, !528, !532, !536, !538, !540, !542, !544, !546, !548, !553, !557, !561, !567, !571, !576, !578, !581, !585, !589, !601, !605, !609, !613, !617, !622, !626, !630, !634, !638, !646, !650, !654, !656, !660, !664, !668, !674, !678, !682, !684, !692, !696, !702, !704, !708, !712, !716, !720, !725, !729, !733, !734, !735, !736, !738, !739, !740, !741, !742, !743, !744, !799, !803, !809, !813, !819, !823, !827, !831, !835, !837, !839, !843, !847, !851, !855, !859, !861, !863, !865, !869, !873, !877, !879, !881, !898, !901, !906, !960, !965, !969, !973, !977, !981, !983, !985, !989, !995, !999, !1005, !1011, !1013, !1017, !1021, !1025, !1029, !1040, !1042, !1046, !1050, !1054, !1056, !1060, !1064, !1068, !1070, !1072, !1076, !1084, !1088, !1092, !1096, !1098, !1104, !1106, !1112, !1116, !1120, !1124, !1128, !1132, !1136, !1138, !1140, !1144, !1148, !1152, !1154, !1158, !1162, !1164, !1166, !1170, !1174, !1178, !1182, !1183, !1184, !1185, !1186, !1187, !1188, !1189, !1190, !1191, !1192, !1197, !1201, !1204, !1207, !1210, !1212, !1214, !1216, !1218, !1220, !1222, !1224, !1227, !1229, !1232, !1235, !1236, !1239, !1241, !1243, !1245, !1247, !1249, !1251, !1253, !1255, !1258, !1260, !1263, !1265, !1269, !1273, !1278, !1282, !1284, !1286, !1288, !1290, !1292, !1294, !1296, !1298, !1300, !1302, !1304, !1306, !1308, !1312, !1318, !1323, !1327, !1329, !1331, !1333, !1335, !1342, !1346, !1350, !1354, !1358, !1362, !1366, !1370, !1372, !1376, !1382, !1386, !1390, !1392, !1395, !1399, !1403, !1405, !1407, !1409, !1411, !1413, !1415, !1417, !1421, !1425, !1429, !1433, !1437, !1441, !1443, !1447, !1451, !1455, !1459, !1461, !1463, !1467, !1471, !1472, !1473, !1474, !1475, !1476, !1482, !1485, !1486, !1488, !1490, !1492, !1494, !1498, !1500, !1502, !1504, !1506, !1508, !1510, !1512, !1514, !1518, !1522, !1524, !1528, !1532, !1534, !1537, !1542, !1546, !1547, !1552, !1556, !1561, !1566, !1570, !1576, !1580, !1582}
!205 = !DIImportedEntity(tag: DW_TAG_imported_declaration, scope: !54, entity: !206, file: !208, line: 52)
!206 = !DISubprogram(name: "abs", scope: !207, file: !207, line: 837, type: !188, flags: DIFlagPrototyped, spFlags: DISPFlagOptimized)
!207 = !DIFile(filename: "/usr/include/stdlib.h", directory: "")
!208 = !DIFile(filename: "/usr/lib/gcc/x86_64-linux-gnu/7.5.0/../../../../include/c++/7.5.0/bits/std_abs.h", directory: "")
!209 = !DIImportedEntity(tag: DW_TAG_imported_declaration, scope: !54, entity: !210, file: !215, line: 83)
!210 = !DISubprogram(name: "acos", scope: !211, file: !211, line: 53, type: !212, flags: DIFlagPrototyped, spFlags: DISPFlagOptimized)
!211 = !DIFile(filename: "/usr/include/x86_64-linux-gnu/bits/mathcalls.h", directory: "")
!212 = !DISubroutineType(types: !213)
!213 = !{!214, !214}
!214 = !DIBasicType(name: "double", size: 64, encoding: DW_ATE_float)
!215 = !DIFile(filename: "/usr/lib/gcc/x86_64-linux-gnu/7.5.0/../../../../include/c++/7.5.0/cmath", directory: "")
!216 = !DIImportedEntity(tag: DW_TAG_imported_declaration, scope: !54, entity: !217, file: !215, line: 102)
!217 = !DISubprogram(name: "asin", scope: !211, file: !211, line: 55, type: !212, flags: DIFlagPrototyped, spFlags: DISPFlagOptimized)
!218 = !DIImportedEntity(tag: DW_TAG_imported_declaration, scope: !54, entity: !219, file: !215, line: 121)
!219 = !DISubprogram(name: "atan", scope: !211, file: !211, line: 57, type: !212, flags: DIFlagPrototyped, spFlags: DISPFlagOptimized)
!220 = !DIImportedEntity(tag: DW_TAG_imported_declaration, scope: !54, entity: !221, file: !215, line: 140)
!221 = !DISubprogram(name: "atan2", scope: !211, file: !211, line: 59, type: !222, flags: DIFlagPrototyped, spFlags: DISPFlagOptimized)
!222 = !DISubroutineType(types: !223)
!223 = !{!214, !214, !214}
!224 = !DIImportedEntity(tag: DW_TAG_imported_declaration, scope: !54, entity: !225, file: !215, line: 161)
!225 = !DISubprogram(name: "ceil", scope: !211, file: !211, line: 159, type: !212, flags: DIFlagPrototyped, spFlags: DISPFlagOptimized)
!226 = !DIImportedEntity(tag: DW_TAG_imported_declaration, scope: !54, entity: !227, file: !215, line: 180)
!227 = !DISubprogram(name: "cos", scope: !211, file: !211, line: 62, type: !212, flags: DIFlagPrototyped, spFlags: DISPFlagOptimized)
!228 = !DIImportedEntity(tag: DW_TAG_imported_declaration, scope: !54, entity: !229, file: !215, line: 199)
!229 = !DISubprogram(name: "cosh", scope: !211, file: !211, line: 71, type: !212, flags: DIFlagPrototyped, spFlags: DISPFlagOptimized)
!230 = !DIImportedEntity(tag: DW_TAG_imported_declaration, scope: !54, entity: !231, file: !215, line: 218)
!231 = !DISubprogram(name: "exp", scope: !211, file: !211, line: 95, type: !212, flags: DIFlagPrototyped, spFlags: DISPFlagOptimized)
!232 = !DIImportedEntity(tag: DW_TAG_imported_declaration, scope: !54, entity: !233, file: !215, line: 237)
!233 = !DISubprogram(name: "fabs", scope: !211, file: !211, line: 162, type: !212, flags: DIFlagPrototyped, spFlags: DISPFlagOptimized)
!234 = !DIImportedEntity(tag: DW_TAG_imported_declaration, scope: !54, entity: !235, file: !215, line: 256)
!235 = !DISubprogram(name: "floor", scope: !211, file: !211, line: 165, type: !212, flags: DIFlagPrototyped, spFlags: DISPFlagOptimized)
!236 = !DIImportedEntity(tag: DW_TAG_imported_declaration, scope: !54, entity: !237, file: !215, line: 275)
!237 = !DISubprogram(name: "fmod", scope: !211, file: !211, line: 168, type: !222, flags: DIFlagPrototyped, spFlags: DISPFlagOptimized)
!238 = !DIImportedEntity(tag: DW_TAG_imported_declaration, scope: !54, entity: !239, file: !215, line: 296)
!239 = !DISubprogram(name: "frexp", scope: !211, file: !211, line: 98, type: !240, flags: DIFlagPrototyped, spFlags: DISPFlagOptimized)
!240 = !DISubroutineType(types: !241)
!241 = !{!214, !214, !242}
!242 = !DIDerivedType(tag: DW_TAG_pointer_type, baseType: !20, size: 64)
!243 = !DIImportedEntity(tag: DW_TAG_imported_declaration, scope: !54, entity: !244, file: !215, line: 315)
!244 = !DISubprogram(name: "ldexp", scope: !211, file: !211, line: 101, type: !245, flags: DIFlagPrototyped, spFlags: DISPFlagOptimized)
!245 = !DISubroutineType(types: !246)
!246 = !{!214, !214, !20}
!247 = !DIImportedEntity(tag: DW_TAG_imported_declaration, scope: !54, entity: !248, file: !215, line: 334)
!248 = !DISubprogram(name: "log", scope: !211, file: !211, line: 104, type: !212, flags: DIFlagPrototyped, spFlags: DISPFlagOptimized)
!249 = !DIImportedEntity(tag: DW_TAG_imported_declaration, scope: !54, entity: !250, file: !215, line: 353)
!250 = !DISubprogram(name: "log10", scope: !211, file: !211, line: 107, type: !212, flags: DIFlagPrototyped, spFlags: DISPFlagOptimized)
!251 = !DIImportedEntity(tag: DW_TAG_imported_declaration, scope: !54, entity: !252, file: !215, line: 372)
!252 = !DISubprogram(name: "modf", scope: !211, file: !211, line: 110, type: !253, flags: DIFlagPrototyped, spFlags: DISPFlagOptimized)
!253 = !DISubroutineType(types: !254)
!254 = !{!214, !214, !255}
!255 = !DIDerivedType(tag: DW_TAG_pointer_type, baseType: !214, size: 64)
!256 = !DIImportedEntity(tag: DW_TAG_imported_declaration, scope: !54, entity: !257, file: !215, line: 384)
!257 = !DISubprogram(name: "pow", scope: !211, file: !211, line: 140, type: !222, flags: DIFlagPrototyped, spFlags: DISPFlagOptimized)
!258 = !DIImportedEntity(tag: DW_TAG_imported_declaration, scope: !54, entity: !259, file: !215, line: 421)
!259 = !DISubprogram(name: "sin", scope: !211, file: !211, line: 64, type: !212, flags: DIFlagPrototyped, spFlags: DISPFlagOptimized)
!260 = !DIImportedEntity(tag: DW_TAG_imported_declaration, scope: !54, entity: !261, file: !215, line: 440)
!261 = !DISubprogram(name: "sinh", scope: !211, file: !211, line: 73, type: !212, flags: DIFlagPrototyped, spFlags: DISPFlagOptimized)
!262 = !DIImportedEntity(tag: DW_TAG_imported_declaration, scope: !54, entity: !263, file: !215, line: 459)
!263 = !DISubprogram(name: "sqrt", scope: !211, file: !211, line: 143, type: !212, flags: DIFlagPrototyped, spFlags: DISPFlagOptimized)
!264 = !DIImportedEntity(tag: DW_TAG_imported_declaration, scope: !54, entity: !265, file: !215, line: 478)
!265 = !DISubprogram(name: "tan", scope: !211, file: !211, line: 66, type: !212, flags: DIFlagPrototyped, spFlags: DISPFlagOptimized)
!266 = !DIImportedEntity(tag: DW_TAG_imported_declaration, scope: !54, entity: !267, file: !215, line: 497)
!267 = !DISubprogram(name: "tanh", scope: !211, file: !211, line: 75, type: !212, flags: DIFlagPrototyped, spFlags: DISPFlagOptimized)
!268 = !DIImportedEntity(tag: DW_TAG_imported_declaration, scope: !54, entity: !269, file: !215, line: 1080)
!269 = !DIDerivedType(tag: DW_TAG_typedef, name: "double_t", file: !270, line: 150, baseType: !214)
!270 = !DIFile(filename: "/usr/include/math.h", directory: "")
!271 = !DIImportedEntity(tag: DW_TAG_imported_declaration, scope: !54, entity: !272, file: !215, line: 1081)
!272 = !DIDerivedType(tag: DW_TAG_typedef, name: "float_t", file: !270, line: 149, baseType: !273)
!273 = !DIBasicType(name: "float", size: 32, encoding: DW_ATE_float)
!274 = !DIImportedEntity(tag: DW_TAG_imported_declaration, scope: !54, entity: !275, file: !215, line: 1084)
!275 = !DISubprogram(name: "acosh", scope: !211, file: !211, line: 85, type: !212, flags: DIFlagPrototyped, spFlags: DISPFlagOptimized)
!276 = !DIImportedEntity(tag: DW_TAG_imported_declaration, scope: !54, entity: !277, file: !215, line: 1085)
!277 = !DISubprogram(name: "acoshf", scope: !211, file: !211, line: 85, type: !278, flags: DIFlagPrototyped, spFlags: DISPFlagOptimized)
!278 = !DISubroutineType(types: !279)
!279 = !{!273, !273}
!280 = !DIImportedEntity(tag: DW_TAG_imported_declaration, scope: !54, entity: !281, file: !215, line: 1086)
!281 = !DISubprogram(name: "acoshl", scope: !211, file: !211, line: 85, type: !282, flags: DIFlagPrototyped, spFlags: DISPFlagOptimized)
!282 = !DISubroutineType(types: !283)
!283 = !{!284, !284}
!284 = !DIBasicType(name: "long double", size: 128, encoding: DW_ATE_float)
!285 = !DIImportedEntity(tag: DW_TAG_imported_declaration, scope: !54, entity: !286, file: !215, line: 1088)
!286 = !DISubprogram(name: "asinh", scope: !211, file: !211, line: 87, type: !212, flags: DIFlagPrototyped, spFlags: DISPFlagOptimized)
!287 = !DIImportedEntity(tag: DW_TAG_imported_declaration, scope: !54, entity: !288, file: !215, line: 1089)
!288 = !DISubprogram(name: "asinhf", scope: !211, file: !211, line: 87, type: !278, flags: DIFlagPrototyped, spFlags: DISPFlagOptimized)
!289 = !DIImportedEntity(tag: DW_TAG_imported_declaration, scope: !54, entity: !290, file: !215, line: 1090)
!290 = !DISubprogram(name: "asinhl", scope: !211, file: !211, line: 87, type: !282, flags: DIFlagPrototyped, spFlags: DISPFlagOptimized)
!291 = !DIImportedEntity(tag: DW_TAG_imported_declaration, scope: !54, entity: !292, file: !215, line: 1092)
!292 = !DISubprogram(name: "atanh", scope: !211, file: !211, line: 89, type: !212, flags: DIFlagPrototyped, spFlags: DISPFlagOptimized)
!293 = !DIImportedEntity(tag: DW_TAG_imported_declaration, scope: !54, entity: !294, file: !215, line: 1093)
!294 = !DISubprogram(name: "atanhf", scope: !211, file: !211, line: 89, type: !278, flags: DIFlagPrototyped, spFlags: DISPFlagOptimized)
!295 = !DIImportedEntity(tag: DW_TAG_imported_declaration, scope: !54, entity: !296, file: !215, line: 1094)
!296 = !DISubprogram(name: "atanhl", scope: !211, file: !211, line: 89, type: !282, flags: DIFlagPrototyped, spFlags: DISPFlagOptimized)
!297 = !DIImportedEntity(tag: DW_TAG_imported_declaration, scope: !54, entity: !298, file: !215, line: 1096)
!298 = !DISubprogram(name: "cbrt", scope: !211, file: !211, line: 152, type: !212, flags: DIFlagPrototyped, spFlags: DISPFlagOptimized)
!299 = !DIImportedEntity(tag: DW_TAG_imported_declaration, scope: !54, entity: !300, file: !215, line: 1097)
!300 = !DISubprogram(name: "cbrtf", scope: !211, file: !211, line: 152, type: !278, flags: DIFlagPrototyped, spFlags: DISPFlagOptimized)
!301 = !DIImportedEntity(tag: DW_TAG_imported_declaration, scope: !54, entity: !302, file: !215, line: 1098)
!302 = !DISubprogram(name: "cbrtl", scope: !211, file: !211, line: 152, type: !282, flags: DIFlagPrototyped, spFlags: DISPFlagOptimized)
!303 = !DIImportedEntity(tag: DW_TAG_imported_declaration, scope: !54, entity: !304, file: !215, line: 1100)
!304 = !DISubprogram(name: "copysign", scope: !211, file: !211, line: 196, type: !222, flags: DIFlagPrototyped, spFlags: DISPFlagOptimized)
!305 = !DIImportedEntity(tag: DW_TAG_imported_declaration, scope: !54, entity: !306, file: !215, line: 1101)
!306 = !DISubprogram(name: "copysignf", scope: !211, file: !211, line: 196, type: !307, flags: DIFlagPrototyped, spFlags: DISPFlagOptimized)
!307 = !DISubroutineType(types: !308)
!308 = !{!273, !273, !273}
!309 = !DIImportedEntity(tag: DW_TAG_imported_declaration, scope: !54, entity: !310, file: !215, line: 1102)
!310 = !DISubprogram(name: "copysignl", scope: !211, file: !211, line: 196, type: !311, flags: DIFlagPrototyped, spFlags: DISPFlagOptimized)
!311 = !DISubroutineType(types: !312)
!312 = !{!284, !284, !284}
!313 = !DIImportedEntity(tag: DW_TAG_imported_declaration, scope: !54, entity: !314, file: !215, line: 1104)
!314 = !DISubprogram(name: "erf", scope: !211, file: !211, line: 228, type: !212, flags: DIFlagPrototyped, spFlags: DISPFlagOptimized)
!315 = !DIImportedEntity(tag: DW_TAG_imported_declaration, scope: !54, entity: !316, file: !215, line: 1105)
!316 = !DISubprogram(name: "erff", scope: !211, file: !211, line: 228, type: !278, flags: DIFlagPrototyped, spFlags: DISPFlagOptimized)
!317 = !DIImportedEntity(tag: DW_TAG_imported_declaration, scope: !54, entity: !318, file: !215, line: 1106)
!318 = !DISubprogram(name: "erfl", scope: !211, file: !211, line: 228, type: !282, flags: DIFlagPrototyped, spFlags: DISPFlagOptimized)
!319 = !DIImportedEntity(tag: DW_TAG_imported_declaration, scope: !54, entity: !320, file: !215, line: 1108)
!320 = !DISubprogram(name: "erfc", scope: !211, file: !211, line: 229, type: !212, flags: DIFlagPrototyped, spFlags: DISPFlagOptimized)
!321 = !DIImportedEntity(tag: DW_TAG_imported_declaration, scope: !54, entity: !322, file: !215, line: 1109)
!322 = !DISubprogram(name: "erfcf", scope: !211, file: !211, line: 229, type: !278, flags: DIFlagPrototyped, spFlags: DISPFlagOptimized)
!323 = !DIImportedEntity(tag: DW_TAG_imported_declaration, scope: !54, entity: !324, file: !215, line: 1110)
!324 = !DISubprogram(name: "erfcl", scope: !211, file: !211, line: 229, type: !282, flags: DIFlagPrototyped, spFlags: DISPFlagOptimized)
!325 = !DIImportedEntity(tag: DW_TAG_imported_declaration, scope: !54, entity: !326, file: !215, line: 1112)
!326 = !DISubprogram(name: "exp2", scope: !211, file: !211, line: 130, type: !212, flags: DIFlagPrototyped, spFlags: DISPFlagOptimized)
!327 = !DIImportedEntity(tag: DW_TAG_imported_declaration, scope: !54, entity: !328, file: !215, line: 1113)
!328 = !DISubprogram(name: "exp2f", scope: !211, file: !211, line: 130, type: !278, flags: DIFlagPrototyped, spFlags: DISPFlagOptimized)
!329 = !DIImportedEntity(tag: DW_TAG_imported_declaration, scope: !54, entity: !330, file: !215, line: 1114)
!330 = !DISubprogram(name: "exp2l", scope: !211, file: !211, line: 130, type: !282, flags: DIFlagPrototyped, spFlags: DISPFlagOptimized)
!331 = !DIImportedEntity(tag: DW_TAG_imported_declaration, scope: !54, entity: !332, file: !215, line: 1116)
!332 = !DISubprogram(name: "expm1", scope: !211, file: !211, line: 119, type: !212, flags: DIFlagPrototyped, spFlags: DISPFlagOptimized)
!333 = !DIImportedEntity(tag: DW_TAG_imported_declaration, scope: !54, entity: !334, file: !215, line: 1117)
!334 = !DISubprogram(name: "expm1f", scope: !211, file: !211, line: 119, type: !278, flags: DIFlagPrototyped, spFlags: DISPFlagOptimized)
!335 = !DIImportedEntity(tag: DW_TAG_imported_declaration, scope: !54, entity: !336, file: !215, line: 1118)
!336 = !DISubprogram(name: "expm1l", scope: !211, file: !211, line: 119, type: !282, flags: DIFlagPrototyped, spFlags: DISPFlagOptimized)
!337 = !DIImportedEntity(tag: DW_TAG_imported_declaration, scope: !54, entity: !338, file: !215, line: 1120)
!338 = !DISubprogram(name: "fdim", scope: !211, file: !211, line: 326, type: !222, flags: DIFlagPrototyped, spFlags: DISPFlagOptimized)
!339 = !DIImportedEntity(tag: DW_TAG_imported_declaration, scope: !54, entity: !340, file: !215, line: 1121)
!340 = !DISubprogram(name: "fdimf", scope: !211, file: !211, line: 326, type: !307, flags: DIFlagPrototyped, spFlags: DISPFlagOptimized)
!341 = !DIImportedEntity(tag: DW_TAG_imported_declaration, scope: !54, entity: !342, file: !215, line: 1122)
!342 = !DISubprogram(name: "fdiml", scope: !211, file: !211, line: 326, type: !311, flags: DIFlagPrototyped, spFlags: DISPFlagOptimized)
!343 = !DIImportedEntity(tag: DW_TAG_imported_declaration, scope: !54, entity: !344, file: !215, line: 1124)
!344 = !DISubprogram(name: "fma", scope: !211, file: !211, line: 335, type: !345, flags: DIFlagPrototyped, spFlags: DISPFlagOptimized)
!345 = !DISubroutineType(types: !346)
!346 = !{!214, !214, !214, !214}
!347 = !DIImportedEntity(tag: DW_TAG_imported_declaration, scope: !54, entity: !348, file: !215, line: 1125)
!348 = !DISubprogram(name: "fmaf", scope: !211, file: !211, line: 335, type: !349, flags: DIFlagPrototyped, spFlags: DISPFlagOptimized)
!349 = !DISubroutineType(types: !350)
!350 = !{!273, !273, !273, !273}
!351 = !DIImportedEntity(tag: DW_TAG_imported_declaration, scope: !54, entity: !352, file: !215, line: 1126)
!352 = !DISubprogram(name: "fmal", scope: !211, file: !211, line: 335, type: !353, flags: DIFlagPrototyped, spFlags: DISPFlagOptimized)
!353 = !DISubroutineType(types: !354)
!354 = !{!284, !284, !284, !284}
!355 = !DIImportedEntity(tag: DW_TAG_imported_declaration, scope: !54, entity: !356, file: !215, line: 1128)
!356 = !DISubprogram(name: "fmax", scope: !211, file: !211, line: 329, type: !222, flags: DIFlagPrototyped, spFlags: DISPFlagOptimized)
!357 = !DIImportedEntity(tag: DW_TAG_imported_declaration, scope: !54, entity: !358, file: !215, line: 1129)
!358 = !DISubprogram(name: "fmaxf", scope: !211, file: !211, line: 329, type: !307, flags: DIFlagPrototyped, spFlags: DISPFlagOptimized)
!359 = !DIImportedEntity(tag: DW_TAG_imported_declaration, scope: !54, entity: !360, file: !215, line: 1130)
!360 = !DISubprogram(name: "fmaxl", scope: !211, file: !211, line: 329, type: !311, flags: DIFlagPrototyped, spFlags: DISPFlagOptimized)
!361 = !DIImportedEntity(tag: DW_TAG_imported_declaration, scope: !54, entity: !362, file: !215, line: 1132)
!362 = !DISubprogram(name: "fmin", scope: !211, file: !211, line: 332, type: !222, flags: DIFlagPrototyped, spFlags: DISPFlagOptimized)
!363 = !DIImportedEntity(tag: DW_TAG_imported_declaration, scope: !54, entity: !364, file: !215, line: 1133)
!364 = !DISubprogram(name: "fminf", scope: !211, file: !211, line: 332, type: !307, flags: DIFlagPrototyped, spFlags: DISPFlagOptimized)
!365 = !DIImportedEntity(tag: DW_TAG_imported_declaration, scope: !54, entity: !366, file: !215, line: 1134)
!366 = !DISubprogram(name: "fminl", scope: !211, file: !211, line: 332, type: !311, flags: DIFlagPrototyped, spFlags: DISPFlagOptimized)
!367 = !DIImportedEntity(tag: DW_TAG_imported_declaration, scope: !54, entity: !368, file: !215, line: 1136)
!368 = !DISubprogram(name: "hypot", scope: !211, file: !211, line: 147, type: !222, flags: DIFlagPrototyped, spFlags: DISPFlagOptimized)
!369 = !DIImportedEntity(tag: DW_TAG_imported_declaration, scope: !54, entity: !370, file: !215, line: 1137)
!370 = !DISubprogram(name: "hypotf", scope: !211, file: !211, line: 147, type: !307, flags: DIFlagPrototyped, spFlags: DISPFlagOptimized)
!371 = !DIImportedEntity(tag: DW_TAG_imported_declaration, scope: !54, entity: !372, file: !215, line: 1138)
!372 = !DISubprogram(name: "hypotl", scope: !211, file: !211, line: 147, type: !311, flags: DIFlagPrototyped, spFlags: DISPFlagOptimized)
!373 = !DIImportedEntity(tag: DW_TAG_imported_declaration, scope: !54, entity: !374, file: !215, line: 1140)
!374 = !DISubprogram(name: "ilogb", scope: !211, file: !211, line: 280, type: !375, flags: DIFlagPrototyped, spFlags: DISPFlagOptimized)
!375 = !DISubroutineType(types: !376)
!376 = !{!20, !214}
!377 = !DIImportedEntity(tag: DW_TAG_imported_declaration, scope: !54, entity: !378, file: !215, line: 1141)
!378 = !DISubprogram(name: "ilogbf", scope: !211, file: !211, line: 280, type: !379, flags: DIFlagPrototyped, spFlags: DISPFlagOptimized)
!379 = !DISubroutineType(types: !380)
!380 = !{!20, !273}
!381 = !DIImportedEntity(tag: DW_TAG_imported_declaration, scope: !54, entity: !382, file: !215, line: 1142)
!382 = !DISubprogram(name: "ilogbl", scope: !211, file: !211, line: 280, type: !383, flags: DIFlagPrototyped, spFlags: DISPFlagOptimized)
!383 = !DISubroutineType(types: !384)
!384 = !{!20, !284}
!385 = !DIImportedEntity(tag: DW_TAG_imported_declaration, scope: !54, entity: !386, file: !215, line: 1144)
!386 = !DISubprogram(name: "lgamma", scope: !211, file: !211, line: 230, type: !212, flags: DIFlagPrototyped, spFlags: DISPFlagOptimized)
!387 = !DIImportedEntity(tag: DW_TAG_imported_declaration, scope: !54, entity: !388, file: !215, line: 1145)
!388 = !DISubprogram(name: "lgammaf", scope: !211, file: !211, line: 230, type: !278, flags: DIFlagPrototyped, spFlags: DISPFlagOptimized)
!389 = !DIImportedEntity(tag: DW_TAG_imported_declaration, scope: !54, entity: !390, file: !215, line: 1146)
!390 = !DISubprogram(name: "lgammal", scope: !211, file: !211, line: 230, type: !282, flags: DIFlagPrototyped, spFlags: DISPFlagOptimized)
!391 = !DIImportedEntity(tag: DW_TAG_imported_declaration, scope: !54, entity: !392, file: !215, line: 1149)
!392 = !DISubprogram(name: "llrint", scope: !211, file: !211, line: 316, type: !393, flags: DIFlagPrototyped, spFlags: DISPFlagOptimized)
!393 = !DISubroutineType(types: !394)
!394 = !{!395, !214}
!395 = !DIBasicType(name: "long long int", size: 64, encoding: DW_ATE_signed)
!396 = !DIImportedEntity(tag: DW_TAG_imported_declaration, scope: !54, entity: !397, file: !215, line: 1150)
!397 = !DISubprogram(name: "llrintf", scope: !211, file: !211, line: 316, type: !398, flags: DIFlagPrototyped, spFlags: DISPFlagOptimized)
!398 = !DISubroutineType(types: !399)
!399 = !{!395, !273}
!400 = !DIImportedEntity(tag: DW_TAG_imported_declaration, scope: !54, entity: !401, file: !215, line: 1151)
!401 = !DISubprogram(name: "llrintl", scope: !211, file: !211, line: 316, type: !402, flags: DIFlagPrototyped, spFlags: DISPFlagOptimized)
!402 = !DISubroutineType(types: !403)
!403 = !{!395, !284}
!404 = !DIImportedEntity(tag: DW_TAG_imported_declaration, scope: !54, entity: !405, file: !215, line: 1153)
!405 = !DISubprogram(name: "llround", scope: !211, file: !211, line: 322, type: !393, flags: DIFlagPrototyped, spFlags: DISPFlagOptimized)
!406 = !DIImportedEntity(tag: DW_TAG_imported_declaration, scope: !54, entity: !407, file: !215, line: 1154)
!407 = !DISubprogram(name: "llroundf", scope: !211, file: !211, line: 322, type: !398, flags: DIFlagPrototyped, spFlags: DISPFlagOptimized)
!408 = !DIImportedEntity(tag: DW_TAG_imported_declaration, scope: !54, entity: !409, file: !215, line: 1155)
!409 = !DISubprogram(name: "llroundl", scope: !211, file: !211, line: 322, type: !402, flags: DIFlagPrototyped, spFlags: DISPFlagOptimized)
!410 = !DIImportedEntity(tag: DW_TAG_imported_declaration, scope: !54, entity: !411, file: !215, line: 1158)
!411 = !DISubprogram(name: "log1p", scope: !211, file: !211, line: 122, type: !212, flags: DIFlagPrototyped, spFlags: DISPFlagOptimized)
!412 = !DIImportedEntity(tag: DW_TAG_imported_declaration, scope: !54, entity: !413, file: !215, line: 1159)
!413 = !DISubprogram(name: "log1pf", scope: !211, file: !211, line: 122, type: !278, flags: DIFlagPrototyped, spFlags: DISPFlagOptimized)
!414 = !DIImportedEntity(tag: DW_TAG_imported_declaration, scope: !54, entity: !415, file: !215, line: 1160)
!415 = !DISubprogram(name: "log1pl", scope: !211, file: !211, line: 122, type: !282, flags: DIFlagPrototyped, spFlags: DISPFlagOptimized)
!416 = !DIImportedEntity(tag: DW_TAG_imported_declaration, scope: !54, entity: !417, file: !215, line: 1162)
!417 = !DISubprogram(name: "log2", scope: !211, file: !211, line: 133, type: !212, flags: DIFlagPrototyped, spFlags: DISPFlagOptimized)
!418 = !DIImportedEntity(tag: DW_TAG_imported_declaration, scope: !54, entity: !419, file: !215, line: 1163)
!419 = !DISubprogram(name: "log2f", scope: !211, file: !211, line: 133, type: !278, flags: DIFlagPrototyped, spFlags: DISPFlagOptimized)
!420 = !DIImportedEntity(tag: DW_TAG_imported_declaration, scope: !54, entity: !421, file: !215, line: 1164)
!421 = !DISubprogram(name: "log2l", scope: !211, file: !211, line: 133, type: !282, flags: DIFlagPrototyped, spFlags: DISPFlagOptimized)
!422 = !DIImportedEntity(tag: DW_TAG_imported_declaration, scope: !54, entity: !423, file: !215, line: 1166)
!423 = !DISubprogram(name: "logb", scope: !211, file: !211, line: 125, type: !212, flags: DIFlagPrototyped, spFlags: DISPFlagOptimized)
!424 = !DIImportedEntity(tag: DW_TAG_imported_declaration, scope: !54, entity: !425, file: !215, line: 1167)
!425 = !DISubprogram(name: "logbf", scope: !211, file: !211, line: 125, type: !278, flags: DIFlagPrototyped, spFlags: DISPFlagOptimized)
!426 = !DIImportedEntity(tag: DW_TAG_imported_declaration, scope: !54, entity: !427, file: !215, line: 1168)
!427 = !DISubprogram(name: "logbl", scope: !211, file: !211, line: 125, type: !282, flags: DIFlagPrototyped, spFlags: DISPFlagOptimized)
!428 = !DIImportedEntity(tag: DW_TAG_imported_declaration, scope: !54, entity: !429, file: !215, line: 1170)
!429 = !DISubprogram(name: "lrint", scope: !211, file: !211, line: 314, type: !430, flags: DIFlagPrototyped, spFlags: DISPFlagOptimized)
!430 = !DISubroutineType(types: !431)
!431 = !{!432, !214}
!432 = !DIBasicType(name: "long int", size: 64, encoding: DW_ATE_signed)
!433 = !DIImportedEntity(tag: DW_TAG_imported_declaration, scope: !54, entity: !434, file: !215, line: 1171)
!434 = !DISubprogram(name: "lrintf", scope: !211, file: !211, line: 314, type: !435, flags: DIFlagPrototyped, spFlags: DISPFlagOptimized)
!435 = !DISubroutineType(types: !436)
!436 = !{!432, !273}
!437 = !DIImportedEntity(tag: DW_TAG_imported_declaration, scope: !54, entity: !438, file: !215, line: 1172)
!438 = !DISubprogram(name: "lrintl", scope: !211, file: !211, line: 314, type: !439, flags: DIFlagPrototyped, spFlags: DISPFlagOptimized)
!439 = !DISubroutineType(types: !440)
!440 = !{!432, !284}
!441 = !DIImportedEntity(tag: DW_TAG_imported_declaration, scope: !54, entity: !442, file: !215, line: 1174)
!442 = !DISubprogram(name: "lround", scope: !211, file: !211, line: 320, type: !430, flags: DIFlagPrototyped, spFlags: DISPFlagOptimized)
!443 = !DIImportedEntity(tag: DW_TAG_imported_declaration, scope: !54, entity: !444, file: !215, line: 1175)
!444 = !DISubprogram(name: "lroundf", scope: !211, file: !211, line: 320, type: !435, flags: DIFlagPrototyped, spFlags: DISPFlagOptimized)
!445 = !DIImportedEntity(tag: DW_TAG_imported_declaration, scope: !54, entity: !446, file: !215, line: 1176)
!446 = !DISubprogram(name: "lroundl", scope: !211, file: !211, line: 320, type: !439, flags: DIFlagPrototyped, spFlags: DISPFlagOptimized)
!447 = !DIImportedEntity(tag: DW_TAG_imported_declaration, scope: !54, entity: !448, file: !215, line: 1178)
!448 = !DISubprogram(name: "nan", scope: !211, file: !211, line: 201, type: !449, flags: DIFlagPrototyped, spFlags: DISPFlagOptimized)
!449 = !DISubroutineType(types: !450)
!450 = !{!214, !451}
!451 = !DIDerivedType(tag: DW_TAG_pointer_type, baseType: !452, size: 64)
!452 = !DIDerivedType(tag: DW_TAG_const_type, baseType: !453)
!453 = !DIBasicType(name: "char", size: 8, encoding: DW_ATE_signed_char)
!454 = !DIImportedEntity(tag: DW_TAG_imported_declaration, scope: !54, entity: !455, file: !215, line: 1179)
!455 = !DISubprogram(name: "nanf", scope: !211, file: !211, line: 201, type: !456, flags: DIFlagPrototyped, spFlags: DISPFlagOptimized)
!456 = !DISubroutineType(types: !457)
!457 = !{!273, !451}
!458 = !DIImportedEntity(tag: DW_TAG_imported_declaration, scope: !54, entity: !459, file: !215, line: 1180)
!459 = !DISubprogram(name: "nanl", scope: !211, file: !211, line: 201, type: !460, flags: DIFlagPrototyped, spFlags: DISPFlagOptimized)
!460 = !DISubroutineType(types: !461)
!461 = !{!284, !451}
!462 = !DIImportedEntity(tag: DW_TAG_imported_declaration, scope: !54, entity: !463, file: !215, line: 1182)
!463 = !DISubprogram(name: "nearbyint", scope: !211, file: !211, line: 294, type: !212, flags: DIFlagPrototyped, spFlags: DISPFlagOptimized)
!464 = !DIImportedEntity(tag: DW_TAG_imported_declaration, scope: !54, entity: !465, file: !215, line: 1183)
!465 = !DISubprogram(name: "nearbyintf", scope: !211, file: !211, line: 294, type: !278, flags: DIFlagPrototyped, spFlags: DISPFlagOptimized)
!466 = !DIImportedEntity(tag: DW_TAG_imported_declaration, scope: !54, entity: !467, file: !215, line: 1184)
!467 = !DISubprogram(name: "nearbyintl", scope: !211, file: !211, line: 294, type: !282, flags: DIFlagPrototyped, spFlags: DISPFlagOptimized)
!468 = !DIImportedEntity(tag: DW_TAG_imported_declaration, scope: !54, entity: !469, file: !215, line: 1186)
!469 = !DISubprogram(name: "nextafter", scope: !211, file: !211, line: 259, type: !222, flags: DIFlagPrototyped, spFlags: DISPFlagOptimized)
!470 = !DIImportedEntity(tag: DW_TAG_imported_declaration, scope: !54, entity: !471, file: !215, line: 1187)
!471 = !DISubprogram(name: "nextafterf", scope: !211, file: !211, line: 259, type: !307, flags: DIFlagPrototyped, spFlags: DISPFlagOptimized)
!472 = !DIImportedEntity(tag: DW_TAG_imported_declaration, scope: !54, entity: !473, file: !215, line: 1188)
!473 = !DISubprogram(name: "nextafterl", scope: !211, file: !211, line: 259, type: !311, flags: DIFlagPrototyped, spFlags: DISPFlagOptimized)
!474 = !DIImportedEntity(tag: DW_TAG_imported_declaration, scope: !54, entity: !475, file: !215, line: 1190)
!475 = !DISubprogram(name: "nexttoward", scope: !211, file: !211, line: 261, type: !476, flags: DIFlagPrototyped, spFlags: DISPFlagOptimized)
!476 = !DISubroutineType(types: !477)
!477 = !{!214, !214, !284}
!478 = !DIImportedEntity(tag: DW_TAG_imported_declaration, scope: !54, entity: !479, file: !215, line: 1191)
!479 = !DISubprogram(name: "nexttowardf", scope: !211, file: !211, line: 261, type: !480, flags: DIFlagPrototyped, spFlags: DISPFlagOptimized)
!480 = !DISubroutineType(types: !481)
!481 = !{!273, !273, !284}
!482 = !DIImportedEntity(tag: DW_TAG_imported_declaration, scope: !54, entity: !483, file: !215, line: 1192)
!483 = !DISubprogram(name: "nexttowardl", scope: !211, file: !211, line: 261, type: !311, flags: DIFlagPrototyped, spFlags: DISPFlagOptimized)
!484 = !DIImportedEntity(tag: DW_TAG_imported_declaration, scope: !54, entity: !485, file: !215, line: 1194)
!485 = !DISubprogram(name: "remainder", scope: !211, file: !211, line: 272, type: !222, flags: DIFlagPrototyped, spFlags: DISPFlagOptimized)
!486 = !DIImportedEntity(tag: DW_TAG_imported_declaration, scope: !54, entity: !487, file: !215, line: 1195)
!487 = !DISubprogram(name: "remainderf", scope: !211, file: !211, line: 272, type: !307, flags: DIFlagPrototyped, spFlags: DISPFlagOptimized)
!488 = !DIImportedEntity(tag: DW_TAG_imported_declaration, scope: !54, entity: !489, file: !215, line: 1196)
!489 = !DISubprogram(name: "remainderl", scope: !211, file: !211, line: 272, type: !311, flags: DIFlagPrototyped, spFlags: DISPFlagOptimized)
!490 = !DIImportedEntity(tag: DW_TAG_imported_declaration, scope: !54, entity: !491, file: !215, line: 1198)
!491 = !DISubprogram(name: "remquo", scope: !211, file: !211, line: 307, type: !492, flags: DIFlagPrototyped, spFlags: DISPFlagOptimized)
!492 = !DISubroutineType(types: !493)
!493 = !{!214, !214, !214, !242}
!494 = !DIImportedEntity(tag: DW_TAG_imported_declaration, scope: !54, entity: !495, file: !215, line: 1199)
!495 = !DISubprogram(name: "remquof", scope: !211, file: !211, line: 307, type: !496, flags: DIFlagPrototyped, spFlags: DISPFlagOptimized)
!496 = !DISubroutineType(types: !497)
!497 = !{!273, !273, !273, !242}
!498 = !DIImportedEntity(tag: DW_TAG_imported_declaration, scope: !54, entity: !499, file: !215, line: 1200)
!499 = !DISubprogram(name: "remquol", scope: !211, file: !211, line: 307, type: !500, flags: DIFlagPrototyped, spFlags: DISPFlagOptimized)
!500 = !DISubroutineType(types: !501)
!501 = !{!284, !284, !284, !242}
!502 = !DIImportedEntity(tag: DW_TAG_imported_declaration, scope: !54, entity: !503, file: !215, line: 1202)
!503 = !DISubprogram(name: "rint", scope: !211, file: !211, line: 256, type: !212, flags: DIFlagPrototyped, spFlags: DISPFlagOptimized)
!504 = !DIImportedEntity(tag: DW_TAG_imported_declaration, scope: !54, entity: !505, file: !215, line: 1203)
!505 = !DISubprogram(name: "rintf", scope: !211, file: !211, line: 256, type: !278, flags: DIFlagPrototyped, spFlags: DISPFlagOptimized)
!506 = !DIImportedEntity(tag: DW_TAG_imported_declaration, scope: !54, entity: !507, file: !215, line: 1204)
!507 = !DISubprogram(name: "rintl", scope: !211, file: !211, line: 256, type: !282, flags: DIFlagPrototyped, spFlags: DISPFlagOptimized)
!508 = !DIImportedEntity(tag: DW_TAG_imported_declaration, scope: !54, entity: !509, file: !215, line: 1206)
!509 = !DISubprogram(name: "round", scope: !211, file: !211, line: 298, type: !212, flags: DIFlagPrototyped, spFlags: DISPFlagOptimized)
!510 = !DIImportedEntity(tag: DW_TAG_imported_declaration, scope: !54, entity: !511, file: !215, line: 1207)
!511 = !DISubprogram(name: "roundf", scope: !211, file: !211, line: 298, type: !278, flags: DIFlagPrototyped, spFlags: DISPFlagOptimized)
!512 = !DIImportedEntity(tag: DW_TAG_imported_declaration, scope: !54, entity: !513, file: !215, line: 1208)
!513 = !DISubprogram(name: "roundl", scope: !211, file: !211, line: 298, type: !282, flags: DIFlagPrototyped, spFlags: DISPFlagOptimized)
!514 = !DIImportedEntity(tag: DW_TAG_imported_declaration, scope: !54, entity: !515, file: !215, line: 1210)
!515 = !DISubprogram(name: "scalbln", scope: !211, file: !211, line: 290, type: !516, flags: DIFlagPrototyped, spFlags: DISPFlagOptimized)
!516 = !DISubroutineType(types: !517)
!517 = !{!214, !214, !432}
!518 = !DIImportedEntity(tag: DW_TAG_imported_declaration, scope: !54, entity: !519, file: !215, line: 1211)
!519 = !DISubprogram(name: "scalblnf", scope: !211, file: !211, line: 290, type: !520, flags: DIFlagPrototyped, spFlags: DISPFlagOptimized)
!520 = !DISubroutineType(types: !521)
!521 = !{!273, !273, !432}
!522 = !DIImportedEntity(tag: DW_TAG_imported_declaration, scope: !54, entity: !523, file: !215, line: 1212)
!523 = !DISubprogram(name: "scalblnl", scope: !211, file: !211, line: 290, type: !524, flags: DIFlagPrototyped, spFlags: DISPFlagOptimized)
!524 = !DISubroutineType(types: !525)
!525 = !{!284, !284, !432}
!526 = !DIImportedEntity(tag: DW_TAG_imported_declaration, scope: !54, entity: !527, file: !215, line: 1214)
!527 = !DISubprogram(name: "scalbn", scope: !211, file: !211, line: 276, type: !245, flags: DIFlagPrototyped, spFlags: DISPFlagOptimized)
!528 = !DIImportedEntity(tag: DW_TAG_imported_declaration, scope: !54, entity: !529, file: !215, line: 1215)
!529 = !DISubprogram(name: "scalbnf", scope: !211, file: !211, line: 276, type: !530, flags: DIFlagPrototyped, spFlags: DISPFlagOptimized)
!530 = !DISubroutineType(types: !531)
!531 = !{!273, !273, !20}
!532 = !DIImportedEntity(tag: DW_TAG_imported_declaration, scope: !54, entity: !533, file: !215, line: 1216)
!533 = !DISubprogram(name: "scalbnl", scope: !211, file: !211, line: 276, type: !534, flags: DIFlagPrototyped, spFlags: DISPFlagOptimized)
!534 = !DISubroutineType(types: !535)
!535 = !{!284, !284, !20}
!536 = !DIImportedEntity(tag: DW_TAG_imported_declaration, scope: !54, entity: !537, file: !215, line: 1218)
!537 = !DISubprogram(name: "tgamma", scope: !211, file: !211, line: 235, type: !212, flags: DIFlagPrototyped, spFlags: DISPFlagOptimized)
!538 = !DIImportedEntity(tag: DW_TAG_imported_declaration, scope: !54, entity: !539, file: !215, line: 1219)
!539 = !DISubprogram(name: "tgammaf", scope: !211, file: !211, line: 235, type: !278, flags: DIFlagPrototyped, spFlags: DISPFlagOptimized)
!540 = !DIImportedEntity(tag: DW_TAG_imported_declaration, scope: !54, entity: !541, file: !215, line: 1220)
!541 = !DISubprogram(name: "tgammal", scope: !211, file: !211, line: 235, type: !282, flags: DIFlagPrototyped, spFlags: DISPFlagOptimized)
!542 = !DIImportedEntity(tag: DW_TAG_imported_declaration, scope: !54, entity: !543, file: !215, line: 1222)
!543 = !DISubprogram(name: "trunc", scope: !211, file: !211, line: 302, type: !212, flags: DIFlagPrototyped, spFlags: DISPFlagOptimized)
!544 = !DIImportedEntity(tag: DW_TAG_imported_declaration, scope: !54, entity: !545, file: !215, line: 1223)
!545 = !DISubprogram(name: "truncf", scope: !211, file: !211, line: 302, type: !278, flags: DIFlagPrototyped, spFlags: DISPFlagOptimized)
!546 = !DIImportedEntity(tag: DW_TAG_imported_declaration, scope: !54, entity: !547, file: !215, line: 1224)
!547 = !DISubprogram(name: "truncl", scope: !211, file: !211, line: 302, type: !282, flags: DIFlagPrototyped, spFlags: DISPFlagOptimized)
!548 = !DIImportedEntity(tag: DW_TAG_imported_declaration, scope: !54, entity: !549, file: !552, line: 56)
!549 = !DIDerivedType(tag: DW_TAG_typedef, name: "max_align_t", file: !550, line: 24, baseType: !551)
!550 = !DIFile(filename: "llvm-project/build/lib/clang/11.0.0/include/__stddef_max_align_t.h", directory: "/fast/fs")
!551 = distinct !DICompositeType(tag: DW_TAG_structure_type, file: !550, line: 19, flags: DIFlagFwdDecl, identifier: "_ZTS11max_align_t")
!552 = !DIFile(filename: "/usr/lib/gcc/x86_64-linux-gnu/7.5.0/../../../../include/c++/7.5.0/cstddef", directory: "")
!553 = !DIImportedEntity(tag: DW_TAG_imported_module, scope: !554, entity: !555, file: !556, line: 58)
!554 = !DINamespace(name: "__gnu_debug", scope: null)
!555 = !DINamespace(name: "__debug", scope: !54)
!556 = !DIFile(filename: "/usr/lib/gcc/x86_64-linux-gnu/7.5.0/../../../../include/c++/7.5.0/debug/debug.h", directory: "")
!557 = !DIImportedEntity(tag: DW_TAG_imported_declaration, scope: !54, entity: !558, file: !560, line: 127)
!558 = !DIDerivedType(tag: DW_TAG_typedef, name: "div_t", file: !207, line: 62, baseType: !559)
!559 = distinct !DICompositeType(tag: DW_TAG_structure_type, file: !207, line: 58, flags: DIFlagFwdDecl, identifier: "_ZTS5div_t")
!560 = !DIFile(filename: "/usr/lib/gcc/x86_64-linux-gnu/7.5.0/../../../../include/c++/7.5.0/cstdlib", directory: "")
!561 = !DIImportedEntity(tag: DW_TAG_imported_declaration, scope: !54, entity: !562, file: !560, line: 128)
!562 = !DIDerivedType(tag: DW_TAG_typedef, name: "ldiv_t", file: !207, line: 70, baseType: !563)
!563 = distinct !DICompositeType(tag: DW_TAG_structure_type, file: !207, line: 66, size: 128, flags: DIFlagTypePassByValue, elements: !564, identifier: "_ZTS6ldiv_t")
!564 = !{!565, !566}
!565 = !DIDerivedType(tag: DW_TAG_member, name: "quot", scope: !563, file: !207, line: 68, baseType: !432, size: 64)
!566 = !DIDerivedType(tag: DW_TAG_member, name: "rem", scope: !563, file: !207, line: 69, baseType: !432, size: 64, offset: 64)
!567 = !DIImportedEntity(tag: DW_TAG_imported_declaration, scope: !54, entity: !568, file: !560, line: 130)
!568 = !DISubprogram(name: "abort", scope: !207, file: !207, line: 588, type: !569, flags: DIFlagPrototyped | DIFlagNoReturn, spFlags: DISPFlagOptimized)
!569 = !DISubroutineType(types: !570)
!570 = !{null}
!571 = !DIImportedEntity(tag: DW_TAG_imported_declaration, scope: !54, entity: !572, file: !560, line: 134)
!572 = !DISubprogram(name: "atexit", scope: !207, file: !207, line: 592, type: !573, flags: DIFlagPrototyped, spFlags: DISPFlagOptimized)
!573 = !DISubroutineType(types: !574)
!574 = !{!20, !575}
!575 = !DIDerivedType(tag: DW_TAG_pointer_type, baseType: !569, size: 64)
!576 = !DIImportedEntity(tag: DW_TAG_imported_declaration, scope: !54, entity: !577, file: !560, line: 137)
!577 = !DISubprogram(name: "at_quick_exit", scope: !207, file: !207, line: 597, type: !573, flags: DIFlagPrototyped, spFlags: DISPFlagOptimized)
!578 = !DIImportedEntity(tag: DW_TAG_imported_declaration, scope: !54, entity: !579, file: !560, line: 140)
!579 = !DISubprogram(name: "atof", scope: !580, file: !580, line: 25, type: !449, flags: DIFlagPrototyped, spFlags: DISPFlagOptimized)
!580 = !DIFile(filename: "/usr/include/x86_64-linux-gnu/bits/stdlib-float.h", directory: "")
!581 = !DIImportedEntity(tag: DW_TAG_imported_declaration, scope: !54, entity: !582, file: !560, line: 141)
!582 = !DISubprogram(name: "atoi", scope: !207, file: !207, line: 361, type: !583, flags: DIFlagPrototyped, spFlags: DISPFlagOptimized)
!583 = !DISubroutineType(types: !584)
!584 = !{!20, !451}
!585 = !DIImportedEntity(tag: DW_TAG_imported_declaration, scope: !54, entity: !586, file: !560, line: 142)
!586 = !DISubprogram(name: "atol", scope: !207, file: !207, line: 366, type: !587, flags: DIFlagPrototyped, spFlags: DISPFlagOptimized)
!587 = !DISubroutineType(types: !588)
!588 = !{!432, !451}
!589 = !DIImportedEntity(tag: DW_TAG_imported_declaration, scope: !54, entity: !590, file: !560, line: 143)
!590 = !DISubprogram(name: "bsearch", scope: !591, file: !591, line: 20, type: !592, flags: DIFlagPrototyped, spFlags: DISPFlagOptimized)
!591 = !DIFile(filename: "/usr/include/x86_64-linux-gnu/bits/stdlib-bsearch.h", directory: "")
!592 = !DISubroutineType(types: !593)
!593 = !{!594, !595, !595, !100, !100, !597}
!594 = !DIDerivedType(tag: DW_TAG_pointer_type, baseType: null, size: 64)
!595 = !DIDerivedType(tag: DW_TAG_pointer_type, baseType: !596, size: 64)
!596 = !DIDerivedType(tag: DW_TAG_const_type, baseType: null)
!597 = !DIDerivedType(tag: DW_TAG_typedef, name: "__compar_fn_t", file: !207, line: 805, baseType: !598)
!598 = !DIDerivedType(tag: DW_TAG_pointer_type, baseType: !599, size: 64)
!599 = !DISubroutineType(types: !600)
!600 = !{!20, !595, !595}
!601 = !DIImportedEntity(tag: DW_TAG_imported_declaration, scope: !54, entity: !602, file: !560, line: 144)
!602 = !DISubprogram(name: "calloc", scope: !207, file: !207, line: 541, type: !603, flags: DIFlagPrototyped, spFlags: DISPFlagOptimized)
!603 = !DISubroutineType(types: !604)
!604 = !{!594, !100, !100}
!605 = !DIImportedEntity(tag: DW_TAG_imported_declaration, scope: !54, entity: !606, file: !560, line: 145)
!606 = !DISubprogram(name: "div", scope: !207, file: !207, line: 849, type: !607, flags: DIFlagPrototyped, spFlags: DISPFlagOptimized)
!607 = !DISubroutineType(types: !608)
!608 = !{!558, !20, !20}
!609 = !DIImportedEntity(tag: DW_TAG_imported_declaration, scope: !54, entity: !610, file: !560, line: 146)
!610 = !DISubprogram(name: "exit", scope: !207, file: !207, line: 614, type: !611, flags: DIFlagPrototyped | DIFlagNoReturn, spFlags: DISPFlagOptimized)
!611 = !DISubroutineType(types: !612)
!612 = !{null, !20}
!613 = !DIImportedEntity(tag: DW_TAG_imported_declaration, scope: !54, entity: !614, file: !560, line: 147)
!614 = !DISubprogram(name: "free", scope: !207, file: !207, line: 563, type: !615, flags: DIFlagPrototyped, spFlags: DISPFlagOptimized)
!615 = !DISubroutineType(types: !616)
!616 = !{null, !594}
!617 = !DIImportedEntity(tag: DW_TAG_imported_declaration, scope: !54, entity: !618, file: !560, line: 148)
!618 = !DISubprogram(name: "getenv", scope: !207, file: !207, line: 631, type: !619, flags: DIFlagPrototyped, spFlags: DISPFlagOptimized)
!619 = !DISubroutineType(types: !620)
!620 = !{!621, !451}
!621 = !DIDerivedType(tag: DW_TAG_pointer_type, baseType: !453, size: 64)
!622 = !DIImportedEntity(tag: DW_TAG_imported_declaration, scope: !54, entity: !623, file: !560, line: 149)
!623 = !DISubprogram(name: "labs", scope: !207, file: !207, line: 838, type: !624, flags: DIFlagPrototyped, spFlags: DISPFlagOptimized)
!624 = !DISubroutineType(types: !625)
!625 = !{!432, !432}
!626 = !DIImportedEntity(tag: DW_TAG_imported_declaration, scope: !54, entity: !627, file: !560, line: 150)
!627 = !DISubprogram(name: "ldiv", scope: !207, file: !207, line: 851, type: !628, flags: DIFlagPrototyped, spFlags: DISPFlagOptimized)
!628 = !DISubroutineType(types: !629)
!629 = !{!562, !432, !432}
!630 = !DIImportedEntity(tag: DW_TAG_imported_declaration, scope: !54, entity: !631, file: !560, line: 151)
!631 = !DISubprogram(name: "malloc", scope: !207, file: !207, line: 539, type: !632, flags: DIFlagPrototyped, spFlags: DISPFlagOptimized)
!632 = !DISubroutineType(types: !633)
!633 = !{!594, !100}
!634 = !DIImportedEntity(tag: DW_TAG_imported_declaration, scope: !54, entity: !635, file: !560, line: 153)
!635 = !DISubprogram(name: "mblen", scope: !207, file: !207, line: 919, type: !636, flags: DIFlagPrototyped, spFlags: DISPFlagOptimized)
!636 = !DISubroutineType(types: !637)
!637 = !{!20, !451, !100}
!638 = !DIImportedEntity(tag: DW_TAG_imported_declaration, scope: !54, entity: !639, file: !560, line: 154)
!639 = !DISubprogram(name: "mbstowcs", scope: !207, file: !207, line: 930, type: !640, flags: DIFlagPrototyped, spFlags: DISPFlagOptimized)
!640 = !DISubroutineType(types: !641)
!641 = !{!100, !642, !645, !100}
!642 = !DIDerivedType(tag: DW_TAG_restrict_type, baseType: !643)
!643 = !DIDerivedType(tag: DW_TAG_pointer_type, baseType: !644, size: 64)
!644 = !DIBasicType(name: "wchar_t", size: 32, encoding: DW_ATE_signed)
!645 = !DIDerivedType(tag: DW_TAG_restrict_type, baseType: !451)
!646 = !DIImportedEntity(tag: DW_TAG_imported_declaration, scope: !54, entity: !647, file: !560, line: 155)
!647 = !DISubprogram(name: "mbtowc", scope: !207, file: !207, line: 922, type: !648, flags: DIFlagPrototyped, spFlags: DISPFlagOptimized)
!648 = !DISubroutineType(types: !649)
!649 = !{!20, !642, !645, !100}
!650 = !DIImportedEntity(tag: DW_TAG_imported_declaration, scope: !54, entity: !651, file: !560, line: 157)
!651 = !DISubprogram(name: "qsort", scope: !207, file: !207, line: 827, type: !652, flags: DIFlagPrototyped, spFlags: DISPFlagOptimized)
!652 = !DISubroutineType(types: !653)
!653 = !{null, !594, !100, !100, !597}
!654 = !DIImportedEntity(tag: DW_TAG_imported_declaration, scope: !54, entity: !655, file: !560, line: 160)
!655 = !DISubprogram(name: "quick_exit", scope: !207, file: !207, line: 620, type: !611, flags: DIFlagPrototyped | DIFlagNoReturn, spFlags: DISPFlagOptimized)
!656 = !DIImportedEntity(tag: DW_TAG_imported_declaration, scope: !54, entity: !657, file: !560, line: 163)
!657 = !DISubprogram(name: "rand", scope: !207, file: !207, line: 453, type: !658, flags: DIFlagPrototyped, spFlags: DISPFlagOptimized)
!658 = !DISubroutineType(types: !659)
!659 = !{!20}
!660 = !DIImportedEntity(tag: DW_TAG_imported_declaration, scope: !54, entity: !661, file: !560, line: 164)
!661 = !DISubprogram(name: "realloc", scope: !207, file: !207, line: 549, type: !662, flags: DIFlagPrototyped, spFlags: DISPFlagOptimized)
!662 = !DISubroutineType(types: !663)
!663 = !{!594, !594, !100}
!664 = !DIImportedEntity(tag: DW_TAG_imported_declaration, scope: !54, entity: !665, file: !560, line: 165)
!665 = !DISubprogram(name: "srand", scope: !207, file: !207, line: 455, type: !666, flags: DIFlagPrototyped, spFlags: DISPFlagOptimized)
!666 = !DISubroutineType(types: !667)
!667 = !{null, !6}
!668 = !DIImportedEntity(tag: DW_TAG_imported_declaration, scope: !54, entity: !669, file: !560, line: 166)
!669 = !DISubprogram(name: "strtod", scope: !207, file: !207, line: 117, type: !670, flags: DIFlagPrototyped, spFlags: DISPFlagOptimized)
!670 = !DISubroutineType(types: !671)
!671 = !{!214, !645, !672}
!672 = !DIDerivedType(tag: DW_TAG_restrict_type, baseType: !673)
!673 = !DIDerivedType(tag: DW_TAG_pointer_type, baseType: !621, size: 64)
!674 = !DIImportedEntity(tag: DW_TAG_imported_declaration, scope: !54, entity: !675, file: !560, line: 167)
!675 = !DISubprogram(name: "strtol", scope: !207, file: !207, line: 176, type: !676, flags: DIFlagPrototyped, spFlags: DISPFlagOptimized)
!676 = !DISubroutineType(types: !677)
!677 = !{!432, !645, !672, !20}
!678 = !DIImportedEntity(tag: DW_TAG_imported_declaration, scope: !54, entity: !679, file: !560, line: 168)
!679 = !DISubprogram(name: "strtoul", scope: !207, file: !207, line: 180, type: !680, flags: DIFlagPrototyped, spFlags: DISPFlagOptimized)
!680 = !DISubroutineType(types: !681)
!681 = !{!102, !645, !672, !20}
!682 = !DIImportedEntity(tag: DW_TAG_imported_declaration, scope: !54, entity: !683, file: !560, line: 169)
!683 = !DISubprogram(name: "system", scope: !207, file: !207, line: 781, type: !583, flags: DIFlagPrototyped, spFlags: DISPFlagOptimized)
!684 = !DIImportedEntity(tag: DW_TAG_imported_declaration, scope: !54, entity: !685, file: !560, line: 171)
!685 = !DISubprogram(name: "wcstombs", scope: !207, file: !207, line: 933, type: !686, flags: DIFlagPrototyped, spFlags: DISPFlagOptimized)
!686 = !DISubroutineType(types: !687)
!687 = !{!100, !688, !689, !100}
!688 = !DIDerivedType(tag: DW_TAG_restrict_type, baseType: !621)
!689 = !DIDerivedType(tag: DW_TAG_restrict_type, baseType: !690)
!690 = !DIDerivedType(tag: DW_TAG_pointer_type, baseType: !691, size: 64)
!691 = !DIDerivedType(tag: DW_TAG_const_type, baseType: !644)
!692 = !DIImportedEntity(tag: DW_TAG_imported_declaration, scope: !54, entity: !693, file: !560, line: 172)
!693 = !DISubprogram(name: "wctomb", scope: !207, file: !207, line: 926, type: !694, flags: DIFlagPrototyped, spFlags: DISPFlagOptimized)
!694 = !DISubroutineType(types: !695)
!695 = !{!20, !621, !644}
!696 = !DIImportedEntity(tag: DW_TAG_imported_declaration, scope: !5, entity: !697, file: !560, line: 200)
!697 = !DIDerivedType(tag: DW_TAG_typedef, name: "lldiv_t", file: !207, line: 80, baseType: !698)
!698 = distinct !DICompositeType(tag: DW_TAG_structure_type, file: !207, line: 76, size: 128, flags: DIFlagTypePassByValue, elements: !699, identifier: "_ZTS7lldiv_t")
!699 = !{!700, !701}
!700 = !DIDerivedType(tag: DW_TAG_member, name: "quot", scope: !698, file: !207, line: 78, baseType: !395, size: 64)
!701 = !DIDerivedType(tag: DW_TAG_member, name: "rem", scope: !698, file: !207, line: 79, baseType: !395, size: 64, offset: 64)
!702 = !DIImportedEntity(tag: DW_TAG_imported_declaration, scope: !5, entity: !703, file: !560, line: 206)
!703 = !DISubprogram(name: "_Exit", scope: !207, file: !207, line: 626, type: !611, flags: DIFlagPrototyped | DIFlagNoReturn, spFlags: DISPFlagOptimized)
!704 = !DIImportedEntity(tag: DW_TAG_imported_declaration, scope: !5, entity: !705, file: !560, line: 210)
!705 = !DISubprogram(name: "llabs", scope: !207, file: !207, line: 841, type: !706, flags: DIFlagPrototyped, spFlags: DISPFlagOptimized)
!706 = !DISubroutineType(types: !707)
!707 = !{!395, !395}
!708 = !DIImportedEntity(tag: DW_TAG_imported_declaration, scope: !5, entity: !709, file: !560, line: 216)
!709 = !DISubprogram(name: "lldiv", scope: !207, file: !207, line: 855, type: !710, flags: DIFlagPrototyped, spFlags: DISPFlagOptimized)
!710 = !DISubroutineType(types: !711)
!711 = !{!697, !395, !395}
!712 = !DIImportedEntity(tag: DW_TAG_imported_declaration, scope: !5, entity: !713, file: !560, line: 227)
!713 = !DISubprogram(name: "atoll", scope: !207, file: !207, line: 373, type: !714, flags: DIFlagPrototyped, spFlags: DISPFlagOptimized)
!714 = !DISubroutineType(types: !715)
!715 = !{!395, !451}
!716 = !DIImportedEntity(tag: DW_TAG_imported_declaration, scope: !5, entity: !717, file: !560, line: 228)
!717 = !DISubprogram(name: "strtoll", scope: !207, file: !207, line: 200, type: !718, flags: DIFlagPrototyped, spFlags: DISPFlagOptimized)
!718 = !DISubroutineType(types: !719)
!719 = !{!395, !645, !672, !20}
!720 = !DIImportedEntity(tag: DW_TAG_imported_declaration, scope: !5, entity: !721, file: !560, line: 229)
!721 = !DISubprogram(name: "strtoull", scope: !207, file: !207, line: 205, type: !722, flags: DIFlagPrototyped, spFlags: DISPFlagOptimized)
!722 = !DISubroutineType(types: !723)
!723 = !{!724, !645, !672, !20}
!724 = !DIBasicType(name: "long long unsigned int", size: 64, encoding: DW_ATE_unsigned)
!725 = !DIImportedEntity(tag: DW_TAG_imported_declaration, scope: !5, entity: !726, file: !560, line: 231)
!726 = !DISubprogram(name: "strtof", scope: !207, file: !207, line: 123, type: !727, flags: DIFlagPrototyped, spFlags: DISPFlagOptimized)
!727 = !DISubroutineType(types: !728)
!728 = !{!273, !645, !672}
!729 = !DIImportedEntity(tag: DW_TAG_imported_declaration, scope: !5, entity: !730, file: !560, line: 232)
!730 = !DISubprogram(name: "strtold", scope: !207, file: !207, line: 126, type: !731, flags: DIFlagPrototyped, spFlags: DISPFlagOptimized)
!731 = !DISubroutineType(types: !732)
!732 = !{!284, !645, !672}
!733 = !DIImportedEntity(tag: DW_TAG_imported_declaration, scope: !54, entity: !697, file: !560, line: 240)
!734 = !DIImportedEntity(tag: DW_TAG_imported_declaration, scope: !54, entity: !703, file: !560, line: 242)
!735 = !DIImportedEntity(tag: DW_TAG_imported_declaration, scope: !54, entity: !705, file: !560, line: 244)
!736 = !DIImportedEntity(tag: DW_TAG_imported_declaration, scope: !54, entity: !737, file: !560, line: 245)
!737 = !DISubprogram(name: "div", linkageName: "_ZN9__gnu_cxx3divExx", scope: !5, file: !560, line: 213, type: !710, flags: DIFlagPrototyped, spFlags: DISPFlagOptimized)
!738 = !DIImportedEntity(tag: DW_TAG_imported_declaration, scope: !54, entity: !709, file: !560, line: 246)
!739 = !DIImportedEntity(tag: DW_TAG_imported_declaration, scope: !54, entity: !713, file: !560, line: 248)
!740 = !DIImportedEntity(tag: DW_TAG_imported_declaration, scope: !54, entity: !726, file: !560, line: 249)
!741 = !DIImportedEntity(tag: DW_TAG_imported_declaration, scope: !54, entity: !717, file: !560, line: 250)
!742 = !DIImportedEntity(tag: DW_TAG_imported_declaration, scope: !54, entity: !721, file: !560, line: 251)
!743 = !DIImportedEntity(tag: DW_TAG_imported_declaration, scope: !54, entity: !730, file: !560, line: 252)
!744 = !DIImportedEntity(tag: DW_TAG_imported_declaration, scope: !54, entity: !745, file: !746, line: 57)
!745 = distinct !DICompositeType(tag: DW_TAG_class_type, name: "exception_ptr", scope: !747, file: !746, line: 79, size: 64, flags: DIFlagTypePassByReference | DIFlagNonTrivial, elements: !748, identifier: "_ZTSNSt15__exception_ptr13exception_ptrE")
!746 = !DIFile(filename: "/usr/lib/gcc/x86_64-linux-gnu/7.5.0/../../../../include/c++/7.5.0/bits/exception_ptr.h", directory: "")
!747 = !DINamespace(name: "__exception_ptr", scope: !54)
!748 = !{!749, !750, !754, !757, !758, !763, !764, !768, !774, !778, !782, !785, !786, !789, !792}
!749 = !DIDerivedType(tag: DW_TAG_member, name: "_M_exception_object", scope: !745, file: !746, line: 81, baseType: !594, size: 64)
!750 = !DISubprogram(name: "exception_ptr", scope: !745, file: !746, line: 83, type: !751, scopeLine: 83, flags: DIFlagExplicit | DIFlagPrototyped, spFlags: DISPFlagOptimized)
!751 = !DISubroutineType(types: !752)
!752 = !{null, !753, !594}
!753 = !DIDerivedType(tag: DW_TAG_pointer_type, baseType: !745, size: 64, flags: DIFlagArtificial | DIFlagObjectPointer)
!754 = !DISubprogram(name: "_M_addref", linkageName: "_ZNSt15__exception_ptr13exception_ptr9_M_addrefEv", scope: !745, file: !746, line: 85, type: !755, scopeLine: 85, flags: DIFlagPrototyped, spFlags: DISPFlagOptimized)
!755 = !DISubroutineType(types: !756)
!756 = !{null, !753}
!757 = !DISubprogram(name: "_M_release", linkageName: "_ZNSt15__exception_ptr13exception_ptr10_M_releaseEv", scope: !745, file: !746, line: 86, type: !755, scopeLine: 86, flags: DIFlagPrototyped, spFlags: DISPFlagOptimized)
!758 = !DISubprogram(name: "_M_get", linkageName: "_ZNKSt15__exception_ptr13exception_ptr6_M_getEv", scope: !745, file: !746, line: 88, type: !759, scopeLine: 88, flags: DIFlagPrototyped, spFlags: DISPFlagOptimized)
!759 = !DISubroutineType(types: !760)
!760 = !{!594, !761}
!761 = !DIDerivedType(tag: DW_TAG_pointer_type, baseType: !762, size: 64, flags: DIFlagArtificial | DIFlagObjectPointer)
!762 = !DIDerivedType(tag: DW_TAG_const_type, baseType: !745)
!763 = !DISubprogram(name: "exception_ptr", scope: !745, file: !746, line: 96, type: !755, scopeLine: 96, flags: DIFlagPublic | DIFlagPrototyped, spFlags: DISPFlagOptimized)
!764 = !DISubprogram(name: "exception_ptr", scope: !745, file: !746, line: 98, type: !765, scopeLine: 98, flags: DIFlagPublic | DIFlagPrototyped, spFlags: DISPFlagOptimized)
!765 = !DISubroutineType(types: !766)
!766 = !{null, !753, !767}
!767 = !DIDerivedType(tag: DW_TAG_reference_type, baseType: !762, size: 64)
!768 = !DISubprogram(name: "exception_ptr", scope: !745, file: !746, line: 101, type: !769, scopeLine: 101, flags: DIFlagPublic | DIFlagPrototyped, spFlags: DISPFlagOptimized)
!769 = !DISubroutineType(types: !770)
!770 = !{null, !753, !771}
!771 = !DIDerivedType(tag: DW_TAG_typedef, name: "nullptr_t", scope: !54, file: !772, line: 235, baseType: !773)
!772 = !DIFile(filename: "/usr/lib/gcc/x86_64-linux-gnu/7.5.0/../../../../include/x86_64-linux-gnu/c++/7.5.0/bits/c++config.h", directory: "")
!773 = !DIBasicType(tag: DW_TAG_unspecified_type, name: "decltype(nullptr)")
!774 = !DISubprogram(name: "exception_ptr", scope: !745, file: !746, line: 105, type: !775, scopeLine: 105, flags: DIFlagPublic | DIFlagPrototyped, spFlags: DISPFlagOptimized)
!775 = !DISubroutineType(types: !776)
!776 = !{null, !753, !777}
!777 = !DIDerivedType(tag: DW_TAG_rvalue_reference_type, baseType: !745, size: 64)
!778 = !DISubprogram(name: "operator=", linkageName: "_ZNSt15__exception_ptr13exception_ptraSERKS0_", scope: !745, file: !746, line: 118, type: !779, scopeLine: 118, flags: DIFlagPublic | DIFlagPrototyped, spFlags: DISPFlagOptimized)
!779 = !DISubroutineType(types: !780)
!780 = !{!781, !753, !767}
!781 = !DIDerivedType(tag: DW_TAG_reference_type, baseType: !745, size: 64)
!782 = !DISubprogram(name: "operator=", linkageName: "_ZNSt15__exception_ptr13exception_ptraSEOS0_", scope: !745, file: !746, line: 122, type: !783, scopeLine: 122, flags: DIFlagPublic | DIFlagPrototyped, spFlags: DISPFlagOptimized)
!783 = !DISubroutineType(types: !784)
!784 = !{!781, !753, !777}
!785 = !DISubprogram(name: "~exception_ptr", scope: !745, file: !746, line: 129, type: !755, scopeLine: 129, flags: DIFlagPublic | DIFlagPrototyped, spFlags: DISPFlagOptimized)
!786 = !DISubprogram(name: "swap", linkageName: "_ZNSt15__exception_ptr13exception_ptr4swapERS0_", scope: !745, file: !746, line: 132, type: !787, scopeLine: 132, flags: DIFlagPublic | DIFlagPrototyped, spFlags: DISPFlagOptimized)
!787 = !DISubroutineType(types: !788)
!788 = !{null, !753, !781}
!789 = !DISubprogram(name: "operator bool", linkageName: "_ZNKSt15__exception_ptr13exception_ptrcvbEv", scope: !745, file: !746, line: 144, type: !790, scopeLine: 144, flags: DIFlagPublic | DIFlagExplicit | DIFlagPrototyped, spFlags: DISPFlagOptimized)
!790 = !DISubroutineType(types: !791)
!791 = !{!57, !761}
!792 = !DISubprogram(name: "__cxa_exception_type", linkageName: "_ZNKSt15__exception_ptr13exception_ptr20__cxa_exception_typeEv", scope: !745, file: !746, line: 153, type: !793, scopeLine: 153, flags: DIFlagPublic | DIFlagPrototyped, spFlags: DISPFlagOptimized)
!793 = !DISubroutineType(types: !794)
!794 = !{!795, !761}
!795 = !DIDerivedType(tag: DW_TAG_pointer_type, baseType: !796, size: 64)
!796 = !DIDerivedType(tag: DW_TAG_const_type, baseType: !797)
!797 = distinct !DICompositeType(tag: DW_TAG_class_type, name: "type_info", scope: !54, file: !798, line: 88, flags: DIFlagFwdDecl, identifier: "_ZTSSt9type_info")
!798 = !DIFile(filename: "/usr/lib/gcc/x86_64-linux-gnu/7.5.0/../../../../include/c++/7.5.0/typeinfo", directory: "")
!799 = !DIImportedEntity(tag: DW_TAG_imported_declaration, scope: !747, entity: !800, file: !746, line: 73)
!800 = !DISubprogram(name: "rethrow_exception", linkageName: "_ZSt17rethrow_exceptionNSt15__exception_ptr13exception_ptrE", scope: !54, file: !746, line: 69, type: !801, flags: DIFlagPrototyped | DIFlagNoReturn, spFlags: DISPFlagOptimized)
!801 = !DISubroutineType(types: !802)
!802 = !{null, !745}
!803 = !DIImportedEntity(tag: DW_TAG_imported_declaration, scope: !54, entity: !804, file: !808, line: 75)
!804 = !DISubprogram(name: "memchr", scope: !805, file: !805, line: 90, type: !806, flags: DIFlagPrototyped, spFlags: DISPFlagOptimized)
!805 = !DIFile(filename: "/usr/include/string.h", directory: "")
!806 = !DISubroutineType(types: !807)
!807 = !{!594, !595, !20, !100}
!808 = !DIFile(filename: "/usr/lib/gcc/x86_64-linux-gnu/7.5.0/../../../../include/c++/7.5.0/cstring", directory: "")
!809 = !DIImportedEntity(tag: DW_TAG_imported_declaration, scope: !54, entity: !810, file: !808, line: 76)
!810 = !DISubprogram(name: "memcmp", scope: !805, file: !805, line: 63, type: !811, flags: DIFlagPrototyped, spFlags: DISPFlagOptimized)
!811 = !DISubroutineType(types: !812)
!812 = !{!20, !595, !595, !100}
!813 = !DIImportedEntity(tag: DW_TAG_imported_declaration, scope: !54, entity: !814, file: !808, line: 77)
!814 = !DISubprogram(name: "memcpy", scope: !805, file: !805, line: 42, type: !815, flags: DIFlagPrototyped, spFlags: DISPFlagOptimized)
!815 = !DISubroutineType(types: !816)
!816 = !{!594, !817, !818, !100}
!817 = !DIDerivedType(tag: DW_TAG_restrict_type, baseType: !594)
!818 = !DIDerivedType(tag: DW_TAG_restrict_type, baseType: !595)
!819 = !DIImportedEntity(tag: DW_TAG_imported_declaration, scope: !54, entity: !820, file: !808, line: 78)
!820 = !DISubprogram(name: "memmove", scope: !805, file: !805, line: 46, type: !821, flags: DIFlagPrototyped, spFlags: DISPFlagOptimized)
!821 = !DISubroutineType(types: !822)
!822 = !{!594, !594, !595, !100}
!823 = !DIImportedEntity(tag: DW_TAG_imported_declaration, scope: !54, entity: !824, file: !808, line: 79)
!824 = !DISubprogram(name: "memset", scope: !805, file: !805, line: 60, type: !825, flags: DIFlagPrototyped, spFlags: DISPFlagOptimized)
!825 = !DISubroutineType(types: !826)
!826 = !{!594, !594, !20, !100}
!827 = !DIImportedEntity(tag: DW_TAG_imported_declaration, scope: !54, entity: !828, file: !808, line: 80)
!828 = !DISubprogram(name: "strcat", scope: !805, file: !805, line: 129, type: !829, flags: DIFlagPrototyped, spFlags: DISPFlagOptimized)
!829 = !DISubroutineType(types: !830)
!830 = !{!621, !688, !645}
!831 = !DIImportedEntity(tag: DW_TAG_imported_declaration, scope: !54, entity: !832, file: !808, line: 81)
!832 = !DISubprogram(name: "strcmp", scope: !805, file: !805, line: 136, type: !833, flags: DIFlagPrototyped, spFlags: DISPFlagOptimized)
!833 = !DISubroutineType(types: !834)
!834 = !{!20, !451, !451}
!835 = !DIImportedEntity(tag: DW_TAG_imported_declaration, scope: !54, entity: !836, file: !808, line: 82)
!836 = !DISubprogram(name: "strcoll", scope: !805, file: !805, line: 143, type: !833, flags: DIFlagPrototyped, spFlags: DISPFlagOptimized)
!837 = !DIImportedEntity(tag: DW_TAG_imported_declaration, scope: !54, entity: !838, file: !808, line: 83)
!838 = !DISubprogram(name: "strcpy", scope: !805, file: !805, line: 121, type: !829, flags: DIFlagPrototyped, spFlags: DISPFlagOptimized)
!839 = !DIImportedEntity(tag: DW_TAG_imported_declaration, scope: !54, entity: !840, file: !808, line: 84)
!840 = !DISubprogram(name: "strcspn", scope: !805, file: !805, line: 272, type: !841, flags: DIFlagPrototyped, spFlags: DISPFlagOptimized)
!841 = !DISubroutineType(types: !842)
!842 = !{!100, !451, !451}
!843 = !DIImportedEntity(tag: DW_TAG_imported_declaration, scope: !54, entity: !844, file: !808, line: 85)
!844 = !DISubprogram(name: "strerror", scope: !805, file: !805, line: 396, type: !845, flags: DIFlagPrototyped, spFlags: DISPFlagOptimized)
!845 = !DISubroutineType(types: !846)
!846 = !{!621, !20}
!847 = !DIImportedEntity(tag: DW_TAG_imported_declaration, scope: !54, entity: !848, file: !808, line: 86)
!848 = !DISubprogram(name: "strlen", scope: !805, file: !805, line: 384, type: !849, flags: DIFlagPrototyped, spFlags: DISPFlagOptimized)
!849 = !DISubroutineType(types: !850)
!850 = !{!100, !451}
!851 = !DIImportedEntity(tag: DW_TAG_imported_declaration, scope: !54, entity: !852, file: !808, line: 87)
!852 = !DISubprogram(name: "strncat", scope: !805, file: !805, line: 132, type: !853, flags: DIFlagPrototyped, spFlags: DISPFlagOptimized)
!853 = !DISubroutineType(types: !854)
!854 = !{!621, !688, !645, !100}
!855 = !DIImportedEntity(tag: DW_TAG_imported_declaration, scope: !54, entity: !856, file: !808, line: 88)
!856 = !DISubprogram(name: "strncmp", scope: !805, file: !805, line: 139, type: !857, flags: DIFlagPrototyped, spFlags: DISPFlagOptimized)
!857 = !DISubroutineType(types: !858)
!858 = !{!20, !451, !451, !100}
!859 = !DIImportedEntity(tag: DW_TAG_imported_declaration, scope: !54, entity: !860, file: !808, line: 89)
!860 = !DISubprogram(name: "strncpy", scope: !805, file: !805, line: 124, type: !853, flags: DIFlagPrototyped, spFlags: DISPFlagOptimized)
!861 = !DIImportedEntity(tag: DW_TAG_imported_declaration, scope: !54, entity: !862, file: !808, line: 90)
!862 = !DISubprogram(name: "strspn", scope: !805, file: !805, line: 276, type: !841, flags: DIFlagPrototyped, spFlags: DISPFlagOptimized)
!863 = !DIImportedEntity(tag: DW_TAG_imported_declaration, scope: !54, entity: !864, file: !808, line: 91)
!864 = !DISubprogram(name: "strtok", scope: !805, file: !805, line: 335, type: !829, flags: DIFlagPrototyped, spFlags: DISPFlagOptimized)
!865 = !DIImportedEntity(tag: DW_TAG_imported_declaration, scope: !54, entity: !866, file: !808, line: 92)
!866 = !DISubprogram(name: "strxfrm", scope: !805, file: !805, line: 146, type: !867, flags: DIFlagPrototyped, spFlags: DISPFlagOptimized)
!867 = !DISubroutineType(types: !868)
!868 = !{!100, !688, !645, !100}
!869 = !DIImportedEntity(tag: DW_TAG_imported_declaration, scope: !54, entity: !870, file: !808, line: 93)
!870 = !DISubprogram(name: "strchr", scope: !805, file: !805, line: 225, type: !871, flags: DIFlagPrototyped, spFlags: DISPFlagOptimized)
!871 = !DISubroutineType(types: !872)
!872 = !{!621, !451, !20}
!873 = !DIImportedEntity(tag: DW_TAG_imported_declaration, scope: !54, entity: !874, file: !808, line: 94)
!874 = !DISubprogram(name: "strpbrk", scope: !805, file: !805, line: 302, type: !875, flags: DIFlagPrototyped, spFlags: DISPFlagOptimized)
!875 = !DISubroutineType(types: !876)
!876 = !{!621, !451, !451}
!877 = !DIImportedEntity(tag: DW_TAG_imported_declaration, scope: !54, entity: !878, file: !808, line: 95)
!878 = !DISubprogram(name: "strrchr", scope: !805, file: !805, line: 252, type: !871, flags: DIFlagPrototyped, spFlags: DISPFlagOptimized)
!879 = !DIImportedEntity(tag: DW_TAG_imported_declaration, scope: !54, entity: !880, file: !808, line: 96)
!880 = !DISubprogram(name: "strstr", scope: !805, file: !805, line: 329, type: !875, flags: DIFlagPrototyped, spFlags: DISPFlagOptimized)
!881 = !DIImportedEntity(tag: DW_TAG_imported_declaration, scope: !54, entity: !882, file: !897, line: 64)
!882 = !DIDerivedType(tag: DW_TAG_typedef, name: "mbstate_t", file: !883, line: 6, baseType: !884)
!883 = !DIFile(filename: "/usr/include/x86_64-linux-gnu/bits/types/mbstate_t.h", directory: "")
!884 = !DIDerivedType(tag: DW_TAG_typedef, name: "__mbstate_t", file: !885, line: 21, baseType: !886)
!885 = !DIFile(filename: "/usr/include/x86_64-linux-gnu/bits/types/__mbstate_t.h", directory: "")
!886 = distinct !DICompositeType(tag: DW_TAG_structure_type, file: !885, line: 13, size: 64, flags: DIFlagTypePassByValue, elements: !887, identifier: "_ZTS11__mbstate_t")
!887 = !{!888, !889}
!888 = !DIDerivedType(tag: DW_TAG_member, name: "__count", scope: !886, file: !885, line: 15, baseType: !20, size: 32)
!889 = !DIDerivedType(tag: DW_TAG_member, name: "__value", scope: !886, file: !885, line: 20, baseType: !890, size: 32, offset: 32)
!890 = distinct !DICompositeType(tag: DW_TAG_union_type, scope: !886, file: !885, line: 16, size: 32, flags: DIFlagTypePassByValue, elements: !891, identifier: "_ZTSN11__mbstate_tUt_E")
!891 = !{!892, !893}
!892 = !DIDerivedType(tag: DW_TAG_member, name: "__wch", scope: !890, file: !885, line: 18, baseType: !6, size: 32)
!893 = !DIDerivedType(tag: DW_TAG_member, name: "__wchb", scope: !890, file: !885, line: 19, baseType: !894, size: 32)
!894 = !DICompositeType(tag: DW_TAG_array_type, baseType: !453, size: 32, elements: !895)
!895 = !{!896}
!896 = !DISubrange(count: 4)
!897 = !DIFile(filename: "/usr/lib/gcc/x86_64-linux-gnu/7.5.0/../../../../include/c++/7.5.0/cwchar", directory: "")
!898 = !DIImportedEntity(tag: DW_TAG_imported_declaration, scope: !54, entity: !899, file: !897, line: 139)
!899 = !DIDerivedType(tag: DW_TAG_typedef, name: "wint_t", file: !900, line: 20, baseType: !6)
!900 = !DIFile(filename: "/usr/include/x86_64-linux-gnu/bits/types/wint_t.h", directory: "")
!901 = !DIImportedEntity(tag: DW_TAG_imported_declaration, scope: !54, entity: !902, file: !897, line: 141)
!902 = !DISubprogram(name: "btowc", scope: !903, file: !903, line: 318, type: !904, flags: DIFlagPrototyped, spFlags: DISPFlagOptimized)
!903 = !DIFile(filename: "/usr/include/wchar.h", directory: "")
!904 = !DISubroutineType(types: !905)
!905 = !{!899, !20}
!906 = !DIImportedEntity(tag: DW_TAG_imported_declaration, scope: !54, entity: !907, file: !897, line: 142)
!907 = !DISubprogram(name: "fgetwc", scope: !903, file: !903, line: 727, type: !908, flags: DIFlagPrototyped, spFlags: DISPFlagOptimized)
!908 = !DISubroutineType(types: !909)
!909 = !{!899, !910}
!910 = !DIDerivedType(tag: DW_TAG_pointer_type, baseType: !911, size: 64)
!911 = !DIDerivedType(tag: DW_TAG_typedef, name: "__FILE", file: !912, line: 5, baseType: !913)
!912 = !DIFile(filename: "/usr/include/x86_64-linux-gnu/bits/types/__FILE.h", directory: "")
!913 = distinct !DICompositeType(tag: DW_TAG_structure_type, name: "_IO_FILE", file: !914, line: 245, size: 1728, flags: DIFlagTypePassByValue, elements: !915, identifier: "_ZTS8_IO_FILE")
!914 = !DIFile(filename: "/usr/include/x86_64-linux-gnu/bits/libio.h", directory: "")
!915 = !{!916, !917, !918, !919, !920, !921, !922, !923, !924, !925, !926, !927, !928, !931, !933, !934, !935, !937, !939, !941, !945, !948, !950, !951, !952, !953, !954, !955, !956}
!916 = !DIDerivedType(tag: DW_TAG_member, name: "_flags", scope: !913, file: !914, line: 246, baseType: !20, size: 32)
!917 = !DIDerivedType(tag: DW_TAG_member, name: "_IO_read_ptr", scope: !913, file: !914, line: 251, baseType: !621, size: 64, offset: 64)
!918 = !DIDerivedType(tag: DW_TAG_member, name: "_IO_read_end", scope: !913, file: !914, line: 252, baseType: !621, size: 64, offset: 128)
!919 = !DIDerivedType(tag: DW_TAG_member, name: "_IO_read_base", scope: !913, file: !914, line: 253, baseType: !621, size: 64, offset: 192)
!920 = !DIDerivedType(tag: DW_TAG_member, name: "_IO_write_base", scope: !913, file: !914, line: 254, baseType: !621, size: 64, offset: 256)
!921 = !DIDerivedType(tag: DW_TAG_member, name: "_IO_write_ptr", scope: !913, file: !914, line: 255, baseType: !621, size: 64, offset: 320)
!922 = !DIDerivedType(tag: DW_TAG_member, name: "_IO_write_end", scope: !913, file: !914, line: 256, baseType: !621, size: 64, offset: 384)
!923 = !DIDerivedType(tag: DW_TAG_member, name: "_IO_buf_base", scope: !913, file: !914, line: 257, baseType: !621, size: 64, offset: 448)
!924 = !DIDerivedType(tag: DW_TAG_member, name: "_IO_buf_end", scope: !913, file: !914, line: 258, baseType: !621, size: 64, offset: 512)
!925 = !DIDerivedType(tag: DW_TAG_member, name: "_IO_save_base", scope: !913, file: !914, line: 260, baseType: !621, size: 64, offset: 576)
!926 = !DIDerivedType(tag: DW_TAG_member, name: "_IO_backup_base", scope: !913, file: !914, line: 261, baseType: !621, size: 64, offset: 640)
!927 = !DIDerivedType(tag: DW_TAG_member, name: "_IO_save_end", scope: !913, file: !914, line: 262, baseType: !621, size: 64, offset: 704)
!928 = !DIDerivedType(tag: DW_TAG_member, name: "_markers", scope: !913, file: !914, line: 264, baseType: !929, size: 64, offset: 768)
!929 = !DIDerivedType(tag: DW_TAG_pointer_type, baseType: !930, size: 64)
!930 = distinct !DICompositeType(tag: DW_TAG_structure_type, name: "_IO_marker", file: !914, line: 160, flags: DIFlagFwdDecl, identifier: "_ZTS10_IO_marker")
!931 = !DIDerivedType(tag: DW_TAG_member, name: "_chain", scope: !913, file: !914, line: 266, baseType: !932, size: 64, offset: 832)
!932 = !DIDerivedType(tag: DW_TAG_pointer_type, baseType: !913, size: 64)
!933 = !DIDerivedType(tag: DW_TAG_member, name: "_fileno", scope: !913, file: !914, line: 268, baseType: !20, size: 32, offset: 896)
!934 = !DIDerivedType(tag: DW_TAG_member, name: "_flags2", scope: !913, file: !914, line: 272, baseType: !20, size: 32, offset: 928)
!935 = !DIDerivedType(tag: DW_TAG_member, name: "_old_offset", scope: !913, file: !914, line: 274, baseType: !936, size: 64, offset: 960)
!936 = !DIDerivedType(tag: DW_TAG_typedef, name: "__off_t", file: !67, line: 140, baseType: !432)
!937 = !DIDerivedType(tag: DW_TAG_member, name: "_cur_column", scope: !913, file: !914, line: 278, baseType: !938, size: 16, offset: 1024)
!938 = !DIBasicType(name: "unsigned short", size: 16, encoding: DW_ATE_unsigned)
!939 = !DIDerivedType(tag: DW_TAG_member, name: "_vtable_offset", scope: !913, file: !914, line: 279, baseType: !940, size: 8, offset: 1040)
!940 = !DIBasicType(name: "signed char", size: 8, encoding: DW_ATE_signed_char)
!941 = !DIDerivedType(tag: DW_TAG_member, name: "_shortbuf", scope: !913, file: !914, line: 280, baseType: !942, size: 8, offset: 1048)
!942 = !DICompositeType(tag: DW_TAG_array_type, baseType: !453, size: 8, elements: !943)
!943 = !{!944}
!944 = !DISubrange(count: 1)
!945 = !DIDerivedType(tag: DW_TAG_member, name: "_lock", scope: !913, file: !914, line: 284, baseType: !946, size: 64, offset: 1088)
!946 = !DIDerivedType(tag: DW_TAG_pointer_type, baseType: !947, size: 64)
!947 = !DIDerivedType(tag: DW_TAG_typedef, name: "_IO_lock_t", file: !914, line: 154, baseType: null)
!948 = !DIDerivedType(tag: DW_TAG_member, name: "_offset", scope: !913, file: !914, line: 293, baseType: !949, size: 64, offset: 1152)
!949 = !DIDerivedType(tag: DW_TAG_typedef, name: "__off64_t", file: !67, line: 141, baseType: !432)
!950 = !DIDerivedType(tag: DW_TAG_member, name: "__pad1", scope: !913, file: !914, line: 301, baseType: !594, size: 64, offset: 1216)
!951 = !DIDerivedType(tag: DW_TAG_member, name: "__pad2", scope: !913, file: !914, line: 302, baseType: !594, size: 64, offset: 1280)
!952 = !DIDerivedType(tag: DW_TAG_member, name: "__pad3", scope: !913, file: !914, line: 303, baseType: !594, size: 64, offset: 1344)
!953 = !DIDerivedType(tag: DW_TAG_member, name: "__pad4", scope: !913, file: !914, line: 304, baseType: !594, size: 64, offset: 1408)
!954 = !DIDerivedType(tag: DW_TAG_member, name: "__pad5", scope: !913, file: !914, line: 306, baseType: !100, size: 64, offset: 1472)
!955 = !DIDerivedType(tag: DW_TAG_member, name: "_mode", scope: !913, file: !914, line: 307, baseType: !20, size: 32, offset: 1536)
!956 = !DIDerivedType(tag: DW_TAG_member, name: "_unused2", scope: !913, file: !914, line: 309, baseType: !957, size: 160, offset: 1568)
!957 = !DICompositeType(tag: DW_TAG_array_type, baseType: !453, size: 160, elements: !958)
!958 = !{!959}
!959 = !DISubrange(count: 20)
!960 = !DIImportedEntity(tag: DW_TAG_imported_declaration, scope: !54, entity: !961, file: !897, line: 143)
!961 = !DISubprogram(name: "fgetws", scope: !903, file: !903, line: 756, type: !962, flags: DIFlagPrototyped, spFlags: DISPFlagOptimized)
!962 = !DISubroutineType(types: !963)
!963 = !{!643, !642, !20, !964}
!964 = !DIDerivedType(tag: DW_TAG_restrict_type, baseType: !910)
!965 = !DIImportedEntity(tag: DW_TAG_imported_declaration, scope: !54, entity: !966, file: !897, line: 144)
!966 = !DISubprogram(name: "fputwc", scope: !903, file: !903, line: 741, type: !967, flags: DIFlagPrototyped, spFlags: DISPFlagOptimized)
!967 = !DISubroutineType(types: !968)
!968 = !{!899, !644, !910}
!969 = !DIImportedEntity(tag: DW_TAG_imported_declaration, scope: !54, entity: !970, file: !897, line: 145)
!970 = !DISubprogram(name: "fputws", scope: !903, file: !903, line: 763, type: !971, flags: DIFlagPrototyped, spFlags: DISPFlagOptimized)
!971 = !DISubroutineType(types: !972)
!972 = !{!20, !689, !964}
!973 = !DIImportedEntity(tag: DW_TAG_imported_declaration, scope: !54, entity: !974, file: !897, line: 146)
!974 = !DISubprogram(name: "fwide", scope: !903, file: !903, line: 573, type: !975, flags: DIFlagPrototyped, spFlags: DISPFlagOptimized)
!975 = !DISubroutineType(types: !976)
!976 = !{!20, !910, !20}
!977 = !DIImportedEntity(tag: DW_TAG_imported_declaration, scope: !54, entity: !978, file: !897, line: 147)
!978 = !DISubprogram(name: "fwprintf", scope: !903, file: !903, line: 580, type: !979, flags: DIFlagPrototyped, spFlags: DISPFlagOptimized)
!979 = !DISubroutineType(types: !980)
!980 = !{!20, !964, !689, null}
!981 = !DIImportedEntity(tag: DW_TAG_imported_declaration, scope: !54, entity: !982, file: !897, line: 148)
!982 = !DISubprogram(name: "fwscanf", scope: !903, file: !903, line: 621, type: !979, flags: DIFlagPrototyped, spFlags: DISPFlagOptimized)
!983 = !DIImportedEntity(tag: DW_TAG_imported_declaration, scope: !54, entity: !984, file: !897, line: 149)
!984 = !DISubprogram(name: "getwc", scope: !903, file: !903, line: 728, type: !908, flags: DIFlagPrototyped, spFlags: DISPFlagOptimized)
!985 = !DIImportedEntity(tag: DW_TAG_imported_declaration, scope: !54, entity: !986, file: !897, line: 150)
!986 = !DISubprogram(name: "getwchar", scope: !903, file: !903, line: 734, type: !987, flags: DIFlagPrototyped, spFlags: DISPFlagOptimized)
!987 = !DISubroutineType(types: !988)
!988 = !{!899}
!989 = !DIImportedEntity(tag: DW_TAG_imported_declaration, scope: !54, entity: !990, file: !897, line: 151)
!990 = !DISubprogram(name: "mbrlen", scope: !903, file: !903, line: 329, type: !991, flags: DIFlagPrototyped, spFlags: DISPFlagOptimized)
!991 = !DISubroutineType(types: !992)
!992 = !{!100, !645, !100, !993}
!993 = !DIDerivedType(tag: DW_TAG_restrict_type, baseType: !994)
!994 = !DIDerivedType(tag: DW_TAG_pointer_type, baseType: !882, size: 64)
!995 = !DIImportedEntity(tag: DW_TAG_imported_declaration, scope: !54, entity: !996, file: !897, line: 152)
!996 = !DISubprogram(name: "mbrtowc", scope: !903, file: !903, line: 296, type: !997, flags: DIFlagPrototyped, spFlags: DISPFlagOptimized)
!997 = !DISubroutineType(types: !998)
!998 = !{!100, !642, !645, !100, !993}
!999 = !DIImportedEntity(tag: DW_TAG_imported_declaration, scope: !54, entity: !1000, file: !897, line: 153)
!1000 = !DISubprogram(name: "mbsinit", scope: !903, file: !903, line: 292, type: !1001, flags: DIFlagPrototyped, spFlags: DISPFlagOptimized)
!1001 = !DISubroutineType(types: !1002)
!1002 = !{!20, !1003}
!1003 = !DIDerivedType(tag: DW_TAG_pointer_type, baseType: !1004, size: 64)
!1004 = !DIDerivedType(tag: DW_TAG_const_type, baseType: !882)
!1005 = !DIImportedEntity(tag: DW_TAG_imported_declaration, scope: !54, entity: !1006, file: !897, line: 154)
!1006 = !DISubprogram(name: "mbsrtowcs", scope: !903, file: !903, line: 337, type: !1007, flags: DIFlagPrototyped, spFlags: DISPFlagOptimized)
!1007 = !DISubroutineType(types: !1008)
!1008 = !{!100, !642, !1009, !100, !993}
!1009 = !DIDerivedType(tag: DW_TAG_restrict_type, baseType: !1010)
!1010 = !DIDerivedType(tag: DW_TAG_pointer_type, baseType: !451, size: 64)
!1011 = !DIImportedEntity(tag: DW_TAG_imported_declaration, scope: !54, entity: !1012, file: !897, line: 155)
!1012 = !DISubprogram(name: "putwc", scope: !903, file: !903, line: 742, type: !967, flags: DIFlagPrototyped, spFlags: DISPFlagOptimized)
!1013 = !DIImportedEntity(tag: DW_TAG_imported_declaration, scope: !54, entity: !1014, file: !897, line: 156)
!1014 = !DISubprogram(name: "putwchar", scope: !903, file: !903, line: 748, type: !1015, flags: DIFlagPrototyped, spFlags: DISPFlagOptimized)
!1015 = !DISubroutineType(types: !1016)
!1016 = !{!899, !644}
!1017 = !DIImportedEntity(tag: DW_TAG_imported_declaration, scope: !54, entity: !1018, file: !897, line: 158)
!1018 = !DISubprogram(name: "swprintf", scope: !903, file: !903, line: 590, type: !1019, flags: DIFlagPrototyped, spFlags: DISPFlagOptimized)
!1019 = !DISubroutineType(types: !1020)
!1020 = !{!20, !642, !100, !689, null}
!1021 = !DIImportedEntity(tag: DW_TAG_imported_declaration, scope: !54, entity: !1022, file: !897, line: 160)
!1022 = !DISubprogram(name: "swscanf", scope: !903, file: !903, line: 631, type: !1023, flags: DIFlagPrototyped, spFlags: DISPFlagOptimized)
!1023 = !DISubroutineType(types: !1024)
!1024 = !{!20, !689, !689, null}
!1025 = !DIImportedEntity(tag: DW_TAG_imported_declaration, scope: !54, entity: !1026, file: !897, line: 161)
!1026 = !DISubprogram(name: "ungetwc", scope: !903, file: !903, line: 771, type: !1027, flags: DIFlagPrototyped, spFlags: DISPFlagOptimized)
!1027 = !DISubroutineType(types: !1028)
!1028 = !{!899, !899, !910}
!1029 = !DIImportedEntity(tag: DW_TAG_imported_declaration, scope: !54, entity: !1030, file: !897, line: 162)
!1030 = !DISubprogram(name: "vfwprintf", scope: !903, file: !903, line: 598, type: !1031, flags: DIFlagPrototyped, spFlags: DISPFlagOptimized)
!1031 = !DISubroutineType(types: !1032)
!1032 = !{!20, !964, !689, !1033}
!1033 = !DIDerivedType(tag: DW_TAG_pointer_type, baseType: !1034, size: 64)
!1034 = distinct !DICompositeType(tag: DW_TAG_structure_type, name: "__va_list_tag", file: !1, size: 192, flags: DIFlagTypePassByValue, elements: !1035, identifier: "_ZTS13__va_list_tag")
!1035 = !{!1036, !1037, !1038, !1039}
!1036 = !DIDerivedType(tag: DW_TAG_member, name: "gp_offset", scope: !1034, file: !1, baseType: !6, size: 32)
!1037 = !DIDerivedType(tag: DW_TAG_member, name: "fp_offset", scope: !1034, file: !1, baseType: !6, size: 32, offset: 32)
!1038 = !DIDerivedType(tag: DW_TAG_member, name: "overflow_arg_area", scope: !1034, file: !1, baseType: !594, size: 64, offset: 64)
!1039 = !DIDerivedType(tag: DW_TAG_member, name: "reg_save_area", scope: !1034, file: !1, baseType: !594, size: 64, offset: 128)
!1040 = !DIImportedEntity(tag: DW_TAG_imported_declaration, scope: !54, entity: !1041, file: !897, line: 164)
!1041 = !DISubprogram(name: "vfwscanf", scope: !903, file: !903, line: 673, type: !1031, flags: DIFlagPrototyped, spFlags: DISPFlagOptimized)
!1042 = !DIImportedEntity(tag: DW_TAG_imported_declaration, scope: !54, entity: !1043, file: !897, line: 167)
!1043 = !DISubprogram(name: "vswprintf", scope: !903, file: !903, line: 611, type: !1044, flags: DIFlagPrototyped, spFlags: DISPFlagOptimized)
!1044 = !DISubroutineType(types: !1045)
!1045 = !{!20, !642, !100, !689, !1033}
!1046 = !DIImportedEntity(tag: DW_TAG_imported_declaration, scope: !54, entity: !1047, file: !897, line: 170)
!1047 = !DISubprogram(name: "vswscanf", scope: !903, file: !903, line: 685, type: !1048, flags: DIFlagPrototyped, spFlags: DISPFlagOptimized)
!1048 = !DISubroutineType(types: !1049)
!1049 = !{!20, !689, !689, !1033}
!1050 = !DIImportedEntity(tag: DW_TAG_imported_declaration, scope: !54, entity: !1051, file: !897, line: 172)
!1051 = !DISubprogram(name: "vwprintf", scope: !903, file: !903, line: 606, type: !1052, flags: DIFlagPrototyped, spFlags: DISPFlagOptimized)
!1052 = !DISubroutineType(types: !1053)
!1053 = !{!20, !689, !1033}
!1054 = !DIImportedEntity(tag: DW_TAG_imported_declaration, scope: !54, entity: !1055, file: !897, line: 174)
!1055 = !DISubprogram(name: "vwscanf", scope: !903, file: !903, line: 681, type: !1052, flags: DIFlagPrototyped, spFlags: DISPFlagOptimized)
!1056 = !DIImportedEntity(tag: DW_TAG_imported_declaration, scope: !54, entity: !1057, file: !897, line: 176)
!1057 = !DISubprogram(name: "wcrtomb", scope: !903, file: !903, line: 301, type: !1058, flags: DIFlagPrototyped, spFlags: DISPFlagOptimized)
!1058 = !DISubroutineType(types: !1059)
!1059 = !{!100, !688, !644, !993}
!1060 = !DIImportedEntity(tag: DW_TAG_imported_declaration, scope: !54, entity: !1061, file: !897, line: 177)
!1061 = !DISubprogram(name: "wcscat", scope: !903, file: !903, line: 97, type: !1062, flags: DIFlagPrototyped, spFlags: DISPFlagOptimized)
!1062 = !DISubroutineType(types: !1063)
!1063 = !{!643, !642, !689}
!1064 = !DIImportedEntity(tag: DW_TAG_imported_declaration, scope: !54, entity: !1065, file: !897, line: 178)
!1065 = !DISubprogram(name: "wcscmp", scope: !903, file: !903, line: 106, type: !1066, flags: DIFlagPrototyped, spFlags: DISPFlagOptimized)
!1066 = !DISubroutineType(types: !1067)
!1067 = !{!20, !690, !690}
!1068 = !DIImportedEntity(tag: DW_TAG_imported_declaration, scope: !54, entity: !1069, file: !897, line: 179)
!1069 = !DISubprogram(name: "wcscoll", scope: !903, file: !903, line: 131, type: !1066, flags: DIFlagPrototyped, spFlags: DISPFlagOptimized)
!1070 = !DIImportedEntity(tag: DW_TAG_imported_declaration, scope: !54, entity: !1071, file: !897, line: 180)
!1071 = !DISubprogram(name: "wcscpy", scope: !903, file: !903, line: 87, type: !1062, flags: DIFlagPrototyped, spFlags: DISPFlagOptimized)
!1072 = !DIImportedEntity(tag: DW_TAG_imported_declaration, scope: !54, entity: !1073, file: !897, line: 181)
!1073 = !DISubprogram(name: "wcscspn", scope: !903, file: !903, line: 187, type: !1074, flags: DIFlagPrototyped, spFlags: DISPFlagOptimized)
!1074 = !DISubroutineType(types: !1075)
!1075 = !{!100, !690, !690}
!1076 = !DIImportedEntity(tag: DW_TAG_imported_declaration, scope: !54, entity: !1077, file: !897, line: 182)
!1077 = !DISubprogram(name: "wcsftime", scope: !903, file: !903, line: 835, type: !1078, flags: DIFlagPrototyped, spFlags: DISPFlagOptimized)
!1078 = !DISubroutineType(types: !1079)
!1079 = !{!100, !642, !100, !689, !1080}
!1080 = !DIDerivedType(tag: DW_TAG_restrict_type, baseType: !1081)
!1081 = !DIDerivedType(tag: DW_TAG_pointer_type, baseType: !1082, size: 64)
!1082 = !DIDerivedType(tag: DW_TAG_const_type, baseType: !1083)
!1083 = distinct !DICompositeType(tag: DW_TAG_structure_type, name: "tm", file: !903, line: 83, flags: DIFlagFwdDecl, identifier: "_ZTS2tm")
!1084 = !DIImportedEntity(tag: DW_TAG_imported_declaration, scope: !54, entity: !1085, file: !897, line: 183)
!1085 = !DISubprogram(name: "wcslen", scope: !903, file: !903, line: 222, type: !1086, flags: DIFlagPrototyped, spFlags: DISPFlagOptimized)
!1086 = !DISubroutineType(types: !1087)
!1087 = !{!100, !690}
!1088 = !DIImportedEntity(tag: DW_TAG_imported_declaration, scope: !54, entity: !1089, file: !897, line: 184)
!1089 = !DISubprogram(name: "wcsncat", scope: !903, file: !903, line: 101, type: !1090, flags: DIFlagPrototyped, spFlags: DISPFlagOptimized)
!1090 = !DISubroutineType(types: !1091)
!1091 = !{!643, !642, !689, !100}
!1092 = !DIImportedEntity(tag: DW_TAG_imported_declaration, scope: !54, entity: !1093, file: !897, line: 185)
!1093 = !DISubprogram(name: "wcsncmp", scope: !903, file: !903, line: 109, type: !1094, flags: DIFlagPrototyped, spFlags: DISPFlagOptimized)
!1094 = !DISubroutineType(types: !1095)
!1095 = !{!20, !690, !690, !100}
!1096 = !DIImportedEntity(tag: DW_TAG_imported_declaration, scope: !54, entity: !1097, file: !897, line: 186)
!1097 = !DISubprogram(name: "wcsncpy", scope: !903, file: !903, line: 92, type: !1090, flags: DIFlagPrototyped, spFlags: DISPFlagOptimized)
!1098 = !DIImportedEntity(tag: DW_TAG_imported_declaration, scope: !54, entity: !1099, file: !897, line: 187)
!1099 = !DISubprogram(name: "wcsrtombs", scope: !903, file: !903, line: 343, type: !1100, flags: DIFlagPrototyped, spFlags: DISPFlagOptimized)
!1100 = !DISubroutineType(types: !1101)
!1101 = !{!100, !688, !1102, !100, !993}
!1102 = !DIDerivedType(tag: DW_TAG_restrict_type, baseType: !1103)
!1103 = !DIDerivedType(tag: DW_TAG_pointer_type, baseType: !690, size: 64)
!1104 = !DIImportedEntity(tag: DW_TAG_imported_declaration, scope: !54, entity: !1105, file: !897, line: 188)
!1105 = !DISubprogram(name: "wcsspn", scope: !903, file: !903, line: 191, type: !1074, flags: DIFlagPrototyped, spFlags: DISPFlagOptimized)
!1106 = !DIImportedEntity(tag: DW_TAG_imported_declaration, scope: !54, entity: !1107, file: !897, line: 189)
!1107 = !DISubprogram(name: "wcstod", scope: !903, file: !903, line: 377, type: !1108, flags: DIFlagPrototyped, spFlags: DISPFlagOptimized)
!1108 = !DISubroutineType(types: !1109)
!1109 = !{!214, !689, !1110}
!1110 = !DIDerivedType(tag: DW_TAG_restrict_type, baseType: !1111)
!1111 = !DIDerivedType(tag: DW_TAG_pointer_type, baseType: !643, size: 64)
!1112 = !DIImportedEntity(tag: DW_TAG_imported_declaration, scope: !54, entity: !1113, file: !897, line: 191)
!1113 = !DISubprogram(name: "wcstof", scope: !903, file: !903, line: 382, type: !1114, flags: DIFlagPrototyped, spFlags: DISPFlagOptimized)
!1114 = !DISubroutineType(types: !1115)
!1115 = !{!273, !689, !1110}
!1116 = !DIImportedEntity(tag: DW_TAG_imported_declaration, scope: !54, entity: !1117, file: !897, line: 193)
!1117 = !DISubprogram(name: "wcstok", scope: !903, file: !903, line: 217, type: !1118, flags: DIFlagPrototyped, spFlags: DISPFlagOptimized)
!1118 = !DISubroutineType(types: !1119)
!1119 = !{!643, !642, !689, !1110}
!1120 = !DIImportedEntity(tag: DW_TAG_imported_declaration, scope: !54, entity: !1121, file: !897, line: 194)
!1121 = !DISubprogram(name: "wcstol", scope: !903, file: !903, line: 428, type: !1122, flags: DIFlagPrototyped, spFlags: DISPFlagOptimized)
!1122 = !DISubroutineType(types: !1123)
!1123 = !{!432, !689, !1110, !20}
!1124 = !DIImportedEntity(tag: DW_TAG_imported_declaration, scope: !54, entity: !1125, file: !897, line: 195)
!1125 = !DISubprogram(name: "wcstoul", scope: !903, file: !903, line: 433, type: !1126, flags: DIFlagPrototyped, spFlags: DISPFlagOptimized)
!1126 = !DISubroutineType(types: !1127)
!1127 = !{!102, !689, !1110, !20}
!1128 = !DIImportedEntity(tag: DW_TAG_imported_declaration, scope: !54, entity: !1129, file: !897, line: 196)
!1129 = !DISubprogram(name: "wcsxfrm", scope: !903, file: !903, line: 135, type: !1130, flags: DIFlagPrototyped, spFlags: DISPFlagOptimized)
!1130 = !DISubroutineType(types: !1131)
!1131 = !{!100, !642, !689, !100}
!1132 = !DIImportedEntity(tag: DW_TAG_imported_declaration, scope: !54, entity: !1133, file: !897, line: 197)
!1133 = !DISubprogram(name: "wctob", scope: !903, file: !903, line: 324, type: !1134, flags: DIFlagPrototyped, spFlags: DISPFlagOptimized)
!1134 = !DISubroutineType(types: !1135)
!1135 = !{!20, !899}
!1136 = !DIImportedEntity(tag: DW_TAG_imported_declaration, scope: !54, entity: !1137, file: !897, line: 198)
!1137 = !DISubprogram(name: "wmemcmp", scope: !903, file: !903, line: 258, type: !1094, flags: DIFlagPrototyped, spFlags: DISPFlagOptimized)
!1138 = !DIImportedEntity(tag: DW_TAG_imported_declaration, scope: !54, entity: !1139, file: !897, line: 199)
!1139 = !DISubprogram(name: "wmemcpy", scope: !903, file: !903, line: 262, type: !1090, flags: DIFlagPrototyped, spFlags: DISPFlagOptimized)
!1140 = !DIImportedEntity(tag: DW_TAG_imported_declaration, scope: !54, entity: !1141, file: !897, line: 200)
!1141 = !DISubprogram(name: "wmemmove", scope: !903, file: !903, line: 267, type: !1142, flags: DIFlagPrototyped, spFlags: DISPFlagOptimized)
!1142 = !DISubroutineType(types: !1143)
!1143 = !{!643, !643, !690, !100}
!1144 = !DIImportedEntity(tag: DW_TAG_imported_declaration, scope: !54, entity: !1145, file: !897, line: 201)
!1145 = !DISubprogram(name: "wmemset", scope: !903, file: !903, line: 271, type: !1146, flags: DIFlagPrototyped, spFlags: DISPFlagOptimized)
!1146 = !DISubroutineType(types: !1147)
!1147 = !{!643, !643, !644, !100}
!1148 = !DIImportedEntity(tag: DW_TAG_imported_declaration, scope: !54, entity: !1149, file: !897, line: 202)
!1149 = !DISubprogram(name: "wprintf", scope: !903, file: !903, line: 587, type: !1150, flags: DIFlagPrototyped, spFlags: DISPFlagOptimized)
!1150 = !DISubroutineType(types: !1151)
!1151 = !{!20, !689, null}
!1152 = !DIImportedEntity(tag: DW_TAG_imported_declaration, scope: !54, entity: !1153, file: !897, line: 203)
!1153 = !DISubprogram(name: "wscanf", scope: !903, file: !903, line: 628, type: !1150, flags: DIFlagPrototyped, spFlags: DISPFlagOptimized)
!1154 = !DIImportedEntity(tag: DW_TAG_imported_declaration, scope: !54, entity: !1155, file: !897, line: 204)
!1155 = !DISubprogram(name: "wcschr", scope: !903, file: !903, line: 164, type: !1156, flags: DIFlagPrototyped, spFlags: DISPFlagOptimized)
!1156 = !DISubroutineType(types: !1157)
!1157 = !{!643, !690, !644}
!1158 = !DIImportedEntity(tag: DW_TAG_imported_declaration, scope: !54, entity: !1159, file: !897, line: 205)
!1159 = !DISubprogram(name: "wcspbrk", scope: !903, file: !903, line: 201, type: !1160, flags: DIFlagPrototyped, spFlags: DISPFlagOptimized)
!1160 = !DISubroutineType(types: !1161)
!1161 = !{!643, !690, !690}
!1162 = !DIImportedEntity(tag: DW_TAG_imported_declaration, scope: !54, entity: !1163, file: !897, line: 206)
!1163 = !DISubprogram(name: "wcsrchr", scope: !903, file: !903, line: 174, type: !1156, flags: DIFlagPrototyped, spFlags: DISPFlagOptimized)
!1164 = !DIImportedEntity(tag: DW_TAG_imported_declaration, scope: !54, entity: !1165, file: !897, line: 207)
!1165 = !DISubprogram(name: "wcsstr", scope: !903, file: !903, line: 212, type: !1160, flags: DIFlagPrototyped, spFlags: DISPFlagOptimized)
!1166 = !DIImportedEntity(tag: DW_TAG_imported_declaration, scope: !54, entity: !1167, file: !897, line: 208)
!1167 = !DISubprogram(name: "wmemchr", scope: !903, file: !903, line: 253, type: !1168, flags: DIFlagPrototyped, spFlags: DISPFlagOptimized)
!1168 = !DISubroutineType(types: !1169)
!1169 = !{!643, !690, !644, !100}
!1170 = !DIImportedEntity(tag: DW_TAG_imported_declaration, scope: !5, entity: !1171, file: !897, line: 248)
!1171 = !DISubprogram(name: "wcstold", scope: !903, file: !903, line: 384, type: !1172, flags: DIFlagPrototyped, spFlags: DISPFlagOptimized)
!1172 = !DISubroutineType(types: !1173)
!1173 = !{!284, !689, !1110}
!1174 = !DIImportedEntity(tag: DW_TAG_imported_declaration, scope: !5, entity: !1175, file: !897, line: 257)
!1175 = !DISubprogram(name: "wcstoll", scope: !903, file: !903, line: 441, type: !1176, flags: DIFlagPrototyped, spFlags: DISPFlagOptimized)
!1176 = !DISubroutineType(types: !1177)
!1177 = !{!395, !689, !1110, !20}
!1178 = !DIImportedEntity(tag: DW_TAG_imported_declaration, scope: !5, entity: !1179, file: !897, line: 258)
!1179 = !DISubprogram(name: "wcstoull", scope: !903, file: !903, line: 448, type: !1180, flags: DIFlagPrototyped, spFlags: DISPFlagOptimized)
!1180 = !DISubroutineType(types: !1181)
!1181 = !{!724, !689, !1110, !20}
!1182 = !DIImportedEntity(tag: DW_TAG_imported_declaration, scope: !54, entity: !1171, file: !897, line: 264)
!1183 = !DIImportedEntity(tag: DW_TAG_imported_declaration, scope: !54, entity: !1175, file: !897, line: 265)
!1184 = !DIImportedEntity(tag: DW_TAG_imported_declaration, scope: !54, entity: !1179, file: !897, line: 266)
!1185 = !DIImportedEntity(tag: DW_TAG_imported_declaration, scope: !54, entity: !1113, file: !897, line: 280)
!1186 = !DIImportedEntity(tag: DW_TAG_imported_declaration, scope: !54, entity: !1041, file: !897, line: 283)
!1187 = !DIImportedEntity(tag: DW_TAG_imported_declaration, scope: !54, entity: !1047, file: !897, line: 286)
!1188 = !DIImportedEntity(tag: DW_TAG_imported_declaration, scope: !54, entity: !1055, file: !897, line: 289)
!1189 = !DIImportedEntity(tag: DW_TAG_imported_declaration, scope: !54, entity: !1171, file: !897, line: 293)
!1190 = !DIImportedEntity(tag: DW_TAG_imported_declaration, scope: !54, entity: !1175, file: !897, line: 294)
!1191 = !DIImportedEntity(tag: DW_TAG_imported_declaration, scope: !54, entity: !1179, file: !897, line: 295)
!1192 = !DIImportedEntity(tag: DW_TAG_imported_declaration, scope: !54, entity: !1193, file: !1196, line: 48)
!1193 = !DIDerivedType(tag: DW_TAG_typedef, name: "int8_t", file: !1194, line: 24, baseType: !1195)
!1194 = !DIFile(filename: "/usr/include/x86_64-linux-gnu/bits/stdint-intn.h", directory: "")
!1195 = !DIDerivedType(tag: DW_TAG_typedef, name: "__int8_t", file: !67, line: 36, baseType: !940)
!1196 = !DIFile(filename: "/usr/lib/gcc/x86_64-linux-gnu/7.5.0/../../../../include/c++/7.5.0/cstdint", directory: "")
!1197 = !DIImportedEntity(tag: DW_TAG_imported_declaration, scope: !54, entity: !1198, file: !1196, line: 49)
!1198 = !DIDerivedType(tag: DW_TAG_typedef, name: "int16_t", file: !1194, line: 25, baseType: !1199)
!1199 = !DIDerivedType(tag: DW_TAG_typedef, name: "__int16_t", file: !67, line: 38, baseType: !1200)
!1200 = !DIBasicType(name: "short", size: 16, encoding: DW_ATE_signed)
!1201 = !DIImportedEntity(tag: DW_TAG_imported_declaration, scope: !54, entity: !1202, file: !1196, line: 50)
!1202 = !DIDerivedType(tag: DW_TAG_typedef, name: "int32_t", file: !1194, line: 26, baseType: !1203)
!1203 = !DIDerivedType(tag: DW_TAG_typedef, name: "__int32_t", file: !67, line: 40, baseType: !20)
!1204 = !DIImportedEntity(tag: DW_TAG_imported_declaration, scope: !54, entity: !1205, file: !1196, line: 51)
!1205 = !DIDerivedType(tag: DW_TAG_typedef, name: "int64_t", file: !1194, line: 27, baseType: !1206)
!1206 = !DIDerivedType(tag: DW_TAG_typedef, name: "__int64_t", file: !67, line: 43, baseType: !432)
!1207 = !DIImportedEntity(tag: DW_TAG_imported_declaration, scope: !54, entity: !1208, file: !1196, line: 53)
!1208 = !DIDerivedType(tag: DW_TAG_typedef, name: "int_fast8_t", file: !1209, line: 68, baseType: !940)
!1209 = !DIFile(filename: "/usr/include/stdint.h", directory: "")
!1210 = !DIImportedEntity(tag: DW_TAG_imported_declaration, scope: !54, entity: !1211, file: !1196, line: 54)
!1211 = !DIDerivedType(tag: DW_TAG_typedef, name: "int_fast16_t", file: !1209, line: 70, baseType: !432)
!1212 = !DIImportedEntity(tag: DW_TAG_imported_declaration, scope: !54, entity: !1213, file: !1196, line: 55)
!1213 = !DIDerivedType(tag: DW_TAG_typedef, name: "int_fast32_t", file: !1209, line: 71, baseType: !432)
!1214 = !DIImportedEntity(tag: DW_TAG_imported_declaration, scope: !54, entity: !1215, file: !1196, line: 56)
!1215 = !DIDerivedType(tag: DW_TAG_typedef, name: "int_fast64_t", file: !1209, line: 72, baseType: !432)
!1216 = !DIImportedEntity(tag: DW_TAG_imported_declaration, scope: !54, entity: !1217, file: !1196, line: 58)
!1217 = !DIDerivedType(tag: DW_TAG_typedef, name: "int_least8_t", file: !1209, line: 43, baseType: !940)
!1218 = !DIImportedEntity(tag: DW_TAG_imported_declaration, scope: !54, entity: !1219, file: !1196, line: 59)
!1219 = !DIDerivedType(tag: DW_TAG_typedef, name: "int_least16_t", file: !1209, line: 44, baseType: !1200)
!1220 = !DIImportedEntity(tag: DW_TAG_imported_declaration, scope: !54, entity: !1221, file: !1196, line: 60)
!1221 = !DIDerivedType(tag: DW_TAG_typedef, name: "int_least32_t", file: !1209, line: 45, baseType: !20)
!1222 = !DIImportedEntity(tag: DW_TAG_imported_declaration, scope: !54, entity: !1223, file: !1196, line: 61)
!1223 = !DIDerivedType(tag: DW_TAG_typedef, name: "int_least64_t", file: !1209, line: 47, baseType: !432)
!1224 = !DIImportedEntity(tag: DW_TAG_imported_declaration, scope: !54, entity: !1225, file: !1196, line: 63)
!1225 = !DIDerivedType(tag: DW_TAG_typedef, name: "intmax_t", file: !1209, line: 111, baseType: !1226)
!1226 = !DIDerivedType(tag: DW_TAG_typedef, name: "__intmax_t", file: !67, line: 61, baseType: !432)
!1227 = !DIImportedEntity(tag: DW_TAG_imported_declaration, scope: !54, entity: !1228, file: !1196, line: 64)
!1228 = !DIDerivedType(tag: DW_TAG_typedef, name: "intptr_t", file: !1209, line: 97, baseType: !432)
!1229 = !DIImportedEntity(tag: DW_TAG_imported_declaration, scope: !54, entity: !1230, file: !1196, line: 66)
!1230 = !DIDerivedType(tag: DW_TAG_typedef, name: "uint8_t", file: !65, line: 24, baseType: !1231)
!1231 = !DIDerivedType(tag: DW_TAG_typedef, name: "__uint8_t", file: !67, line: 37, baseType: !39)
!1232 = !DIImportedEntity(tag: DW_TAG_imported_declaration, scope: !54, entity: !1233, file: !1196, line: 67)
!1233 = !DIDerivedType(tag: DW_TAG_typedef, name: "uint16_t", file: !65, line: 25, baseType: !1234)
!1234 = !DIDerivedType(tag: DW_TAG_typedef, name: "__uint16_t", file: !67, line: 39, baseType: !938)
!1235 = !DIImportedEntity(tag: DW_TAG_imported_declaration, scope: !54, entity: !64, file: !1196, line: 68)
!1236 = !DIImportedEntity(tag: DW_TAG_imported_declaration, scope: !54, entity: !1237, file: !1196, line: 69)
!1237 = !DIDerivedType(tag: DW_TAG_typedef, name: "uint64_t", file: !65, line: 27, baseType: !1238)
!1238 = !DIDerivedType(tag: DW_TAG_typedef, name: "__uint64_t", file: !67, line: 44, baseType: !102)
!1239 = !DIImportedEntity(tag: DW_TAG_imported_declaration, scope: !54, entity: !1240, file: !1196, line: 71)
!1240 = !DIDerivedType(tag: DW_TAG_typedef, name: "uint_fast8_t", file: !1209, line: 81, baseType: !39)
!1241 = !DIImportedEntity(tag: DW_TAG_imported_declaration, scope: !54, entity: !1242, file: !1196, line: 72)
!1242 = !DIDerivedType(tag: DW_TAG_typedef, name: "uint_fast16_t", file: !1209, line: 83, baseType: !102)
!1243 = !DIImportedEntity(tag: DW_TAG_imported_declaration, scope: !54, entity: !1244, file: !1196, line: 73)
!1244 = !DIDerivedType(tag: DW_TAG_typedef, name: "uint_fast32_t", file: !1209, line: 84, baseType: !102)
!1245 = !DIImportedEntity(tag: DW_TAG_imported_declaration, scope: !54, entity: !1246, file: !1196, line: 74)
!1246 = !DIDerivedType(tag: DW_TAG_typedef, name: "uint_fast64_t", file: !1209, line: 85, baseType: !102)
!1247 = !DIImportedEntity(tag: DW_TAG_imported_declaration, scope: !54, entity: !1248, file: !1196, line: 76)
!1248 = !DIDerivedType(tag: DW_TAG_typedef, name: "uint_least8_t", file: !1209, line: 54, baseType: !39)
!1249 = !DIImportedEntity(tag: DW_TAG_imported_declaration, scope: !54, entity: !1250, file: !1196, line: 77)
!1250 = !DIDerivedType(tag: DW_TAG_typedef, name: "uint_least16_t", file: !1209, line: 55, baseType: !938)
!1251 = !DIImportedEntity(tag: DW_TAG_imported_declaration, scope: !54, entity: !1252, file: !1196, line: 78)
!1252 = !DIDerivedType(tag: DW_TAG_typedef, name: "uint_least32_t", file: !1209, line: 56, baseType: !6)
!1253 = !DIImportedEntity(tag: DW_TAG_imported_declaration, scope: !54, entity: !1254, file: !1196, line: 79)
!1254 = !DIDerivedType(tag: DW_TAG_typedef, name: "uint_least64_t", file: !1209, line: 58, baseType: !102)
!1255 = !DIImportedEntity(tag: DW_TAG_imported_declaration, scope: !54, entity: !1256, file: !1196, line: 81)
!1256 = !DIDerivedType(tag: DW_TAG_typedef, name: "uintmax_t", file: !1209, line: 112, baseType: !1257)
!1257 = !DIDerivedType(tag: DW_TAG_typedef, name: "__uintmax_t", file: !67, line: 62, baseType: !102)
!1258 = !DIImportedEntity(tag: DW_TAG_imported_declaration, scope: !54, entity: !1259, file: !1196, line: 82)
!1259 = !DIDerivedType(tag: DW_TAG_typedef, name: "uintptr_t", file: !1209, line: 100, baseType: !102)
!1260 = !DIImportedEntity(tag: DW_TAG_imported_declaration, scope: !5, entity: !1261, file: !1262, line: 44)
!1261 = !DIDerivedType(tag: DW_TAG_typedef, name: "size_t", scope: !54, file: !772, line: 231, baseType: !102)
!1262 = !DIFile(filename: "/usr/lib/gcc/x86_64-linux-gnu/7.5.0/../../../../include/c++/7.5.0/ext/new_allocator.h", directory: "")
!1263 = !DIImportedEntity(tag: DW_TAG_imported_declaration, scope: !5, entity: !1264, file: !1262, line: 45)
!1264 = !DIDerivedType(tag: DW_TAG_typedef, name: "ptrdiff_t", scope: !54, file: !772, line: 232, baseType: !432)
!1265 = !DIImportedEntity(tag: DW_TAG_imported_declaration, scope: !54, entity: !1266, file: !1268, line: 53)
!1266 = distinct !DICompositeType(tag: DW_TAG_structure_type, name: "lconv", file: !1267, line: 51, flags: DIFlagFwdDecl, identifier: "_ZTS5lconv")
!1267 = !DIFile(filename: "/usr/include/locale.h", directory: "")
!1268 = !DIFile(filename: "/usr/lib/gcc/x86_64-linux-gnu/7.5.0/../../../../include/c++/7.5.0/clocale", directory: "")
!1269 = !DIImportedEntity(tag: DW_TAG_imported_declaration, scope: !54, entity: !1270, file: !1268, line: 54)
!1270 = !DISubprogram(name: "setlocale", scope: !1267, file: !1267, line: 122, type: !1271, flags: DIFlagPrototyped, spFlags: DISPFlagOptimized)
!1271 = !DISubroutineType(types: !1272)
!1272 = !{!621, !20, !451}
!1273 = !DIImportedEntity(tag: DW_TAG_imported_declaration, scope: !54, entity: !1274, file: !1268, line: 55)
!1274 = !DISubprogram(name: "localeconv", scope: !1267, file: !1267, line: 125, type: !1275, flags: DIFlagPrototyped, spFlags: DISPFlagOptimized)
!1275 = !DISubroutineType(types: !1276)
!1276 = !{!1277}
!1277 = !DIDerivedType(tag: DW_TAG_pointer_type, baseType: !1266, size: 64)
!1278 = !DIImportedEntity(tag: DW_TAG_imported_declaration, scope: !54, entity: !1279, file: !1281, line: 64)
!1279 = !DISubprogram(name: "isalnum", scope: !1280, file: !1280, line: 108, type: !188, flags: DIFlagPrototyped, spFlags: DISPFlagOptimized)
!1280 = !DIFile(filename: "/usr/include/ctype.h", directory: "")
!1281 = !DIFile(filename: "/usr/lib/gcc/x86_64-linux-gnu/7.5.0/../../../../include/c++/7.5.0/cctype", directory: "")
!1282 = !DIImportedEntity(tag: DW_TAG_imported_declaration, scope: !54, entity: !1283, file: !1281, line: 65)
!1283 = !DISubprogram(name: "isalpha", scope: !1280, file: !1280, line: 109, type: !188, flags: DIFlagPrototyped, spFlags: DISPFlagOptimized)
!1284 = !DIImportedEntity(tag: DW_TAG_imported_declaration, scope: !54, entity: !1285, file: !1281, line: 66)
!1285 = !DISubprogram(name: "iscntrl", scope: !1280, file: !1280, line: 110, type: !188, flags: DIFlagPrototyped, spFlags: DISPFlagOptimized)
!1286 = !DIImportedEntity(tag: DW_TAG_imported_declaration, scope: !54, entity: !1287, file: !1281, line: 67)
!1287 = !DISubprogram(name: "isdigit", scope: !1280, file: !1280, line: 111, type: !188, flags: DIFlagPrototyped, spFlags: DISPFlagOptimized)
!1288 = !DIImportedEntity(tag: DW_TAG_imported_declaration, scope: !54, entity: !1289, file: !1281, line: 68)
!1289 = !DISubprogram(name: "isgraph", scope: !1280, file: !1280, line: 113, type: !188, flags: DIFlagPrototyped, spFlags: DISPFlagOptimized)
!1290 = !DIImportedEntity(tag: DW_TAG_imported_declaration, scope: !54, entity: !1291, file: !1281, line: 69)
!1291 = !DISubprogram(name: "islower", scope: !1280, file: !1280, line: 112, type: !188, flags: DIFlagPrototyped, spFlags: DISPFlagOptimized)
!1292 = !DIImportedEntity(tag: DW_TAG_imported_declaration, scope: !54, entity: !1293, file: !1281, line: 70)
!1293 = !DISubprogram(name: "isprint", scope: !1280, file: !1280, line: 114, type: !188, flags: DIFlagPrototyped, spFlags: DISPFlagOptimized)
!1294 = !DIImportedEntity(tag: DW_TAG_imported_declaration, scope: !54, entity: !1295, file: !1281, line: 71)
!1295 = !DISubprogram(name: "ispunct", scope: !1280, file: !1280, line: 115, type: !188, flags: DIFlagPrototyped, spFlags: DISPFlagOptimized)
!1296 = !DIImportedEntity(tag: DW_TAG_imported_declaration, scope: !54, entity: !1297, file: !1281, line: 72)
!1297 = !DISubprogram(name: "isspace", scope: !1280, file: !1280, line: 116, type: !188, flags: DIFlagPrototyped, spFlags: DISPFlagOptimized)
!1298 = !DIImportedEntity(tag: DW_TAG_imported_declaration, scope: !54, entity: !1299, file: !1281, line: 73)
!1299 = !DISubprogram(name: "isupper", scope: !1280, file: !1280, line: 117, type: !188, flags: DIFlagPrototyped, spFlags: DISPFlagOptimized)
!1300 = !DIImportedEntity(tag: DW_TAG_imported_declaration, scope: !54, entity: !1301, file: !1281, line: 74)
!1301 = !DISubprogram(name: "isxdigit", scope: !1280, file: !1280, line: 118, type: !188, flags: DIFlagPrototyped, spFlags: DISPFlagOptimized)
!1302 = !DIImportedEntity(tag: DW_TAG_imported_declaration, scope: !54, entity: !1303, file: !1281, line: 75)
!1303 = !DISubprogram(name: "tolower", scope: !1280, file: !1280, line: 122, type: !188, flags: DIFlagPrototyped, spFlags: DISPFlagOptimized)
!1304 = !DIImportedEntity(tag: DW_TAG_imported_declaration, scope: !54, entity: !1305, file: !1281, line: 76)
!1305 = !DISubprogram(name: "toupper", scope: !1280, file: !1280, line: 125, type: !188, flags: DIFlagPrototyped, spFlags: DISPFlagOptimized)
!1306 = !DIImportedEntity(tag: DW_TAG_imported_declaration, scope: !54, entity: !1307, file: !1281, line: 87)
!1307 = !DISubprogram(name: "isblank", scope: !1280, file: !1280, line: 130, type: !188, flags: DIFlagPrototyped, spFlags: DISPFlagOptimized)
!1308 = !DIImportedEntity(tag: DW_TAG_imported_declaration, scope: !54, entity: !1309, file: !1311, line: 98)
!1309 = !DIDerivedType(tag: DW_TAG_typedef, name: "FILE", file: !1310, line: 7, baseType: !913)
!1310 = !DIFile(filename: "/usr/include/x86_64-linux-gnu/bits/types/FILE.h", directory: "")
!1311 = !DIFile(filename: "/usr/lib/gcc/x86_64-linux-gnu/7.5.0/../../../../include/c++/7.5.0/cstdio", directory: "")
!1312 = !DIImportedEntity(tag: DW_TAG_imported_declaration, scope: !54, entity: !1313, file: !1311, line: 99)
!1313 = !DIDerivedType(tag: DW_TAG_typedef, name: "fpos_t", file: !1314, line: 78, baseType: !1315)
!1314 = !DIFile(filename: "/usr/include/stdio.h", directory: "")
!1315 = !DIDerivedType(tag: DW_TAG_typedef, name: "_G_fpos_t", file: !1316, line: 30, baseType: !1317)
!1316 = !DIFile(filename: "/usr/include/x86_64-linux-gnu/bits/_G_config.h", directory: "")
!1317 = distinct !DICompositeType(tag: DW_TAG_structure_type, file: !1316, line: 26, flags: DIFlagFwdDecl, identifier: "_ZTS9_G_fpos_t")
!1318 = !DIImportedEntity(tag: DW_TAG_imported_declaration, scope: !54, entity: !1319, file: !1311, line: 101)
!1319 = !DISubprogram(name: "clearerr", scope: !1314, file: !1314, line: 757, type: !1320, flags: DIFlagPrototyped, spFlags: DISPFlagOptimized)
!1320 = !DISubroutineType(types: !1321)
!1321 = !{null, !1322}
!1322 = !DIDerivedType(tag: DW_TAG_pointer_type, baseType: !1309, size: 64)
!1323 = !DIImportedEntity(tag: DW_TAG_imported_declaration, scope: !54, entity: !1324, file: !1311, line: 102)
!1324 = !DISubprogram(name: "fclose", scope: !1314, file: !1314, line: 199, type: !1325, flags: DIFlagPrototyped, spFlags: DISPFlagOptimized)
!1325 = !DISubroutineType(types: !1326)
!1326 = !{!20, !1322}
!1327 = !DIImportedEntity(tag: DW_TAG_imported_declaration, scope: !54, entity: !1328, file: !1311, line: 103)
!1328 = !DISubprogram(name: "feof", scope: !1314, file: !1314, line: 759, type: !1325, flags: DIFlagPrototyped, spFlags: DISPFlagOptimized)
!1329 = !DIImportedEntity(tag: DW_TAG_imported_declaration, scope: !54, entity: !1330, file: !1311, line: 104)
!1330 = !DISubprogram(name: "ferror", scope: !1314, file: !1314, line: 761, type: !1325, flags: DIFlagPrototyped, spFlags: DISPFlagOptimized)
!1331 = !DIImportedEntity(tag: DW_TAG_imported_declaration, scope: !54, entity: !1332, file: !1311, line: 105)
!1332 = !DISubprogram(name: "fflush", scope: !1314, file: !1314, line: 204, type: !1325, flags: DIFlagPrototyped, spFlags: DISPFlagOptimized)
!1333 = !DIImportedEntity(tag: DW_TAG_imported_declaration, scope: !54, entity: !1334, file: !1311, line: 106)
!1334 = !DISubprogram(name: "fgetc", scope: !1314, file: !1314, line: 477, type: !1325, flags: DIFlagPrototyped, spFlags: DISPFlagOptimized)
!1335 = !DIImportedEntity(tag: DW_TAG_imported_declaration, scope: !54, entity: !1336, file: !1311, line: 107)
!1336 = !DISubprogram(name: "fgetpos", scope: !1314, file: !1314, line: 731, type: !1337, flags: DIFlagPrototyped, spFlags: DISPFlagOptimized)
!1337 = !DISubroutineType(types: !1338)
!1338 = !{!20, !1339, !1340}
!1339 = !DIDerivedType(tag: DW_TAG_restrict_type, baseType: !1322)
!1340 = !DIDerivedType(tag: DW_TAG_restrict_type, baseType: !1341)
!1341 = !DIDerivedType(tag: DW_TAG_pointer_type, baseType: !1313, size: 64)
!1342 = !DIImportedEntity(tag: DW_TAG_imported_declaration, scope: !54, entity: !1343, file: !1311, line: 108)
!1343 = !DISubprogram(name: "fgets", scope: !1314, file: !1314, line: 564, type: !1344, flags: DIFlagPrototyped, spFlags: DISPFlagOptimized)
!1344 = !DISubroutineType(types: !1345)
!1345 = !{!621, !688, !20, !1339}
!1346 = !DIImportedEntity(tag: DW_TAG_imported_declaration, scope: !54, entity: !1347, file: !1311, line: 109)
!1347 = !DISubprogram(name: "fopen", scope: !1314, file: !1314, line: 232, type: !1348, flags: DIFlagPrototyped, spFlags: DISPFlagOptimized)
!1348 = !DISubroutineType(types: !1349)
!1349 = !{!1322, !645, !645}
!1350 = !DIImportedEntity(tag: DW_TAG_imported_declaration, scope: !54, entity: !1351, file: !1311, line: 110)
!1351 = !DISubprogram(name: "fprintf", scope: !1314, file: !1314, line: 312, type: !1352, flags: DIFlagPrototyped, spFlags: DISPFlagOptimized)
!1352 = !DISubroutineType(types: !1353)
!1353 = !{!20, !1339, !645, null}
!1354 = !DIImportedEntity(tag: DW_TAG_imported_declaration, scope: !54, entity: !1355, file: !1311, line: 111)
!1355 = !DISubprogram(name: "fputc", scope: !1314, file: !1314, line: 517, type: !1356, flags: DIFlagPrototyped, spFlags: DISPFlagOptimized)
!1356 = !DISubroutineType(types: !1357)
!1357 = !{!20, !20, !1322}
!1358 = !DIImportedEntity(tag: DW_TAG_imported_declaration, scope: !54, entity: !1359, file: !1311, line: 112)
!1359 = !DISubprogram(name: "fputs", scope: !1314, file: !1314, line: 626, type: !1360, flags: DIFlagPrototyped, spFlags: DISPFlagOptimized)
!1360 = !DISubroutineType(types: !1361)
!1361 = !{!20, !645, !1339}
!1362 = !DIImportedEntity(tag: DW_TAG_imported_declaration, scope: !54, entity: !1363, file: !1311, line: 113)
!1363 = !DISubprogram(name: "fread", scope: !1314, file: !1314, line: 646, type: !1364, flags: DIFlagPrototyped, spFlags: DISPFlagOptimized)
!1364 = !DISubroutineType(types: !1365)
!1365 = !{!100, !817, !100, !100, !1339}
!1366 = !DIImportedEntity(tag: DW_TAG_imported_declaration, scope: !54, entity: !1367, file: !1311, line: 114)
!1367 = !DISubprogram(name: "freopen", scope: !1314, file: !1314, line: 238, type: !1368, flags: DIFlagPrototyped, spFlags: DISPFlagOptimized)
!1368 = !DISubroutineType(types: !1369)
!1369 = !{!1322, !645, !645, !1339}
!1370 = !DIImportedEntity(tag: DW_TAG_imported_declaration, scope: !54, entity: !1371, file: !1311, line: 115)
!1371 = !DISubprogram(name: "fscanf", scope: !1314, file: !1314, line: 377, type: !1352, flags: DIFlagPrototyped, spFlags: DISPFlagOptimized)
!1372 = !DIImportedEntity(tag: DW_TAG_imported_declaration, scope: !54, entity: !1373, file: !1311, line: 116)
!1373 = !DISubprogram(name: "fseek", scope: !1314, file: !1314, line: 684, type: !1374, flags: DIFlagPrototyped, spFlags: DISPFlagOptimized)
!1374 = !DISubroutineType(types: !1375)
!1375 = !{!20, !1322, !432, !20}
!1376 = !DIImportedEntity(tag: DW_TAG_imported_declaration, scope: !54, entity: !1377, file: !1311, line: 117)
!1377 = !DISubprogram(name: "fsetpos", scope: !1314, file: !1314, line: 736, type: !1378, flags: DIFlagPrototyped, spFlags: DISPFlagOptimized)
!1378 = !DISubroutineType(types: !1379)
!1379 = !{!20, !1322, !1380}
!1380 = !DIDerivedType(tag: DW_TAG_pointer_type, baseType: !1381, size: 64)
!1381 = !DIDerivedType(tag: DW_TAG_const_type, baseType: !1313)
!1382 = !DIImportedEntity(tag: DW_TAG_imported_declaration, scope: !54, entity: !1383, file: !1311, line: 118)
!1383 = !DISubprogram(name: "ftell", scope: !1314, file: !1314, line: 689, type: !1384, flags: DIFlagPrototyped, spFlags: DISPFlagOptimized)
!1384 = !DISubroutineType(types: !1385)
!1385 = !{!432, !1322}
!1386 = !DIImportedEntity(tag: DW_TAG_imported_declaration, scope: !54, entity: !1387, file: !1311, line: 119)
!1387 = !DISubprogram(name: "fwrite", scope: !1314, file: !1314, line: 652, type: !1388, flags: DIFlagPrototyped, spFlags: DISPFlagOptimized)
!1388 = !DISubroutineType(types: !1389)
!1389 = !{!100, !818, !100, !100, !1339}
!1390 = !DIImportedEntity(tag: DW_TAG_imported_declaration, scope: !54, entity: !1391, file: !1311, line: 120)
!1391 = !DISubprogram(name: "getc", scope: !1314, file: !1314, line: 478, type: !1325, flags: DIFlagPrototyped, spFlags: DISPFlagOptimized)
!1392 = !DIImportedEntity(tag: DW_TAG_imported_declaration, scope: !54, entity: !1393, file: !1311, line: 121)
!1393 = !DISubprogram(name: "getchar", scope: !1394, file: !1394, line: 44, type: !658, flags: DIFlagPrototyped, spFlags: DISPFlagOptimized)
!1394 = !DIFile(filename: "/usr/include/x86_64-linux-gnu/bits/stdio.h", directory: "")
!1395 = !DIImportedEntity(tag: DW_TAG_imported_declaration, scope: !54, entity: !1396, file: !1311, line: 126)
!1396 = !DISubprogram(name: "perror", scope: !1314, file: !1314, line: 775, type: !1397, flags: DIFlagPrototyped, spFlags: DISPFlagOptimized)
!1397 = !DISubroutineType(types: !1398)
!1398 = !{null, !451}
!1399 = !DIImportedEntity(tag: DW_TAG_imported_declaration, scope: !54, entity: !1400, file: !1311, line: 127)
!1400 = !DISubprogram(name: "printf", scope: !1314, file: !1314, line: 318, type: !1401, flags: DIFlagPrototyped, spFlags: DISPFlagOptimized)
!1401 = !DISubroutineType(types: !1402)
!1402 = !{!20, !645, null}
!1403 = !DIImportedEntity(tag: DW_TAG_imported_declaration, scope: !54, entity: !1404, file: !1311, line: 128)
!1404 = !DISubprogram(name: "putc", scope: !1314, file: !1314, line: 518, type: !1356, flags: DIFlagPrototyped, spFlags: DISPFlagOptimized)
!1405 = !DIImportedEntity(tag: DW_TAG_imported_declaration, scope: !54, entity: !1406, file: !1311, line: 129)
!1406 = !DISubprogram(name: "putchar", scope: !1394, file: !1394, line: 79, type: !188, flags: DIFlagPrototyped, spFlags: DISPFlagOptimized)
!1407 = !DIImportedEntity(tag: DW_TAG_imported_declaration, scope: !54, entity: !1408, file: !1311, line: 130)
!1408 = !DISubprogram(name: "puts", scope: !1314, file: !1314, line: 632, type: !583, flags: DIFlagPrototyped, spFlags: DISPFlagOptimized)
!1409 = !DIImportedEntity(tag: DW_TAG_imported_declaration, scope: !54, entity: !1410, file: !1311, line: 131)
!1410 = !DISubprogram(name: "remove", scope: !1314, file: !1314, line: 144, type: !583, flags: DIFlagPrototyped, spFlags: DISPFlagOptimized)
!1411 = !DIImportedEntity(tag: DW_TAG_imported_declaration, scope: !54, entity: !1412, file: !1311, line: 132)
!1412 = !DISubprogram(name: "rename", scope: !1314, file: !1314, line: 146, type: !833, flags: DIFlagPrototyped, spFlags: DISPFlagOptimized)
!1413 = !DIImportedEntity(tag: DW_TAG_imported_declaration, scope: !54, entity: !1414, file: !1311, line: 133)
!1414 = !DISubprogram(name: "rewind", scope: !1314, file: !1314, line: 694, type: !1320, flags: DIFlagPrototyped, spFlags: DISPFlagOptimized)
!1415 = !DIImportedEntity(tag: DW_TAG_imported_declaration, scope: !54, entity: !1416, file: !1311, line: 134)
!1416 = !DISubprogram(name: "scanf", scope: !1314, file: !1314, line: 383, type: !1401, flags: DIFlagPrototyped, spFlags: DISPFlagOptimized)
!1417 = !DIImportedEntity(tag: DW_TAG_imported_declaration, scope: !54, entity: !1418, file: !1311, line: 135)
!1418 = !DISubprogram(name: "setbuf", scope: !1314, file: !1314, line: 290, type: !1419, flags: DIFlagPrototyped, spFlags: DISPFlagOptimized)
!1419 = !DISubroutineType(types: !1420)
!1420 = !{null, !1339, !688}
!1421 = !DIImportedEntity(tag: DW_TAG_imported_declaration, scope: !54, entity: !1422, file: !1311, line: 136)
!1422 = !DISubprogram(name: "setvbuf", scope: !1314, file: !1314, line: 294, type: !1423, flags: DIFlagPrototyped, spFlags: DISPFlagOptimized)
!1423 = !DISubroutineType(types: !1424)
!1424 = !{!20, !1339, !688, !20, !100}
!1425 = !DIImportedEntity(tag: DW_TAG_imported_declaration, scope: !54, entity: !1426, file: !1311, line: 137)
!1426 = !DISubprogram(name: "sprintf", scope: !1314, file: !1314, line: 320, type: !1427, flags: DIFlagPrototyped, spFlags: DISPFlagOptimized)
!1427 = !DISubroutineType(types: !1428)
!1428 = !{!20, !688, !645, null}
!1429 = !DIImportedEntity(tag: DW_TAG_imported_declaration, scope: !54, entity: !1430, file: !1311, line: 138)
!1430 = !DISubprogram(name: "sscanf", scope: !1314, file: !1314, line: 385, type: !1431, flags: DIFlagPrototyped, spFlags: DISPFlagOptimized)
!1431 = !DISubroutineType(types: !1432)
!1432 = !{!20, !645, !645, null}
!1433 = !DIImportedEntity(tag: DW_TAG_imported_declaration, scope: !54, entity: !1434, file: !1311, line: 139)
!1434 = !DISubprogram(name: "tmpfile", scope: !1314, file: !1314, line: 159, type: !1435, flags: DIFlagPrototyped, spFlags: DISPFlagOptimized)
!1435 = !DISubroutineType(types: !1436)
!1436 = !{!1322}
!1437 = !DIImportedEntity(tag: DW_TAG_imported_declaration, scope: !54, entity: !1438, file: !1311, line: 141)
!1438 = !DISubprogram(name: "tmpnam", scope: !1314, file: !1314, line: 173, type: !1439, flags: DIFlagPrototyped, spFlags: DISPFlagOptimized)
!1439 = !DISubroutineType(types: !1440)
!1440 = !{!621, !621}
!1441 = !DIImportedEntity(tag: DW_TAG_imported_declaration, scope: !54, entity: !1442, file: !1311, line: 143)
!1442 = !DISubprogram(name: "ungetc", scope: !1314, file: !1314, line: 639, type: !1356, flags: DIFlagPrototyped, spFlags: DISPFlagOptimized)
!1443 = !DIImportedEntity(tag: DW_TAG_imported_declaration, scope: !54, entity: !1444, file: !1311, line: 144)
!1444 = !DISubprogram(name: "vfprintf", scope: !1314, file: !1314, line: 327, type: !1445, flags: DIFlagPrototyped, spFlags: DISPFlagOptimized)
!1445 = !DISubroutineType(types: !1446)
!1446 = !{!20, !1339, !645, !1033}
!1447 = !DIImportedEntity(tag: DW_TAG_imported_declaration, scope: !54, entity: !1448, file: !1311, line: 145)
!1448 = !DISubprogram(name: "vprintf", scope: !1394, file: !1394, line: 36, type: !1449, flags: DIFlagPrototyped, spFlags: DISPFlagOptimized)
!1449 = !DISubroutineType(types: !1450)
!1450 = !{!20, !645, !1033}
!1451 = !DIImportedEntity(tag: DW_TAG_imported_declaration, scope: !54, entity: !1452, file: !1311, line: 146)
!1452 = !DISubprogram(name: "vsprintf", scope: !1314, file: !1314, line: 335, type: !1453, flags: DIFlagPrototyped, spFlags: DISPFlagOptimized)
!1453 = !DISubroutineType(types: !1454)
!1454 = !{!20, !688, !645, !1033}
!1455 = !DIImportedEntity(tag: DW_TAG_imported_declaration, scope: !5, entity: !1456, file: !1311, line: 175)
!1456 = !DISubprogram(name: "snprintf", scope: !1314, file: !1314, line: 340, type: !1457, flags: DIFlagPrototyped, spFlags: DISPFlagOptimized)
!1457 = !DISubroutineType(types: !1458)
!1458 = !{!20, !688, !100, !645, null}
!1459 = !DIImportedEntity(tag: DW_TAG_imported_declaration, scope: !5, entity: !1460, file: !1311, line: 176)
!1460 = !DISubprogram(name: "vfscanf", scope: !1314, file: !1314, line: 420, type: !1445, flags: DIFlagPrototyped, spFlags: DISPFlagOptimized)
!1461 = !DIImportedEntity(tag: DW_TAG_imported_declaration, scope: !5, entity: !1462, file: !1311, line: 177)
!1462 = !DISubprogram(name: "vscanf", scope: !1314, file: !1314, line: 428, type: !1449, flags: DIFlagPrototyped, spFlags: DISPFlagOptimized)
!1463 = !DIImportedEntity(tag: DW_TAG_imported_declaration, scope: !5, entity: !1464, file: !1311, line: 178)
!1464 = !DISubprogram(name: "vsnprintf", scope: !1314, file: !1314, line: 344, type: !1465, flags: DIFlagPrototyped, spFlags: DISPFlagOptimized)
!1465 = !DISubroutineType(types: !1466)
!1466 = !{!20, !688, !100, !645, !1033}
!1467 = !DIImportedEntity(tag: DW_TAG_imported_declaration, scope: !5, entity: !1468, file: !1311, line: 179)
!1468 = !DISubprogram(name: "vsscanf", scope: !1314, file: !1314, line: 432, type: !1469, flags: DIFlagPrototyped, spFlags: DISPFlagOptimized)
!1469 = !DISubroutineType(types: !1470)
!1470 = !{!20, !645, !645, !1033}
!1471 = !DIImportedEntity(tag: DW_TAG_imported_declaration, scope: !54, entity: !1456, file: !1311, line: 185)
!1472 = !DIImportedEntity(tag: DW_TAG_imported_declaration, scope: !54, entity: !1460, file: !1311, line: 186)
!1473 = !DIImportedEntity(tag: DW_TAG_imported_declaration, scope: !54, entity: !1462, file: !1311, line: 187)
!1474 = !DIImportedEntity(tag: DW_TAG_imported_declaration, scope: !54, entity: !1464, file: !1311, line: 188)
!1475 = !DIImportedEntity(tag: DW_TAG_imported_declaration, scope: !54, entity: !1468, file: !1311, line: 189)
!1476 = !DIImportedEntity(tag: DW_TAG_imported_declaration, scope: !54, entity: !1477, file: !1481, line: 82)
!1477 = !DIDerivedType(tag: DW_TAG_typedef, name: "wctrans_t", file: !1478, line: 48, baseType: !1479)
!1478 = !DIFile(filename: "/usr/include/wctype.h", directory: "")
!1479 = !DIDerivedType(tag: DW_TAG_pointer_type, baseType: !1480, size: 64)
!1480 = !DIDerivedType(tag: DW_TAG_const_type, baseType: !1203)
!1481 = !DIFile(filename: "/usr/lib/gcc/x86_64-linux-gnu/7.5.0/../../../../include/c++/7.5.0/cwctype", directory: "")
!1482 = !DIImportedEntity(tag: DW_TAG_imported_declaration, scope: !54, entity: !1483, file: !1481, line: 83)
!1483 = !DIDerivedType(tag: DW_TAG_typedef, name: "wctype_t", file: !1484, line: 38, baseType: !102)
!1484 = !DIFile(filename: "/usr/include/x86_64-linux-gnu/bits/wctype-wchar.h", directory: "")
!1485 = !DIImportedEntity(tag: DW_TAG_imported_declaration, scope: !54, entity: !899, file: !1481, line: 84)
!1486 = !DIImportedEntity(tag: DW_TAG_imported_declaration, scope: !54, entity: !1487, file: !1481, line: 86)
!1487 = !DISubprogram(name: "iswalnum", scope: !1484, file: !1484, line: 95, type: !1134, flags: DIFlagPrototyped, spFlags: DISPFlagOptimized)
!1488 = !DIImportedEntity(tag: DW_TAG_imported_declaration, scope: !54, entity: !1489, file: !1481, line: 87)
!1489 = !DISubprogram(name: "iswalpha", scope: !1484, file: !1484, line: 101, type: !1134, flags: DIFlagPrototyped, spFlags: DISPFlagOptimized)
!1490 = !DIImportedEntity(tag: DW_TAG_imported_declaration, scope: !54, entity: !1491, file: !1481, line: 89)
!1491 = !DISubprogram(name: "iswblank", scope: !1484, file: !1484, line: 146, type: !1134, flags: DIFlagPrototyped, spFlags: DISPFlagOptimized)
!1492 = !DIImportedEntity(tag: DW_TAG_imported_declaration, scope: !54, entity: !1493, file: !1481, line: 91)
!1493 = !DISubprogram(name: "iswcntrl", scope: !1484, file: !1484, line: 104, type: !1134, flags: DIFlagPrototyped, spFlags: DISPFlagOptimized)
!1494 = !DIImportedEntity(tag: DW_TAG_imported_declaration, scope: !54, entity: !1495, file: !1481, line: 92)
!1495 = !DISubprogram(name: "iswctype", scope: !1484, file: !1484, line: 159, type: !1496, flags: DIFlagPrototyped, spFlags: DISPFlagOptimized)
!1496 = !DISubroutineType(types: !1497)
!1497 = !{!20, !899, !1483}
!1498 = !DIImportedEntity(tag: DW_TAG_imported_declaration, scope: !54, entity: !1499, file: !1481, line: 93)
!1499 = !DISubprogram(name: "iswdigit", scope: !1484, file: !1484, line: 108, type: !1134, flags: DIFlagPrototyped, spFlags: DISPFlagOptimized)
!1500 = !DIImportedEntity(tag: DW_TAG_imported_declaration, scope: !54, entity: !1501, file: !1481, line: 94)
!1501 = !DISubprogram(name: "iswgraph", scope: !1484, file: !1484, line: 112, type: !1134, flags: DIFlagPrototyped, spFlags: DISPFlagOptimized)
!1502 = !DIImportedEntity(tag: DW_TAG_imported_declaration, scope: !54, entity: !1503, file: !1481, line: 95)
!1503 = !DISubprogram(name: "iswlower", scope: !1484, file: !1484, line: 117, type: !1134, flags: DIFlagPrototyped, spFlags: DISPFlagOptimized)
!1504 = !DIImportedEntity(tag: DW_TAG_imported_declaration, scope: !54, entity: !1505, file: !1481, line: 96)
!1505 = !DISubprogram(name: "iswprint", scope: !1484, file: !1484, line: 120, type: !1134, flags: DIFlagPrototyped, spFlags: DISPFlagOptimized)
!1506 = !DIImportedEntity(tag: DW_TAG_imported_declaration, scope: !54, entity: !1507, file: !1481, line: 97)
!1507 = !DISubprogram(name: "iswpunct", scope: !1484, file: !1484, line: 125, type: !1134, flags: DIFlagPrototyped, spFlags: DISPFlagOptimized)
!1508 = !DIImportedEntity(tag: DW_TAG_imported_declaration, scope: !54, entity: !1509, file: !1481, line: 98)
!1509 = !DISubprogram(name: "iswspace", scope: !1484, file: !1484, line: 130, type: !1134, flags: DIFlagPrototyped, spFlags: DISPFlagOptimized)
!1510 = !DIImportedEntity(tag: DW_TAG_imported_declaration, scope: !54, entity: !1511, file: !1481, line: 99)
!1511 = !DISubprogram(name: "iswupper", scope: !1484, file: !1484, line: 135, type: !1134, flags: DIFlagPrototyped, spFlags: DISPFlagOptimized)
!1512 = !DIImportedEntity(tag: DW_TAG_imported_declaration, scope: !54, entity: !1513, file: !1481, line: 100)
!1513 = !DISubprogram(name: "iswxdigit", scope: !1484, file: !1484, line: 140, type: !1134, flags: DIFlagPrototyped, spFlags: DISPFlagOptimized)
!1514 = !DIImportedEntity(tag: DW_TAG_imported_declaration, scope: !54, entity: !1515, file: !1481, line: 101)
!1515 = !DISubprogram(name: "towctrans", scope: !1478, file: !1478, line: 55, type: !1516, flags: DIFlagPrototyped, spFlags: DISPFlagOptimized)
!1516 = !DISubroutineType(types: !1517)
!1517 = !{!899, !899, !1477}
!1518 = !DIImportedEntity(tag: DW_TAG_imported_declaration, scope: !54, entity: !1519, file: !1481, line: 102)
!1519 = !DISubprogram(name: "towlower", scope: !1484, file: !1484, line: 166, type: !1520, flags: DIFlagPrototyped, spFlags: DISPFlagOptimized)
!1520 = !DISubroutineType(types: !1521)
!1521 = !{!899, !899}
!1522 = !DIImportedEntity(tag: DW_TAG_imported_declaration, scope: !54, entity: !1523, file: !1481, line: 103)
!1523 = !DISubprogram(name: "towupper", scope: !1484, file: !1484, line: 169, type: !1520, flags: DIFlagPrototyped, spFlags: DISPFlagOptimized)
!1524 = !DIImportedEntity(tag: DW_TAG_imported_declaration, scope: !54, entity: !1525, file: !1481, line: 104)
!1525 = !DISubprogram(name: "wctrans", scope: !1478, file: !1478, line: 52, type: !1526, flags: DIFlagPrototyped, spFlags: DISPFlagOptimized)
!1526 = !DISubroutineType(types: !1527)
!1527 = !{!1477, !451}
!1528 = !DIImportedEntity(tag: DW_TAG_imported_declaration, scope: !54, entity: !1529, file: !1481, line: 105)
!1529 = !DISubprogram(name: "wctype", scope: !1484, file: !1484, line: 155, type: !1530, flags: DIFlagPrototyped, spFlags: DISPFlagOptimized)
!1530 = !DISubroutineType(types: !1531)
!1531 = !{!1483, !451}
!1532 = !DIImportedEntity(tag: DW_TAG_imported_declaration, scope: !54, entity: !3, file: !1533, line: 85)
!1533 = !DIFile(filename: "/usr/lib/gcc/x86_64-linux-gnu/7.5.0/../../../../include/c++/7.5.0/bits/shared_ptr_base.h", directory: "")
!1534 = !DIImportedEntity(tag: DW_TAG_imported_declaration, scope: !54, entity: !1535, file: !1533, line: 86)
!1535 = !DIGlobalVariable(name: "__default_lock_policy", linkageName: "_ZN9__gnu_cxxL21__default_lock_policyE", scope: !5, file: !4, line: 53, type: !1536, isLocal: true, isDefinition: false)
!1536 = !DIDerivedType(tag: DW_TAG_const_type, baseType: !3)
!1537 = !DIImportedEntity(tag: DW_TAG_imported_declaration, scope: !54, entity: !1538, file: !1541, line: 60)
!1538 = !DIDerivedType(tag: DW_TAG_typedef, name: "clock_t", file: !1539, line: 7, baseType: !1540)
!1539 = !DIFile(filename: "/usr/include/x86_64-linux-gnu/bits/types/clock_t.h", directory: "")
!1540 = !DIDerivedType(tag: DW_TAG_typedef, name: "__clock_t", file: !67, line: 144, baseType: !432)
!1541 = !DIFile(filename: "/usr/lib/gcc/x86_64-linux-gnu/7.5.0/../../../../include/c++/7.5.0/ctime", directory: "")
!1542 = !DIImportedEntity(tag: DW_TAG_imported_declaration, scope: !54, entity: !1543, file: !1541, line: 61)
!1543 = !DIDerivedType(tag: DW_TAG_typedef, name: "time_t", file: !1544, line: 7, baseType: !1545)
!1544 = !DIFile(filename: "/usr/include/x86_64-linux-gnu/bits/types/time_t.h", directory: "")
!1545 = !DIDerivedType(tag: DW_TAG_typedef, name: "__time_t", file: !67, line: 148, baseType: !432)
!1546 = !DIImportedEntity(tag: DW_TAG_imported_declaration, scope: !54, entity: !1083, file: !1541, line: 62)
!1547 = !DIImportedEntity(tag: DW_TAG_imported_declaration, scope: !54, entity: !1548, file: !1541, line: 64)
!1548 = !DISubprogram(name: "clock", scope: !1549, file: !1549, line: 72, type: !1550, flags: DIFlagPrototyped, spFlags: DISPFlagOptimized)
!1549 = !DIFile(filename: "/usr/include/time.h", directory: "")
!1550 = !DISubroutineType(types: !1551)
!1551 = !{!1538}
!1552 = !DIImportedEntity(tag: DW_TAG_imported_declaration, scope: !54, entity: !1553, file: !1541, line: 65)
!1553 = !DISubprogram(name: "difftime", scope: !1549, file: !1549, line: 78, type: !1554, flags: DIFlagPrototyped, spFlags: DISPFlagOptimized)
!1554 = !DISubroutineType(types: !1555)
!1555 = !{!214, !1543, !1543}
!1556 = !DIImportedEntity(tag: DW_TAG_imported_declaration, scope: !54, entity: !1557, file: !1541, line: 66)
!1557 = !DISubprogram(name: "mktime", scope: !1549, file: !1549, line: 82, type: !1558, flags: DIFlagPrototyped, spFlags: DISPFlagOptimized)
!1558 = !DISubroutineType(types: !1559)
!1559 = !{!1543, !1560}
!1560 = !DIDerivedType(tag: DW_TAG_pointer_type, baseType: !1083, size: 64)
!1561 = !DIImportedEntity(tag: DW_TAG_imported_declaration, scope: !54, entity: !1562, file: !1541, line: 67)
!1562 = !DISubprogram(name: "time", scope: !1549, file: !1549, line: 75, type: !1563, flags: DIFlagPrototyped, spFlags: DISPFlagOptimized)
!1563 = !DISubroutineType(types: !1564)
!1564 = !{!1543, !1565}
!1565 = !DIDerivedType(tag: DW_TAG_pointer_type, baseType: !1543, size: 64)
!1566 = !DIImportedEntity(tag: DW_TAG_imported_declaration, scope: !54, entity: !1567, file: !1541, line: 68)
!1567 = !DISubprogram(name: "asctime", scope: !1549, file: !1549, line: 139, type: !1568, flags: DIFlagPrototyped, spFlags: DISPFlagOptimized)
!1568 = !DISubroutineType(types: !1569)
!1569 = !{!621, !1081}
!1570 = !DIImportedEntity(tag: DW_TAG_imported_declaration, scope: !54, entity: !1571, file: !1541, line: 69)
!1571 = !DISubprogram(name: "ctime", scope: !1549, file: !1549, line: 142, type: !1572, flags: DIFlagPrototyped, spFlags: DISPFlagOptimized)
!1572 = !DISubroutineType(types: !1573)
!1573 = !{!621, !1574}
!1574 = !DIDerivedType(tag: DW_TAG_pointer_type, baseType: !1575, size: 64)
!1575 = !DIDerivedType(tag: DW_TAG_const_type, baseType: !1543)
!1576 = !DIImportedEntity(tag: DW_TAG_imported_declaration, scope: !54, entity: !1577, file: !1541, line: 70)
!1577 = !DISubprogram(name: "gmtime", scope: !1549, file: !1549, line: 119, type: !1578, flags: DIFlagPrototyped, spFlags: DISPFlagOptimized)
!1578 = !DISubroutineType(types: !1579)
!1579 = !{!1560, !1574}
!1580 = !DIImportedEntity(tag: DW_TAG_imported_declaration, scope: !54, entity: !1581, file: !1541, line: 71)
!1581 = !DISubprogram(name: "localtime", scope: !1549, file: !1549, line: 123, type: !1578, flags: DIFlagPrototyped, spFlags: DISPFlagOptimized)
!1582 = !DIImportedEntity(tag: DW_TAG_imported_declaration, scope: !54, entity: !1583, file: !1541, line: 72)
!1583 = !DISubprogram(name: "strftime", scope: !1549, file: !1549, line: 88, type: !1584, flags: DIFlagPrototyped, spFlags: DISPFlagOptimized)
!1584 = !DISubroutineType(types: !1585)
!1585 = !{!100, !688, !100, !645, !1080}
!1586 = !{i32 7, !"Dwarf Version", i32 4}
!1587 = !{i32 2, !"Debug Info Version", i32 3}
!1588 = !{i32 1, !"wchar_size", i32 4}
!1589 = !{i32 7, !"PIC Level", i32 2}
!1590 = !{!"clang version 11.0.0 (git@github.com:llvm/llvm-project 01d5be4c3f6d473b638a8241e63e0f2a412878a1)"}
!1591 = distinct !DISubprogram(name: "columnWidthUTF8", linkageName: "_ZN4llvm3sys7unicode15columnWidthUTF8ENS_9StringRefE", scope: !18, file: !78, line: 343, type: !1592, scopeLine: 343, flags: DIFlagPrototyped | DIFlagAllCallsDescribed, spFlags: DISPFlagDefinition | DISPFlagOptimized, unit: !0, retainedNodes: !1787)
!1592 = !DISubroutineType(types: !1593)
!1593 = !{!20, !1594}
!1594 = distinct !DICompositeType(tag: DW_TAG_class_type, name: "StringRef", scope: !13, file: !1595, line: 41, size: 128, flags: DIFlagTypePassByValue | DIFlagNonTrivial, elements: !1596, identifier: "_ZTSN4llvm9StringRefE")
!1595 = !DIFile(filename: "/faster/fs/llvm34/include/llvm/ADT/StringRef.h", directory: "")
!1596 = !{!1597, !1599, !1600, !1601, !1604, !1605, !1606, !1610, !1613, !1616, !1626, !1632, !1633, !1636, !1639, !1642, !1645, !1646, !1649, !1650, !1653, !1654, !1655, !1658, !1661, !1664, !1665, !1666, !1667, !1668, !1669, !1672, !1675, !1676, !1679, !1680, !1681, !1682, !1683, !1684, !1685, !1686, !1687, !1690, !1691, !1696, !1697, !1698, !1701, !1704, !1705, !1706, !1773, !1776, !1781, !1782, !1785, !1786}
!1597 = !DIDerivedType(tag: DW_TAG_member, name: "npos", scope: !1594, file: !1595, line: 45, baseType: !1598, flags: DIFlagPublic | DIFlagStaticMember, extraData: i64 -1)
!1598 = !DIDerivedType(tag: DW_TAG_const_type, baseType: !100)
!1599 = !DIDerivedType(tag: DW_TAG_member, name: "Data", scope: !1594, file: !1595, line: 50, baseType: !451, size: 64)
!1600 = !DIDerivedType(tag: DW_TAG_member, name: "Length", scope: !1594, file: !1595, line: 53, baseType: !100, size: 64, offset: 64)
!1601 = !DISubprogram(name: "min", linkageName: "_ZN4llvm9StringRef3minEmm", scope: !1594, file: !1595, line: 58, type: !1602, scopeLine: 58, flags: DIFlagPrototyped | DIFlagStaticMember, spFlags: DISPFlagOptimized)
!1602 = !DISubroutineType(types: !1603)
!1603 = !{!100, !100, !100}
!1604 = !DISubprogram(name: "max", linkageName: "_ZN4llvm9StringRef3maxEmm", scope: !1594, file: !1595, line: 59, type: !1602, scopeLine: 59, flags: DIFlagPrototyped | DIFlagStaticMember, spFlags: DISPFlagOptimized)
!1605 = !DISubprogram(name: "compareMemory", linkageName: "_ZN4llvm9StringRef13compareMemoryEPKcS2_m", scope: !1594, file: !1595, line: 63, type: !857, scopeLine: 63, flags: DIFlagPrototyped | DIFlagStaticMember, spFlags: DISPFlagOptimized)
!1606 = !DISubprogram(name: "StringRef", scope: !1594, file: !1595, line: 73, type: !1607, scopeLine: 73, flags: DIFlagPublic | DIFlagPrototyped, spFlags: DISPFlagOptimized)
!1607 = !DISubroutineType(types: !1608)
!1608 = !{null, !1609}
!1609 = !DIDerivedType(tag: DW_TAG_pointer_type, baseType: !1594, size: 64, flags: DIFlagArtificial | DIFlagObjectPointer)
!1610 = !DISubprogram(name: "StringRef", scope: !1594, file: !1595, line: 76, type: !1611, scopeLine: 76, flags: DIFlagPublic | DIFlagPrototyped, spFlags: DISPFlagOptimized)
!1611 = !DISubroutineType(types: !1612)
!1612 = !{null, !1609, !451}
!1613 = !DISubprogram(name: "StringRef", scope: !1594, file: !1595, line: 83, type: !1614, scopeLine: 83, flags: DIFlagPublic | DIFlagPrototyped, spFlags: DISPFlagOptimized)
!1614 = !DISubroutineType(types: !1615)
!1615 = !{null, !1609, !451, !100}
!1616 = !DISubprogram(name: "StringRef", scope: !1594, file: !1595, line: 90, type: !1617, scopeLine: 90, flags: DIFlagPublic | DIFlagPrototyped, spFlags: DISPFlagOptimized)
!1617 = !DISubroutineType(types: !1618)
!1618 = !{null, !1609, !1619}
!1619 = !DIDerivedType(tag: DW_TAG_reference_type, baseType: !1620, size: 64)
!1620 = !DIDerivedType(tag: DW_TAG_const_type, baseType: !1621)
!1621 = !DIDerivedType(tag: DW_TAG_typedef, name: "string", scope: !1623, file: !1622, line: 74, baseType: !1624)
!1622 = !DIFile(filename: "/usr/lib/gcc/x86_64-linux-gnu/7.5.0/../../../../include/c++/7.5.0/bits/stringfwd.h", directory: "")
!1623 = !DINamespace(name: "__cxx11", scope: !54, exportSymbols: true)
!1624 = distinct !DICompositeType(tag: DW_TAG_class_type, name: "basic_string<char, std::char_traits<char>, std::allocator<char> >", scope: !1623, file: !1625, line: 1607, flags: DIFlagFwdDecl, identifier: "_ZTSNSt7__cxx1112basic_stringIcSt11char_traitsIcESaIcEEE")
!1625 = !DIFile(filename: "/usr/lib/gcc/x86_64-linux-gnu/7.5.0/../../../../include/c++/7.5.0/bits/basic_string.tcc", directory: "")
!1626 = !DISubprogram(name: "begin", linkageName: "_ZNK4llvm9StringRef5beginEv", scope: !1594, file: !1595, line: 97, type: !1627, scopeLine: 97, flags: DIFlagPublic | DIFlagPrototyped, spFlags: DISPFlagOptimized)
!1627 = !DISubroutineType(types: !1628)
!1628 = !{!1629, !1630}
!1629 = !DIDerivedType(tag: DW_TAG_typedef, name: "iterator", scope: !1594, file: !1595, line: 43, baseType: !451)
!1630 = !DIDerivedType(tag: DW_TAG_pointer_type, baseType: !1631, size: 64, flags: DIFlagArtificial | DIFlagObjectPointer)
!1631 = !DIDerivedType(tag: DW_TAG_const_type, baseType: !1594)
!1632 = !DISubprogram(name: "end", linkageName: "_ZNK4llvm9StringRef3endEv", scope: !1594, file: !1595, line: 99, type: !1627, scopeLine: 99, flags: DIFlagPublic | DIFlagPrototyped, spFlags: DISPFlagOptimized)
!1633 = !DISubprogram(name: "data", linkageName: "_ZNK4llvm9StringRef4dataEv", scope: !1594, file: !1595, line: 107, type: !1634, scopeLine: 107, flags: DIFlagPublic | DIFlagPrototyped, spFlags: DISPFlagOptimized)
!1634 = !DISubroutineType(types: !1635)
!1635 = !{!451, !1630}
!1636 = !DISubprogram(name: "empty", linkageName: "_ZNK4llvm9StringRef5emptyEv", scope: !1594, file: !1595, line: 110, type: !1637, scopeLine: 110, flags: DIFlagPublic | DIFlagPrototyped, spFlags: DISPFlagOptimized)
!1637 = !DISubroutineType(types: !1638)
!1638 = !{!57, !1630}
!1639 = !DISubprogram(name: "size", linkageName: "_ZNK4llvm9StringRef4sizeEv", scope: !1594, file: !1595, line: 113, type: !1640, scopeLine: 113, flags: DIFlagPublic | DIFlagPrototyped, spFlags: DISPFlagOptimized)
!1640 = !DISubroutineType(types: !1641)
!1641 = !{!100, !1630}
!1642 = !DISubprogram(name: "front", linkageName: "_ZNK4llvm9StringRef5frontEv", scope: !1594, file: !1595, line: 116, type: !1643, scopeLine: 116, flags: DIFlagPublic | DIFlagPrototyped, spFlags: DISPFlagOptimized)
!1643 = !DISubroutineType(types: !1644)
!1644 = !{!453, !1630}
!1645 = !DISubprogram(name: "back", linkageName: "_ZNK4llvm9StringRef4backEv", scope: !1594, file: !1595, line: 122, type: !1643, scopeLine: 122, flags: DIFlagPublic | DIFlagPrototyped, spFlags: DISPFlagOptimized)
!1646 = !DISubprogram(name: "equals", linkageName: "_ZNK4llvm9StringRef6equalsES0_", scope: !1594, file: !1595, line: 129, type: !1647, scopeLine: 129, flags: DIFlagPublic | DIFlagPrototyped, spFlags: DISPFlagOptimized)
!1647 = !DISubroutineType(types: !1648)
!1648 = !{!57, !1630, !1594}
!1649 = !DISubprogram(name: "equals_lower", linkageName: "_ZNK4llvm9StringRef12equals_lowerES0_", scope: !1594, file: !1595, line: 135, type: !1647, scopeLine: 135, flags: DIFlagPublic | DIFlagPrototyped, spFlags: DISPFlagOptimized)
!1650 = !DISubprogram(name: "compare", linkageName: "_ZNK4llvm9StringRef7compareES0_", scope: !1594, file: !1595, line: 141, type: !1651, scopeLine: 141, flags: DIFlagPublic | DIFlagPrototyped, spFlags: DISPFlagOptimized)
!1651 = !DISubroutineType(types: !1652)
!1652 = !{!20, !1630, !1594}
!1653 = !DISubprogram(name: "compare_lower", linkageName: "_ZNK4llvm9StringRef13compare_lowerES0_", scope: !1594, file: !1595, line: 153, type: !1651, scopeLine: 153, flags: DIFlagPublic | DIFlagPrototyped, spFlags: DISPFlagOptimized)
!1654 = !DISubprogram(name: "compare_numeric", linkageName: "_ZNK4llvm9StringRef15compare_numericES0_", scope: !1594, file: !1595, line: 157, type: !1651, scopeLine: 157, flags: DIFlagPublic | DIFlagPrototyped, spFlags: DISPFlagOptimized)
!1655 = !DISubprogram(name: "edit_distance", linkageName: "_ZNK4llvm9StringRef13edit_distanceES0_bj", scope: !1594, file: !1595, line: 177, type: !1656, scopeLine: 177, flags: DIFlagPublic | DIFlagPrototyped, spFlags: DISPFlagOptimized)
!1656 = !DISubroutineType(types: !1657)
!1657 = !{!6, !1630, !1594, !57, !6}
!1658 = !DISubprogram(name: "str", linkageName: "_ZNK4llvm9StringRef3strB5cxx11Ev", scope: !1594, file: !1595, line: 181, type: !1659, scopeLine: 181, flags: DIFlagPublic | DIFlagPrototyped, spFlags: DISPFlagOptimized)
!1659 = !DISubroutineType(types: !1660)
!1660 = !{!1621, !1630}
!1661 = !DISubprogram(name: "operator[]", linkageName: "_ZNK4llvm9StringRefixEm", scope: !1594, file: !1595, line: 190, type: !1662, scopeLine: 190, flags: DIFlagPublic | DIFlagPrototyped, spFlags: DISPFlagOptimized)
!1662 = !DISubroutineType(types: !1663)
!1663 = !{!453, !1630, !100}
!1664 = !DISubprogram(name: "operator basic_string", linkageName: "_ZNK4llvm9StringRefcvNSt7__cxx1112basic_stringIcSt11char_traitsIcESaIcEEEEv", scope: !1594, file: !1595, line: 199, type: !1659, scopeLine: 199, flags: DIFlagPublic | DIFlagPrototyped, spFlags: DISPFlagOptimized)
!1665 = !DISubprogram(name: "startswith", linkageName: "_ZNK4llvm9StringRef10startswithES0_", scope: !1594, file: !1595, line: 208, type: !1647, scopeLine: 208, flags: DIFlagPublic | DIFlagPrototyped, spFlags: DISPFlagOptimized)
!1666 = !DISubprogram(name: "startswith_lower", linkageName: "_ZNK4llvm9StringRef16startswith_lowerES0_", scope: !1594, file: !1595, line: 214, type: !1647, scopeLine: 214, flags: DIFlagPublic | DIFlagPrototyped, spFlags: DISPFlagOptimized)
!1667 = !DISubprogram(name: "endswith", linkageName: "_ZNK4llvm9StringRef8endswithES0_", scope: !1594, file: !1595, line: 217, type: !1647, scopeLine: 217, flags: DIFlagPublic | DIFlagPrototyped, spFlags: DISPFlagOptimized)
!1668 = !DISubprogram(name: "endswith_lower", linkageName: "_ZNK4llvm9StringRef14endswith_lowerES0_", scope: !1594, file: !1595, line: 223, type: !1647, scopeLine: 223, flags: DIFlagPublic | DIFlagPrototyped, spFlags: DISPFlagOptimized)
!1669 = !DISubprogram(name: "find", linkageName: "_ZNK4llvm9StringRef4findEcm", scope: !1594, file: !1595, line: 233, type: !1670, scopeLine: 233, flags: DIFlagPublic | DIFlagPrototyped, spFlags: DISPFlagOptimized)
!1670 = !DISubroutineType(types: !1671)
!1671 = !{!100, !1630, !453, !100}
!1672 = !DISubprogram(name: "find", linkageName: "_ZNK4llvm9StringRef4findES0_m", scope: !1594, file: !1595, line: 244, type: !1673, scopeLine: 244, flags: DIFlagPublic | DIFlagPrototyped, spFlags: DISPFlagOptimized)
!1673 = !DISubroutineType(types: !1674)
!1674 = !{!100, !1630, !1594, !100}
!1675 = !DISubprogram(name: "rfind", linkageName: "_ZNK4llvm9StringRef5rfindEcm", scope: !1594, file: !1595, line: 250, type: !1670, scopeLine: 250, flags: DIFlagPublic | DIFlagPrototyped, spFlags: DISPFlagOptimized)
!1676 = !DISubprogram(name: "rfind", linkageName: "_ZNK4llvm9StringRef5rfindES0_", scope: !1594, file: !1595, line: 265, type: !1677, scopeLine: 265, flags: DIFlagPublic | DIFlagPrototyped, spFlags: DISPFlagOptimized)
!1677 = !DISubroutineType(types: !1678)
!1678 = !{!100, !1630, !1594}
!1679 = !DISubprogram(name: "find_first_of", linkageName: "_ZNK4llvm9StringRef13find_first_ofEcm", scope: !1594, file: !1595, line: 269, type: !1670, scopeLine: 269, flags: DIFlagPublic | DIFlagPrototyped, spFlags: DISPFlagOptimized)
!1680 = !DISubprogram(name: "find_first_of", linkageName: "_ZNK4llvm9StringRef13find_first_ofES0_m", scope: !1594, file: !1595, line: 277, type: !1673, scopeLine: 277, flags: DIFlagPublic | DIFlagPrototyped, spFlags: DISPFlagOptimized)
!1681 = !DISubprogram(name: "find_first_not_of", linkageName: "_ZNK4llvm9StringRef17find_first_not_ofEcm", scope: !1594, file: !1595, line: 281, type: !1670, scopeLine: 281, flags: DIFlagPublic | DIFlagPrototyped, spFlags: DISPFlagOptimized)
!1682 = !DISubprogram(name: "find_first_not_of", linkageName: "_ZNK4llvm9StringRef17find_first_not_ofES0_m", scope: !1594, file: !1595, line: 287, type: !1673, scopeLine: 287, flags: DIFlagPublic | DIFlagPrototyped, spFlags: DISPFlagOptimized)
!1683 = !DISubprogram(name: "find_last_of", linkageName: "_ZNK4llvm9StringRef12find_last_ofEcm", scope: !1594, file: !1595, line: 291, type: !1670, scopeLine: 291, flags: DIFlagPublic | DIFlagPrototyped, spFlags: DISPFlagOptimized)
!1684 = !DISubprogram(name: "find_last_of", linkageName: "_ZNK4llvm9StringRef12find_last_ofES0_m", scope: !1594, file: !1595, line: 299, type: !1673, scopeLine: 299, flags: DIFlagPublic | DIFlagPrototyped, spFlags: DISPFlagOptimized)
!1685 = !DISubprogram(name: "find_last_not_of", linkageName: "_ZNK4llvm9StringRef16find_last_not_ofEcm", scope: !1594, file: !1595, line: 303, type: !1670, scopeLine: 303, flags: DIFlagPublic | DIFlagPrototyped, spFlags: DISPFlagOptimized)
!1686 = !DISubprogram(name: "find_last_not_of", linkageName: "_ZNK4llvm9StringRef16find_last_not_ofES0_m", scope: !1594, file: !1595, line: 309, type: !1673, scopeLine: 309, flags: DIFlagPublic | DIFlagPrototyped, spFlags: DISPFlagOptimized)
!1687 = !DISubprogram(name: "count", linkageName: "_ZNK4llvm9StringRef5countEc", scope: !1594, file: !1595, line: 316, type: !1688, scopeLine: 316, flags: DIFlagPublic | DIFlagPrototyped, spFlags: DISPFlagOptimized)
!1688 = !DISubroutineType(types: !1689)
!1689 = !{!100, !1630, !453}
!1690 = !DISubprogram(name: "count", linkageName: "_ZNK4llvm9StringRef5countES0_", scope: !1594, file: !1595, line: 326, type: !1677, scopeLine: 326, flags: DIFlagPublic | DIFlagPrototyped, spFlags: DISPFlagOptimized)
!1691 = !DISubprogram(name: "getAsInteger", linkageName: "_ZNK4llvm9StringRef12getAsIntegerEjRNS_5APIntE", scope: !1594, file: !1595, line: 367, type: !1692, scopeLine: 367, flags: DIFlagPublic | DIFlagPrototyped, spFlags: DISPFlagOptimized)
!1692 = !DISubroutineType(types: !1693)
!1693 = !{!57, !1630, !6, !1694}
!1694 = !DIDerivedType(tag: DW_TAG_reference_type, baseType: !1695, size: 64)
!1695 = distinct !DICompositeType(tag: DW_TAG_class_type, name: "APInt", scope: !13, file: !1595, line: 24, flags: DIFlagFwdDecl, identifier: "_ZTSN4llvm5APIntE")
!1696 = !DISubprogram(name: "lower", linkageName: "_ZNK4llvm9StringRef5lowerB5cxx11Ev", scope: !1594, file: !1595, line: 374, type: !1659, scopeLine: 374, flags: DIFlagPublic | DIFlagPrototyped, spFlags: DISPFlagOptimized)
!1697 = !DISubprogram(name: "upper", linkageName: "_ZNK4llvm9StringRef5upperB5cxx11Ev", scope: !1594, file: !1595, line: 377, type: !1659, scopeLine: 377, flags: DIFlagPublic | DIFlagPrototyped, spFlags: DISPFlagOptimized)
!1698 = !DISubprogram(name: "substr", linkageName: "_ZNK4llvm9StringRef6substrEmm", scope: !1594, file: !1595, line: 392, type: !1699, scopeLine: 392, flags: DIFlagPublic | DIFlagPrototyped, spFlags: DISPFlagOptimized)
!1699 = !DISubroutineType(types: !1700)
!1700 = !{!1594, !1630, !100, !100}
!1701 = !DISubprogram(name: "drop_front", linkageName: "_ZNK4llvm9StringRef10drop_frontEm", scope: !1594, file: !1595, line: 399, type: !1702, scopeLine: 399, flags: DIFlagPublic | DIFlagPrototyped, spFlags: DISPFlagOptimized)
!1702 = !DISubroutineType(types: !1703)
!1703 = !{!1594, !1630, !100}
!1704 = !DISubprogram(name: "drop_back", linkageName: "_ZNK4llvm9StringRef9drop_backEm", scope: !1594, file: !1595, line: 406, type: !1702, scopeLine: 406, flags: DIFlagPublic | DIFlagPrototyped, spFlags: DISPFlagOptimized)
!1705 = !DISubprogram(name: "slice", linkageName: "_ZNK4llvm9StringRef5sliceEmm", scope: !1594, file: !1595, line: 421, type: !1699, scopeLine: 421, flags: DIFlagPublic | DIFlagPrototyped, spFlags: DISPFlagOptimized)
!1706 = !DISubprogram(name: "split", linkageName: "_ZNK4llvm9StringRef5splitEc", scope: !1594, file: !1595, line: 437, type: !1707, scopeLine: 437, flags: DIFlagPublic | DIFlagPrototyped, spFlags: DISPFlagOptimized)
!1707 = !DISubroutineType(types: !1708)
!1708 = !{!1709, !1630, !453}
!1709 = distinct !DICompositeType(tag: DW_TAG_structure_type, name: "pair<llvm::StringRef, llvm::StringRef>", scope: !54, file: !1710, line: 208, size: 256, flags: DIFlagTypePassByValue | DIFlagNonTrivial, elements: !1711, templateParams: !1770, identifier: "_ZTSSt4pairIN4llvm9StringRefES1_E")
!1710 = !DIFile(filename: "/usr/lib/gcc/x86_64-linux-gnu/7.5.0/../../../../include/c++/7.5.0/bits/stl_pair.h", directory: "")
!1711 = !{!1712, !1732, !1733, !1734, !1740, !1744, !1758, !1767}
!1712 = !DIDerivedType(tag: DW_TAG_inheritance, scope: !1709, baseType: !1713, flags: DIFlagPrivate, extraData: i32 0)
!1713 = distinct !DICompositeType(tag: DW_TAG_class_type, name: "__pair_base<llvm::StringRef, llvm::StringRef>", scope: !54, file: !1710, line: 190, size: 8, flags: DIFlagTypePassByValue, elements: !1714, templateParams: !1729, identifier: "_ZTSSt11__pair_baseIN4llvm9StringRefES1_E")
!1714 = !{!1715, !1719, !1720, !1725}
!1715 = !DISubprogram(name: "__pair_base", scope: !1713, file: !1710, line: 194, type: !1716, scopeLine: 194, flags: DIFlagPrototyped, spFlags: DISPFlagOptimized)
!1716 = !DISubroutineType(types: !1717)
!1717 = !{null, !1718}
!1718 = !DIDerivedType(tag: DW_TAG_pointer_type, baseType: !1713, size: 64, flags: DIFlagArtificial | DIFlagObjectPointer)
!1719 = !DISubprogram(name: "~__pair_base", scope: !1713, file: !1710, line: 195, type: !1716, scopeLine: 195, flags: DIFlagPrototyped, spFlags: DISPFlagOptimized)
!1720 = !DISubprogram(name: "__pair_base", scope: !1713, file: !1710, line: 196, type: !1721, scopeLine: 196, flags: DIFlagPrototyped, spFlags: DISPFlagOptimized)
!1721 = !DISubroutineType(types: !1722)
!1722 = !{null, !1718, !1723}
!1723 = !DIDerivedType(tag: DW_TAG_reference_type, baseType: !1724, size: 64)
!1724 = !DIDerivedType(tag: DW_TAG_const_type, baseType: !1713)
!1725 = !DISubprogram(name: "operator=", linkageName: "_ZNSt11__pair_baseIN4llvm9StringRefES1_EaSERKS2_", scope: !1713, file: !1710, line: 197, type: !1726, scopeLine: 197, flags: DIFlagPrototyped, spFlags: DISPFlagOptimized | DISPFlagDeleted)
!1726 = !DISubroutineType(types: !1727)
!1727 = !{!1728, !1718, !1723}
!1728 = !DIDerivedType(tag: DW_TAG_reference_type, baseType: !1713, size: 64)
!1729 = !{!1730, !1731}
!1730 = !DITemplateTypeParameter(name: "_U1", type: !1594)
!1731 = !DITemplateTypeParameter(name: "_U2", type: !1594)
!1732 = !DIDerivedType(tag: DW_TAG_member, name: "first", scope: !1709, file: !1710, line: 214, baseType: !1594, size: 128)
!1733 = !DIDerivedType(tag: DW_TAG_member, name: "second", scope: !1709, file: !1710, line: 215, baseType: !1594, size: 128, offset: 128)
!1734 = !DISubprogram(name: "pair", scope: !1709, file: !1710, line: 303, type: !1735, scopeLine: 303, flags: DIFlagPrototyped, spFlags: DISPFlagOptimized)
!1735 = !DISubroutineType(types: !1736)
!1736 = !{null, !1737, !1738}
!1737 = !DIDerivedType(tag: DW_TAG_pointer_type, baseType: !1709, size: 64, flags: DIFlagArtificial | DIFlagObjectPointer)
!1738 = !DIDerivedType(tag: DW_TAG_reference_type, baseType: !1739, size: 64)
!1739 = !DIDerivedType(tag: DW_TAG_const_type, baseType: !1709)
!1740 = !DISubprogram(name: "pair", scope: !1709, file: !1710, line: 304, type: !1741, scopeLine: 304, flags: DIFlagPrototyped, spFlags: DISPFlagOptimized)
!1741 = !DISubroutineType(types: !1742)
!1742 = !{null, !1737, !1743}
!1743 = !DIDerivedType(tag: DW_TAG_rvalue_reference_type, baseType: !1709, size: 64)
!1744 = !DISubprogram(name: "operator=", linkageName: "_ZNSt4pairIN4llvm9StringRefES1_EaSERKS2_", scope: !1709, file: !1710, line: 378, type: !1745, scopeLine: 378, flags: DIFlagPrototyped, spFlags: DISPFlagOptimized)
!1745 = !DISubroutineType(types: !1746)
!1746 = !{!1747, !1737, !1748}
!1747 = !DIDerivedType(tag: DW_TAG_reference_type, baseType: !1709, size: 64)
!1748 = !DIDerivedType(tag: DW_TAG_typedef, name: "type", scope: !1750, file: !1749, line: 2166, baseType: !1738)
!1749 = !DIFile(filename: "/usr/lib/gcc/x86_64-linux-gnu/7.5.0/../../../../include/c++/7.5.0/type_traits", directory: "")
!1750 = distinct !DICompositeType(tag: DW_TAG_structure_type, name: "conditional<true, const std::pair<llvm::StringRef, llvm::StringRef> &, const std::__nonesuch_no_braces &>", scope: !54, file: !1749, line: 2165, size: 8, flags: DIFlagTypePassByValue, elements: !40, templateParams: !1751, identifier: "_ZTSSt11conditionalILb1ERKSt4pairIN4llvm9StringRefES2_ERKSt20__nonesuch_no_bracesE")
!1751 = !{!1752, !1753, !1754}
!1752 = !DITemplateValueParameter(name: "_Cond", type: !57, value: i8 1)
!1753 = !DITemplateTypeParameter(name: "_Iftrue", type: !1738)
!1754 = !DITemplateTypeParameter(name: "_Iffalse", type: !1755)
!1755 = !DIDerivedType(tag: DW_TAG_reference_type, baseType: !1756, size: 64)
!1756 = !DIDerivedType(tag: DW_TAG_const_type, baseType: !1757)
!1757 = distinct !DICompositeType(tag: DW_TAG_structure_type, name: "__nonesuch_no_braces", scope: !54, file: !1710, line: 185, flags: DIFlagFwdDecl, identifier: "_ZTSSt20__nonesuch_no_braces")
!1758 = !DISubprogram(name: "operator=", linkageName: "_ZNSt4pairIN4llvm9StringRefES1_EaSEOS2_", scope: !1709, file: !1710, line: 389, type: !1759, scopeLine: 389, flags: DIFlagPrototyped, spFlags: DISPFlagOptimized)
!1759 = !DISubroutineType(types: !1760)
!1760 = !{!1747, !1737, !1761}
!1761 = !DIDerivedType(tag: DW_TAG_typedef, name: "type", scope: !1762, file: !1749, line: 2166, baseType: !1743)
!1762 = distinct !DICompositeType(tag: DW_TAG_structure_type, name: "conditional<true, std::pair<llvm::StringRef, llvm::StringRef> &&, std::__nonesuch_no_braces &&>", scope: !54, file: !1749, line: 2165, size: 8, flags: DIFlagTypePassByValue, elements: !40, templateParams: !1763, identifier: "_ZTSSt11conditionalILb1EOSt4pairIN4llvm9StringRefES2_EOSt20__nonesuch_no_bracesE")
!1763 = !{!1752, !1764, !1765}
!1764 = !DITemplateTypeParameter(name: "_Iftrue", type: !1743)
!1765 = !DITemplateTypeParameter(name: "_Iffalse", type: !1766)
!1766 = !DIDerivedType(tag: DW_TAG_rvalue_reference_type, baseType: !1757, size: 64)
!1767 = !DISubprogram(name: "swap", linkageName: "_ZNSt4pairIN4llvm9StringRefES1_E4swapERS2_", scope: !1709, file: !1710, line: 424, type: !1768, scopeLine: 424, flags: DIFlagPrototyped, spFlags: DISPFlagOptimized)
!1768 = !DISubroutineType(types: !1769)
!1769 = !{null, !1737, !1747}
!1770 = !{!1771, !1772}
!1771 = !DITemplateTypeParameter(name: "_T1", type: !1594)
!1772 = !DITemplateTypeParameter(name: "_T2", type: !1594)
!1773 = !DISubprogram(name: "split", linkageName: "_ZNK4llvm9StringRef5splitES0_", scope: !1594, file: !1595, line: 454, type: !1774, scopeLine: 454, flags: DIFlagPublic | DIFlagPrototyped, spFlags: DISPFlagOptimized)
!1774 = !DISubroutineType(types: !1775)
!1775 = !{!1709, !1630, !1594}
!1776 = !DISubprogram(name: "split", linkageName: "_ZNK4llvm9StringRef5splitERNS_15SmallVectorImplIS0_EES0_ib", scope: !1594, file: !1595, line: 475, type: !1777, scopeLine: 475, flags: DIFlagPublic | DIFlagPrototyped, spFlags: DISPFlagOptimized)
!1777 = !DISubroutineType(types: !1778)
!1778 = !{null, !1630, !1779, !1594, !20, !57}
!1779 = !DIDerivedType(tag: DW_TAG_reference_type, baseType: !1780, size: 64)
!1780 = distinct !DICompositeType(tag: DW_TAG_class_type, name: "SmallVectorImpl<llvm::StringRef>", scope: !13, file: !1595, line: 23, flags: DIFlagFwdDecl, identifier: "_ZTSN4llvm15SmallVectorImplINS_9StringRefEEE")
!1781 = !DISubprogram(name: "rsplit", linkageName: "_ZNK4llvm9StringRef6rsplitEc", scope: !1594, file: !1595, line: 489, type: !1707, scopeLine: 489, flags: DIFlagPublic | DIFlagPrototyped, spFlags: DISPFlagOptimized)
!1782 = !DISubprogram(name: "ltrim", linkageName: "_ZNK4llvm9StringRef5ltrimES0_", scope: !1594, file: !1595, line: 498, type: !1783, scopeLine: 498, flags: DIFlagPublic | DIFlagPrototyped, spFlags: DISPFlagOptimized)
!1783 = !DISubroutineType(types: !1784)
!1784 = !{!1594, !1630, !1594}
!1785 = !DISubprogram(name: "rtrim", linkageName: "_ZNK4llvm9StringRef5rtrimES0_", scope: !1594, file: !1595, line: 504, type: !1783, scopeLine: 504, flags: DIFlagPublic | DIFlagPrototyped, spFlags: DISPFlagOptimized)
!1786 = !DISubprogram(name: "trim", linkageName: "_ZNK4llvm9StringRef4trimES0_", scope: !1594, file: !1595, line: 510, type: !1783, scopeLine: 510, flags: DIFlagPublic | DIFlagPrototyped, spFlags: DISPFlagOptimized)
!1787 = !{!1788, !1789, !1790, !1791, !1793, !1794, !1799, !1800, !1802}
!1788 = !DILocalVariable(name: "Text", arg: 1, scope: !1591, file: !78, line: 343, type: !1594)
!1789 = !DILocalVariable(name: "ColumnWidth", scope: !1591, file: !78, line: 344, type: !6)
!1790 = !DILocalVariable(name: "Length", scope: !1591, file: !78, line: 345, type: !6)
!1791 = !DILocalVariable(name: "i", scope: !1792, file: !78, line: 346, type: !100)
!1792 = distinct !DILexicalBlock(scope: !1591, file: !78, line: 346, column: 3)
!1793 = !DILocalVariable(name: "e", scope: !1792, file: !78, line: 346, type: !100)
!1794 = !DILocalVariable(name: "buf", scope: !1795, file: !78, line: 350, type: !1797)
!1795 = distinct !DILexicalBlock(scope: !1796, file: !78, line: 346, column: 59)
!1796 = distinct !DILexicalBlock(scope: !1792, file: !78, line: 346, column: 3)
!1797 = !DICompositeType(tag: DW_TAG_array_type, baseType: !1798, size: 32, elements: !943)
!1798 = !DIDerivedType(tag: DW_TAG_typedef, name: "UTF32", file: !25, line: 101, baseType: !6)
!1799 = !DILocalVariable(name: "Start", scope: !1795, file: !78, line: 351, type: !41)
!1800 = !DILocalVariable(name: "Target", scope: !1795, file: !78, line: 352, type: !1801)
!1801 = !DIDerivedType(tag: DW_TAG_pointer_type, baseType: !1798, size: 64)
!1802 = !DILocalVariable(name: "Width", scope: !1795, file: !78, line: 356, type: !20)
!1803 = !DILocation(line: 346, column: 3, scope: !1804)
!1804 = distinct !DILexicalBlock(scope: !1591, file: !78, line: 346, column: 3)
!1805 = !DILocation(line: 0, scope: !1591)
!1806 = !DILocation(line: 954, column: 7, scope: !1807, inlinedAt: !1840)
!1807 = distinct !DISubprogram(name: "__lower_bound<const llvm::sys::UnicodeCharRange *, unsigned int, __gnu_cxx::__ops::_Iter_less_val>", linkageName: "_ZSt13__lower_boundIPKN4llvm3sys16UnicodeCharRangeEjN9__gnu_cxx5__ops14_Iter_less_valEET_S8_S8_RKT0_T1_", scope: !54, file: !1808, line: 946, type: !1809, scopeLine: 948, flags: DIFlagPrototyped | DIFlagAllCallsDescribed, spFlags: DISPFlagDefinition | DISPFlagOptimized, unit: !0, templateParams: !1838, retainedNodes: !1823)
!1808 = !DIFile(filename: "/usr/lib/gcc/x86_64-linux-gnu/7.5.0/../../../../include/c++/7.5.0/bits/stl_algobase.h", directory: "")
!1809 = !DISubroutineType(types: !1810)
!1810 = !{!58, !58, !58, !69, !1811}
!1811 = distinct !DICompositeType(tag: DW_TAG_structure_type, name: "_Iter_less_val", scope: !1813, file: !1812, line: 51, size: 8, flags: DIFlagTypePassByValue, elements: !1814, identifier: "_ZTSN9__gnu_cxx5__ops14_Iter_less_valE")
!1812 = !DIFile(filename: "/usr/lib/gcc/x86_64-linux-gnu/7.5.0/../../../../include/c++/7.5.0/bits/predefined_ops.h", directory: "")
!1813 = !DINamespace(name: "__ops", scope: !5)
!1814 = !{!1815, !1819}
!1815 = !DISubprogram(name: "_Iter_less_val", scope: !1811, file: !1812, line: 54, type: !1816, scopeLine: 54, flags: DIFlagPrototyped, spFlags: DISPFlagOptimized)
!1816 = !DISubroutineType(types: !1817)
!1817 = !{null, !1818}
!1818 = !DIDerivedType(tag: DW_TAG_pointer_type, baseType: !1811, size: 64, flags: DIFlagArtificial | DIFlagObjectPointer)
!1819 = !DISubprogram(name: "_Iter_less_val", scope: !1811, file: !1812, line: 60, type: !1820, scopeLine: 60, flags: DIFlagExplicit | DIFlagPrototyped, spFlags: DISPFlagOptimized)
!1820 = !DISubroutineType(types: !1821)
!1821 = !{null, !1818, !1822}
!1822 = distinct !DICompositeType(tag: DW_TAG_structure_type, name: "_Iter_less_iter", scope: !1813, file: !1812, line: 37, size: 8, flags: DIFlagTypePassByValue, elements: !40, identifier: "_ZTSN9__gnu_cxx5__ops15_Iter_less_iterE")
!1823 = !{!1824, !1825, !1826, !1827, !1828, !1835, !1837}
!1824 = !DILocalVariable(name: "__first", arg: 1, scope: !1807, file: !1808, line: 946, type: !58)
!1825 = !DILocalVariable(name: "__last", arg: 2, scope: !1807, file: !1808, line: 946, type: !58)
!1826 = !DILocalVariable(name: "__val", arg: 3, scope: !1807, file: !1808, line: 947, type: !69)
!1827 = !DILocalVariable(name: "__comp", arg: 4, scope: !1807, file: !1808, line: 947, type: !1811)
!1828 = !DILocalVariable(name: "__len", scope: !1807, file: !1808, line: 952, type: !1829)
!1829 = !DIDerivedType(tag: DW_TAG_typedef, name: "_DistanceType", scope: !1807, file: !1808, line: 950, baseType: !1830)
!1830 = !DIDerivedType(tag: DW_TAG_typedef, name: "difference_type", scope: !1832, file: !1831, line: 193, baseType: !1264)
!1831 = !DIFile(filename: "/usr/lib/gcc/x86_64-linux-gnu/7.5.0/../../../../include/c++/7.5.0/bits/stl_iterator_base_types.h", directory: "")
!1832 = distinct !DICompositeType(tag: DW_TAG_structure_type, name: "iterator_traits<const llvm::sys::UnicodeCharRange *>", scope: !54, file: !1831, line: 189, size: 8, flags: DIFlagTypePassByValue, elements: !40, templateParams: !1833, identifier: "_ZTSSt15iterator_traitsIPKN4llvm3sys16UnicodeCharRangeEE")
!1833 = !{!1834}
!1834 = !DITemplateTypeParameter(name: "_Iterator", type: !58)
!1835 = !DILocalVariable(name: "__half", scope: !1836, file: !1808, line: 956, type: !1829)
!1836 = distinct !DILexicalBlock(scope: !1807, file: !1808, line: 955, column: 2)
!1837 = !DILocalVariable(name: "__middle", scope: !1836, file: !1808, line: 957, type: !58)
!1838 = !{!72, !73, !1839}
!1839 = !DITemplateTypeParameter(name: "_Compare", type: !1811)
!1840 = distinct !DILocation(line: 2258, column: 4, scope: !1841, inlinedAt: !1847)
!1841 = distinct !DISubprogram(name: "binary_search<const llvm::sys::UnicodeCharRange *, unsigned int>", linkageName: "_ZSt13binary_searchIPKN4llvm3sys16UnicodeCharRangeEjEbT_S5_RKT0_", scope: !54, file: !53, line: 2247, type: !55, scopeLine: 2249, flags: DIFlagPrototyped | DIFlagAllCallsDescribed, spFlags: DISPFlagDefinition | DISPFlagOptimized, unit: !0, templateParams: !71, retainedNodes: !1842)
!1842 = !{!1843, !1844, !1845, !1846}
!1843 = !DILocalVariable(name: "__first", arg: 1, scope: !1841, file: !53, line: 2247, type: !58)
!1844 = !DILocalVariable(name: "__last", arg: 2, scope: !1841, file: !53, line: 2247, type: !58)
!1845 = !DILocalVariable(name: "__val", arg: 3, scope: !1841, file: !53, line: 2248, type: !69)
!1846 = !DILocalVariable(name: "__i", scope: !1841, file: !53, line: 2257, type: !58)
!1847 = distinct !DILocation(line: 59, column: 12, scope: !1848, inlinedAt: !1853)
!1848 = distinct !DISubprogram(name: "contains", linkageName: "_ZNK4llvm3sys14UnicodeCharSet8containsEj", scope: !89, file: !61, line: 58, type: !179, scopeLine: 58, flags: DIFlagPrototyped | DIFlagAllCallsDescribed, spFlags: DISPFlagDefinition | DISPFlagOptimized, unit: !0, declaration: !178, retainedNodes: !1849)
!1849 = !{!1850, !1852}
!1850 = !DILocalVariable(name: "this", arg: 1, scope: !1848, type: !1851, flags: DIFlagArtificial | DIFlagObjectPointer)
!1851 = !DIDerivedType(tag: DW_TAG_pointer_type, baseType: !88, size: 64)
!1852 = !DILocalVariable(name: "C", arg: 2, scope: !1848, file: !61, line: 58, type: !64)
!1853 = distinct !DILocation(line: 213, column: 56, scope: !77, inlinedAt: !1854)
!1854 = distinct !DILocation(line: 229, column: 8, scope: !1855, inlinedAt: !1856)
!1855 = distinct !DILexicalBlock(scope: !187, file: !78, line: 229, column: 7)
!1856 = distinct !DILocation(line: 356, column: 17, scope: !1857)
!1857 = distinct !DILexicalBlock(scope: !1858, file: !78, line: 346, column: 59)
!1858 = distinct !DILexicalBlock(scope: !1804, file: !78, line: 346, column: 3)
!1859 = !DILocation(line: 954, column: 20, scope: !1807, inlinedAt: !1840)
!1860 = distinct !{!1860, !1806, !1861}
!1861 = !DILocation(line: 967, column: 2, scope: !1807, inlinedAt: !1840)
!1862 = !DILocation(line: 357, column: 9, scope: !1857)
!1863 = !DILocation(line: 346, column: 41, scope: !1858)
!1864 = !DILocation(line: 362, column: 1, scope: !1591)
