; ModuleID = '<stdin>'
source_filename = "/faster/fs/llvm34/lib/CodeGen/ExpandISelPseudos.cpp"
target datalayout = "e-m:e-p270:32:32-p271:32:32-p272:64:64-i64:64-f80:128-n8:16:32:64-S128"
target triple = "x86_64-unknown-linux-gnu"

%"class.(anonymous namespace)::ExpandISelPseudos" = type { %"class.llvm::MachineFunctionPass.base", [4 x i8] }
%"class.llvm::MachineFunctionPass.base" = type { %"class.llvm::FunctionPass.base" }
%"class.llvm::FunctionPass.base" = type { %"class.llvm::Pass.base" }
%"class.llvm::Pass.base" = type <{ i32 (...)**, %"class.llvm::AnalysisResolver"*, i8*, i32 }>
%"class.llvm::AnalysisResolver" = type { %"class.std::vector.0", %"class.llvm::PMDataManager"* }
%"class.std::vector.0" = type { %"struct.std::_Vector_base.1" }
%"struct.std::_Vector_base.1" = type { %"struct.std::_Vector_base<std::pair<const void *, llvm::Pass *>, std::allocator<std::pair<const void *, llvm::Pass *> > >::_Vector_impl" }
%"struct.std::_Vector_base<std::pair<const void *, llvm::Pass *>, std::allocator<std::pair<const void *, llvm::Pass *> > >::_Vector_impl" = type { %"struct.std::pair"*, %"struct.std::pair"*, %"struct.std::pair"* }
%"struct.std::pair" = type { i8*, %"class.llvm::Pass"* }
%"class.llvm::Pass" = type <{ i32 (...)**, %"class.llvm::AnalysisResolver"*, i8*, i32, [4 x i8] }>
%"class.llvm::PMDataManager" = type opaque
%"class.llvm::MachineBasicBlock" = type { %"class.llvm::ilist_node.9", %"struct.llvm::ilist", %"class.llvm::BasicBlock"*, i32, %"class.llvm::MachineFunction"*, %"class.std::vector.11", %"class.std::vector.11", %"class.std::vector.37", %"class.std::vector.37", i32, i8, i8, %"class.llvm::MCSymbol"* }
%"class.llvm::ilist_node.9" = type { %"class.llvm::ilist_half_node.10", %"class.llvm::MachineBasicBlock"* }
%"class.llvm::ilist_half_node.10" = type { %"class.llvm::MachineBasicBlock"* }
%"struct.llvm::ilist" = type { %"class.llvm::iplist" }
%"class.llvm::iplist" = type { %"struct.llvm::ilist_traits", %"class.llvm::MachineInstr"* }
%"struct.llvm::ilist_traits" = type { %"class.llvm::ilist_half_node", %"class.llvm::MachineBasicBlock"* }
%"class.llvm::ilist_half_node" = type { %"class.llvm::MachineInstr"* }
%"class.llvm::MachineInstr" = type { %"class.llvm::ilist_node", %"class.llvm::MCInstrDesc"*, %"class.llvm::MachineBasicBlock"*, %"class.llvm::MachineOperand"*, i32, %"class.llvm::ArrayRecycler<llvm::MachineOperand, 8>::Capacity", i8, i8, i8, %"class.llvm::MachineMemOperand"**, %"class.llvm::DebugLoc" }
%"class.llvm::ilist_node" = type { %"class.llvm::ilist_half_node", %"class.llvm::MachineInstr"* }
%"class.llvm::MCInstrDesc" = type { i16, i16, i16, i16, i16, i32, i64, i16*, i16*, %"class.llvm::MCOperandInfo"*, i64, i1 (%"class.llvm::MCInst"*, %"class.llvm::MCSubtargetInfo"*, %"class.std::__cxx11::basic_string"*)* }
%"class.llvm::MCOperandInfo" = type { i16, i8, i8, i32 }
%"class.llvm::MCInst" = type { i32, %"class.llvm::SMLoc", %"class.llvm::SmallVector" }
%"class.llvm::SMLoc" = type { i8* }
%"class.llvm::SmallVector" = type { %"class.llvm::SmallVectorImpl", %"struct.llvm::SmallVectorStorage" }
%"class.llvm::SmallVectorImpl" = type { %"class.llvm::SmallVectorTemplateBase" }
%"class.llvm::SmallVectorTemplateBase" = type { %"class.llvm::SmallVectorTemplateCommon" }
%"class.llvm::SmallVectorTemplateCommon" = type { %"class.llvm::SmallVectorBase", %"struct.llvm::AlignedCharArrayUnion" }
%"class.llvm::SmallVectorBase" = type { i8*, i8*, i8* }
%"struct.llvm::AlignedCharArrayUnion" = type { %"struct.llvm::AlignedCharArray" }
%"struct.llvm::AlignedCharArray" = type { [16 x i8] }
%"struct.llvm::SmallVectorStorage" = type { [7 x %"struct.llvm::AlignedCharArrayUnion"] }
%"class.llvm::MCSubtargetInfo" = type { %"class.std::__cxx11::basic_string", %"struct.llvm::SubtargetFeatureKV"*, %"struct.llvm::SubtargetFeatureKV"*, %"struct.llvm::SubtargetInfoKV"*, %"struct.llvm::MCWriteProcResEntry"*, %"struct.llvm::MCWriteLatencyEntry"*, %"struct.llvm::MCReadAdvanceEntry"*, %"class.llvm::MCSchedModel"*, %"struct.llvm::InstrStage"*, i32*, i32*, i32, i32, i64 }
%"class.std::__cxx11::basic_string" = type { %"struct.std::__cxx11::basic_string<char, std::char_traits<char>, std::allocator<char> >::_Alloc_hider", i64, %union.anon.8 }
%"struct.std::__cxx11::basic_string<char, std::char_traits<char>, std::allocator<char> >::_Alloc_hider" = type { i8* }
%union.anon.8 = type { i64, [8 x i8] }
%"struct.llvm::SubtargetFeatureKV" = type { i8*, i8*, i64, i64 }
%"struct.llvm::SubtargetInfoKV" = type { i8*, i8* }
%"struct.llvm::MCWriteProcResEntry" = type { i32, i32 }
%"struct.llvm::MCWriteLatencyEntry" = type { i32, i32 }
%"struct.llvm::MCReadAdvanceEntry" = type { i32, i32, i32 }
%"class.llvm::MCSchedModel" = type { i32, i32, i32, i32, i32, i8, i32, %"struct.llvm::MCProcResourceDesc"*, %"struct.llvm::MCSchedClassDesc"*, i32, i32, %"struct.llvm::InstrItinerary"* }
%"struct.llvm::MCProcResourceDesc" = type { i32, i32, i32 }
%"struct.llvm::MCSchedClassDesc" = type { i16, i8, i8, i32, i32, i32, i32, i32, i32 }
%"struct.llvm::InstrItinerary" = type { i32, i32, i32, i32, i32 }
%"struct.llvm::InstrStage" = type { i32, i32, i32, i32 }
%"class.llvm::MachineOperand" = type { i8, [3 x i8], %union.anon, %"class.llvm::MachineInstr"*, %union.anon.42 }
%union.anon = type { i32 }
%union.anon.42 = type { %struct.anon }
%struct.anon = type { %"class.llvm::MachineOperand"*, %"class.llvm::MachineOperand"* }
%"class.llvm::ArrayRecycler<llvm::MachineOperand, 8>::Capacity" = type { i8 }
%"class.llvm::MachineMemOperand" = type { %"struct.llvm::MachinePointerInfo", i64, i32, %"class.llvm::MDNode"*, %"class.llvm::MDNode"* }
%"struct.llvm::MachinePointerInfo" = type { %"class.llvm::Value"*, i64 }
%"class.llvm::Value" = type { i32 (...)**, i8, i8, i16, %"class.llvm::Type"*, %"class.llvm::Use"*, %"class.llvm::StringMapEntry"* }
%"class.llvm::Type" = type { %"class.llvm::LLVMContext"*, i32, i32, %"class.llvm::Type"** }
%"class.llvm::LLVMContext" = type opaque
%"class.llvm::Use" = type { %"class.llvm::Value"*, %"class.llvm::Use"*, %"class.llvm::PointerIntPair" }
%"class.llvm::PointerIntPair" = type { i64 }
%"class.llvm::StringMapEntry" = type opaque
%"class.llvm::MDNode" = type opaque
%"class.llvm::DebugLoc" = type { i32, i32 }
%"class.llvm::BasicBlock" = type opaque
%"class.llvm::MachineFunction" = type <{ %"class.llvm::Function"*, %"class.llvm::TargetMachine"*, %"class.llvm::MCContext"*, %"class.llvm::MachineModuleInfo"*, %"class.llvm::GCModuleInfo"*, %"class.llvm::MachineRegisterInfo"*, %"struct.llvm::MachineFunctionInfo"*, %"class.llvm::MachineFrameInfo"*, %"class.llvm::MachineConstantPool"*, %"class.llvm::MachineJumpTableInfo"*, %"class.std::vector.11", %"class.llvm::BumpPtrAllocator", %"class.llvm::Recycler", %"class.llvm::ArrayRecycler", %"class.llvm::Recycler.29", %"struct.llvm::ilist.30", i32, i32, i8, i8, [6 x i8] }>
%"class.llvm::Function" = type opaque
%"class.llvm::TargetMachine" = type { i32 (...)**, %"class.llvm::Target"*, %"class.std::__cxx11::basic_string", %"class.std::__cxx11::basic_string", %"class.std::__cxx11::basic_string", %"class.llvm::MCCodeGenInfo"*, %"class.llvm::MCAsmInfo"*, i8, %"class.llvm::TargetOptions" }
%"class.llvm::Target" = type opaque
%"class.llvm::MCCodeGenInfo" = type opaque
%"class.llvm::MCAsmInfo" = type opaque
%"class.llvm::TargetOptions" = type { i16, i32, i8, %"class.std::__cxx11::basic_string", i32, i32 }
%"class.llvm::MCContext" = type opaque
%"class.llvm::MachineModuleInfo" = type opaque
%"class.llvm::GCModuleInfo" = type opaque
%"class.llvm::MachineRegisterInfo" = type opaque
%"struct.llvm::MachineFunctionInfo" = type { i32 (...)** }
%"class.llvm::MachineFrameInfo" = type opaque
%"class.llvm::MachineConstantPool" = type opaque
%"class.llvm::MachineJumpTableInfo" = type opaque
%"class.llvm::BumpPtrAllocator" = type { i64, i64, %"class.llvm::MallocSlabAllocator", %"class.llvm::SlabAllocator"*, %"class.llvm::MemSlab"*, i8*, i8*, i64 }
%"class.llvm::MallocSlabAllocator" = type <{ %"class.llvm::SlabAllocator", %"class.llvm::MallocAllocator", [7 x i8] }>
%"class.llvm::SlabAllocator" = type { i32 (...)** }
%"class.llvm::MallocAllocator" = type { i8 }
%"class.llvm::MemSlab" = type { i64, %"class.llvm::MemSlab"* }
%"class.llvm::Recycler" = type { %"class.llvm::iplist.16" }
%"class.llvm::iplist.16" = type { %"struct.llvm::ilist_traits.17", %"struct.llvm::RecyclerStruct"* }
%"struct.llvm::ilist_traits.17" = type { %"struct.llvm::RecyclerStruct" }
%"struct.llvm::RecyclerStruct" = type { %"struct.llvm::RecyclerStruct"*, %"struct.llvm::RecyclerStruct"* }
%"class.llvm::ArrayRecycler" = type { %"class.llvm::SmallVector.22" }
%"class.llvm::SmallVector.22" = type { %"class.llvm::SmallVectorImpl.23", %"struct.llvm::SmallVectorStorage.28" }
%"class.llvm::SmallVectorImpl.23" = type { %"class.llvm::SmallVectorTemplateBase.24" }
%"class.llvm::SmallVectorTemplateBase.24" = type { %"class.llvm::SmallVectorTemplateCommon.25" }
%"class.llvm::SmallVectorTemplateCommon.25" = type { %"class.llvm::SmallVectorBase", %"struct.llvm::AlignedCharArrayUnion.26" }
%"struct.llvm::AlignedCharArrayUnion.26" = type { %"struct.llvm::AlignedCharArray.27" }
%"struct.llvm::AlignedCharArray.27" = type { [8 x i8] }
%"struct.llvm::SmallVectorStorage.28" = type { [7 x %"struct.llvm::AlignedCharArrayUnion.26"] }
%"class.llvm::Recycler.29" = type { %"class.llvm::iplist.16" }
%"struct.llvm::ilist.30" = type { %"class.llvm::iplist.31" }
%"class.llvm::iplist.31" = type { %"struct.llvm::ilist_traits.32", %"class.llvm::MachineBasicBlock"* }
%"struct.llvm::ilist_traits.32" = type { %"class.llvm::ilist_half_node.10" }
%"class.std::vector.11" = type { %"struct.std::_Vector_base.12" }
%"struct.std::_Vector_base.12" = type { %"struct.std::_Vector_base<llvm::MachineBasicBlock *, std::allocator<llvm::MachineBasicBlock *> >::_Vector_impl" }
%"struct.std::_Vector_base<llvm::MachineBasicBlock *, std::allocator<llvm::MachineBasicBlock *> >::_Vector_impl" = type { %"class.llvm::MachineBasicBlock"**, %"class.llvm::MachineBasicBlock"**, %"class.llvm::MachineBasicBlock"** }
%"class.std::vector.37" = type { %"struct.std::_Vector_base.38" }
%"struct.std::_Vector_base.38" = type { %"struct.std::_Vector_base<unsigned int, std::allocator<unsigned int> >::_Vector_impl" }
%"struct.std::_Vector_base<unsigned int, std::allocator<unsigned int> >::_Vector_impl" = type { i32*, i32*, i32* }
%"class.llvm::MCSymbol" = type opaque
%"class.llvm::TargetLowering" = type { %"class.llvm::TargetLoweringBase.base", [7 x i8] }
%"class.llvm::TargetLoweringBase.base" = type <{ i32 (...)**, %"class.llvm::TargetMachine"*, %"class.llvm::DataLayout"*, %"class.llvm::TargetLoweringObjectFile"*, i8, i8, i8, [5 x i8], %"class.llvm::DenseMap", i8, i8, i8, i8, i8, [3 x i8], i32, i32, i32, i32, i32, i32, i32, i32, i32, i32, i8, [3 x i8], i32, i32, i32, [58 x %"class.llvm::TargetRegisterClass"*], [58 x i8], [2 x i8], [58 x %"class.llvm::MVT"], [4 x i8], [58 x %"class.llvm::TargetRegisterClass"*], [58 x i8], [2 x i8], [58 x %"class.llvm::MVT"], [58 x [188 x i8]], [58 x [4 x i8]], [58 x [58 x i8]], [58 x [5 x i8]], [2 x i8], [24 x [4 x i32]], %"class.llvm::TargetLoweringBase::ValueTypeActionImpl", [2 x i8], %"class.std::vector.55", [24 x i8], %"class.std::map", [341 x i8*], [341 x i32], [341 x i32], i32, i32, i32, i32, i32, i32, i8 }>
%"class.llvm::DataLayout" = type opaque
%"class.llvm::TargetLoweringObjectFile" = type opaque
%"class.llvm::DenseMap" = type <{ %"struct.std::pair.52"*, i32, i32, i32, [4 x i8] }>
%"struct.std::pair.52" = type { i32, i32 }
%"class.llvm::TargetRegisterClass" = type opaque
%"class.llvm::MVT" = type { i32 }
%"class.llvm::TargetLoweringBase::ValueTypeActionImpl" = type { [58 x i8] }
%"class.std::vector.55" = type { %"struct.std::_Vector_base.56" }
%"struct.std::_Vector_base.56" = type { %"struct.std::_Vector_base<std::pair<llvm::MVT, const llvm::TargetRegisterClass *>, std::allocator<std::pair<llvm::MVT, const llvm::TargetRegisterClass *> > >::_Vector_impl" }
%"struct.std::_Vector_base<std::pair<llvm::MVT, const llvm::TargetRegisterClass *>, std::allocator<std::pair<llvm::MVT, const llvm::TargetRegisterClass *> > >::_Vector_impl" = type { %"struct.std::pair.60"*, %"struct.std::pair.60"*, %"struct.std::pair.60"* }
%"struct.std::pair.60" = type { %"class.llvm::MVT", %"class.llvm::TargetRegisterClass"* }
%"class.std::map" = type { %"class.std::_Rb_tree" }
%"class.std::_Rb_tree" = type { %"struct.std::_Rb_tree<std::pair<unsigned int, llvm::MVT::SimpleValueType>, std::pair<const std::pair<unsigned int, llvm::MVT::SimpleValueType>, llvm::MVT::SimpleValueType>, std::_Select1st<std::pair<const std::pair<unsigned int, llvm::MVT::SimpleValueType>, llvm::MVT::SimpleValueType> >, std::less<std::pair<unsigned int, llvm::MVT::SimpleValueType> >, std::allocator<std::pair<const std::pair<unsigned int, llvm::MVT::SimpleValueType>, llvm::MVT::SimpleValueType> > >::_Rb_tree_impl" }
%"struct.std::_Rb_tree<std::pair<unsigned int, llvm::MVT::SimpleValueType>, std::pair<const std::pair<unsigned int, llvm::MVT::SimpleValueType>, llvm::MVT::SimpleValueType>, std::_Select1st<std::pair<const std::pair<unsigned int, llvm::MVT::SimpleValueType>, llvm::MVT::SimpleValueType> >, std::less<std::pair<unsigned int, llvm::MVT::SimpleValueType> >, std::allocator<std::pair<const std::pair<unsigned int, llvm::MVT::SimpleValueType>, llvm::MVT::SimpleValueType> > >::_Rb_tree_impl" = type { %"struct.std::_Rb_tree_key_compare", %"struct.std::_Rb_tree_header" }
%"struct.std::_Rb_tree_key_compare" = type { %"struct.std::less" }
%"struct.std::less" = type { i8 }
%"struct.std::_Rb_tree_header" = type { %"struct.std::_Rb_tree_node_base", i64 }
%"struct.std::_Rb_tree_node_base" = type { i32, %"struct.std::_Rb_tree_node_base"*, %"struct.std::_Rb_tree_node_base"*, %"struct.std::_Rb_tree_node_base"* }

; Function Attrs: nounwind uwtable
define hidden zeroext i1 @_ZN12_GLOBAL__N_117ExpandISelPseudos20runOnMachineFunctionERN4llvm15MachineFunctionE(%"class.(anonymous namespace)::ExpandISelPseudos"* nocapture readnone %this) unnamed_addr #0 align 2 !dbg !8536 {
for.body:
  br label %while.cond.i.i.preheader

while.cond.i.i.preheader:                         ; preds = %if.end26, %for.body
  %MBB.069 = phi %"class.llvm::MachineBasicBlock"* [ %MBB.2, %if.end26 ], [ undef, %for.body ]
  call void @llvm.dbg.value(metadata %"class.llvm::MachineBasicBlock"* %MBB.069, metadata !8598, metadata !DIExpression()), !dbg !8602
  br label %while.cond.i.i, !dbg !8603

while.cond.i.i:                                   ; preds = %while.cond.i.i, %while.cond.i.i.preheader
  %tobool.i.i.i.i = icmp eq i8 undef, 0, !dbg !8618
  br i1 %tobool.i.i.i.i, label %_ZN4llvm17MachineBasicBlock15bundle_iteratorINS_12MachineInstrENS_14ilist_iteratorIS2_EEEppEi.exit, label %while.cond.i.i, !dbg !8603, !llvm.loop !8628

_ZN4llvm17MachineBasicBlock15bundle_iteratorINS_12MachineInstrENS_14ilist_iteratorIS2_EEEppEi.exit: ; preds = %while.cond.i.i
  br i1 undef, label %if.end26, label %if.then

if.then:                                          ; preds = %_ZN4llvm17MachineBasicBlock15bundle_iteratorINS_12MachineInstrENS_14ilist_iteratorIS2_EEEppEi.exit
  %call19 = tail call %"class.llvm::MachineBasicBlock"* undef(%"class.llvm::TargetLowering"* undef, %"class.llvm::MachineInstr"* nonnull undef, %"class.llvm::MachineBasicBlock"* %MBB.069) #2
  br i1 undef, label %if.end26, label %if.then20, !dbg !8630

if.then20:                                        ; preds = %if.then
  br label %if.end26, !dbg !8633

if.end26:                                         ; preds = %if.then20, %if.then, %_ZN4llvm17MachineBasicBlock15bundle_iteratorINS_12MachineInstrENS_14ilist_iteratorIS2_EEEppEi.exit
  %MBB.2 = phi %"class.llvm::MachineBasicBlock"* [ %MBB.069, %_ZN4llvm17MachineBasicBlock15bundle_iteratorINS_12MachineInstrENS_14ilist_iteratorIS2_EEEppEi.exit ], [ %call19, %if.then20 ], [ %MBB.069, %if.then ], !dbg !8602
  br label %while.cond.i.i.preheader
}

; Function Attrs: nounwind readnone speculatable willreturn
declare void @llvm.dbg.value(metadata, metadata, metadata) #1

attributes #0 = { nounwind uwtable "correctly-rounded-divide-sqrt-fp-math"="false" "denormal-fp-math"="ieee,ieee" "denormal-fp-math-f32"="ieee,ieee" "disable-tail-calls"="false" "frame-pointer"="none" "less-precise-fpmad"="false" "min-legal-vector-width"="0" "no-infs-fp-math"="false" "no-jump-tables"="false" "no-nans-fp-math"="false" "no-signed-zeros-fp-math"="false" "no-trapping-math"="false" "stack-protector-buffer-size"="8" "target-cpu"="x86-64" "target-features"="+cx8,+fxsr,+mmx,+sse,+sse2,+x87" "unsafe-fp-math"="false" "use-soft-float"="false" }
attributes #1 = { nounwind readnone speculatable willreturn }
attributes #2 = { nounwind }

!llvm.dbg.cu = !{!0}
!llvm.module.flags = !{!8531, !8532, !8533, !8534}
!llvm.ident = !{!8535}

!0 = distinct !DICompileUnit(language: DW_LANG_C_plus_plus_14, file: !1, producer: "clang version 11.0.0 (git@github.com:llvm/llvm-project 804e68485f4ea133b88c01fd24dcfbbb39797021)", isOptimized: true, runtimeVersion: 0, emissionKind: FullDebug, enums: !2, retainedTypes: !6691, globals: !1691, imports: !7185, splitDebugInlining: false, nameTableKind: None)
!1 = !DIFile(filename: "/faster/fs/llvm34/lib/CodeGen/ExpandISelPseudos.cpp", directory: "/fast/fs/build34reldebinfo")
!2 = !{!3, !11, !34, !40, !6015, !6026, !6094, !6133, !6160, !6303, !5938, !6651, !6660}
!3 = distinct !DICompositeType(tag: DW_TAG_enumeration_type, name: "_Lock_policy", scope: !5, file: !4, line: 49, baseType: !6, size: 32, elements: !7, identifier: "_ZTSN9__gnu_cxx12_Lock_policyE")
!4 = !DIFile(filename: "/usr/lib/gcc/x86_64-linux-gnu/7.5.0/../../../../include/c++/7.5.0/ext/concurrence.h", directory: "")
!5 = !DINamespace(name: "__gnu_cxx", scope: null)
!6 = !DIBasicType(name: "unsigned int", size: 32, encoding: DW_ATE_unsigned)
!7 = !{!8, !9, !10}
!8 = !DIEnumerator(name: "_S_single", value: 0, isUnsigned: true)
!9 = !DIEnumerator(name: "_S_mutex", value: 1, isUnsigned: true)
!10 = !DIEnumerator(name: "_S_atomic", value: 2, isUnsigned: true)
!11 = distinct !DICompositeType(tag: DW_TAG_enumeration_type, name: "ReservationKinds", scope: !13, file: !12, line: 60, baseType: !6, size: 32, elements: !31, identifier: "_ZTSN4llvm10InstrStage16ReservationKindsE")
!12 = !DIFile(filename: "/faster/fs/llvm34/include/llvm/MC/MCInstrItineraries.h", directory: "")
!13 = distinct !DICompositeType(tag: DW_TAG_structure_type, name: "InstrStage", scope: !14, file: !12, line: 59, size: 128, flags: DIFlagTypePassByValue, elements: !15, identifier: "_ZTSN4llvm10InstrStageE")
!14 = !DINamespace(name: "llvm", scope: null)
!15 = !{!16, !17, !18, !20, !21, !26, !27, !30}
!16 = !DIDerivedType(tag: DW_TAG_member, name: "Cycles_", scope: !13, file: !12, line: 65, baseType: !6, size: 32)
!17 = !DIDerivedType(tag: DW_TAG_member, name: "Units_", scope: !13, file: !12, line: 66, baseType: !6, size: 32, offset: 32)
!18 = !DIDerivedType(tag: DW_TAG_member, name: "NextCycles_", scope: !13, file: !12, line: 67, baseType: !19, size: 32, offset: 64)
!19 = !DIBasicType(name: "int", size: 32, encoding: DW_ATE_signed)
!20 = !DIDerivedType(tag: DW_TAG_member, name: "Kind_", scope: !13, file: !12, line: 68, baseType: !11, size: 32, offset: 96)
!21 = !DISubprogram(name: "getCycles", linkageName: "_ZNK4llvm10InstrStage9getCyclesEv", scope: !13, file: !12, line: 71, type: !22, scopeLine: 71, flags: DIFlagPrototyped, spFlags: DISPFlagOptimized)
!22 = !DISubroutineType(types: !23)
!23 = !{!6, !24}
!24 = !DIDerivedType(tag: DW_TAG_pointer_type, baseType: !25, size: 64, flags: DIFlagArtificial | DIFlagObjectPointer)
!25 = !DIDerivedType(tag: DW_TAG_const_type, baseType: !13)
!26 = !DISubprogram(name: "getUnits", linkageName: "_ZNK4llvm10InstrStage8getUnitsEv", scope: !13, file: !12, line: 76, type: !22, scopeLine: 76, flags: DIFlagPrototyped, spFlags: DISPFlagOptimized)
!27 = !DISubprogram(name: "getReservationKind", linkageName: "_ZNK4llvm10InstrStage18getReservationKindEv", scope: !13, file: !12, line: 80, type: !28, scopeLine: 80, flags: DIFlagPrototyped, spFlags: DISPFlagOptimized)
!28 = !DISubroutineType(types: !29)
!29 = !{!11, !24}
!30 = !DISubprogram(name: "getNextCycles", linkageName: "_ZNK4llvm10InstrStage13getNextCyclesEv", scope: !13, file: !12, line: 86, type: !22, scopeLine: 86, flags: DIFlagPrototyped, spFlags: DISPFlagOptimized)
!31 = !{!32, !33}
!32 = !DIEnumerator(name: "Required", value: 0, isUnsigned: true)
!33 = !DIEnumerator(name: "Reserved", value: 1, isUnsigned: true)
!34 = distinct !DICompositeType(tag: DW_TAG_enumeration_type, name: "OperandConstraint", scope: !36, file: !35, line: 31, baseType: !6, size: 32, elements: !37, identifier: "_ZTSN4llvm4MCOI17OperandConstraintE")
!35 = !DIFile(filename: "/faster/fs/llvm34/include/llvm/MC/MCInstrDesc.h", directory: "")
!36 = !DINamespace(name: "MCOI", scope: !14)
!37 = !{!38, !39}
!38 = !DIEnumerator(name: "TIED_TO", value: 0, isUnsigned: true)
!39 = !DIEnumerator(name: "EARLY_CLOBBER", value: 1, isUnsigned: true)
!40 = distinct !DICompositeType(tag: DW_TAG_enumeration_type, name: "MachineOperandType", scope: !42, file: !41, line: 45, baseType: !6, size: 32, elements: !6635, identifier: "_ZTSN4llvm14MachineOperand18MachineOperandTypeE")
!41 = !DIFile(filename: "/faster/fs/llvm34/include/llvm/CodeGen/MachineOperand.h", directory: "")
!42 = distinct !DICompositeType(tag: DW_TAG_class_type, name: "MachineOperand", scope: !14, file: !41, line: 43, size: 256, flags: DIFlagTypePassByValue | DIFlagNonTrivial, elements: !43, identifier: "_ZTSN4llvm14MachineOperandE")
!43 = !{!44, !46, !47, !48, !50, !51, !52, !53, !54, !55, !56, !57, !62, !6415, !6456, !6460, !6464, !6467, !6470, !6471, !6474, !6477, !6480, !6483, !6486, !6487, !6488, !6489, !6490, !6491, !6492, !6493, !6494, !6495, !6496, !6497, !6498, !6499, !6500, !6501, !6502, !6503, !6504, !6505, !6506, !6507, !6508, !6509, !6510, !6511, !6512, !6513, !6514, !6515, !6518, !6521, !6524, !6525, !6526, !6527, !6528, !6529, !6530, !6531, !6532, !6535, !6538, !6541, !6544, !6547, !6550, !6553, !6556, !6557, !6560, !6563, !6566, !6569, !6572, !6575, !6576, !6579, !6582, !6585, !6586, !6589, !6592, !6595, !6598, !6601, !6604, !6607, !6610, !6613, !6616, !6619, !6622, !6625, !6628, !6631, !6634}
!44 = !DIDerivedType(tag: DW_TAG_member, name: "OpKind", scope: !42, file: !41, line: 66, baseType: !45, size: 8)
!45 = !DIBasicType(name: "unsigned char", size: 8, encoding: DW_ATE_unsigned_char)
!46 = !DIDerivedType(tag: DW_TAG_member, name: "SubReg_TargetFlags", scope: !42, file: !41, line: 72, baseType: !6, size: 12, offset: 8, flags: DIFlagBitField, extraData: i64 8)
!47 = !DIDerivedType(tag: DW_TAG_member, name: "TiedTo", scope: !42, file: !41, line: 77, baseType: !45, size: 4, offset: 20, flags: DIFlagBitField, extraData: i64 8)
!48 = !DIDerivedType(tag: DW_TAG_member, name: "IsDef", scope: !42, file: !41, line: 84, baseType: !49, size: 1, offset: 24, flags: DIFlagBitField, extraData: i64 8)
!49 = !DIBasicType(name: "bool", size: 8, encoding: DW_ATE_boolean)
!50 = !DIDerivedType(tag: DW_TAG_member, name: "IsImp", scope: !42, file: !41, line: 88, baseType: !49, size: 1, offset: 25, flags: DIFlagBitField, extraData: i64 8)
!51 = !DIDerivedType(tag: DW_TAG_member, name: "IsKill", scope: !42, file: !41, line: 92, baseType: !49, size: 1, offset: 26, flags: DIFlagBitField, extraData: i64 8)
!52 = !DIDerivedType(tag: DW_TAG_member, name: "IsDead", scope: !42, file: !41, line: 96, baseType: !49, size: 1, offset: 27, flags: DIFlagBitField, extraData: i64 8)
!53 = !DIDerivedType(tag: DW_TAG_member, name: "IsUndef", scope: !42, file: !41, line: 115, baseType: !49, size: 1, offset: 28, flags: DIFlagBitField, extraData: i64 8)
!54 = !DIDerivedType(tag: DW_TAG_member, name: "IsInternalRead", scope: !42, file: !41, line: 126, baseType: !49, size: 1, offset: 29, flags: DIFlagBitField, extraData: i64 8)
!55 = !DIDerivedType(tag: DW_TAG_member, name: "IsEarlyClobber", scope: !42, file: !41, line: 131, baseType: !49, size: 1, offset: 30, flags: DIFlagBitField, extraData: i64 8)
!56 = !DIDerivedType(tag: DW_TAG_member, name: "IsDebug", scope: !42, file: !41, line: 135, baseType: !49, size: 1, offset: 31, flags: DIFlagBitField, extraData: i64 8)
!57 = !DIDerivedType(tag: DW_TAG_member, name: "SmallContents", scope: !42, file: !41, line: 144, baseType: !58, size: 32, offset: 32)
!58 = distinct !DICompositeType(tag: DW_TAG_union_type, scope: !42, file: !41, line: 141, size: 32, flags: DIFlagTypePassByValue, elements: !59, identifier: "_ZTSN4llvm14MachineOperandUt_E")
!59 = !{!60, !61}
!60 = !DIDerivedType(tag: DW_TAG_member, name: "RegNo", scope: !58, file: !41, line: 142, baseType: !6, size: 32)
!61 = !DIDerivedType(tag: DW_TAG_member, name: "OffsetLo", scope: !58, file: !41, line: 143, baseType: !6, size: 32)
!62 = !DIDerivedType(tag: DW_TAG_member, name: "ParentMI", scope: !42, file: !41, line: 148, baseType: !63, size: 64, offset: 64)
!63 = !DIDerivedType(tag: DW_TAG_pointer_type, baseType: !64, size: 64)
!64 = distinct !DICompositeType(tag: DW_TAG_class_type, name: "MachineInstr", scope: !14, file: !65, line: 50, size: 512, flags: DIFlagTypePassByReference | DIFlagNonTrivial, elements: !66, identifier: "_ZTSN4llvm12MachineInstrE")
!65 = !DIFile(filename: "/faster/fs/llvm34/include/llvm/CodeGen/MachineInstr.h", directory: "")
!66 = !{!67, !114, !2429, !5975, !5976, !5977, !5979, !5980, !5981, !5982, !5983, !5984, !5988, !5989, !5992, !5995, !5998, !6001, !6005, !6008, !6011, !6012, !6018, !6021, !6022, !6023, !6032, !6035, !6038, !6039, !6042, !6043, !6044, !6045, !6046, !6047, !6048, !6049, !6052, !6055, !6058, !6061, !6064, !6069, !6073, !6074, !6078, !6079, !6084, !6085, !6088, !6089, !6090, !6091, !6099, !6102, !6103, !6104, !6105, !6106, !6107, !6108, !6109, !6110, !6111, !6112, !6113, !6114, !6115, !6116, !6117, !6118, !6119, !6120, !6121, !6122, !6123, !6124, !6125, !6126, !6127, !6128, !6129, !6130, !6139, !6142, !6143, !6144, !6145, !6146, !6147, !6148, !6149, !6150, !6151, !6152, !6153, !6154, !6155, !6156, !6157, !6166, !6167, !6168, !6169, !6170, !6171, !6172, !6173, !6174, !6175, !6176, !6179, !6182, !6241, !6242, !6243, !6244, !6245, !6248, !6251, !6254, !6255, !6256, !6259, !6265, !6268, !6271, !6274, !6275, !6276, !6280, !6283, !6286, !6287, !6288, !6362, !6367, !6368, !6371, !6372, !6373, !6374, !6377, !6381, !6384, !6387, !6390, !6393, !6396, !6397, !6400, !6403, !6406, !6407, !6410, !6413, !6414}
!67 = !DIDerivedType(tag: DW_TAG_inheritance, scope: !64, baseType: !68, flags: DIFlagPublic, extraData: i32 0)
!68 = distinct !DICompositeType(tag: DW_TAG_class_type, name: "ilist_node<llvm::MachineInstr>", scope: !14, file: !69, line: 43, size: 128, flags: DIFlagTypePassByValue | DIFlagNonTrivial, elements: !70, templateParams: !92, identifier: "_ZTSN4llvm10ilist_nodeINS_12MachineInstrEEE")
!69 = !DIFile(filename: "/faster/fs/llvm34/include/llvm/ADT/ilist_node.h", directory: "")
!70 = !{!71, !94, !95, !99, !104, !107, !110, !111, !112, !113}
!71 = !DIDerivedType(tag: DW_TAG_inheritance, scope: !68, baseType: !72, extraData: i32 0)
!72 = distinct !DICompositeType(tag: DW_TAG_class_type, name: "ilist_half_node<llvm::MachineInstr>", scope: !14, file: !69, line: 26, size: 64, flags: DIFlagTypePassByValue | DIFlagNonTrivial, elements: !73, templateParams: !92, identifier: "_ZTSN4llvm15ilist_half_nodeINS_12MachineInstrEEE")
!73 = !{!74, !75, !79, !86, !89}
!74 = !DIDerivedType(tag: DW_TAG_member, name: "Prev", scope: !72, file: !69, line: 28, baseType: !63, size: 64)
!75 = !DISubprogram(name: "getPrev", linkageName: "_ZN4llvm15ilist_half_nodeINS_12MachineInstrEE7getPrevEv", scope: !72, file: !69, line: 30, type: !76, scopeLine: 30, flags: DIFlagProtected | DIFlagPrototyped, spFlags: DISPFlagOptimized)
!76 = !DISubroutineType(types: !77)
!77 = !{!63, !78}
!78 = !DIDerivedType(tag: DW_TAG_pointer_type, baseType: !72, size: 64, flags: DIFlagArtificial | DIFlagObjectPointer)
!79 = !DISubprogram(name: "getPrev", linkageName: "_ZNK4llvm15ilist_half_nodeINS_12MachineInstrEE7getPrevEv", scope: !72, file: !69, line: 31, type: !80, scopeLine: 31, flags: DIFlagProtected | DIFlagPrototyped, spFlags: DISPFlagOptimized)
!80 = !DISubroutineType(types: !81)
!81 = !{!82, !84}
!82 = !DIDerivedType(tag: DW_TAG_pointer_type, baseType: !83, size: 64)
!83 = !DIDerivedType(tag: DW_TAG_const_type, baseType: !64)
!84 = !DIDerivedType(tag: DW_TAG_pointer_type, baseType: !85, size: 64, flags: DIFlagArtificial | DIFlagObjectPointer)
!85 = !DIDerivedType(tag: DW_TAG_const_type, baseType: !72)
!86 = !DISubprogram(name: "setPrev", linkageName: "_ZN4llvm15ilist_half_nodeINS_12MachineInstrEE7setPrevEPS1_", scope: !72, file: !69, line: 32, type: !87, scopeLine: 32, flags: DIFlagProtected | DIFlagPrototyped, spFlags: DISPFlagOptimized)
!87 = !DISubroutineType(types: !88)
!88 = !{null, !78, !63}
!89 = !DISubprogram(name: "ilist_half_node", scope: !72, file: !69, line: 33, type: !90, scopeLine: 33, flags: DIFlagProtected | DIFlagPrototyped, spFlags: DISPFlagOptimized)
!90 = !DISubroutineType(types: !91)
!91 = !{null, !78}
!92 = !{!93}
!93 = !DITemplateTypeParameter(name: "NodeTy", type: !64)
!94 = !DIDerivedType(tag: DW_TAG_member, name: "Next", scope: !68, file: !69, line: 46, baseType: !63, size: 64, offset: 64)
!95 = !DISubprogram(name: "getNext", linkageName: "_ZN4llvm10ilist_nodeINS_12MachineInstrEE7getNextEv", scope: !68, file: !69, line: 47, type: !96, scopeLine: 47, flags: DIFlagPrototyped, spFlags: DISPFlagOptimized)
!96 = !DISubroutineType(types: !97)
!97 = !{!63, !98}
!98 = !DIDerivedType(tag: DW_TAG_pointer_type, baseType: !68, size: 64, flags: DIFlagArtificial | DIFlagObjectPointer)
!99 = !DISubprogram(name: "getNext", linkageName: "_ZNK4llvm10ilist_nodeINS_12MachineInstrEE7getNextEv", scope: !68, file: !69, line: 48, type: !100, scopeLine: 48, flags: DIFlagPrototyped, spFlags: DISPFlagOptimized)
!100 = !DISubroutineType(types: !101)
!101 = !{!82, !102}
!102 = !DIDerivedType(tag: DW_TAG_pointer_type, baseType: !103, size: 64, flags: DIFlagArtificial | DIFlagObjectPointer)
!103 = !DIDerivedType(tag: DW_TAG_const_type, baseType: !68)
!104 = !DISubprogram(name: "setNext", linkageName: "_ZN4llvm10ilist_nodeINS_12MachineInstrEE7setNextEPS1_", scope: !68, file: !69, line: 49, type: !105, scopeLine: 49, flags: DIFlagPrototyped, spFlags: DISPFlagOptimized)
!105 = !DISubroutineType(types: !106)
!106 = !{null, !98, !63}
!107 = !DISubprogram(name: "ilist_node", scope: !68, file: !69, line: 51, type: !108, scopeLine: 51, flags: DIFlagProtected | DIFlagPrototyped, spFlags: DISPFlagOptimized)
!108 = !DISubroutineType(types: !109)
!109 = !{null, !98}
!110 = !DISubprogram(name: "getPrevNode", linkageName: "_ZN4llvm10ilist_nodeINS_12MachineInstrEE11getPrevNodeEv", scope: !68, file: !69, line: 58, type: !96, scopeLine: 58, flags: DIFlagPublic | DIFlagPrototyped, spFlags: DISPFlagOptimized)
!111 = !DISubprogram(name: "getPrevNode", linkageName: "_ZNK4llvm10ilist_nodeINS_12MachineInstrEE11getPrevNodeEv", scope: !68, file: !69, line: 69, type: !100, scopeLine: 69, flags: DIFlagPublic | DIFlagPrototyped, spFlags: DISPFlagOptimized)
!112 = !DISubprogram(name: "getNextNode", linkageName: "_ZN4llvm10ilist_nodeINS_12MachineInstrEE11getNextNodeEv", scope: !68, file: !69, line: 80, type: !96, scopeLine: 80, flags: DIFlagPublic | DIFlagPrototyped, spFlags: DISPFlagOptimized)
!113 = !DISubprogram(name: "getNextNode", linkageName: "_ZNK4llvm10ilist_nodeINS_12MachineInstrEE11getNextNodeEv", scope: !68, file: !69, line: 91, type: !100, scopeLine: 91, flags: DIFlagPublic | DIFlagPrototyped, spFlags: DISPFlagOptimized)
!114 = !DIDerivedType(tag: DW_TAG_member, name: "MCID", scope: !64, file: !65, line: 70, baseType: !115, size: 64, offset: 128)
!115 = !DIDerivedType(tag: DW_TAG_pointer_type, baseType: !116, size: 64)
!116 = !DIDerivedType(tag: DW_TAG_const_type, baseType: !117)
!117 = distinct !DICompositeType(tag: DW_TAG_class_type, name: "MCInstrDesc", scope: !14, file: !35, line: 137, size: 512, flags: DIFlagTypePassByValue, elements: !118, identifier: "_ZTSN4llvm11MCInstrDescE")
!118 = !{!119, !121, !122, !123, !124, !125, !126, !132, !137, !138, !161, !162, !1924, !1928, !1931, !1934, !1935, !1936, !1937, !1940, !1941, !1942, !1943, !1944, !1945, !1946, !1947, !1948, !1949, !1950, !2389, !2390, !2391, !2392, !2393, !2394, !2395, !2396, !2397, !2398, !2399, !2400, !2401, !2402, !2403, !2404, !2405, !2406, !2407, !2408, !2411, !2412, !2413, !2414, !2417, !2421, !2424, !2425, !2426}
!119 = !DIDerivedType(tag: DW_TAG_member, name: "Opcode", scope: !117, file: !35, line: 139, baseType: !120, size: 16, flags: DIFlagPublic)
!120 = !DIBasicType(name: "unsigned short", size: 16, encoding: DW_ATE_unsigned)
!121 = !DIDerivedType(tag: DW_TAG_member, name: "NumOperands", scope: !117, file: !35, line: 140, baseType: !120, size: 16, offset: 16, flags: DIFlagPublic)
!122 = !DIDerivedType(tag: DW_TAG_member, name: "NumDefs", scope: !117, file: !35, line: 141, baseType: !120, size: 16, offset: 32, flags: DIFlagPublic)
!123 = !DIDerivedType(tag: DW_TAG_member, name: "SchedClass", scope: !117, file: !35, line: 142, baseType: !120, size: 16, offset: 48, flags: DIFlagPublic)
!124 = !DIDerivedType(tag: DW_TAG_member, name: "Size", scope: !117, file: !35, line: 143, baseType: !120, size: 16, offset: 64, flags: DIFlagPublic)
!125 = !DIDerivedType(tag: DW_TAG_member, name: "Flags", scope: !117, file: !35, line: 144, baseType: !6, size: 32, offset: 96, flags: DIFlagPublic)
!126 = !DIDerivedType(tag: DW_TAG_member, name: "TSFlags", scope: !117, file: !35, line: 145, baseType: !127, size: 64, offset: 128, flags: DIFlagPublic)
!127 = !DIDerivedType(tag: DW_TAG_typedef, name: "uint64_t", file: !128, line: 27, baseType: !129)
!128 = !DIFile(filename: "/usr/include/x86_64-linux-gnu/bits/stdint-uintn.h", directory: "")
!129 = !DIDerivedType(tag: DW_TAG_typedef, name: "__uint64_t", file: !130, line: 44, baseType: !131)
!130 = !DIFile(filename: "/usr/include/x86_64-linux-gnu/bits/types.h", directory: "")
!131 = !DIBasicType(name: "long unsigned int", size: 64, encoding: DW_ATE_unsigned)
!132 = !DIDerivedType(tag: DW_TAG_member, name: "ImplicitUses", scope: !117, file: !35, line: 146, baseType: !133, size: 64, offset: 192, flags: DIFlagPublic)
!133 = !DIDerivedType(tag: DW_TAG_pointer_type, baseType: !134, size: 64)
!134 = !DIDerivedType(tag: DW_TAG_const_type, baseType: !135)
!135 = !DIDerivedType(tag: DW_TAG_typedef, name: "uint16_t", file: !128, line: 25, baseType: !136)
!136 = !DIDerivedType(tag: DW_TAG_typedef, name: "__uint16_t", file: !130, line: 39, baseType: !120)
!137 = !DIDerivedType(tag: DW_TAG_member, name: "ImplicitDefs", scope: !117, file: !35, line: 147, baseType: !133, size: 64, offset: 256, flags: DIFlagPublic)
!138 = !DIDerivedType(tag: DW_TAG_member, name: "OpInfo", scope: !117, file: !35, line: 148, baseType: !139, size: 64, offset: 320, flags: DIFlagPublic)
!139 = !DIDerivedType(tag: DW_TAG_pointer_type, baseType: !140, size: 64)
!140 = !DIDerivedType(tag: DW_TAG_const_type, baseType: !141)
!141 = distinct !DICompositeType(tag: DW_TAG_class_type, name: "MCOperandInfo", scope: !14, file: !35, line: 58, size: 64, flags: DIFlagTypePassByValue, elements: !142, identifier: "_ZTSN4llvm13MCOperandInfoE")
!142 = !{!143, !148, !151, !152, !155, !159, !160}
!143 = !DIDerivedType(tag: DW_TAG_member, name: "RegClass", scope: !141, file: !35, line: 64, baseType: !144, size: 16, flags: DIFlagPublic)
!144 = !DIDerivedType(tag: DW_TAG_typedef, name: "int16_t", file: !145, line: 25, baseType: !146)
!145 = !DIFile(filename: "/usr/include/x86_64-linux-gnu/bits/stdint-intn.h", directory: "")
!146 = !DIDerivedType(tag: DW_TAG_typedef, name: "__int16_t", file: !130, line: 38, baseType: !147)
!147 = !DIBasicType(name: "short", size: 16, encoding: DW_ATE_signed)
!148 = !DIDerivedType(tag: DW_TAG_member, name: "Flags", scope: !141, file: !35, line: 67, baseType: !149, size: 8, offset: 16, flags: DIFlagPublic)
!149 = !DIDerivedType(tag: DW_TAG_typedef, name: "uint8_t", file: !128, line: 24, baseType: !150)
!150 = !DIDerivedType(tag: DW_TAG_typedef, name: "__uint8_t", file: !130, line: 37, baseType: !45)
!151 = !DIDerivedType(tag: DW_TAG_member, name: "OperandType", scope: !141, file: !35, line: 70, baseType: !149, size: 8, offset: 24, flags: DIFlagPublic)
!152 = !DIDerivedType(tag: DW_TAG_member, name: "Constraints", scope: !141, file: !35, line: 74, baseType: !153, size: 32, offset: 32, flags: DIFlagPublic)
!153 = !DIDerivedType(tag: DW_TAG_typedef, name: "uint32_t", file: !128, line: 26, baseType: !154)
!154 = !DIDerivedType(tag: DW_TAG_typedef, name: "__uint32_t", file: !130, line: 41, baseType: !6)
!155 = !DISubprogram(name: "isLookupPtrRegClass", linkageName: "_ZNK4llvm13MCOperandInfo19isLookupPtrRegClassEv", scope: !141, file: !35, line: 79, type: !156, scopeLine: 79, flags: DIFlagPublic | DIFlagPrototyped, spFlags: DISPFlagOptimized)
!156 = !DISubroutineType(types: !157)
!157 = !{!49, !158}
!158 = !DIDerivedType(tag: DW_TAG_pointer_type, baseType: !140, size: 64, flags: DIFlagArtificial | DIFlagObjectPointer)
!159 = !DISubprogram(name: "isPredicate", linkageName: "_ZNK4llvm13MCOperandInfo11isPredicateEv", scope: !141, file: !35, line: 83, type: !156, scopeLine: 83, flags: DIFlagPublic | DIFlagPrototyped, spFlags: DISPFlagOptimized)
!160 = !DISubprogram(name: "isOptionalDef", linkageName: "_ZNK4llvm13MCOperandInfo13isOptionalDefEv", scope: !141, file: !35, line: 87, type: !156, scopeLine: 87, flags: DIFlagPublic | DIFlagPrototyped, spFlags: DISPFlagOptimized)
!161 = !DIDerivedType(tag: DW_TAG_member, name: "DeprecatedFeatureMask", scope: !117, file: !35, line: 149, baseType: !127, size: 64, offset: 384, flags: DIFlagPublic)
!162 = !DIDerivedType(tag: DW_TAG_member, name: "ComplexDeprecationInfo", scope: !117, file: !35, line: 152, baseType: !163, size: 64, offset: 448, flags: DIFlagPublic)
!163 = !DIDerivedType(tag: DW_TAG_pointer_type, baseType: !164, size: 64)
!164 = !DISubroutineType(types: !165)
!165 = !{!49, !166, !1728, !1923}
!166 = !DIDerivedType(tag: DW_TAG_reference_type, baseType: !167, size: 64)
!167 = distinct !DICompositeType(tag: DW_TAG_class_type, name: "MCInst", scope: !14, file: !168, line: 150, size: 1344, flags: DIFlagTypePassByReference | DIFlagNonTrivial, elements: !169, identifier: "_ZTSN4llvm6MCInstE")
!168 = !DIFile(filename: "/faster/fs/llvm34/include/llvm/MC/MCInst.h", directory: "")
!169 = !{!170, !171, !199, !545, !549, !552, !556, !559, !562, !565, !568, !569, !572, !573, !576, !580, !581, !584, !587, !590}
!170 = !DIDerivedType(tag: DW_TAG_member, name: "Opcode", scope: !167, file: !168, line: 151, baseType: !6, size: 32)
!171 = !DIDerivedType(tag: DW_TAG_member, name: "Loc", scope: !167, file: !168, line: 152, baseType: !172, size: 64, offset: 64)
!172 = distinct !DICompositeType(tag: DW_TAG_class_type, name: "SMLoc", scope: !14, file: !173, line: 23, size: 64, flags: DIFlagTypePassByValue | DIFlagNonTrivial, elements: !174, identifier: "_ZTSN4llvm5SMLocE")
!173 = !DIFile(filename: "/faster/fs/llvm34/include/llvm/Support/SMLoc.h", directory: "")
!174 = !{!175, !179, !183, !188, !192, !193, !196}
!175 = !DIDerivedType(tag: DW_TAG_member, name: "Ptr", scope: !172, file: !173, line: 24, baseType: !176, size: 64)
!176 = !DIDerivedType(tag: DW_TAG_pointer_type, baseType: !177, size: 64)
!177 = !DIDerivedType(tag: DW_TAG_const_type, baseType: !178)
!178 = !DIBasicType(name: "char", size: 8, encoding: DW_ATE_signed_char)
!179 = !DISubprogram(name: "SMLoc", scope: !172, file: !173, line: 26, type: !180, scopeLine: 26, flags: DIFlagPublic | DIFlagPrototyped, spFlags: DISPFlagOptimized)
!180 = !DISubroutineType(types: !181)
!181 = !{null, !182}
!182 = !DIDerivedType(tag: DW_TAG_pointer_type, baseType: !172, size: 64, flags: DIFlagArtificial | DIFlagObjectPointer)
!183 = !DISubprogram(name: "isValid", linkageName: "_ZNK4llvm5SMLoc7isValidEv", scope: !172, file: !173, line: 28, type: !184, scopeLine: 28, flags: DIFlagPublic | DIFlagPrototyped, spFlags: DISPFlagOptimized)
!184 = !DISubroutineType(types: !185)
!185 = !{!49, !186}
!186 = !DIDerivedType(tag: DW_TAG_pointer_type, baseType: !187, size: 64, flags: DIFlagArtificial | DIFlagObjectPointer)
!187 = !DIDerivedType(tag: DW_TAG_const_type, baseType: !172)
!188 = !DISubprogram(name: "operator==", linkageName: "_ZNK4llvm5SMLoceqERKS0_", scope: !172, file: !173, line: 30, type: !189, scopeLine: 30, flags: DIFlagPublic | DIFlagPrototyped, spFlags: DISPFlagOptimized)
!189 = !DISubroutineType(types: !190)
!190 = !{!49, !186, !191}
!191 = !DIDerivedType(tag: DW_TAG_reference_type, baseType: !187, size: 64)
!192 = !DISubprogram(name: "operator!=", linkageName: "_ZNK4llvm5SMLocneERKS0_", scope: !172, file: !173, line: 31, type: !189, scopeLine: 31, flags: DIFlagPublic | DIFlagPrototyped, spFlags: DISPFlagOptimized)
!193 = !DISubprogram(name: "getPointer", linkageName: "_ZNK4llvm5SMLoc10getPointerEv", scope: !172, file: !173, line: 33, type: !194, scopeLine: 33, flags: DIFlagPublic | DIFlagPrototyped, spFlags: DISPFlagOptimized)
!194 = !DISubroutineType(types: !195)
!195 = !{!176, !186}
!196 = !DISubprogram(name: "getFromPointer", linkageName: "_ZN4llvm5SMLoc14getFromPointerEPKc", scope: !172, file: !173, line: 35, type: !197, scopeLine: 35, flags: DIFlagPublic | DIFlagPrototyped | DIFlagStaticMember, spFlags: DISPFlagOptimized)
!197 = !DISubroutineType(types: !198)
!198 = !{!172, !176}
!199 = !DIDerivedType(tag: DW_TAG_member, name: "Operands", scope: !167, file: !168, line: 153, baseType: !200, size: 1216, offset: 128)
!200 = distinct !DICompositeType(tag: DW_TAG_class_type, name: "SmallVector<llvm::MCOperand, 8>", scope: !14, file: !201, line: 880, size: 1216, flags: DIFlagTypePassByReference | DIFlagNonTrivial, elements: !202, templateParams: !521, identifier: "_ZTSN4llvm11SmallVectorINS_9MCOperandELj8EEE")
!201 = !DIFile(filename: "/faster/fs/llvm34/include/llvm/ADT/SmallVector.h", directory: "")
!202 = !{!203, !514, !523, !527, !530, !535, !538, !542}
!203 = !DIDerivedType(tag: DW_TAG_inheritance, scope: !200, baseType: !204, flags: DIFlagPublic, extraData: i32 0)
!204 = distinct !DICompositeType(tag: DW_TAG_class_type, name: "SmallVectorImpl<llvm::MCOperand>", scope: !14, file: !201, line: 371, size: 320, flags: DIFlagTypePassByReference | DIFlagNonTrivial, elements: !205, templateParams: !513, identifier: "_ZTSN4llvm15SmallVectorImplINS_9MCOperandEEE")
!205 = !{!206, !451, !457, !460, !463, !464, !465, !468, !469, !472, !476, !481, !482, !486, !489, !493, !496, !499, !502, !506, !510, !511, !512}
!206 = !DIDerivedType(tag: DW_TAG_inheritance, scope: !204, baseType: !207, flags: DIFlagPublic, extraData: i32 0)
!207 = distinct !DICompositeType(tag: DW_TAG_class_type, name: "SmallVectorTemplateBase<llvm::MCOperand, true>", scope: !14, file: !201, line: 296, size: 320, flags: DIFlagTypePassByValue | DIFlagNonTrivial, elements: !208, templateParams: !449, identifier: "_ZTSN4llvm23SmallVectorTemplateBaseINS_9MCOperandELb1EEE")
!208 = !{!209, !435, !439, !442, !443, !446}
!209 = !DIDerivedType(tag: DW_TAG_inheritance, scope: !207, baseType: !210, flags: DIFlagPublic, extraData: i32 0)
!210 = distinct !DICompositeType(tag: DW_TAG_class_type, name: "SmallVectorTemplateCommon<llvm::MCOperand, void>", scope: !14, file: !201, line: 66, size: 320, flags: DIFlagTypePassByValue | DIFlagNonTrivial, elements: !211, templateParams: !432, identifier: "_ZTSN4llvm25SmallVectorTemplateCommonINS_9MCOperandEvEE")
!211 = !{!212, !237, !352, !356, !359, !364, !367, !371, !375, !380, !381, !382, !383, !384, !391, !396, !397, !398, !402, !403, !406, !410, !414, !419, !424, !427, !430, !431}
!212 = !DIDerivedType(tag: DW_TAG_inheritance, scope: !210, baseType: !213, flags: DIFlagPublic, extraData: i32 0)
!213 = distinct !DICompositeType(tag: DW_TAG_class_type, name: "SmallVectorBase", scope: !14, file: !201, line: 33, size: 192, flags: DIFlagTypePassByValue | DIFlagNonTrivial, elements: !214, identifier: "_ZTSN4llvm15SmallVectorBaseE")
!214 = !{!215, !217, !218, !219, !225, !228, !233, !234}
!215 = !DIDerivedType(tag: DW_TAG_member, name: "BeginX", scope: !213, file: !201, line: 35, baseType: !216, size: 64, flags: DIFlagProtected)
!216 = !DIDerivedType(tag: DW_TAG_pointer_type, baseType: null, size: 64)
!217 = !DIDerivedType(tag: DW_TAG_member, name: "EndX", scope: !213, file: !201, line: 35, baseType: !216, size: 64, offset: 64, flags: DIFlagProtected)
!218 = !DIDerivedType(tag: DW_TAG_member, name: "CapacityX", scope: !213, file: !201, line: 35, baseType: !216, size: 64, offset: 128, flags: DIFlagProtected)
!219 = !DISubprogram(name: "SmallVectorBase", scope: !213, file: !201, line: 38, type: !220, scopeLine: 38, flags: DIFlagProtected | DIFlagPrototyped, spFlags: DISPFlagOptimized)
!220 = !DISubroutineType(types: !221)
!221 = !{null, !222, !216, !223}
!222 = !DIDerivedType(tag: DW_TAG_pointer_type, baseType: !213, size: 64, flags: DIFlagArtificial | DIFlagObjectPointer)
!223 = !DIDerivedType(tag: DW_TAG_typedef, name: "size_t", file: !224, line: 46, baseType: !131)
!224 = !DIFile(filename: "llvm-project/build/lib/clang/11.0.0/include/stddef.h", directory: "/fast/fs")
!225 = !DISubprogram(name: "grow_pod", linkageName: "_ZN4llvm15SmallVectorBase8grow_podEPvmm", scope: !213, file: !201, line: 43, type: !226, scopeLine: 43, flags: DIFlagProtected | DIFlagPrototyped, spFlags: DISPFlagOptimized)
!226 = !DISubroutineType(types: !227)
!227 = !{null, !222, !216, !223, !223}
!228 = !DISubprogram(name: "size_in_bytes", linkageName: "_ZNK4llvm15SmallVectorBase13size_in_bytesEv", scope: !213, file: !201, line: 47, type: !229, scopeLine: 47, flags: DIFlagPublic | DIFlagPrototyped, spFlags: DISPFlagOptimized)
!229 = !DISubroutineType(types: !230)
!230 = !{!223, !231}
!231 = !DIDerivedType(tag: DW_TAG_pointer_type, baseType: !232, size: 64, flags: DIFlagArtificial | DIFlagObjectPointer)
!232 = !DIDerivedType(tag: DW_TAG_const_type, baseType: !213)
!233 = !DISubprogram(name: "capacity_in_bytes", linkageName: "_ZNK4llvm15SmallVectorBase17capacity_in_bytesEv", scope: !213, file: !201, line: 52, type: !229, scopeLine: 52, flags: DIFlagPublic | DIFlagPrototyped, spFlags: DISPFlagOptimized)
!234 = !DISubprogram(name: "empty", linkageName: "_ZNK4llvm15SmallVectorBase5emptyEv", scope: !213, file: !201, line: 56, type: !235, scopeLine: 56, flags: DIFlagPublic | DIFlagPrototyped, spFlags: DISPFlagOptimized)
!235 = !DISubroutineType(types: !236)
!236 = !{!49, !231}
!237 = !DIDerivedType(tag: DW_TAG_member, name: "FirstEl", scope: !210, file: !201, line: 74, baseType: !238, size: 128, offset: 192)
!238 = !DIDerivedType(tag: DW_TAG_typedef, name: "U", scope: !210, file: !201, line: 73, baseType: !239)
!239 = distinct !DICompositeType(tag: DW_TAG_structure_type, name: "AlignedCharArrayUnion<llvm::MCOperand, char, char, char, char, char, char>", scope: !14, file: !240, line: 199, size: 128, flags: DIFlagTypePassByValue, elements: !241, templateParams: !252, identifier: "_ZTSN4llvm21AlignedCharArrayUnionINS_9MCOperandEccccccEE")
!240 = !DIFile(filename: "/faster/fs/llvm34/include/llvm/Support/AlignOf.h", directory: "")
!241 = !{!242}
!242 = !DIDerivedType(tag: DW_TAG_inheritance, scope: !239, baseType: !243, extraData: i32 0)
!243 = distinct !DICompositeType(tag: DW_TAG_structure_type, name: "AlignedCharArray<8, 16>", scope: !14, file: !240, line: 75, size: 128, flags: DIFlagTypePassByValue, elements: !244, templateParams: !249, identifier: "_ZTSN4llvm16AlignedCharArrayILm8ELm16EEE")
!244 = !{!245}
!245 = !DIDerivedType(tag: DW_TAG_member, name: "buffer", scope: !243, file: !240, line: 76, baseType: !246, size: 128, align: 64)
!246 = !DICompositeType(tag: DW_TAG_array_type, baseType: !178, size: 128, elements: !247)
!247 = !{!248}
!248 = !DISubrange(count: 16)
!249 = !{!250, !251}
!250 = !DITemplateValueParameter(name: "Alignment", type: !131, value: i64 8)
!251 = !DITemplateValueParameter(name: "Size", type: !131, value: i64 16)
!252 = !{!253, !346, !347, !348, !349, !350, !351}
!253 = !DITemplateTypeParameter(name: "T1", type: !254)
!254 = distinct !DICompositeType(tag: DW_TAG_class_type, name: "MCOperand", scope: !14, file: !168, line: 33, size: 128, flags: DIFlagTypePassByValue | DIFlagNonTrivial, elements: !255, identifier: "_ZTSN4llvm9MCOperandE")
!255 = !{!256, !257, !274, !278, !283, !284, !285, !286, !287, !288, !291, !294, !297, !300, !303, !306, !309, !312, !315, !318, !321, !324, !327, !330, !333, !343}
!256 = !DIDerivedType(tag: DW_TAG_member, name: "Kind", scope: !254, file: !168, line: 42, baseType: !45, size: 8)
!257 = !DIDerivedType(tag: DW_TAG_member, scope: !254, file: !168, line: 44, baseType: !258, size: 64, offset: 64)
!258 = distinct !DICompositeType(tag: DW_TAG_union_type, scope: !254, file: !168, line: 44, size: 64, flags: DIFlagExportSymbols | DIFlagTypePassByValue, elements: !259, identifier: "_ZTSN4llvm9MCOperandUt_E")
!259 = !{!260, !261, !265, !267, !271}
!260 = !DIDerivedType(tag: DW_TAG_member, name: "RegVal", scope: !258, file: !168, line: 45, baseType: !6, size: 32)
!261 = !DIDerivedType(tag: DW_TAG_member, name: "ImmVal", scope: !258, file: !168, line: 46, baseType: !262, size: 64)
!262 = !DIDerivedType(tag: DW_TAG_typedef, name: "int64_t", file: !145, line: 27, baseType: !263)
!263 = !DIDerivedType(tag: DW_TAG_typedef, name: "__int64_t", file: !130, line: 43, baseType: !264)
!264 = !DIBasicType(name: "long int", size: 64, encoding: DW_ATE_signed)
!265 = !DIDerivedType(tag: DW_TAG_member, name: "FPImmVal", scope: !258, file: !168, line: 47, baseType: !266, size: 64)
!266 = !DIBasicType(name: "double", size: 64, encoding: DW_ATE_float)
!267 = !DIDerivedType(tag: DW_TAG_member, name: "ExprVal", scope: !258, file: !168, line: 48, baseType: !268, size: 64)
!268 = !DIDerivedType(tag: DW_TAG_pointer_type, baseType: !269, size: 64)
!269 = !DIDerivedType(tag: DW_TAG_const_type, baseType: !270)
!270 = distinct !DICompositeType(tag: DW_TAG_class_type, name: "MCExpr", scope: !14, file: !168, line: 28, flags: DIFlagFwdDecl, identifier: "_ZTSN4llvm6MCExprE")
!271 = !DIDerivedType(tag: DW_TAG_member, name: "InstVal", scope: !258, file: !168, line: 49, baseType: !272, size: 64)
!272 = !DIDerivedType(tag: DW_TAG_pointer_type, baseType: !273, size: 64)
!273 = !DIDerivedType(tag: DW_TAG_const_type, baseType: !167)
!274 = !DISubprogram(name: "MCOperand", scope: !254, file: !168, line: 53, type: !275, scopeLine: 53, flags: DIFlagPublic | DIFlagPrototyped, spFlags: DISPFlagOptimized)
!275 = !DISubroutineType(types: !276)
!276 = !{null, !277}
!277 = !DIDerivedType(tag: DW_TAG_pointer_type, baseType: !254, size: 64, flags: DIFlagArtificial | DIFlagObjectPointer)
!278 = !DISubprogram(name: "isValid", linkageName: "_ZNK4llvm9MCOperand7isValidEv", scope: !254, file: !168, line: 55, type: !279, scopeLine: 55, flags: DIFlagPublic | DIFlagPrototyped, spFlags: DISPFlagOptimized)
!279 = !DISubroutineType(types: !280)
!280 = !{!49, !281}
!281 = !DIDerivedType(tag: DW_TAG_pointer_type, baseType: !282, size: 64, flags: DIFlagArtificial | DIFlagObjectPointer)
!282 = !DIDerivedType(tag: DW_TAG_const_type, baseType: !254)
!283 = !DISubprogram(name: "isReg", linkageName: "_ZNK4llvm9MCOperand5isRegEv", scope: !254, file: !168, line: 56, type: !279, scopeLine: 56, flags: DIFlagPublic | DIFlagPrototyped, spFlags: DISPFlagOptimized)
!284 = !DISubprogram(name: "isImm", linkageName: "_ZNK4llvm9MCOperand5isImmEv", scope: !254, file: !168, line: 57, type: !279, scopeLine: 57, flags: DIFlagPublic | DIFlagPrototyped, spFlags: DISPFlagOptimized)
!285 = !DISubprogram(name: "isFPImm", linkageName: "_ZNK4llvm9MCOperand7isFPImmEv", scope: !254, file: !168, line: 58, type: !279, scopeLine: 58, flags: DIFlagPublic | DIFlagPrototyped, spFlags: DISPFlagOptimized)
!286 = !DISubprogram(name: "isExpr", linkageName: "_ZNK4llvm9MCOperand6isExprEv", scope: !254, file: !168, line: 59, type: !279, scopeLine: 59, flags: DIFlagPublic | DIFlagPrototyped, spFlags: DISPFlagOptimized)
!287 = !DISubprogram(name: "isInst", linkageName: "_ZNK4llvm9MCOperand6isInstEv", scope: !254, file: !168, line: 60, type: !279, scopeLine: 60, flags: DIFlagPublic | DIFlagPrototyped, spFlags: DISPFlagOptimized)
!288 = !DISubprogram(name: "getReg", linkageName: "_ZNK4llvm9MCOperand6getRegEv", scope: !254, file: !168, line: 63, type: !289, scopeLine: 63, flags: DIFlagPublic | DIFlagPrototyped, spFlags: DISPFlagOptimized)
!289 = !DISubroutineType(types: !290)
!290 = !{!6, !281}
!291 = !DISubprogram(name: "setReg", linkageName: "_ZN4llvm9MCOperand6setRegEj", scope: !254, file: !168, line: 69, type: !292, scopeLine: 69, flags: DIFlagPublic | DIFlagPrototyped, spFlags: DISPFlagOptimized)
!292 = !DISubroutineType(types: !293)
!293 = !{null, !277, !6}
!294 = !DISubprogram(name: "getImm", linkageName: "_ZNK4llvm9MCOperand6getImmEv", scope: !254, file: !168, line: 74, type: !295, scopeLine: 74, flags: DIFlagPublic | DIFlagPrototyped, spFlags: DISPFlagOptimized)
!295 = !DISubroutineType(types: !296)
!296 = !{!262, !281}
!297 = !DISubprogram(name: "setImm", linkageName: "_ZN4llvm9MCOperand6setImmEl", scope: !254, file: !168, line: 78, type: !298, scopeLine: 78, flags: DIFlagPublic | DIFlagPrototyped, spFlags: DISPFlagOptimized)
!298 = !DISubroutineType(types: !299)
!299 = !{null, !277, !262}
!300 = !DISubprogram(name: "getFPImm", linkageName: "_ZNK4llvm9MCOperand8getFPImmEv", scope: !254, file: !168, line: 83, type: !301, scopeLine: 83, flags: DIFlagPublic | DIFlagPrototyped, spFlags: DISPFlagOptimized)
!301 = !DISubroutineType(types: !302)
!302 = !{!266, !281}
!303 = !DISubprogram(name: "setFPImm", linkageName: "_ZN4llvm9MCOperand8setFPImmEd", scope: !254, file: !168, line: 88, type: !304, scopeLine: 88, flags: DIFlagPublic | DIFlagPrototyped, spFlags: DISPFlagOptimized)
!304 = !DISubroutineType(types: !305)
!305 = !{null, !277, !266}
!306 = !DISubprogram(name: "getExpr", linkageName: "_ZNK4llvm9MCOperand7getExprEv", scope: !254, file: !168, line: 93, type: !307, scopeLine: 93, flags: DIFlagPublic | DIFlagPrototyped, spFlags: DISPFlagOptimized)
!307 = !DISubroutineType(types: !308)
!308 = !{!268, !281}
!309 = !DISubprogram(name: "setExpr", linkageName: "_ZN4llvm9MCOperand7setExprEPKNS_6MCExprE", scope: !254, file: !168, line: 97, type: !310, scopeLine: 97, flags: DIFlagPublic | DIFlagPrototyped, spFlags: DISPFlagOptimized)
!310 = !DISubroutineType(types: !311)
!311 = !{null, !277, !268}
!312 = !DISubprogram(name: "getInst", linkageName: "_ZNK4llvm9MCOperand7getInstEv", scope: !254, file: !168, line: 102, type: !313, scopeLine: 102, flags: DIFlagPublic | DIFlagPrototyped, spFlags: DISPFlagOptimized)
!313 = !DISubroutineType(types: !314)
!314 = !{!272, !281}
!315 = !DISubprogram(name: "setInst", linkageName: "_ZN4llvm9MCOperand7setInstEPKNS_6MCInstE", scope: !254, file: !168, line: 106, type: !316, scopeLine: 106, flags: DIFlagPublic | DIFlagPrototyped, spFlags: DISPFlagOptimized)
!316 = !DISubroutineType(types: !317)
!317 = !{null, !277, !272}
!318 = !DISubprogram(name: "CreateReg", linkageName: "_ZN4llvm9MCOperand9CreateRegEj", scope: !254, file: !168, line: 111, type: !319, scopeLine: 111, flags: DIFlagPublic | DIFlagPrototyped | DIFlagStaticMember, spFlags: DISPFlagOptimized)
!319 = !DISubroutineType(types: !320)
!320 = !{!254, !6}
!321 = !DISubprogram(name: "CreateImm", linkageName: "_ZN4llvm9MCOperand9CreateImmEl", scope: !254, file: !168, line: 117, type: !322, scopeLine: 117, flags: DIFlagPublic | DIFlagPrototyped | DIFlagStaticMember, spFlags: DISPFlagOptimized)
!322 = !DISubroutineType(types: !323)
!323 = !{!254, !262}
!324 = !DISubprogram(name: "CreateFPImm", linkageName: "_ZN4llvm9MCOperand11CreateFPImmEd", scope: !254, file: !168, line: 123, type: !325, scopeLine: 123, flags: DIFlagPublic | DIFlagPrototyped | DIFlagStaticMember, spFlags: DISPFlagOptimized)
!325 = !DISubroutineType(types: !326)
!326 = !{!254, !266}
!327 = !DISubprogram(name: "CreateExpr", linkageName: "_ZN4llvm9MCOperand10CreateExprEPKNS_6MCExprE", scope: !254, file: !168, line: 129, type: !328, scopeLine: 129, flags: DIFlagPublic | DIFlagPrototyped | DIFlagStaticMember, spFlags: DISPFlagOptimized)
!328 = !DISubroutineType(types: !329)
!329 = !{!254, !268}
!330 = !DISubprogram(name: "CreateInst", linkageName: "_ZN4llvm9MCOperand10CreateInstEPKNS_6MCInstE", scope: !254, file: !168, line: 135, type: !331, scopeLine: 135, flags: DIFlagPublic | DIFlagPrototyped | DIFlagStaticMember, spFlags: DISPFlagOptimized)
!331 = !DISubroutineType(types: !332)
!332 = !{!254, !272}
!333 = !DISubprogram(name: "print", linkageName: "_ZNK4llvm9MCOperand5printERNS_11raw_ostreamEPKNS_9MCAsmInfoE", scope: !254, file: !168, line: 142, type: !334, scopeLine: 142, flags: DIFlagPublic | DIFlagPrototyped, spFlags: DISPFlagOptimized)
!334 = !DISubroutineType(types: !335)
!335 = !{null, !281, !336, !339}
!336 = !DIDerivedType(tag: DW_TAG_reference_type, baseType: !337, size: 64)
!337 = distinct !DICompositeType(tag: DW_TAG_class_type, name: "raw_ostream", scope: !14, file: !338, line: 31, flags: DIFlagFwdDecl, identifier: "_ZTSN4llvm11raw_ostreamE")
!338 = !DIFile(filename: "/faster/fs/llvm34/include/llvm/Support/raw_ostream.h", directory: "")
!339 = !DIDerivedType(tag: DW_TAG_pointer_type, baseType: !340, size: 64)
!340 = !DIDerivedType(tag: DW_TAG_const_type, baseType: !341)
!341 = distinct !DICompositeType(tag: DW_TAG_class_type, name: "MCAsmInfo", scope: !14, file: !342, line: 29, flags: DIFlagFwdDecl, identifier: "_ZTSN4llvm9MCAsmInfoE")
!342 = !DIFile(filename: "/faster/fs/llvm34/include/llvm/Target/TargetMachine.h", directory: "")
!343 = !DISubprogram(name: "dump", linkageName: "_ZNK4llvm9MCOperand4dumpEv", scope: !254, file: !168, line: 143, type: !344, scopeLine: 143, flags: DIFlagPublic | DIFlagPrototyped, spFlags: DISPFlagOptimized)
!344 = !DISubroutineType(types: !345)
!345 = !{null, !281}
!346 = !DITemplateTypeParameter(name: "T2", type: !178, defaulted: true)
!347 = !DITemplateTypeParameter(name: "T3", type: !178, defaulted: true)
!348 = !DITemplateTypeParameter(name: "T4", type: !178, defaulted: true)
!349 = !DITemplateTypeParameter(name: "T5", type: !178, defaulted: true)
!350 = !DITemplateTypeParameter(name: "T6", type: !178, defaulted: true)
!351 = !DITemplateTypeParameter(name: "T7", type: !178, defaulted: true)
!352 = !DISubprogram(name: "SmallVectorTemplateCommon", scope: !210, file: !201, line: 78, type: !353, scopeLine: 78, flags: DIFlagProtected | DIFlagPrototyped, spFlags: DISPFlagOptimized)
!353 = !DISubroutineType(types: !354)
!354 = !{null, !355, !223}
!355 = !DIDerivedType(tag: DW_TAG_pointer_type, baseType: !210, size: 64, flags: DIFlagArtificial | DIFlagObjectPointer)
!356 = !DISubprogram(name: "grow_pod", linkageName: "_ZN4llvm25SmallVectorTemplateCommonINS_9MCOperandEvE8grow_podEmm", scope: !210, file: !201, line: 80, type: !357, scopeLine: 80, flags: DIFlagProtected | DIFlagPrototyped, spFlags: DISPFlagOptimized)
!357 = !DISubroutineType(types: !358)
!358 = !{null, !355, !223, !223}
!359 = !DISubprogram(name: "isSmall", linkageName: "_ZNK4llvm25SmallVectorTemplateCommonINS_9MCOperandEvE7isSmallEv", scope: !210, file: !201, line: 86, type: !360, scopeLine: 86, flags: DIFlagProtected | DIFlagPrototyped, spFlags: DISPFlagOptimized)
!360 = !DISubroutineType(types: !361)
!361 = !{!49, !362}
!362 = !DIDerivedType(tag: DW_TAG_pointer_type, baseType: !363, size: 64, flags: DIFlagArtificial | DIFlagObjectPointer)
!363 = !DIDerivedType(tag: DW_TAG_const_type, baseType: !210)
!364 = !DISubprogram(name: "resetToSmall", linkageName: "_ZN4llvm25SmallVectorTemplateCommonINS_9MCOperandEvE12resetToSmallEv", scope: !210, file: !201, line: 91, type: !365, scopeLine: 91, flags: DIFlagProtected | DIFlagPrototyped, spFlags: DISPFlagOptimized)
!365 = !DISubroutineType(types: !366)
!366 = !{null, !355}
!367 = !DISubprogram(name: "setEnd", linkageName: "_ZN4llvm25SmallVectorTemplateCommonINS_9MCOperandEvE6setEndEPS1_", scope: !210, file: !201, line: 95, type: !368, scopeLine: 95, flags: DIFlagProtected | DIFlagPrototyped, spFlags: DISPFlagOptimized)
!368 = !DISubroutineType(types: !369)
!369 = !{null, !355, !370}
!370 = !DIDerivedType(tag: DW_TAG_pointer_type, baseType: !254, size: 64)
!371 = !DISubprogram(name: "begin", linkageName: "_ZN4llvm25SmallVectorTemplateCommonINS_9MCOperandEvE5beginEv", scope: !210, file: !201, line: 112, type: !372, scopeLine: 112, flags: DIFlagPublic | DIFlagPrototyped, spFlags: DISPFlagOptimized)
!372 = !DISubroutineType(types: !373)
!373 = !{!374, !355}
!374 = !DIDerivedType(tag: DW_TAG_typedef, name: "iterator", scope: !210, file: !201, line: 100, baseType: !370)
!375 = !DISubprogram(name: "begin", linkageName: "_ZNK4llvm25SmallVectorTemplateCommonINS_9MCOperandEvE5beginEv", scope: !210, file: !201, line: 113, type: !376, scopeLine: 113, flags: DIFlagPublic | DIFlagPrototyped, spFlags: DISPFlagOptimized)
!376 = !DISubroutineType(types: !377)
!377 = !{!378, !362}
!378 = !DIDerivedType(tag: DW_TAG_typedef, name: "const_iterator", scope: !210, file: !201, line: 101, baseType: !379)
!379 = !DIDerivedType(tag: DW_TAG_pointer_type, baseType: !282, size: 64)
!380 = !DISubprogram(name: "end", linkageName: "_ZN4llvm25SmallVectorTemplateCommonINS_9MCOperandEvE3endEv", scope: !210, file: !201, line: 114, type: !372, scopeLine: 114, flags: DIFlagPublic | DIFlagPrototyped, spFlags: DISPFlagOptimized)
!381 = !DISubprogram(name: "end", linkageName: "_ZNK4llvm25SmallVectorTemplateCommonINS_9MCOperandEvE3endEv", scope: !210, file: !201, line: 115, type: !376, scopeLine: 115, flags: DIFlagPublic | DIFlagPrototyped, spFlags: DISPFlagOptimized)
!382 = !DISubprogram(name: "capacity_ptr", linkageName: "_ZN4llvm25SmallVectorTemplateCommonINS_9MCOperandEvE12capacity_ptrEv", scope: !210, file: !201, line: 117, type: !372, scopeLine: 117, flags: DIFlagProtected | DIFlagPrototyped, spFlags: DISPFlagOptimized)
!383 = !DISubprogram(name: "capacity_ptr", linkageName: "_ZNK4llvm25SmallVectorTemplateCommonINS_9MCOperandEvE12capacity_ptrEv", scope: !210, file: !201, line: 118, type: !376, scopeLine: 118, flags: DIFlagProtected | DIFlagPrototyped, spFlags: DISPFlagOptimized)
!384 = !DISubprogram(name: "rbegin", linkageName: "_ZN4llvm25SmallVectorTemplateCommonINS_9MCOperandEvE6rbeginEv", scope: !210, file: !201, line: 122, type: !385, scopeLine: 122, flags: DIFlagPublic | DIFlagPrototyped, spFlags: DISPFlagOptimized)
!385 = !DISubroutineType(types: !386)
!386 = !{!387, !355}
!387 = !DIDerivedType(tag: DW_TAG_typedef, name: "reverse_iterator", scope: !210, file: !201, line: 104, baseType: !388)
!388 = distinct !DICompositeType(tag: DW_TAG_class_type, name: "reverse_iterator<llvm::MCOperand *>", scope: !390, file: !389, line: 101, flags: DIFlagFwdDecl, identifier: "_ZTSSt16reverse_iteratorIPN4llvm9MCOperandEE")
!389 = !DIFile(filename: "/usr/lib/gcc/x86_64-linux-gnu/7.5.0/../../../../include/c++/7.5.0/bits/stl_iterator.h", directory: "")
!390 = !DINamespace(name: "std", scope: null)
!391 = !DISubprogram(name: "rbegin", linkageName: "_ZNK4llvm25SmallVectorTemplateCommonINS_9MCOperandEvE6rbeginEv", scope: !210, file: !201, line: 123, type: !392, scopeLine: 123, flags: DIFlagPublic | DIFlagPrototyped, spFlags: DISPFlagOptimized)
!392 = !DISubroutineType(types: !393)
!393 = !{!394, !362}
!394 = !DIDerivedType(tag: DW_TAG_typedef, name: "const_reverse_iterator", scope: !210, file: !201, line: 103, baseType: !395)
!395 = distinct !DICompositeType(tag: DW_TAG_class_type, name: "reverse_iterator<const llvm::MCOperand *>", scope: !390, file: !389, line: 101, flags: DIFlagFwdDecl, identifier: "_ZTSSt16reverse_iteratorIPKN4llvm9MCOperandEE")
!396 = !DISubprogram(name: "rend", linkageName: "_ZN4llvm25SmallVectorTemplateCommonINS_9MCOperandEvE4rendEv", scope: !210, file: !201, line: 124, type: !385, scopeLine: 124, flags: DIFlagPublic | DIFlagPrototyped, spFlags: DISPFlagOptimized)
!397 = !DISubprogram(name: "rend", linkageName: "_ZNK4llvm25SmallVectorTemplateCommonINS_9MCOperandEvE4rendEv", scope: !210, file: !201, line: 125, type: !392, scopeLine: 125, flags: DIFlagPublic | DIFlagPrototyped, spFlags: DISPFlagOptimized)
!398 = !DISubprogram(name: "size", linkageName: "_ZNK4llvm25SmallVectorTemplateCommonINS_9MCOperandEvE4sizeEv", scope: !210, file: !201, line: 127, type: !399, scopeLine: 127, flags: DIFlagPublic | DIFlagPrototyped, spFlags: DISPFlagOptimized)
!399 = !DISubroutineType(types: !400)
!400 = !{!401, !362}
!401 = !DIDerivedType(tag: DW_TAG_typedef, name: "size_type", file: !201, line: 97, baseType: !223)
!402 = !DISubprogram(name: "max_size", linkageName: "_ZNK4llvm25SmallVectorTemplateCommonINS_9MCOperandEvE8max_sizeEv", scope: !210, file: !201, line: 128, type: !399, scopeLine: 128, flags: DIFlagPublic | DIFlagPrototyped, spFlags: DISPFlagOptimized)
!403 = !DISubprogram(name: "capacity", linkageName: "_ZNK4llvm25SmallVectorTemplateCommonINS_9MCOperandEvE8capacityEv", scope: !210, file: !201, line: 132, type: !404, scopeLine: 132, flags: DIFlagPublic | DIFlagPrototyped, spFlags: DISPFlagOptimized)
!404 = !DISubroutineType(types: !405)
!405 = !{!223, !362}
!406 = !DISubprogram(name: "data", linkageName: "_ZN4llvm25SmallVectorTemplateCommonINS_9MCOperandEvE4dataEv", scope: !210, file: !201, line: 135, type: !407, scopeLine: 135, flags: DIFlagPublic | DIFlagPrototyped, spFlags: DISPFlagOptimized)
!407 = !DISubroutineType(types: !408)
!408 = !{!409, !355}
!409 = !DIDerivedType(tag: DW_TAG_typedef, name: "pointer", scope: !210, file: !201, line: 108, baseType: !370)
!410 = !DISubprogram(name: "data", linkageName: "_ZNK4llvm25SmallVectorTemplateCommonINS_9MCOperandEvE4dataEv", scope: !210, file: !201, line: 137, type: !411, scopeLine: 137, flags: DIFlagPublic | DIFlagPrototyped, spFlags: DISPFlagOptimized)
!411 = !DISubroutineType(types: !412)
!412 = !{!413, !362}
!413 = !DIDerivedType(tag: DW_TAG_typedef, name: "const_pointer", scope: !210, file: !201, line: 109, baseType: !379)
!414 = !DISubprogram(name: "operator[]", linkageName: "_ZN4llvm25SmallVectorTemplateCommonINS_9MCOperandEvEixEj", scope: !210, file: !201, line: 139, type: !415, scopeLine: 139, flags: DIFlagPublic | DIFlagPrototyped, spFlags: DISPFlagOptimized)
!415 = !DISubroutineType(types: !416)
!416 = !{!417, !355, !6}
!417 = !DIDerivedType(tag: DW_TAG_typedef, name: "reference", scope: !210, file: !201, line: 106, baseType: !418)
!418 = !DIDerivedType(tag: DW_TAG_reference_type, baseType: !254, size: 64)
!419 = !DISubprogram(name: "operator[]", linkageName: "_ZNK4llvm25SmallVectorTemplateCommonINS_9MCOperandEvEixEj", scope: !210, file: !201, line: 143, type: !420, scopeLine: 143, flags: DIFlagPublic | DIFlagPrototyped, spFlags: DISPFlagOptimized)
!420 = !DISubroutineType(types: !421)
!421 = !{!422, !362, !6}
!422 = !DIDerivedType(tag: DW_TAG_typedef, name: "const_reference", scope: !210, file: !201, line: 107, baseType: !423)
!423 = !DIDerivedType(tag: DW_TAG_reference_type, baseType: !282, size: 64)
!424 = !DISubprogram(name: "front", linkageName: "_ZN4llvm25SmallVectorTemplateCommonINS_9MCOperandEvE5frontEv", scope: !210, file: !201, line: 148, type: !425, scopeLine: 148, flags: DIFlagPublic | DIFlagPrototyped, spFlags: DISPFlagOptimized)
!425 = !DISubroutineType(types: !426)
!426 = !{!417, !355}
!427 = !DISubprogram(name: "front", linkageName: "_ZNK4llvm25SmallVectorTemplateCommonINS_9MCOperandEvE5frontEv", scope: !210, file: !201, line: 152, type: !428, scopeLine: 152, flags: DIFlagPublic | DIFlagPrototyped, spFlags: DISPFlagOptimized)
!428 = !DISubroutineType(types: !429)
!429 = !{!422, !362}
!430 = !DISubprogram(name: "back", linkageName: "_ZN4llvm25SmallVectorTemplateCommonINS_9MCOperandEvE4backEv", scope: !210, file: !201, line: 157, type: !425, scopeLine: 157, flags: DIFlagPublic | DIFlagPrototyped, spFlags: DISPFlagOptimized)
!431 = !DISubprogram(name: "back", linkageName: "_ZNK4llvm25SmallVectorTemplateCommonINS_9MCOperandEvE4backEv", scope: !210, file: !201, line: 161, type: !428, scopeLine: 161, flags: DIFlagPublic | DIFlagPrototyped, spFlags: DISPFlagOptimized)
!432 = !{!433, !434}
!433 = !DITemplateTypeParameter(name: "T", type: !254)
!434 = !DITemplateTypeParameter(type: null, defaulted: true)
!435 = !DISubprogram(name: "SmallVectorTemplateBase", scope: !207, file: !201, line: 298, type: !436, scopeLine: 298, flags: DIFlagProtected | DIFlagPrototyped, spFlags: DISPFlagOptimized)
!436 = !DISubroutineType(types: !437)
!437 = !{null, !438, !223}
!438 = !DIDerivedType(tag: DW_TAG_pointer_type, baseType: !207, size: 64, flags: DIFlagArtificial | DIFlagObjectPointer)
!439 = !DISubprogram(name: "destroy_range", linkageName: "_ZN4llvm23SmallVectorTemplateBaseINS_9MCOperandELb1EE13destroy_rangeEPS1_S3_", scope: !207, file: !201, line: 301, type: !440, scopeLine: 301, flags: DIFlagProtected | DIFlagPrototyped | DIFlagStaticMember, spFlags: DISPFlagOptimized)
!440 = !DISubroutineType(types: !441)
!441 = !{null, !370, !370}
!442 = !DISubprogram(name: "grow", linkageName: "_ZN4llvm23SmallVectorTemplateBaseINS_9MCOperandELb1EE4growEm", scope: !207, file: !201, line: 346, type: !436, scopeLine: 346, flags: DIFlagProtected | DIFlagPrototyped, spFlags: DISPFlagOptimized)
!443 = !DISubprogram(name: "push_back", linkageName: "_ZN4llvm23SmallVectorTemplateBaseINS_9MCOperandELb1EE9push_backERKS1_", scope: !207, file: !201, line: 350, type: !444, scopeLine: 350, flags: DIFlagPublic | DIFlagPrototyped, spFlags: DISPFlagOptimized)
!444 = !DISubroutineType(types: !445)
!445 = !{null, !438, !423}
!446 = !DISubprogram(name: "pop_back", linkageName: "_ZN4llvm23SmallVectorTemplateBaseINS_9MCOperandELb1EE8pop_backEv", scope: !207, file: !201, line: 361, type: !447, scopeLine: 361, flags: DIFlagPublic | DIFlagPrototyped, spFlags: DISPFlagOptimized)
!447 = !DISubroutineType(types: !448)
!448 = !{null, !438}
!449 = !{!433, !450}
!450 = !DITemplateValueParameter(name: "isPodLike", type: !49, value: i8 1)
!451 = !DISubprogram(name: "SmallVectorImpl", scope: !204, file: !201, line: 374, type: !452, scopeLine: 374, flags: DIFlagPrototyped, spFlags: DISPFlagOptimized | DISPFlagDeleted)
!452 = !DISubroutineType(types: !453)
!453 = !{null, !454, !455}
!454 = !DIDerivedType(tag: DW_TAG_pointer_type, baseType: !204, size: 64, flags: DIFlagArtificial | DIFlagObjectPointer)
!455 = !DIDerivedType(tag: DW_TAG_reference_type, baseType: !456, size: 64)
!456 = !DIDerivedType(tag: DW_TAG_const_type, baseType: !204)
!457 = !DISubprogram(name: "SmallVectorImpl", scope: !204, file: !201, line: 381, type: !458, scopeLine: 381, flags: DIFlagProtected | DIFlagExplicit | DIFlagPrototyped, spFlags: DISPFlagOptimized)
!458 = !DISubroutineType(types: !459)
!459 = !{null, !454, !6}
!460 = !DISubprogram(name: "~SmallVectorImpl", scope: !204, file: !201, line: 386, type: !461, scopeLine: 386, flags: DIFlagPublic | DIFlagPrototyped, spFlags: DISPFlagOptimized)
!461 = !DISubroutineType(types: !462)
!462 = !{null, !454}
!463 = !DISubprogram(name: "clear", linkageName: "_ZN4llvm15SmallVectorImplINS_9MCOperandEE5clearEv", scope: !204, file: !201, line: 396, type: !461, scopeLine: 396, flags: DIFlagPublic | DIFlagPrototyped, spFlags: DISPFlagOptimized)
!464 = !DISubprogram(name: "resize", linkageName: "_ZN4llvm15SmallVectorImplINS_9MCOperandEE6resizeEj", scope: !204, file: !201, line: 401, type: !458, scopeLine: 401, flags: DIFlagPublic | DIFlagPrototyped, spFlags: DISPFlagOptimized)
!465 = !DISubprogram(name: "resize", linkageName: "_ZN4llvm15SmallVectorImplINS_9MCOperandEE6resizeEjRKS1_", scope: !204, file: !201, line: 413, type: !466, scopeLine: 413, flags: DIFlagPublic | DIFlagPrototyped, spFlags: DISPFlagOptimized)
!466 = !DISubroutineType(types: !467)
!467 = !{null, !454, !6, !423}
!468 = !DISubprogram(name: "reserve", linkageName: "_ZN4llvm15SmallVectorImplINS_9MCOperandEE7reserveEj", scope: !204, file: !201, line: 425, type: !458, scopeLine: 425, flags: DIFlagPublic | DIFlagPrototyped, spFlags: DISPFlagOptimized)
!469 = !DISubprogram(name: "pop_back_val", linkageName: "_ZN4llvm15SmallVectorImplINS_9MCOperandEE12pop_back_valEv", scope: !204, file: !201, line: 430, type: !470, scopeLine: 430, flags: DIFlagPublic | DIFlagPrototyped, spFlags: DISPFlagOptimized)
!470 = !DISubroutineType(types: !471)
!471 = !{!254, !454}
!472 = !DISubprogram(name: "swap", linkageName: "_ZN4llvm15SmallVectorImplINS_9MCOperandEE4swapERS2_", scope: !204, file: !201, line: 440, type: !473, scopeLine: 440, flags: DIFlagPublic | DIFlagPrototyped, spFlags: DISPFlagOptimized)
!473 = !DISubroutineType(types: !474)
!474 = !{null, !454, !475}
!475 = !DIDerivedType(tag: DW_TAG_reference_type, baseType: !204, size: 64)
!476 = !DISubprogram(name: "append", linkageName: "_ZN4llvm15SmallVectorImplINS_9MCOperandEE6appendEmRKS1_", scope: !204, file: !201, line: 460, type: !477, scopeLine: 460, flags: DIFlagPublic | DIFlagPrototyped, spFlags: DISPFlagOptimized)
!477 = !DISubroutineType(types: !478)
!478 = !{null, !454, !479, !423}
!479 = !DIDerivedType(tag: DW_TAG_typedef, name: "size_type", scope: !204, file: !201, line: 377, baseType: !480)
!480 = !DIDerivedType(tag: DW_TAG_typedef, name: "size_type", scope: !210, file: !201, line: 97, baseType: !223)
!481 = !DISubprogram(name: "assign", linkageName: "_ZN4llvm15SmallVectorImplINS_9MCOperandEE6assignEjRKS1_", scope: !204, file: !201, line: 470, type: !466, scopeLine: 470, flags: DIFlagPublic | DIFlagPrototyped, spFlags: DISPFlagOptimized)
!482 = !DISubprogram(name: "erase", linkageName: "_ZN4llvm15SmallVectorImplINS_9MCOperandEE5eraseEPS1_", scope: !204, file: !201, line: 478, type: !483, scopeLine: 478, flags: DIFlagPublic | DIFlagPrototyped, spFlags: DISPFlagOptimized)
!483 = !DISubroutineType(types: !484)
!484 = !{!485, !454, !485}
!485 = !DIDerivedType(tag: DW_TAG_typedef, name: "iterator", scope: !204, file: !201, line: 376, baseType: !374)
!486 = !DISubprogram(name: "erase", linkageName: "_ZN4llvm15SmallVectorImplINS_9MCOperandEE5eraseEPS1_S3_", scope: !204, file: !201, line: 490, type: !487, scopeLine: 490, flags: DIFlagPublic | DIFlagPrototyped, spFlags: DISPFlagOptimized)
!487 = !DISubroutineType(types: !488)
!488 = !{!485, !454, !485, !485}
!489 = !DISubprogram(name: "insert", linkageName: "_ZN4llvm15SmallVectorImplINS_9MCOperandEE6insertEPS1_OS1_", scope: !204, file: !201, line: 505, type: !490, scopeLine: 505, flags: DIFlagPublic | DIFlagPrototyped, spFlags: DISPFlagOptimized)
!490 = !DISubroutineType(types: !491)
!491 = !{!485, !454, !485, !492}
!492 = !DIDerivedType(tag: DW_TAG_rvalue_reference_type, baseType: !254, size: 64)
!493 = !DISubprogram(name: "insert", linkageName: "_ZN4llvm15SmallVectorImplINS_9MCOperandEE6insertEPS1_RKS1_", scope: !204, file: !201, line: 537, type: !494, scopeLine: 537, flags: DIFlagPublic | DIFlagPrototyped, spFlags: DISPFlagOptimized)
!494 = !DISubroutineType(types: !495)
!495 = !{!485, !454, !485, !423}
!496 = !DISubprogram(name: "insert", linkageName: "_ZN4llvm15SmallVectorImplINS_9MCOperandEE6insertEPS1_mRKS1_", scope: !204, file: !201, line: 568, type: !497, scopeLine: 568, flags: DIFlagPublic | DIFlagPrototyped, spFlags: DISPFlagOptimized)
!497 = !DISubroutineType(types: !498)
!498 = !{!485, !454, !485, !479, !423}
!499 = !DISubprogram(name: "operator=", linkageName: "_ZN4llvm15SmallVectorImplINS_9MCOperandEEaSERKS2_", scope: !204, file: !201, line: 674, type: !500, scopeLine: 674, flags: DIFlagPublic | DIFlagPrototyped, spFlags: DISPFlagOptimized)
!500 = !DISubroutineType(types: !501)
!501 = !{!475, !454, !455}
!502 = !DISubprogram(name: "operator=", linkageName: "_ZN4llvm15SmallVectorImplINS_9MCOperandEEaSEOS2_", scope: !204, file: !201, line: 677, type: !503, scopeLine: 677, flags: DIFlagPublic | DIFlagPrototyped, spFlags: DISPFlagOptimized)
!503 = !DISubroutineType(types: !504)
!504 = !{!475, !454, !505}
!505 = !DIDerivedType(tag: DW_TAG_rvalue_reference_type, baseType: !204, size: 64)
!506 = !DISubprogram(name: "operator==", linkageName: "_ZNK4llvm15SmallVectorImplINS_9MCOperandEEeqERKS2_", scope: !204, file: !201, line: 680, type: !507, scopeLine: 680, flags: DIFlagPublic | DIFlagPrototyped, spFlags: DISPFlagOptimized)
!507 = !DISubroutineType(types: !508)
!508 = !{!49, !509, !455}
!509 = !DIDerivedType(tag: DW_TAG_pointer_type, baseType: !456, size: 64, flags: DIFlagArtificial | DIFlagObjectPointer)
!510 = !DISubprogram(name: "operator!=", linkageName: "_ZNK4llvm15SmallVectorImplINS_9MCOperandEEneERKS2_", scope: !204, file: !201, line: 684, type: !507, scopeLine: 684, flags: DIFlagPublic | DIFlagPrototyped, spFlags: DISPFlagOptimized)
!511 = !DISubprogram(name: "operator<", linkageName: "_ZNK4llvm15SmallVectorImplINS_9MCOperandEEltERKS2_", scope: !204, file: !201, line: 688, type: !507, scopeLine: 688, flags: DIFlagPublic | DIFlagPrototyped, spFlags: DISPFlagOptimized)
!512 = !DISubprogram(name: "set_size", linkageName: "_ZN4llvm15SmallVectorImplINS_9MCOperandEE8set_sizeEj", scope: !204, file: !201, line: 702, type: !458, scopeLine: 702, flags: DIFlagPublic | DIFlagPrototyped, spFlags: DISPFlagOptimized)
!513 = !{!433}
!514 = !DIDerivedType(tag: DW_TAG_member, name: "Storage", scope: !200, file: !201, line: 882, baseType: !515, size: 896, offset: 320)
!515 = distinct !DICompositeType(tag: DW_TAG_structure_type, name: "SmallVectorStorage<llvm::MCOperand, 8>", scope: !14, file: !201, line: 865, size: 896, flags: DIFlagTypePassByValue, elements: !516, templateParams: !521, identifier: "_ZTSN4llvm18SmallVectorStorageINS_9MCOperandELj8EEE")
!516 = !{!517}
!517 = !DIDerivedType(tag: DW_TAG_member, name: "InlineElts", scope: !515, file: !201, line: 866, baseType: !518, size: 896)
!518 = !DICompositeType(tag: DW_TAG_array_type, baseType: !238, size: 896, elements: !519)
!519 = !{!520}
!520 = !DISubrange(count: 7)
!521 = !{!433, !522}
!522 = !DITemplateValueParameter(name: "N", type: !6, value: i32 8)
!523 = !DISubprogram(name: "SmallVector", scope: !200, file: !201, line: 884, type: !524, scopeLine: 884, flags: DIFlagPublic | DIFlagPrototyped, spFlags: DISPFlagOptimized)
!524 = !DISubroutineType(types: !525)
!525 = !{null, !526}
!526 = !DIDerivedType(tag: DW_TAG_pointer_type, baseType: !200, size: 64, flags: DIFlagArtificial | DIFlagObjectPointer)
!527 = !DISubprogram(name: "SmallVector", scope: !200, file: !201, line: 887, type: !528, scopeLine: 887, flags: DIFlagPublic | DIFlagExplicit | DIFlagPrototyped, spFlags: DISPFlagOptimized)
!528 = !DISubroutineType(types: !529)
!529 = !{null, !526, !6, !423}
!530 = !DISubprogram(name: "SmallVector", scope: !200, file: !201, line: 897, type: !531, scopeLine: 897, flags: DIFlagPublic | DIFlagPrototyped, spFlags: DISPFlagOptimized)
!531 = !DISubroutineType(types: !532)
!532 = !{null, !526, !533}
!533 = !DIDerivedType(tag: DW_TAG_reference_type, baseType: !534, size: 64)
!534 = !DIDerivedType(tag: DW_TAG_const_type, baseType: !200)
!535 = !DISubprogram(name: "operator=", linkageName: "_ZN4llvm11SmallVectorINS_9MCOperandELj8EEaSERKS2_", scope: !200, file: !201, line: 902, type: !536, scopeLine: 902, flags: DIFlagPublic | DIFlagPrototyped, spFlags: DISPFlagOptimized)
!536 = !DISubroutineType(types: !537)
!537 = !{!533, !526, !533}
!538 = !DISubprogram(name: "SmallVector", scope: !200, file: !201, line: 908, type: !539, scopeLine: 908, flags: DIFlagPublic | DIFlagPrototyped, spFlags: DISPFlagOptimized)
!539 = !DISubroutineType(types: !540)
!540 = !{null, !526, !541}
!541 = !DIDerivedType(tag: DW_TAG_rvalue_reference_type, baseType: !200, size: 64)
!542 = !DISubprogram(name: "operator=", linkageName: "_ZN4llvm11SmallVectorINS_9MCOperandELj8EEaSEOS2_", scope: !200, file: !201, line: 913, type: !543, scopeLine: 913, flags: DIFlagPublic | DIFlagPrototyped, spFlags: DISPFlagOptimized)
!543 = !DISubroutineType(types: !544)
!544 = !{!533, !526, !541}
!545 = !DISubprogram(name: "MCInst", scope: !167, file: !168, line: 155, type: !546, scopeLine: 155, flags: DIFlagPublic | DIFlagPrototyped, spFlags: DISPFlagOptimized)
!546 = !DISubroutineType(types: !547)
!547 = !{null, !548}
!548 = !DIDerivedType(tag: DW_TAG_pointer_type, baseType: !167, size: 64, flags: DIFlagArtificial | DIFlagObjectPointer)
!549 = !DISubprogram(name: "setOpcode", linkageName: "_ZN4llvm6MCInst9setOpcodeEj", scope: !167, file: !168, line: 157, type: !550, scopeLine: 157, flags: DIFlagPublic | DIFlagPrototyped, spFlags: DISPFlagOptimized)
!550 = !DISubroutineType(types: !551)
!551 = !{null, !548, !6}
!552 = !DISubprogram(name: "getOpcode", linkageName: "_ZNK4llvm6MCInst9getOpcodeEv", scope: !167, file: !168, line: 158, type: !553, scopeLine: 158, flags: DIFlagPublic | DIFlagPrototyped, spFlags: DISPFlagOptimized)
!553 = !DISubroutineType(types: !554)
!554 = !{!6, !555}
!555 = !DIDerivedType(tag: DW_TAG_pointer_type, baseType: !273, size: 64, flags: DIFlagArtificial | DIFlagObjectPointer)
!556 = !DISubprogram(name: "setLoc", linkageName: "_ZN4llvm6MCInst6setLocENS_5SMLocE", scope: !167, file: !168, line: 160, type: !557, scopeLine: 160, flags: DIFlagPublic | DIFlagPrototyped, spFlags: DISPFlagOptimized)
!557 = !DISubroutineType(types: !558)
!558 = !{null, !548, !172}
!559 = !DISubprogram(name: "getLoc", linkageName: "_ZNK4llvm6MCInst6getLocEv", scope: !167, file: !168, line: 161, type: !560, scopeLine: 161, flags: DIFlagPublic | DIFlagPrototyped, spFlags: DISPFlagOptimized)
!560 = !DISubroutineType(types: !561)
!561 = !{!172, !555}
!562 = !DISubprogram(name: "getOperand", linkageName: "_ZNK4llvm6MCInst10getOperandEj", scope: !167, file: !168, line: 163, type: !563, scopeLine: 163, flags: DIFlagPublic | DIFlagPrototyped, spFlags: DISPFlagOptimized)
!563 = !DISubroutineType(types: !564)
!564 = !{!423, !555, !6}
!565 = !DISubprogram(name: "getOperand", linkageName: "_ZN4llvm6MCInst10getOperandEj", scope: !167, file: !168, line: 164, type: !566, scopeLine: 164, flags: DIFlagPublic | DIFlagPrototyped, spFlags: DISPFlagOptimized)
!566 = !DISubroutineType(types: !567)
!567 = !{!418, !548, !6}
!568 = !DISubprogram(name: "getNumOperands", linkageName: "_ZNK4llvm6MCInst14getNumOperandsEv", scope: !167, file: !168, line: 165, type: !553, scopeLine: 165, flags: DIFlagPublic | DIFlagPrototyped, spFlags: DISPFlagOptimized)
!569 = !DISubprogram(name: "addOperand", linkageName: "_ZN4llvm6MCInst10addOperandERKNS_9MCOperandE", scope: !167, file: !168, line: 167, type: !570, scopeLine: 167, flags: DIFlagPublic | DIFlagPrototyped, spFlags: DISPFlagOptimized)
!570 = !DISubroutineType(types: !571)
!571 = !{null, !548, !423}
!572 = !DISubprogram(name: "clear", linkageName: "_ZN4llvm6MCInst5clearEv", scope: !167, file: !168, line: 171, type: !546, scopeLine: 171, flags: DIFlagPublic | DIFlagPrototyped, spFlags: DISPFlagOptimized)
!573 = !DISubprogram(name: "size", linkageName: "_ZN4llvm6MCInst4sizeEv", scope: !167, file: !168, line: 172, type: !574, scopeLine: 172, flags: DIFlagPublic | DIFlagPrototyped, spFlags: DISPFlagOptimized)
!574 = !DISubroutineType(types: !575)
!575 = !{!223, !548}
!576 = !DISubprogram(name: "begin", linkageName: "_ZN4llvm6MCInst5beginEv", scope: !167, file: !168, line: 175, type: !577, scopeLine: 175, flags: DIFlagPublic | DIFlagPrototyped, spFlags: DISPFlagOptimized)
!577 = !DISubroutineType(types: !578)
!578 = !{!579, !548}
!579 = !DIDerivedType(tag: DW_TAG_typedef, name: "iterator", scope: !167, file: !168, line: 174, baseType: !485)
!580 = !DISubprogram(name: "end", linkageName: "_ZN4llvm6MCInst3endEv", scope: !167, file: !168, line: 176, type: !577, scopeLine: 176, flags: DIFlagPublic | DIFlagPrototyped, spFlags: DISPFlagOptimized)
!581 = !DISubprogram(name: "insert", linkageName: "_ZN4llvm6MCInst6insertEPNS_9MCOperandERKS1_", scope: !167, file: !168, line: 177, type: !582, scopeLine: 177, flags: DIFlagPublic | DIFlagPrototyped, spFlags: DISPFlagOptimized)
!582 = !DISubroutineType(types: !583)
!583 = !{!579, !548, !579, !423}
!584 = !DISubprogram(name: "print", linkageName: "_ZNK4llvm6MCInst5printERNS_11raw_ostreamEPKNS_9MCAsmInfoE", scope: !167, file: !168, line: 181, type: !585, scopeLine: 181, flags: DIFlagPublic | DIFlagPrototyped, spFlags: DISPFlagOptimized)
!585 = !DISubroutineType(types: !586)
!586 = !{null, !555, !336, !339}
!587 = !DISubprogram(name: "dump", linkageName: "_ZNK4llvm6MCInst4dumpEv", scope: !167, file: !168, line: 182, type: !588, scopeLine: 182, flags: DIFlagPublic | DIFlagPrototyped, spFlags: DISPFlagOptimized)
!588 = !DISubroutineType(types: !589)
!589 = !{null, !555}
!590 = !DISubprogram(name: "dump_pretty", linkageName: "_ZNK4llvm6MCInst11dump_prettyERNS_11raw_ostreamEPKNS_9MCAsmInfoEPKNS_13MCInstPrinterENS_9StringRefE", scope: !167, file: !168, line: 187, type: !591, scopeLine: 187, flags: DIFlagPublic | DIFlagPrototyped, spFlags: DISPFlagOptimized)
!591 = !DISubroutineType(types: !592)
!592 = !{null, !555, !336, !339, !593, !596}
!593 = !DIDerivedType(tag: DW_TAG_pointer_type, baseType: !594, size: 64)
!594 = !DIDerivedType(tag: DW_TAG_const_type, baseType: !595)
!595 = distinct !DICompositeType(tag: DW_TAG_class_type, name: "MCInstPrinter", scope: !14, file: !168, line: 27, flags: DIFlagFwdDecl, identifier: "_ZTSN4llvm13MCInstPrinterE")
!596 = distinct !DICompositeType(tag: DW_TAG_class_type, name: "StringRef", scope: !14, file: !597, line: 41, size: 128, flags: DIFlagTypePassByValue | DIFlagNonTrivial, elements: !598, identifier: "_ZTSN4llvm9StringRefE")
!597 = !DIFile(filename: "/faster/fs/llvm34/include/llvm/ADT/StringRef.h", directory: "")
!598 = !{!599, !601, !602, !603, !606, !607, !610, !614, !617, !620, !630, !636, !637, !640, !643, !646, !649, !650, !653, !654, !657, !658, !659, !662, !665, !668, !669, !670, !671, !672, !673, !676, !679, !680, !683, !684, !685, !686, !687, !688, !689, !690, !691, !694, !695, !1636, !1637, !1638, !1641, !1644, !1645, !1646, !1714, !1717, !1722, !1723, !1726, !1727}
!599 = !DIDerivedType(tag: DW_TAG_member, name: "npos", scope: !596, file: !597, line: 45, baseType: !600, flags: DIFlagPublic | DIFlagStaticMember, extraData: i64 -1)
!600 = !DIDerivedType(tag: DW_TAG_const_type, baseType: !223)
!601 = !DIDerivedType(tag: DW_TAG_member, name: "Data", scope: !596, file: !597, line: 50, baseType: !176, size: 64)
!602 = !DIDerivedType(tag: DW_TAG_member, name: "Length", scope: !596, file: !597, line: 53, baseType: !223, size: 64, offset: 64)
!603 = !DISubprogram(name: "min", linkageName: "_ZN4llvm9StringRef3minEmm", scope: !596, file: !597, line: 58, type: !604, scopeLine: 58, flags: DIFlagPrototyped | DIFlagStaticMember, spFlags: DISPFlagOptimized)
!604 = !DISubroutineType(types: !605)
!605 = !{!223, !223, !223}
!606 = !DISubprogram(name: "max", linkageName: "_ZN4llvm9StringRef3maxEmm", scope: !596, file: !597, line: 59, type: !604, scopeLine: 59, flags: DIFlagPrototyped | DIFlagStaticMember, spFlags: DISPFlagOptimized)
!607 = !DISubprogram(name: "compareMemory", linkageName: "_ZN4llvm9StringRef13compareMemoryEPKcS2_m", scope: !596, file: !597, line: 63, type: !608, scopeLine: 63, flags: DIFlagPrototyped | DIFlagStaticMember, spFlags: DISPFlagOptimized)
!608 = !DISubroutineType(types: !609)
!609 = !{!19, !176, !176, !223}
!610 = !DISubprogram(name: "StringRef", scope: !596, file: !597, line: 73, type: !611, scopeLine: 73, flags: DIFlagPublic | DIFlagPrototyped, spFlags: DISPFlagOptimized)
!611 = !DISubroutineType(types: !612)
!612 = !{null, !613}
!613 = !DIDerivedType(tag: DW_TAG_pointer_type, baseType: !596, size: 64, flags: DIFlagArtificial | DIFlagObjectPointer)
!614 = !DISubprogram(name: "StringRef", scope: !596, file: !597, line: 76, type: !615, scopeLine: 76, flags: DIFlagPublic | DIFlagPrototyped, spFlags: DISPFlagOptimized)
!615 = !DISubroutineType(types: !616)
!616 = !{null, !613, !176}
!617 = !DISubprogram(name: "StringRef", scope: !596, file: !597, line: 83, type: !618, scopeLine: 83, flags: DIFlagPublic | DIFlagPrototyped, spFlags: DISPFlagOptimized)
!618 = !DISubroutineType(types: !619)
!619 = !{null, !613, !176, !223}
!620 = !DISubprogram(name: "StringRef", scope: !596, file: !597, line: 90, type: !621, scopeLine: 90, flags: DIFlagPublic | DIFlagPrototyped, spFlags: DISPFlagOptimized)
!621 = !DISubroutineType(types: !622)
!622 = !{null, !613, !623}
!623 = !DIDerivedType(tag: DW_TAG_reference_type, baseType: !624, size: 64)
!624 = !DIDerivedType(tag: DW_TAG_const_type, baseType: !625)
!625 = !DIDerivedType(tag: DW_TAG_typedef, name: "string", scope: !627, file: !626, line: 74, baseType: !628)
!626 = !DIFile(filename: "/usr/lib/gcc/x86_64-linux-gnu/7.5.0/../../../../include/c++/7.5.0/bits/stringfwd.h", directory: "")
!627 = !DINamespace(name: "__cxx11", scope: !390, exportSymbols: true)
!628 = distinct !DICompositeType(tag: DW_TAG_class_type, name: "basic_string<char, std::char_traits<char>, std::allocator<char> >", scope: !627, file: !629, line: 1607, flags: DIFlagFwdDecl, identifier: "_ZTSNSt7__cxx1112basic_stringIcSt11char_traitsIcESaIcEEE")
!629 = !DIFile(filename: "/usr/lib/gcc/x86_64-linux-gnu/7.5.0/../../../../include/c++/7.5.0/bits/basic_string.tcc", directory: "")
!630 = !DISubprogram(name: "begin", linkageName: "_ZNK4llvm9StringRef5beginEv", scope: !596, file: !597, line: 97, type: !631, scopeLine: 97, flags: DIFlagPublic | DIFlagPrototyped, spFlags: DISPFlagOptimized)
!631 = !DISubroutineType(types: !632)
!632 = !{!633, !634}
!633 = !DIDerivedType(tag: DW_TAG_typedef, name: "iterator", scope: !596, file: !597, line: 43, baseType: !176)
!634 = !DIDerivedType(tag: DW_TAG_pointer_type, baseType: !635, size: 64, flags: DIFlagArtificial | DIFlagObjectPointer)
!635 = !DIDerivedType(tag: DW_TAG_const_type, baseType: !596)
!636 = !DISubprogram(name: "end", linkageName: "_ZNK4llvm9StringRef3endEv", scope: !596, file: !597, line: 99, type: !631, scopeLine: 99, flags: DIFlagPublic | DIFlagPrototyped, spFlags: DISPFlagOptimized)
!637 = !DISubprogram(name: "data", linkageName: "_ZNK4llvm9StringRef4dataEv", scope: !596, file: !597, line: 107, type: !638, scopeLine: 107, flags: DIFlagPublic | DIFlagPrototyped, spFlags: DISPFlagOptimized)
!638 = !DISubroutineType(types: !639)
!639 = !{!176, !634}
!640 = !DISubprogram(name: "empty", linkageName: "_ZNK4llvm9StringRef5emptyEv", scope: !596, file: !597, line: 110, type: !641, scopeLine: 110, flags: DIFlagPublic | DIFlagPrototyped, spFlags: DISPFlagOptimized)
!641 = !DISubroutineType(types: !642)
!642 = !{!49, !634}
!643 = !DISubprogram(name: "size", linkageName: "_ZNK4llvm9StringRef4sizeEv", scope: !596, file: !597, line: 113, type: !644, scopeLine: 113, flags: DIFlagPublic | DIFlagPrototyped, spFlags: DISPFlagOptimized)
!644 = !DISubroutineType(types: !645)
!645 = !{!223, !634}
!646 = !DISubprogram(name: "front", linkageName: "_ZNK4llvm9StringRef5frontEv", scope: !596, file: !597, line: 116, type: !647, scopeLine: 116, flags: DIFlagPublic | DIFlagPrototyped, spFlags: DISPFlagOptimized)
!647 = !DISubroutineType(types: !648)
!648 = !{!178, !634}
!649 = !DISubprogram(name: "back", linkageName: "_ZNK4llvm9StringRef4backEv", scope: !596, file: !597, line: 122, type: !647, scopeLine: 122, flags: DIFlagPublic | DIFlagPrototyped, spFlags: DISPFlagOptimized)
!650 = !DISubprogram(name: "equals", linkageName: "_ZNK4llvm9StringRef6equalsES0_", scope: !596, file: !597, line: 129, type: !651, scopeLine: 129, flags: DIFlagPublic | DIFlagPrototyped, spFlags: DISPFlagOptimized)
!651 = !DISubroutineType(types: !652)
!652 = !{!49, !634, !596}
!653 = !DISubprogram(name: "equals_lower", linkageName: "_ZNK4llvm9StringRef12equals_lowerES0_", scope: !596, file: !597, line: 135, type: !651, scopeLine: 135, flags: DIFlagPublic | DIFlagPrototyped, spFlags: DISPFlagOptimized)
!654 = !DISubprogram(name: "compare", linkageName: "_ZNK4llvm9StringRef7compareES0_", scope: !596, file: !597, line: 141, type: !655, scopeLine: 141, flags: DIFlagPublic | DIFlagPrototyped, spFlags: DISPFlagOptimized)
!655 = !DISubroutineType(types: !656)
!656 = !{!19, !634, !596}
!657 = !DISubprogram(name: "compare_lower", linkageName: "_ZNK4llvm9StringRef13compare_lowerES0_", scope: !596, file: !597, line: 153, type: !655, scopeLine: 153, flags: DIFlagPublic | DIFlagPrototyped, spFlags: DISPFlagOptimized)
!658 = !DISubprogram(name: "compare_numeric", linkageName: "_ZNK4llvm9StringRef15compare_numericES0_", scope: !596, file: !597, line: 157, type: !655, scopeLine: 157, flags: DIFlagPublic | DIFlagPrototyped, spFlags: DISPFlagOptimized)
!659 = !DISubprogram(name: "edit_distance", linkageName: "_ZNK4llvm9StringRef13edit_distanceES0_bj", scope: !596, file: !597, line: 177, type: !660, scopeLine: 177, flags: DIFlagPublic | DIFlagPrototyped, spFlags: DISPFlagOptimized)
!660 = !DISubroutineType(types: !661)
!661 = !{!6, !634, !596, !49, !6}
!662 = !DISubprogram(name: "str", linkageName: "_ZNK4llvm9StringRef3strB5cxx11Ev", scope: !596, file: !597, line: 181, type: !663, scopeLine: 181, flags: DIFlagPublic | DIFlagPrototyped, spFlags: DISPFlagOptimized)
!663 = !DISubroutineType(types: !664)
!664 = !{!625, !634}
!665 = !DISubprogram(name: "operator[]", linkageName: "_ZNK4llvm9StringRefixEm", scope: !596, file: !597, line: 190, type: !666, scopeLine: 190, flags: DIFlagPublic | DIFlagPrototyped, spFlags: DISPFlagOptimized)
!666 = !DISubroutineType(types: !667)
!667 = !{!178, !634, !223}
!668 = !DISubprogram(name: "operator basic_string", linkageName: "_ZNK4llvm9StringRefcvNSt7__cxx1112basic_stringIcSt11char_traitsIcESaIcEEEEv", scope: !596, file: !597, line: 199, type: !663, scopeLine: 199, flags: DIFlagPublic | DIFlagPrototyped, spFlags: DISPFlagOptimized)
!669 = !DISubprogram(name: "startswith", linkageName: "_ZNK4llvm9StringRef10startswithES0_", scope: !596, file: !597, line: 208, type: !651, scopeLine: 208, flags: DIFlagPublic | DIFlagPrototyped, spFlags: DISPFlagOptimized)
!670 = !DISubprogram(name: "startswith_lower", linkageName: "_ZNK4llvm9StringRef16startswith_lowerES0_", scope: !596, file: !597, line: 214, type: !651, scopeLine: 214, flags: DIFlagPublic | DIFlagPrototyped, spFlags: DISPFlagOptimized)
!671 = !DISubprogram(name: "endswith", linkageName: "_ZNK4llvm9StringRef8endswithES0_", scope: !596, file: !597, line: 217, type: !651, scopeLine: 217, flags: DIFlagPublic | DIFlagPrototyped, spFlags: DISPFlagOptimized)
!672 = !DISubprogram(name: "endswith_lower", linkageName: "_ZNK4llvm9StringRef14endswith_lowerES0_", scope: !596, file: !597, line: 223, type: !651, scopeLine: 223, flags: DIFlagPublic | DIFlagPrototyped, spFlags: DISPFlagOptimized)
!673 = !DISubprogram(name: "find", linkageName: "_ZNK4llvm9StringRef4findEcm", scope: !596, file: !597, line: 233, type: !674, scopeLine: 233, flags: DIFlagPublic | DIFlagPrototyped, spFlags: DISPFlagOptimized)
!674 = !DISubroutineType(types: !675)
!675 = !{!223, !634, !178, !223}
!676 = !DISubprogram(name: "find", linkageName: "_ZNK4llvm9StringRef4findES0_m", scope: !596, file: !597, line: 244, type: !677, scopeLine: 244, flags: DIFlagPublic | DIFlagPrototyped, spFlags: DISPFlagOptimized)
!677 = !DISubroutineType(types: !678)
!678 = !{!223, !634, !596, !223}
!679 = !DISubprogram(name: "rfind", linkageName: "_ZNK4llvm9StringRef5rfindEcm", scope: !596, file: !597, line: 250, type: !674, scopeLine: 250, flags: DIFlagPublic | DIFlagPrototyped, spFlags: DISPFlagOptimized)
!680 = !DISubprogram(name: "rfind", linkageName: "_ZNK4llvm9StringRef5rfindES0_", scope: !596, file: !597, line: 265, type: !681, scopeLine: 265, flags: DIFlagPublic | DIFlagPrototyped, spFlags: DISPFlagOptimized)
!681 = !DISubroutineType(types: !682)
!682 = !{!223, !634, !596}
!683 = !DISubprogram(name: "find_first_of", linkageName: "_ZNK4llvm9StringRef13find_first_ofEcm", scope: !596, file: !597, line: 269, type: !674, scopeLine: 269, flags: DIFlagPublic | DIFlagPrototyped, spFlags: DISPFlagOptimized)
!684 = !DISubprogram(name: "find_first_of", linkageName: "_ZNK4llvm9StringRef13find_first_ofES0_m", scope: !596, file: !597, line: 277, type: !677, scopeLine: 277, flags: DIFlagPublic | DIFlagPrototyped, spFlags: DISPFlagOptimized)
!685 = !DISubprogram(name: "find_first_not_of", linkageName: "_ZNK4llvm9StringRef17find_first_not_ofEcm", scope: !596, file: !597, line: 281, type: !674, scopeLine: 281, flags: DIFlagPublic | DIFlagPrototyped, spFlags: DISPFlagOptimized)
!686 = !DISubprogram(name: "find_first_not_of", linkageName: "_ZNK4llvm9StringRef17find_first_not_ofES0_m", scope: !596, file: !597, line: 287, type: !677, scopeLine: 287, flags: DIFlagPublic | DIFlagPrototyped, spFlags: DISPFlagOptimized)
!687 = !DISubprogram(name: "find_last_of", linkageName: "_ZNK4llvm9StringRef12find_last_ofEcm", scope: !596, file: !597, line: 291, type: !674, scopeLine: 291, flags: DIFlagPublic | DIFlagPrototyped, spFlags: DISPFlagOptimized)
!688 = !DISubprogram(name: "find_last_of", linkageName: "_ZNK4llvm9StringRef12find_last_ofES0_m", scope: !596, file: !597, line: 299, type: !677, scopeLine: 299, flags: DIFlagPublic | DIFlagPrototyped, spFlags: DISPFlagOptimized)
!689 = !DISubprogram(name: "find_last_not_of", linkageName: "_ZNK4llvm9StringRef16find_last_not_ofEcm", scope: !596, file: !597, line: 303, type: !674, scopeLine: 303, flags: DIFlagPublic | DIFlagPrototyped, spFlags: DISPFlagOptimized)
!690 = !DISubprogram(name: "find_last_not_of", linkageName: "_ZNK4llvm9StringRef16find_last_not_ofES0_m", scope: !596, file: !597, line: 309, type: !677, scopeLine: 309, flags: DIFlagPublic | DIFlagPrototyped, spFlags: DISPFlagOptimized)
!691 = !DISubprogram(name: "count", linkageName: "_ZNK4llvm9StringRef5countEc", scope: !596, file: !597, line: 316, type: !692, scopeLine: 316, flags: DIFlagPublic | DIFlagPrototyped, spFlags: DISPFlagOptimized)
!692 = !DISubroutineType(types: !693)
!693 = !{!223, !634, !178}
!694 = !DISubprogram(name: "count", linkageName: "_ZNK4llvm9StringRef5countES0_", scope: !596, file: !597, line: 326, type: !681, scopeLine: 326, flags: DIFlagPublic | DIFlagPrototyped, spFlags: DISPFlagOptimized)
!695 = !DISubprogram(name: "getAsInteger", linkageName: "_ZNK4llvm9StringRef12getAsIntegerEjRNS_5APIntE", scope: !596, file: !597, line: 367, type: !696, scopeLine: 367, flags: DIFlagPublic | DIFlagPrototyped, spFlags: DISPFlagOptimized)
!696 = !DISubroutineType(types: !697)
!697 = !{!49, !634, !6, !698}
!698 = !DIDerivedType(tag: DW_TAG_reference_type, baseType: !699, size: 64)
!699 = distinct !DICompositeType(tag: DW_TAG_class_type, name: "APInt", scope: !14, file: !700, line: 75, size: 128, flags: DIFlagTypePassByReference | DIFlagNonTrivial, elements: !701, identifier: "_ZTSN4llvm5APIntE")
!700 = !DIFile(filename: "/faster/fs/llvm34/include/llvm/ADT/APInt.h", directory: "")
!701 = !{!702, !703, !709, !713, !718, !721, !722, !725, !728, !731, !734, !739, !742, !747, !750, !753, !756, !757, !758, !761, !764, !767, !770, !771, !772, !773, !776, !781, !782, !783, !787, !790, !791, !792, !1163, !1164, !1165, !1166, !1167, !1168, !1169, !1170, !1171, !1174, !1175, !1176, !1177, !1178, !1181, !1184, !1185, !1186, !1187, !1188, !1189, !1190, !1191, !1192, !1195, !1198, !1199, !1200, !1203, !1206, !1209, !1212, !1213, !1214, !1215, !1218, !1219, !1220, !1221, !1224, !1227, !1228, !1229, !1230, !1231, !1232, !1233, !1234, !1237, !1238, !1239, !1240, !1241, !1242, !1243, !1244, !1245, !1248, !1249, !1250, !1251, !1252, !1253, !1254, !1255, !1256, !1257, !1258, !1259, !1260, !1261, !1262, !1263, !1264, !1265, !1266, !1269, !1270, !1274, !1275, !1276, !1277, !1278, !1279, !1280, !1283, !1284, !1285, !1286, !1287, !1288, !1289, !1290, !1291, !1292, !1293, !1294, !1295, !1296, !1297, !1298, !1299, !1300, !1301, !1302, !1303, !1304, !1305, !1306, !1307, !1308, !1309, !1310, !1311, !1312, !1313, !1314, !1315, !1318, !1319, !1320, !1321, !1322, !1323, !1324, !1325, !1326, !1327, !1328, !1331, !1334, !1337, !1338, !1339, !1340, !1341, !1342, !1343, !1346, !1529, !1532, !1533, !1536, !1537, !1540, !1543, !1544, !1545, !1549, !1552, !1555, !1556, !1557, !1562, !1563, !1564, !1565, !1569, !1573, !1578, !1583, !1586, !1589, !1592, !1595, !1596, !1599, !1600, !1601, !1604, !1605, !1608, !1611, !1614, !1617, !1620, !1621, !1622, !1623, !1624, !1625, !1628, !1631, !1632, !1633}
!702 = !DIDerivedType(tag: DW_TAG_member, name: "BitWidth", scope: !699, file: !700, line: 76, baseType: !6, size: 32)
!703 = !DIDerivedType(tag: DW_TAG_member, scope: !699, file: !700, line: 80, baseType: !704, size: 64, offset: 64)
!704 = distinct !DICompositeType(tag: DW_TAG_union_type, scope: !699, file: !700, line: 80, size: 64, flags: DIFlagExportSymbols | DIFlagTypePassByValue, elements: !705, identifier: "_ZTSN4llvm5APIntUt_E")
!705 = !{!706, !707}
!706 = !DIDerivedType(tag: DW_TAG_member, name: "VAL", scope: !704, file: !700, line: 81, baseType: !127, size: 64)
!707 = !DIDerivedType(tag: DW_TAG_member, name: "pVal", scope: !704, file: !700, line: 82, baseType: !708, size: 64)
!708 = !DIDerivedType(tag: DW_TAG_pointer_type, baseType: !127, size: 64)
!709 = !DISubprogram(name: "APInt", scope: !699, file: !700, line: 98, type: !710, scopeLine: 98, flags: DIFlagPrototyped, spFlags: DISPFlagOptimized)
!710 = !DISubroutineType(types: !711)
!711 = !{null, !712, !708, !6}
!712 = !DIDerivedType(tag: DW_TAG_pointer_type, baseType: !699, size: 64, flags: DIFlagArtificial | DIFlagObjectPointer)
!713 = !DISubprogram(name: "isSingleWord", linkageName: "_ZNK4llvm5APInt12isSingleWordEv", scope: !699, file: !700, line: 103, type: !714, scopeLine: 103, flags: DIFlagPrototyped, spFlags: DISPFlagOptimized)
!714 = !DISubroutineType(types: !715)
!715 = !{!49, !716}
!716 = !DIDerivedType(tag: DW_TAG_pointer_type, baseType: !717, size: 64, flags: DIFlagArtificial | DIFlagObjectPointer)
!717 = !DIDerivedType(tag: DW_TAG_const_type, baseType: !699)
!718 = !DISubprogram(name: "whichWord", linkageName: "_ZN4llvm5APInt9whichWordEj", scope: !699, file: !700, line: 108, type: !719, scopeLine: 108, flags: DIFlagPrototyped | DIFlagStaticMember, spFlags: DISPFlagOptimized)
!719 = !DISubroutineType(types: !720)
!720 = !{!6, !6}
!721 = !DISubprogram(name: "whichBit", linkageName: "_ZN4llvm5APInt8whichBitEj", scope: !699, file: !700, line: 116, type: !719, scopeLine: 116, flags: DIFlagPrototyped | DIFlagStaticMember, spFlags: DISPFlagOptimized)
!722 = !DISubprogram(name: "maskBit", linkageName: "_ZN4llvm5APInt7maskBitEj", scope: !699, file: !700, line: 126, type: !723, scopeLine: 126, flags: DIFlagPrototyped | DIFlagStaticMember, spFlags: DISPFlagOptimized)
!723 = !DISubroutineType(types: !724)
!724 = !{!127, !6}
!725 = !DISubprogram(name: "clearUnusedBits", linkageName: "_ZN4llvm5APInt15clearUnusedBitsEv", scope: !699, file: !700, line: 136, type: !726, scopeLine: 136, flags: DIFlagPrototyped, spFlags: DISPFlagOptimized)
!726 = !DISubroutineType(types: !727)
!727 = !{!698, !712}
!728 = !DISubprogram(name: "getWord", linkageName: "_ZNK4llvm5APInt7getWordEj", scope: !699, file: !700, line: 156, type: !729, scopeLine: 156, flags: DIFlagPrototyped, spFlags: DISPFlagOptimized)
!729 = !DISubroutineType(types: !730)
!730 = !{!127, !716, !6}
!731 = !DISubprogram(name: "fromString", linkageName: "_ZN4llvm5APInt10fromStringEjNS_9StringRefEh", scope: !699, file: !700, line: 172, type: !732, scopeLine: 172, flags: DIFlagPrototyped, spFlags: DISPFlagOptimized)
!732 = !DISubroutineType(types: !733)
!733 = !{null, !712, !6, !596, !149}
!734 = !DISubprogram(name: "divide", linkageName: "_ZN4llvm5APInt6divideES0_jRKS0_jPS0_S3_", scope: !699, file: !700, line: 180, type: !735, scopeLine: 180, flags: DIFlagPrototyped | DIFlagStaticMember, spFlags: DISPFlagOptimized)
!735 = !DISubroutineType(types: !736)
!736 = !{null, !717, !6, !737, !6, !738, !738}
!737 = !DIDerivedType(tag: DW_TAG_reference_type, baseType: !717, size: 64)
!738 = !DIDerivedType(tag: DW_TAG_pointer_type, baseType: !699, size: 64)
!739 = !DISubprogram(name: "initSlowCase", linkageName: "_ZN4llvm5APInt12initSlowCaseEjmb", scope: !699, file: !700, line: 184, type: !740, scopeLine: 184, flags: DIFlagPrototyped, spFlags: DISPFlagOptimized)
!740 = !DISubroutineType(types: !741)
!741 = !{null, !712, !6, !127, !49}
!742 = !DISubprogram(name: "initFromArray", linkageName: "_ZN4llvm5APInt13initFromArrayENS_8ArrayRefImEE", scope: !699, file: !700, line: 187, type: !743, scopeLine: 187, flags: DIFlagPrototyped, spFlags: DISPFlagOptimized)
!743 = !DISubroutineType(types: !744)
!744 = !{null, !712, !745}
!745 = distinct !DICompositeType(tag: DW_TAG_class_type, name: "ArrayRef<unsigned long>", scope: !14, file: !746, line: 31, flags: DIFlagFwdDecl, identifier: "_ZTSN4llvm8ArrayRefImEE")
!746 = !DIFile(filename: "/faster/fs/llvm34/include/llvm/ADT/ArrayRef.h", directory: "")
!747 = !DISubprogram(name: "initSlowCase", linkageName: "_ZN4llvm5APInt12initSlowCaseERKS0_", scope: !699, file: !700, line: 190, type: !748, scopeLine: 190, flags: DIFlagPrototyped, spFlags: DISPFlagOptimized)
!748 = !DISubroutineType(types: !749)
!749 = !{null, !712, !737}
!750 = !DISubprogram(name: "shlSlowCase", linkageName: "_ZNK4llvm5APInt11shlSlowCaseEj", scope: !699, file: !700, line: 193, type: !751, scopeLine: 193, flags: DIFlagPrototyped, spFlags: DISPFlagOptimized)
!751 = !DISubroutineType(types: !752)
!752 = !{!699, !716, !6}
!753 = !DISubprogram(name: "AndSlowCase", linkageName: "_ZNK4llvm5APInt11AndSlowCaseERKS0_", scope: !699, file: !700, line: 196, type: !754, scopeLine: 196, flags: DIFlagPrototyped, spFlags: DISPFlagOptimized)
!754 = !DISubroutineType(types: !755)
!755 = !{!699, !716, !737}
!756 = !DISubprogram(name: "OrSlowCase", linkageName: "_ZNK4llvm5APInt10OrSlowCaseERKS0_", scope: !699, file: !700, line: 199, type: !754, scopeLine: 199, flags: DIFlagPrototyped, spFlags: DISPFlagOptimized)
!757 = !DISubprogram(name: "XorSlowCase", linkageName: "_ZNK4llvm5APInt11XorSlowCaseERKS0_", scope: !699, file: !700, line: 202, type: !754, scopeLine: 202, flags: DIFlagPrototyped, spFlags: DISPFlagOptimized)
!758 = !DISubprogram(name: "AssignSlowCase", linkageName: "_ZN4llvm5APInt14AssignSlowCaseERKS0_", scope: !699, file: !700, line: 205, type: !759, scopeLine: 205, flags: DIFlagPrototyped, spFlags: DISPFlagOptimized)
!759 = !DISubroutineType(types: !760)
!760 = !{!698, !712, !737}
!761 = !DISubprogram(name: "EqualSlowCase", linkageName: "_ZNK4llvm5APInt13EqualSlowCaseERKS0_", scope: !699, file: !700, line: 208, type: !762, scopeLine: 208, flags: DIFlagPrototyped, spFlags: DISPFlagOptimized)
!762 = !DISubroutineType(types: !763)
!763 = !{!49, !716, !737}
!764 = !DISubprogram(name: "EqualSlowCase", linkageName: "_ZNK4llvm5APInt13EqualSlowCaseEm", scope: !699, file: !700, line: 211, type: !765, scopeLine: 211, flags: DIFlagPrototyped, spFlags: DISPFlagOptimized)
!765 = !DISubroutineType(types: !766)
!766 = !{!49, !716, !127}
!767 = !DISubprogram(name: "countLeadingZerosSlowCase", linkageName: "_ZNK4llvm5APInt25countLeadingZerosSlowCaseEv", scope: !699, file: !700, line: 214, type: !768, scopeLine: 214, flags: DIFlagPrototyped, spFlags: DISPFlagOptimized)
!768 = !DISubroutineType(types: !769)
!769 = !{!6, !716}
!770 = !DISubprogram(name: "countTrailingOnesSlowCase", linkageName: "_ZNK4llvm5APInt25countTrailingOnesSlowCaseEv", scope: !699, file: !700, line: 217, type: !768, scopeLine: 217, flags: DIFlagPrototyped, spFlags: DISPFlagOptimized)
!771 = !DISubprogram(name: "countPopulationSlowCase", linkageName: "_ZNK4llvm5APInt23countPopulationSlowCaseEv", scope: !699, file: !700, line: 220, type: !768, scopeLine: 220, flags: DIFlagPrototyped, spFlags: DISPFlagOptimized)
!772 = !DISubprogram(name: "APInt", scope: !699, file: !700, line: 236, type: !740, scopeLine: 236, flags: DIFlagPublic | DIFlagPrototyped, spFlags: DISPFlagOptimized)
!773 = !DISubprogram(name: "APInt", scope: !699, file: !700, line: 253, type: !774, scopeLine: 253, flags: DIFlagPublic | DIFlagPrototyped, spFlags: DISPFlagOptimized)
!774 = !DISubroutineType(types: !775)
!775 = !{null, !712, !6, !745}
!776 = !DISubprogram(name: "APInt", scope: !699, file: !700, line: 262, type: !777, scopeLine: 262, flags: DIFlagPublic | DIFlagPrototyped, spFlags: DISPFlagOptimized)
!777 = !DISubroutineType(types: !778)
!778 = !{null, !712, !6, !6, !779}
!779 = !DIDerivedType(tag: DW_TAG_pointer_type, baseType: !780, size: 64)
!780 = !DIDerivedType(tag: DW_TAG_const_type, baseType: !127)
!781 = !DISubprogram(name: "APInt", scope: !699, file: !700, line: 275, type: !732, scopeLine: 275, flags: DIFlagPublic | DIFlagPrototyped, spFlags: DISPFlagOptimized)
!782 = !DISubprogram(name: "APInt", scope: !699, file: !700, line: 279, type: !748, scopeLine: 279, flags: DIFlagPublic | DIFlagPrototyped, spFlags: DISPFlagOptimized)
!783 = !DISubprogram(name: "APInt", scope: !699, file: !700, line: 289, type: !784, scopeLine: 289, flags: DIFlagPublic | DIFlagPrototyped, spFlags: DISPFlagOptimized)
!784 = !DISubroutineType(types: !785)
!785 = !{null, !712, !786}
!786 = !DIDerivedType(tag: DW_TAG_rvalue_reference_type, baseType: !699, size: 64)
!787 = !DISubprogram(name: "~APInt", scope: !699, file: !700, line: 295, type: !788, scopeLine: 295, flags: DIFlagPublic | DIFlagPrototyped, spFlags: DISPFlagOptimized)
!788 = !DISubroutineType(types: !789)
!789 = !{null, !712}
!790 = !DISubprogram(name: "APInt", scope: !699, file: !700, line: 304, type: !788, scopeLine: 304, flags: DIFlagPublic | DIFlagExplicit | DIFlagPrototyped, spFlags: DISPFlagOptimized)
!791 = !DISubprogram(name: "needsCleanup", linkageName: "_ZNK4llvm5APInt12needsCleanupEv", scope: !699, file: !700, line: 307, type: !714, scopeLine: 307, flags: DIFlagPublic | DIFlagPrototyped, spFlags: DISPFlagOptimized)
!792 = !DISubprogram(name: "Profile", linkageName: "_ZNK4llvm5APInt7ProfileERNS_16FoldingSetNodeIDE", scope: !699, file: !700, line: 311, type: !793, scopeLine: 311, flags: DIFlagPublic | DIFlagPrototyped, spFlags: DISPFlagOptimized)
!793 = !DISubroutineType(types: !794)
!794 = !{null, !716, !795}
!795 = !DIDerivedType(tag: DW_TAG_reference_type, baseType: !796, size: 64)
!796 = distinct !DICompositeType(tag: DW_TAG_class_type, name: "FoldingSetNodeID", scope: !14, file: !797, line: 294, size: 1216, flags: DIFlagTypePassByReference | DIFlagNonTrivial, elements: !798, identifier: "_ZTSN4llvm16FoldingSetNodeIDE")
!797 = !DIFile(filename: "/faster/fs/llvm34/include/llvm/ADT/FoldingSet.h", directory: "")
!798 = !{!799, !1017, !1021, !1050, !1055, !1058, !1061, !1064, !1067, !1071, !1075, !1078, !1081, !1086, !1087, !1091, !1094, !1097, !1098, !1099}
!799 = !DIDerivedType(tag: DW_TAG_member, name: "Bits", scope: !796, file: !797, line: 297, baseType: !800, size: 1216)
!800 = distinct !DICompositeType(tag: DW_TAG_class_type, name: "SmallVector<unsigned int, 32>", scope: !14, file: !201, line: 880, size: 1216, flags: DIFlagTypePassByReference | DIFlagNonTrivial, elements: !801, templateParams: !993, identifier: "_ZTSN4llvm11SmallVectorIjLj32EEE")
!801 = !{!802, !986, !995, !999, !1002, !1007, !1010, !1014}
!802 = !DIDerivedType(tag: DW_TAG_inheritance, scope: !800, baseType: !803, flags: DIFlagPublic, extraData: i32 0)
!803 = distinct !DICompositeType(tag: DW_TAG_class_type, name: "SmallVectorImpl<unsigned int>", scope: !14, file: !201, line: 371, size: 256, flags: DIFlagTypePassByReference | DIFlagNonTrivial, elements: !804, templateParams: !985, identifier: "_ZTSN4llvm15SmallVectorImplIjEE")
!804 = !{!805, !923, !929, !932, !935, !936, !937, !940, !941, !944, !948, !953, !954, !958, !961, !965, !968, !971, !974, !978, !982, !983, !984}
!805 = !DIDerivedType(tag: DW_TAG_inheritance, scope: !803, baseType: !806, flags: DIFlagPublic, extraData: i32 0)
!806 = distinct !DICompositeType(tag: DW_TAG_class_type, name: "SmallVectorTemplateBase<unsigned int, true>", scope: !14, file: !201, line: 296, size: 256, flags: DIFlagTypePassByValue | DIFlagNonTrivial, elements: !807, templateParams: !922, identifier: "_ZTSN4llvm23SmallVectorTemplateBaseIjLb1EEE")
!807 = !{!808, !908, !912, !915, !916, !919}
!808 = !DIDerivedType(tag: DW_TAG_inheritance, scope: !806, baseType: !809, flags: DIFlagPublic, extraData: i32 0)
!809 = distinct !DICompositeType(tag: DW_TAG_class_type, name: "SmallVectorTemplateCommon<unsigned int, void>", scope: !14, file: !201, line: 66, size: 256, flags: DIFlagTypePassByValue | DIFlagNonTrivial, elements: !810, templateParams: !906, identifier: "_ZTSN4llvm25SmallVectorTemplateCommonIjvEE")
!810 = !{!811, !812, !828, !832, !835, !840, !843, !847, !851, !857, !858, !859, !860, !861, !866, !871, !872, !873, !876, !877, !880, !884, !888, !893, !898, !901, !904, !905}
!811 = !DIDerivedType(tag: DW_TAG_inheritance, scope: !809, baseType: !213, flags: DIFlagPublic, extraData: i32 0)
!812 = !DIDerivedType(tag: DW_TAG_member, name: "FirstEl", scope: !809, file: !201, line: 74, baseType: !813, size: 32, offset: 192)
!813 = !DIDerivedType(tag: DW_TAG_typedef, name: "U", scope: !809, file: !201, line: 73, baseType: !814)
!814 = distinct !DICompositeType(tag: DW_TAG_structure_type, name: "AlignedCharArrayUnion<unsigned int, char, char, char, char, char, char>", scope: !14, file: !240, line: 199, size: 32, flags: DIFlagTypePassByValue, elements: !815, templateParams: !826, identifier: "_ZTSN4llvm21AlignedCharArrayUnionIjccccccEE")
!815 = !{!816}
!816 = !DIDerivedType(tag: DW_TAG_inheritance, scope: !814, baseType: !817, extraData: i32 0)
!817 = distinct !DICompositeType(tag: DW_TAG_structure_type, name: "AlignedCharArray<4, 4>", scope: !14, file: !240, line: 75, size: 32, flags: DIFlagTypePassByValue, elements: !818, templateParams: !823, identifier: "_ZTSN4llvm16AlignedCharArrayILm4ELm4EEE")
!818 = !{!819}
!819 = !DIDerivedType(tag: DW_TAG_member, name: "buffer", scope: !817, file: !240, line: 76, baseType: !820, size: 32, align: 32)
!820 = !DICompositeType(tag: DW_TAG_array_type, baseType: !178, size: 32, elements: !821)
!821 = !{!822}
!822 = !DISubrange(count: 4)
!823 = !{!824, !825}
!824 = !DITemplateValueParameter(name: "Alignment", type: !131, value: i64 4)
!825 = !DITemplateValueParameter(name: "Size", type: !131, value: i64 4)
!826 = !{!827, !346, !347, !348, !349, !350, !351}
!827 = !DITemplateTypeParameter(name: "T1", type: !6)
!828 = !DISubprogram(name: "SmallVectorTemplateCommon", scope: !809, file: !201, line: 78, type: !829, scopeLine: 78, flags: DIFlagProtected | DIFlagPrototyped, spFlags: DISPFlagOptimized)
!829 = !DISubroutineType(types: !830)
!830 = !{null, !831, !223}
!831 = !DIDerivedType(tag: DW_TAG_pointer_type, baseType: !809, size: 64, flags: DIFlagArtificial | DIFlagObjectPointer)
!832 = !DISubprogram(name: "grow_pod", linkageName: "_ZN4llvm25SmallVectorTemplateCommonIjvE8grow_podEmm", scope: !809, file: !201, line: 80, type: !833, scopeLine: 80, flags: DIFlagProtected | DIFlagPrototyped, spFlags: DISPFlagOptimized)
!833 = !DISubroutineType(types: !834)
!834 = !{null, !831, !223, !223}
!835 = !DISubprogram(name: "isSmall", linkageName: "_ZNK4llvm25SmallVectorTemplateCommonIjvE7isSmallEv", scope: !809, file: !201, line: 86, type: !836, scopeLine: 86, flags: DIFlagProtected | DIFlagPrototyped, spFlags: DISPFlagOptimized)
!836 = !DISubroutineType(types: !837)
!837 = !{!49, !838}
!838 = !DIDerivedType(tag: DW_TAG_pointer_type, baseType: !839, size: 64, flags: DIFlagArtificial | DIFlagObjectPointer)
!839 = !DIDerivedType(tag: DW_TAG_const_type, baseType: !809)
!840 = !DISubprogram(name: "resetToSmall", linkageName: "_ZN4llvm25SmallVectorTemplateCommonIjvE12resetToSmallEv", scope: !809, file: !201, line: 91, type: !841, scopeLine: 91, flags: DIFlagProtected | DIFlagPrototyped, spFlags: DISPFlagOptimized)
!841 = !DISubroutineType(types: !842)
!842 = !{null, !831}
!843 = !DISubprogram(name: "setEnd", linkageName: "_ZN4llvm25SmallVectorTemplateCommonIjvE6setEndEPj", scope: !809, file: !201, line: 95, type: !844, scopeLine: 95, flags: DIFlagProtected | DIFlagPrototyped, spFlags: DISPFlagOptimized)
!844 = !DISubroutineType(types: !845)
!845 = !{null, !831, !846}
!846 = !DIDerivedType(tag: DW_TAG_pointer_type, baseType: !6, size: 64)
!847 = !DISubprogram(name: "begin", linkageName: "_ZN4llvm25SmallVectorTemplateCommonIjvE5beginEv", scope: !809, file: !201, line: 112, type: !848, scopeLine: 112, flags: DIFlagPublic | DIFlagPrototyped, spFlags: DISPFlagOptimized)
!848 = !DISubroutineType(types: !849)
!849 = !{!850, !831}
!850 = !DIDerivedType(tag: DW_TAG_typedef, name: "iterator", scope: !809, file: !201, line: 100, baseType: !846)
!851 = !DISubprogram(name: "begin", linkageName: "_ZNK4llvm25SmallVectorTemplateCommonIjvE5beginEv", scope: !809, file: !201, line: 113, type: !852, scopeLine: 113, flags: DIFlagPublic | DIFlagPrototyped, spFlags: DISPFlagOptimized)
!852 = !DISubroutineType(types: !853)
!853 = !{!854, !838}
!854 = !DIDerivedType(tag: DW_TAG_typedef, name: "const_iterator", scope: !809, file: !201, line: 101, baseType: !855)
!855 = !DIDerivedType(tag: DW_TAG_pointer_type, baseType: !856, size: 64)
!856 = !DIDerivedType(tag: DW_TAG_const_type, baseType: !6)
!857 = !DISubprogram(name: "end", linkageName: "_ZN4llvm25SmallVectorTemplateCommonIjvE3endEv", scope: !809, file: !201, line: 114, type: !848, scopeLine: 114, flags: DIFlagPublic | DIFlagPrototyped, spFlags: DISPFlagOptimized)
!858 = !DISubprogram(name: "end", linkageName: "_ZNK4llvm25SmallVectorTemplateCommonIjvE3endEv", scope: !809, file: !201, line: 115, type: !852, scopeLine: 115, flags: DIFlagPublic | DIFlagPrototyped, spFlags: DISPFlagOptimized)
!859 = !DISubprogram(name: "capacity_ptr", linkageName: "_ZN4llvm25SmallVectorTemplateCommonIjvE12capacity_ptrEv", scope: !809, file: !201, line: 117, type: !848, scopeLine: 117, flags: DIFlagProtected | DIFlagPrototyped, spFlags: DISPFlagOptimized)
!860 = !DISubprogram(name: "capacity_ptr", linkageName: "_ZNK4llvm25SmallVectorTemplateCommonIjvE12capacity_ptrEv", scope: !809, file: !201, line: 118, type: !852, scopeLine: 118, flags: DIFlagProtected | DIFlagPrototyped, spFlags: DISPFlagOptimized)
!861 = !DISubprogram(name: "rbegin", linkageName: "_ZN4llvm25SmallVectorTemplateCommonIjvE6rbeginEv", scope: !809, file: !201, line: 122, type: !862, scopeLine: 122, flags: DIFlagPublic | DIFlagPrototyped, spFlags: DISPFlagOptimized)
!862 = !DISubroutineType(types: !863)
!863 = !{!864, !831}
!864 = !DIDerivedType(tag: DW_TAG_typedef, name: "reverse_iterator", scope: !809, file: !201, line: 104, baseType: !865)
!865 = distinct !DICompositeType(tag: DW_TAG_class_type, name: "reverse_iterator<unsigned int *>", scope: !390, file: !389, line: 101, flags: DIFlagFwdDecl, identifier: "_ZTSSt16reverse_iteratorIPjE")
!866 = !DISubprogram(name: "rbegin", linkageName: "_ZNK4llvm25SmallVectorTemplateCommonIjvE6rbeginEv", scope: !809, file: !201, line: 123, type: !867, scopeLine: 123, flags: DIFlagPublic | DIFlagPrototyped, spFlags: DISPFlagOptimized)
!867 = !DISubroutineType(types: !868)
!868 = !{!869, !838}
!869 = !DIDerivedType(tag: DW_TAG_typedef, name: "const_reverse_iterator", scope: !809, file: !201, line: 103, baseType: !870)
!870 = distinct !DICompositeType(tag: DW_TAG_class_type, name: "reverse_iterator<const unsigned int *>", scope: !390, file: !389, line: 101, flags: DIFlagFwdDecl, identifier: "_ZTSSt16reverse_iteratorIPKjE")
!871 = !DISubprogram(name: "rend", linkageName: "_ZN4llvm25SmallVectorTemplateCommonIjvE4rendEv", scope: !809, file: !201, line: 124, type: !862, scopeLine: 124, flags: DIFlagPublic | DIFlagPrototyped, spFlags: DISPFlagOptimized)
!872 = !DISubprogram(name: "rend", linkageName: "_ZNK4llvm25SmallVectorTemplateCommonIjvE4rendEv", scope: !809, file: !201, line: 125, type: !867, scopeLine: 125, flags: DIFlagPublic | DIFlagPrototyped, spFlags: DISPFlagOptimized)
!873 = !DISubprogram(name: "size", linkageName: "_ZNK4llvm25SmallVectorTemplateCommonIjvE4sizeEv", scope: !809, file: !201, line: 127, type: !874, scopeLine: 127, flags: DIFlagPublic | DIFlagPrototyped, spFlags: DISPFlagOptimized)
!874 = !DISubroutineType(types: !875)
!875 = !{!401, !838}
!876 = !DISubprogram(name: "max_size", linkageName: "_ZNK4llvm25SmallVectorTemplateCommonIjvE8max_sizeEv", scope: !809, file: !201, line: 128, type: !874, scopeLine: 128, flags: DIFlagPublic | DIFlagPrototyped, spFlags: DISPFlagOptimized)
!877 = !DISubprogram(name: "capacity", linkageName: "_ZNK4llvm25SmallVectorTemplateCommonIjvE8capacityEv", scope: !809, file: !201, line: 132, type: !878, scopeLine: 132, flags: DIFlagPublic | DIFlagPrototyped, spFlags: DISPFlagOptimized)
!878 = !DISubroutineType(types: !879)
!879 = !{!223, !838}
!880 = !DISubprogram(name: "data", linkageName: "_ZN4llvm25SmallVectorTemplateCommonIjvE4dataEv", scope: !809, file: !201, line: 135, type: !881, scopeLine: 135, flags: DIFlagPublic | DIFlagPrototyped, spFlags: DISPFlagOptimized)
!881 = !DISubroutineType(types: !882)
!882 = !{!883, !831}
!883 = !DIDerivedType(tag: DW_TAG_typedef, name: "pointer", scope: !809, file: !201, line: 108, baseType: !846)
!884 = !DISubprogram(name: "data", linkageName: "_ZNK4llvm25SmallVectorTemplateCommonIjvE4dataEv", scope: !809, file: !201, line: 137, type: !885, scopeLine: 137, flags: DIFlagPublic | DIFlagPrototyped, spFlags: DISPFlagOptimized)
!885 = !DISubroutineType(types: !886)
!886 = !{!887, !838}
!887 = !DIDerivedType(tag: DW_TAG_typedef, name: "const_pointer", scope: !809, file: !201, line: 109, baseType: !855)
!888 = !DISubprogram(name: "operator[]", linkageName: "_ZN4llvm25SmallVectorTemplateCommonIjvEixEj", scope: !809, file: !201, line: 139, type: !889, scopeLine: 139, flags: DIFlagPublic | DIFlagPrototyped, spFlags: DISPFlagOptimized)
!889 = !DISubroutineType(types: !890)
!890 = !{!891, !831, !6}
!891 = !DIDerivedType(tag: DW_TAG_typedef, name: "reference", scope: !809, file: !201, line: 106, baseType: !892)
!892 = !DIDerivedType(tag: DW_TAG_reference_type, baseType: !6, size: 64)
!893 = !DISubprogram(name: "operator[]", linkageName: "_ZNK4llvm25SmallVectorTemplateCommonIjvEixEj", scope: !809, file: !201, line: 143, type: !894, scopeLine: 143, flags: DIFlagPublic | DIFlagPrototyped, spFlags: DISPFlagOptimized)
!894 = !DISubroutineType(types: !895)
!895 = !{!896, !838, !6}
!896 = !DIDerivedType(tag: DW_TAG_typedef, name: "const_reference", scope: !809, file: !201, line: 107, baseType: !897)
!897 = !DIDerivedType(tag: DW_TAG_reference_type, baseType: !856, size: 64)
!898 = !DISubprogram(name: "front", linkageName: "_ZN4llvm25SmallVectorTemplateCommonIjvE5frontEv", scope: !809, file: !201, line: 148, type: !899, scopeLine: 148, flags: DIFlagPublic | DIFlagPrototyped, spFlags: DISPFlagOptimized)
!899 = !DISubroutineType(types: !900)
!900 = !{!891, !831}
!901 = !DISubprogram(name: "front", linkageName: "_ZNK4llvm25SmallVectorTemplateCommonIjvE5frontEv", scope: !809, file: !201, line: 152, type: !902, scopeLine: 152, flags: DIFlagPublic | DIFlagPrototyped, spFlags: DISPFlagOptimized)
!902 = !DISubroutineType(types: !903)
!903 = !{!896, !838}
!904 = !DISubprogram(name: "back", linkageName: "_ZN4llvm25SmallVectorTemplateCommonIjvE4backEv", scope: !809, file: !201, line: 157, type: !899, scopeLine: 157, flags: DIFlagPublic | DIFlagPrototyped, spFlags: DISPFlagOptimized)
!905 = !DISubprogram(name: "back", linkageName: "_ZNK4llvm25SmallVectorTemplateCommonIjvE4backEv", scope: !809, file: !201, line: 161, type: !902, scopeLine: 161, flags: DIFlagPublic | DIFlagPrototyped, spFlags: DISPFlagOptimized)
!906 = !{!907, !434}
!907 = !DITemplateTypeParameter(name: "T", type: !6)
!908 = !DISubprogram(name: "SmallVectorTemplateBase", scope: !806, file: !201, line: 298, type: !909, scopeLine: 298, flags: DIFlagProtected | DIFlagPrototyped, spFlags: DISPFlagOptimized)
!909 = !DISubroutineType(types: !910)
!910 = !{null, !911, !223}
!911 = !DIDerivedType(tag: DW_TAG_pointer_type, baseType: !806, size: 64, flags: DIFlagArtificial | DIFlagObjectPointer)
!912 = !DISubprogram(name: "destroy_range", linkageName: "_ZN4llvm23SmallVectorTemplateBaseIjLb1EE13destroy_rangeEPjS2_", scope: !806, file: !201, line: 301, type: !913, scopeLine: 301, flags: DIFlagProtected | DIFlagPrototyped | DIFlagStaticMember, spFlags: DISPFlagOptimized)
!913 = !DISubroutineType(types: !914)
!914 = !{null, !846, !846}
!915 = !DISubprogram(name: "grow", linkageName: "_ZN4llvm23SmallVectorTemplateBaseIjLb1EE4growEm", scope: !806, file: !201, line: 346, type: !909, scopeLine: 346, flags: DIFlagProtected | DIFlagPrototyped, spFlags: DISPFlagOptimized)
!916 = !DISubprogram(name: "push_back", linkageName: "_ZN4llvm23SmallVectorTemplateBaseIjLb1EE9push_backERKj", scope: !806, file: !201, line: 350, type: !917, scopeLine: 350, flags: DIFlagPublic | DIFlagPrototyped, spFlags: DISPFlagOptimized)
!917 = !DISubroutineType(types: !918)
!918 = !{null, !911, !897}
!919 = !DISubprogram(name: "pop_back", linkageName: "_ZN4llvm23SmallVectorTemplateBaseIjLb1EE8pop_backEv", scope: !806, file: !201, line: 361, type: !920, scopeLine: 361, flags: DIFlagPublic | DIFlagPrototyped, spFlags: DISPFlagOptimized)
!920 = !DISubroutineType(types: !921)
!921 = !{null, !911}
!922 = !{!907, !450}
!923 = !DISubprogram(name: "SmallVectorImpl", scope: !803, file: !201, line: 374, type: !924, scopeLine: 374, flags: DIFlagPrototyped, spFlags: DISPFlagOptimized | DISPFlagDeleted)
!924 = !DISubroutineType(types: !925)
!925 = !{null, !926, !927}
!926 = !DIDerivedType(tag: DW_TAG_pointer_type, baseType: !803, size: 64, flags: DIFlagArtificial | DIFlagObjectPointer)
!927 = !DIDerivedType(tag: DW_TAG_reference_type, baseType: !928, size: 64)
!928 = !DIDerivedType(tag: DW_TAG_const_type, baseType: !803)
!929 = !DISubprogram(name: "SmallVectorImpl", scope: !803, file: !201, line: 381, type: !930, scopeLine: 381, flags: DIFlagProtected | DIFlagExplicit | DIFlagPrototyped, spFlags: DISPFlagOptimized)
!930 = !DISubroutineType(types: !931)
!931 = !{null, !926, !6}
!932 = !DISubprogram(name: "~SmallVectorImpl", scope: !803, file: !201, line: 386, type: !933, scopeLine: 386, flags: DIFlagPublic | DIFlagPrototyped, spFlags: DISPFlagOptimized)
!933 = !DISubroutineType(types: !934)
!934 = !{null, !926}
!935 = !DISubprogram(name: "clear", linkageName: "_ZN4llvm15SmallVectorImplIjE5clearEv", scope: !803, file: !201, line: 396, type: !933, scopeLine: 396, flags: DIFlagPublic | DIFlagPrototyped, spFlags: DISPFlagOptimized)
!936 = !DISubprogram(name: "resize", linkageName: "_ZN4llvm15SmallVectorImplIjE6resizeEj", scope: !803, file: !201, line: 401, type: !930, scopeLine: 401, flags: DIFlagPublic | DIFlagPrototyped, spFlags: DISPFlagOptimized)
!937 = !DISubprogram(name: "resize", linkageName: "_ZN4llvm15SmallVectorImplIjE6resizeEjRKj", scope: !803, file: !201, line: 413, type: !938, scopeLine: 413, flags: DIFlagPublic | DIFlagPrototyped, spFlags: DISPFlagOptimized)
!938 = !DISubroutineType(types: !939)
!939 = !{null, !926, !6, !897}
!940 = !DISubprogram(name: "reserve", linkageName: "_ZN4llvm15SmallVectorImplIjE7reserveEj", scope: !803, file: !201, line: 425, type: !930, scopeLine: 425, flags: DIFlagPublic | DIFlagPrototyped, spFlags: DISPFlagOptimized)
!941 = !DISubprogram(name: "pop_back_val", linkageName: "_ZN4llvm15SmallVectorImplIjE12pop_back_valEv", scope: !803, file: !201, line: 430, type: !942, scopeLine: 430, flags: DIFlagPublic | DIFlagPrototyped, spFlags: DISPFlagOptimized)
!942 = !DISubroutineType(types: !943)
!943 = !{!6, !926}
!944 = !DISubprogram(name: "swap", linkageName: "_ZN4llvm15SmallVectorImplIjE4swapERS1_", scope: !803, file: !201, line: 440, type: !945, scopeLine: 440, flags: DIFlagPublic | DIFlagPrototyped, spFlags: DISPFlagOptimized)
!945 = !DISubroutineType(types: !946)
!946 = !{null, !926, !947}
!947 = !DIDerivedType(tag: DW_TAG_reference_type, baseType: !803, size: 64)
!948 = !DISubprogram(name: "append", linkageName: "_ZN4llvm15SmallVectorImplIjE6appendEmRKj", scope: !803, file: !201, line: 460, type: !949, scopeLine: 460, flags: DIFlagPublic | DIFlagPrototyped, spFlags: DISPFlagOptimized)
!949 = !DISubroutineType(types: !950)
!950 = !{null, !926, !951, !897}
!951 = !DIDerivedType(tag: DW_TAG_typedef, name: "size_type", scope: !803, file: !201, line: 377, baseType: !952)
!952 = !DIDerivedType(tag: DW_TAG_typedef, name: "size_type", scope: !809, file: !201, line: 97, baseType: !223)
!953 = !DISubprogram(name: "assign", linkageName: "_ZN4llvm15SmallVectorImplIjE6assignEjRKj", scope: !803, file: !201, line: 470, type: !938, scopeLine: 470, flags: DIFlagPublic | DIFlagPrototyped, spFlags: DISPFlagOptimized)
!954 = !DISubprogram(name: "erase", linkageName: "_ZN4llvm15SmallVectorImplIjE5eraseEPj", scope: !803, file: !201, line: 478, type: !955, scopeLine: 478, flags: DIFlagPublic | DIFlagPrototyped, spFlags: DISPFlagOptimized)
!955 = !DISubroutineType(types: !956)
!956 = !{!957, !926, !957}
!957 = !DIDerivedType(tag: DW_TAG_typedef, name: "iterator", scope: !803, file: !201, line: 376, baseType: !850)
!958 = !DISubprogram(name: "erase", linkageName: "_ZN4llvm15SmallVectorImplIjE5eraseEPjS2_", scope: !803, file: !201, line: 490, type: !959, scopeLine: 490, flags: DIFlagPublic | DIFlagPrototyped, spFlags: DISPFlagOptimized)
!959 = !DISubroutineType(types: !960)
!960 = !{!957, !926, !957, !957}
!961 = !DISubprogram(name: "insert", linkageName: "_ZN4llvm15SmallVectorImplIjE6insertEPjOj", scope: !803, file: !201, line: 505, type: !962, scopeLine: 505, flags: DIFlagPublic | DIFlagPrototyped, spFlags: DISPFlagOptimized)
!962 = !DISubroutineType(types: !963)
!963 = !{!957, !926, !957, !964}
!964 = !DIDerivedType(tag: DW_TAG_rvalue_reference_type, baseType: !6, size: 64)
!965 = !DISubprogram(name: "insert", linkageName: "_ZN4llvm15SmallVectorImplIjE6insertEPjRKj", scope: !803, file: !201, line: 537, type: !966, scopeLine: 537, flags: DIFlagPublic | DIFlagPrototyped, spFlags: DISPFlagOptimized)
!966 = !DISubroutineType(types: !967)
!967 = !{!957, !926, !957, !897}
!968 = !DISubprogram(name: "insert", linkageName: "_ZN4llvm15SmallVectorImplIjE6insertEPjmRKj", scope: !803, file: !201, line: 568, type: !969, scopeLine: 568, flags: DIFlagPublic | DIFlagPrototyped, spFlags: DISPFlagOptimized)
!969 = !DISubroutineType(types: !970)
!970 = !{!957, !926, !957, !951, !897}
!971 = !DISubprogram(name: "operator=", linkageName: "_ZN4llvm15SmallVectorImplIjEaSERKS1_", scope: !803, file: !201, line: 674, type: !972, scopeLine: 674, flags: DIFlagPublic | DIFlagPrototyped, spFlags: DISPFlagOptimized)
!972 = !DISubroutineType(types: !973)
!973 = !{!947, !926, !927}
!974 = !DISubprogram(name: "operator=", linkageName: "_ZN4llvm15SmallVectorImplIjEaSEOS1_", scope: !803, file: !201, line: 677, type: !975, scopeLine: 677, flags: DIFlagPublic | DIFlagPrototyped, spFlags: DISPFlagOptimized)
!975 = !DISubroutineType(types: !976)
!976 = !{!947, !926, !977}
!977 = !DIDerivedType(tag: DW_TAG_rvalue_reference_type, baseType: !803, size: 64)
!978 = !DISubprogram(name: "operator==", linkageName: "_ZNK4llvm15SmallVectorImplIjEeqERKS1_", scope: !803, file: !201, line: 680, type: !979, scopeLine: 680, flags: DIFlagPublic | DIFlagPrototyped, spFlags: DISPFlagOptimized)
!979 = !DISubroutineType(types: !980)
!980 = !{!49, !981, !927}
!981 = !DIDerivedType(tag: DW_TAG_pointer_type, baseType: !928, size: 64, flags: DIFlagArtificial | DIFlagObjectPointer)
!982 = !DISubprogram(name: "operator!=", linkageName: "_ZNK4llvm15SmallVectorImplIjEneERKS1_", scope: !803, file: !201, line: 684, type: !979, scopeLine: 684, flags: DIFlagPublic | DIFlagPrototyped, spFlags: DISPFlagOptimized)
!983 = !DISubprogram(name: "operator<", linkageName: "_ZNK4llvm15SmallVectorImplIjEltERKS1_", scope: !803, file: !201, line: 688, type: !979, scopeLine: 688, flags: DIFlagPublic | DIFlagPrototyped, spFlags: DISPFlagOptimized)
!984 = !DISubprogram(name: "set_size", linkageName: "_ZN4llvm15SmallVectorImplIjE8set_sizeEj", scope: !803, file: !201, line: 702, type: !930, scopeLine: 702, flags: DIFlagPublic | DIFlagPrototyped, spFlags: DISPFlagOptimized)
!985 = !{!907}
!986 = !DIDerivedType(tag: DW_TAG_member, name: "Storage", scope: !800, file: !201, line: 882, baseType: !987, size: 992, offset: 224)
!987 = distinct !DICompositeType(tag: DW_TAG_structure_type, name: "SmallVectorStorage<unsigned int, 32>", scope: !14, file: !201, line: 865, size: 992, flags: DIFlagTypePassByValue, elements: !988, templateParams: !993, identifier: "_ZTSN4llvm18SmallVectorStorageIjLj32EEE")
!988 = !{!989}
!989 = !DIDerivedType(tag: DW_TAG_member, name: "InlineElts", scope: !987, file: !201, line: 866, baseType: !990, size: 992)
!990 = !DICompositeType(tag: DW_TAG_array_type, baseType: !813, size: 992, elements: !991)
!991 = !{!992}
!992 = !DISubrange(count: 31)
!993 = !{!907, !994}
!994 = !DITemplateValueParameter(name: "N", type: !6, value: i32 32)
!995 = !DISubprogram(name: "SmallVector", scope: !800, file: !201, line: 884, type: !996, scopeLine: 884, flags: DIFlagPublic | DIFlagPrototyped, spFlags: DISPFlagOptimized)
!996 = !DISubroutineType(types: !997)
!997 = !{null, !998}
!998 = !DIDerivedType(tag: DW_TAG_pointer_type, baseType: !800, size: 64, flags: DIFlagArtificial | DIFlagObjectPointer)
!999 = !DISubprogram(name: "SmallVector", scope: !800, file: !201, line: 887, type: !1000, scopeLine: 887, flags: DIFlagPublic | DIFlagExplicit | DIFlagPrototyped, spFlags: DISPFlagOptimized)
!1000 = !DISubroutineType(types: !1001)
!1001 = !{null, !998, !6, !897}
!1002 = !DISubprogram(name: "SmallVector", scope: !800, file: !201, line: 897, type: !1003, scopeLine: 897, flags: DIFlagPublic | DIFlagPrototyped, spFlags: DISPFlagOptimized)
!1003 = !DISubroutineType(types: !1004)
!1004 = !{null, !998, !1005}
!1005 = !DIDerivedType(tag: DW_TAG_reference_type, baseType: !1006, size: 64)
!1006 = !DIDerivedType(tag: DW_TAG_const_type, baseType: !800)
!1007 = !DISubprogram(name: "operator=", linkageName: "_ZN4llvm11SmallVectorIjLj32EEaSERKS1_", scope: !800, file: !201, line: 902, type: !1008, scopeLine: 902, flags: DIFlagPublic | DIFlagPrototyped, spFlags: DISPFlagOptimized)
!1008 = !DISubroutineType(types: !1009)
!1009 = !{!1005, !998, !1005}
!1010 = !DISubprogram(name: "SmallVector", scope: !800, file: !201, line: 908, type: !1011, scopeLine: 908, flags: DIFlagPublic | DIFlagPrototyped, spFlags: DISPFlagOptimized)
!1011 = !DISubroutineType(types: !1012)
!1012 = !{null, !998, !1013}
!1013 = !DIDerivedType(tag: DW_TAG_rvalue_reference_type, baseType: !800, size: 64)
!1014 = !DISubprogram(name: "operator=", linkageName: "_ZN4llvm11SmallVectorIjLj32EEaSEOS1_", scope: !800, file: !201, line: 913, type: !1015, scopeLine: 913, flags: DIFlagPublic | DIFlagPrototyped, spFlags: DISPFlagOptimized)
!1015 = !DISubroutineType(types: !1016)
!1016 = !{!1005, !998, !1013}
!1017 = !DISubprogram(name: "FoldingSetNodeID", scope: !796, file: !797, line: 300, type: !1018, scopeLine: 300, flags: DIFlagPublic | DIFlagPrototyped, spFlags: DISPFlagOptimized)
!1018 = !DISubroutineType(types: !1019)
!1019 = !{null, !1020}
!1020 = !DIDerivedType(tag: DW_TAG_pointer_type, baseType: !796, size: 64, flags: DIFlagArtificial | DIFlagObjectPointer)
!1021 = !DISubprogram(name: "FoldingSetNodeID", scope: !796, file: !797, line: 302, type: !1022, scopeLine: 302, flags: DIFlagPublic | DIFlagPrototyped, spFlags: DISPFlagOptimized)
!1022 = !DISubroutineType(types: !1023)
!1023 = !{null, !1020, !1024}
!1024 = distinct !DICompositeType(tag: DW_TAG_class_type, name: "FoldingSetNodeIDRef", scope: !14, file: !797, line: 268, size: 128, flags: DIFlagTypePassByValue | DIFlagNonTrivial, elements: !1025, identifier: "_ZTSN4llvm19FoldingSetNodeIDRefE")
!1025 = !{!1026, !1027, !1028, !1032, !1035, !1040, !1043, !1044, !1047}
!1026 = !DIDerivedType(tag: DW_TAG_member, name: "Data", scope: !1024, file: !797, line: 269, baseType: !855, size: 64)
!1027 = !DIDerivedType(tag: DW_TAG_member, name: "Size", scope: !1024, file: !797, line: 270, baseType: !223, size: 64, offset: 64)
!1028 = !DISubprogram(name: "FoldingSetNodeIDRef", scope: !1024, file: !797, line: 272, type: !1029, scopeLine: 272, flags: DIFlagPublic | DIFlagPrototyped, spFlags: DISPFlagOptimized)
!1029 = !DISubroutineType(types: !1030)
!1030 = !{null, !1031}
!1031 = !DIDerivedType(tag: DW_TAG_pointer_type, baseType: !1024, size: 64, flags: DIFlagArtificial | DIFlagObjectPointer)
!1032 = !DISubprogram(name: "FoldingSetNodeIDRef", scope: !1024, file: !797, line: 273, type: !1033, scopeLine: 273, flags: DIFlagPublic | DIFlagPrototyped, spFlags: DISPFlagOptimized)
!1033 = !DISubroutineType(types: !1034)
!1034 = !{null, !1031, !855, !223}
!1035 = !DISubprogram(name: "ComputeHash", linkageName: "_ZNK4llvm19FoldingSetNodeIDRef11ComputeHashEv", scope: !1024, file: !797, line: 277, type: !1036, scopeLine: 277, flags: DIFlagPublic | DIFlagPrototyped, spFlags: DISPFlagOptimized)
!1036 = !DISubroutineType(types: !1037)
!1037 = !{!6, !1038}
!1038 = !DIDerivedType(tag: DW_TAG_pointer_type, baseType: !1039, size: 64, flags: DIFlagArtificial | DIFlagObjectPointer)
!1039 = !DIDerivedType(tag: DW_TAG_const_type, baseType: !1024)
!1040 = !DISubprogram(name: "operator==", linkageName: "_ZNK4llvm19FoldingSetNodeIDRefeqES0_", scope: !1024, file: !797, line: 279, type: !1041, scopeLine: 279, flags: DIFlagPublic | DIFlagPrototyped, spFlags: DISPFlagOptimized)
!1041 = !DISubroutineType(types: !1042)
!1042 = !{!49, !1038, !1024}
!1043 = !DISubprogram(name: "operator<", linkageName: "_ZNK4llvm19FoldingSetNodeIDRefltES0_", scope: !1024, file: !797, line: 283, type: !1041, scopeLine: 283, flags: DIFlagPublic | DIFlagPrototyped, spFlags: DISPFlagOptimized)
!1044 = !DISubprogram(name: "getData", linkageName: "_ZNK4llvm19FoldingSetNodeIDRef7getDataEv", scope: !1024, file: !797, line: 285, type: !1045, scopeLine: 285, flags: DIFlagPublic | DIFlagPrototyped, spFlags: DISPFlagOptimized)
!1045 = !DISubroutineType(types: !1046)
!1046 = !{!855, !1038}
!1047 = !DISubprogram(name: "getSize", linkageName: "_ZNK4llvm19FoldingSetNodeIDRef7getSizeEv", scope: !1024, file: !797, line: 286, type: !1048, scopeLine: 286, flags: DIFlagPublic | DIFlagPrototyped, spFlags: DISPFlagOptimized)
!1048 = !DISubroutineType(types: !1049)
!1049 = !{!223, !1038}
!1050 = !DISubprogram(name: "AddPointer", linkageName: "_ZN4llvm16FoldingSetNodeID10AddPointerEPKv", scope: !796, file: !797, line: 307, type: !1051, scopeLine: 307, flags: DIFlagPublic | DIFlagPrototyped, spFlags: DISPFlagOptimized)
!1051 = !DISubroutineType(types: !1052)
!1052 = !{null, !1020, !1053}
!1053 = !DIDerivedType(tag: DW_TAG_pointer_type, baseType: !1054, size: 64)
!1054 = !DIDerivedType(tag: DW_TAG_const_type, baseType: null)
!1055 = !DISubprogram(name: "AddInteger", linkageName: "_ZN4llvm16FoldingSetNodeID10AddIntegerEi", scope: !796, file: !797, line: 308, type: !1056, scopeLine: 308, flags: DIFlagPublic | DIFlagPrototyped, spFlags: DISPFlagOptimized)
!1056 = !DISubroutineType(types: !1057)
!1057 = !{null, !1020, !19}
!1058 = !DISubprogram(name: "AddInteger", linkageName: "_ZN4llvm16FoldingSetNodeID10AddIntegerEj", scope: !796, file: !797, line: 309, type: !1059, scopeLine: 309, flags: DIFlagPublic | DIFlagPrototyped, spFlags: DISPFlagOptimized)
!1059 = !DISubroutineType(types: !1060)
!1060 = !{null, !1020, !6}
!1061 = !DISubprogram(name: "AddInteger", linkageName: "_ZN4llvm16FoldingSetNodeID10AddIntegerEl", scope: !796, file: !797, line: 310, type: !1062, scopeLine: 310, flags: DIFlagPublic | DIFlagPrototyped, spFlags: DISPFlagOptimized)
!1062 = !DISubroutineType(types: !1063)
!1063 = !{null, !1020, !264}
!1064 = !DISubprogram(name: "AddInteger", linkageName: "_ZN4llvm16FoldingSetNodeID10AddIntegerEm", scope: !796, file: !797, line: 311, type: !1065, scopeLine: 311, flags: DIFlagPublic | DIFlagPrototyped, spFlags: DISPFlagOptimized)
!1065 = !DISubroutineType(types: !1066)
!1066 = !{null, !1020, !131}
!1067 = !DISubprogram(name: "AddInteger", linkageName: "_ZN4llvm16FoldingSetNodeID10AddIntegerEx", scope: !796, file: !797, line: 312, type: !1068, scopeLine: 312, flags: DIFlagPublic | DIFlagPrototyped, spFlags: DISPFlagOptimized)
!1068 = !DISubroutineType(types: !1069)
!1069 = !{null, !1020, !1070}
!1070 = !DIBasicType(name: "long long int", size: 64, encoding: DW_ATE_signed)
!1071 = !DISubprogram(name: "AddInteger", linkageName: "_ZN4llvm16FoldingSetNodeID10AddIntegerEy", scope: !796, file: !797, line: 313, type: !1072, scopeLine: 313, flags: DIFlagPublic | DIFlagPrototyped, spFlags: DISPFlagOptimized)
!1072 = !DISubroutineType(types: !1073)
!1073 = !{null, !1020, !1074}
!1074 = !DIBasicType(name: "long long unsigned int", size: 64, encoding: DW_ATE_unsigned)
!1075 = !DISubprogram(name: "AddBoolean", linkageName: "_ZN4llvm16FoldingSetNodeID10AddBooleanEb", scope: !796, file: !797, line: 314, type: !1076, scopeLine: 314, flags: DIFlagPublic | DIFlagPrototyped, spFlags: DISPFlagOptimized)
!1076 = !DISubroutineType(types: !1077)
!1077 = !{null, !1020, !49}
!1078 = !DISubprogram(name: "AddString", linkageName: "_ZN4llvm16FoldingSetNodeID9AddStringENS_9StringRefE", scope: !796, file: !797, line: 315, type: !1079, scopeLine: 315, flags: DIFlagPublic | DIFlagPrototyped, spFlags: DISPFlagOptimized)
!1079 = !DISubroutineType(types: !1080)
!1080 = !{null, !1020, !596}
!1081 = !DISubprogram(name: "AddNodeID", linkageName: "_ZN4llvm16FoldingSetNodeID9AddNodeIDERKS0_", scope: !796, file: !797, line: 316, type: !1082, scopeLine: 316, flags: DIFlagPublic | DIFlagPrototyped, spFlags: DISPFlagOptimized)
!1082 = !DISubroutineType(types: !1083)
!1083 = !{null, !1020, !1084}
!1084 = !DIDerivedType(tag: DW_TAG_reference_type, baseType: !1085, size: 64)
!1085 = !DIDerivedType(tag: DW_TAG_const_type, baseType: !796)
!1086 = !DISubprogram(name: "clear", linkageName: "_ZN4llvm16FoldingSetNodeID5clearEv", scope: !796, file: !797, line: 323, type: !1018, scopeLine: 323, flags: DIFlagPublic | DIFlagPrototyped, spFlags: DISPFlagOptimized)
!1087 = !DISubprogram(name: "ComputeHash", linkageName: "_ZNK4llvm16FoldingSetNodeID11ComputeHashEv", scope: !796, file: !797, line: 327, type: !1088, scopeLine: 327, flags: DIFlagPublic | DIFlagPrototyped, spFlags: DISPFlagOptimized)
!1088 = !DISubroutineType(types: !1089)
!1089 = !{!6, !1090}
!1090 = !DIDerivedType(tag: DW_TAG_pointer_type, baseType: !1085, size: 64, flags: DIFlagArtificial | DIFlagObjectPointer)
!1091 = !DISubprogram(name: "operator==", linkageName: "_ZNK4llvm16FoldingSetNodeIDeqERKS0_", scope: !796, file: !797, line: 331, type: !1092, scopeLine: 331, flags: DIFlagPublic | DIFlagPrototyped, spFlags: DISPFlagOptimized)
!1092 = !DISubroutineType(types: !1093)
!1093 = !{!49, !1090, !1084}
!1094 = !DISubprogram(name: "operator==", linkageName: "_ZNK4llvm16FoldingSetNodeIDeqENS_19FoldingSetNodeIDRefE", scope: !796, file: !797, line: 332, type: !1095, scopeLine: 332, flags: DIFlagPublic | DIFlagPrototyped, spFlags: DISPFlagOptimized)
!1095 = !DISubroutineType(types: !1096)
!1096 = !{!49, !1090, !1039}
!1097 = !DISubprogram(name: "operator<", linkageName: "_ZNK4llvm16FoldingSetNodeIDltERKS0_", scope: !796, file: !797, line: 336, type: !1092, scopeLine: 336, flags: DIFlagPublic | DIFlagPrototyped, spFlags: DISPFlagOptimized)
!1098 = !DISubprogram(name: "operator<", linkageName: "_ZNK4llvm16FoldingSetNodeIDltENS_19FoldingSetNodeIDRefE", scope: !796, file: !797, line: 337, type: !1095, scopeLine: 337, flags: DIFlagPublic | DIFlagPrototyped, spFlags: DISPFlagOptimized)
!1099 = !DISubprogram(name: "Intern", linkageName: "_ZNK4llvm16FoldingSetNodeID6InternERNS_16BumpPtrAllocatorE", scope: !796, file: !797, line: 342, type: !1100, scopeLine: 342, flags: DIFlagPublic | DIFlagPrototyped, spFlags: DISPFlagOptimized)
!1100 = !DISubroutineType(types: !1101)
!1101 = !{!1024, !1090, !1102}
!1102 = !DIDerivedType(tag: DW_TAG_reference_type, baseType: !1103, size: 64)
!1103 = distinct !DICompositeType(tag: DW_TAG_class_type, name: "BumpPtrAllocator", scope: !14, file: !1104, line: 90, size: 576, flags: DIFlagTypePassByReference | DIFlagNonTrivial, elements: !1105, identifier: "_ZTSN4llvm16BumpPtrAllocatorE")
!1104 = !DIFile(filename: "/faster/fs/llvm34/include/llvm/Support/Allocator.h", directory: "")
!1105 = !{!1106, !1107, !1108, !1110, !1113, !1119, !1121, !1122, !1123, !1129, !1130, !1133, !1136, !1139, !1142, !1145, !1146, !1147, !1150, !1153, !1157, !1160}
!1106 = !DIDerivedType(tag: DW_TAG_member, name: "SlabSize", scope: !1103, file: !1104, line: 96, baseType: !223, size: 64)
!1107 = !DIDerivedType(tag: DW_TAG_member, name: "SizeThreshold", scope: !1103, file: !1104, line: 100, baseType: !223, size: 64, offset: 64)
!1108 = !DIDerivedType(tag: DW_TAG_member, name: "DefaultSlabAllocator", scope: !1103, file: !1104, line: 103, baseType: !1109, size: 128, offset: 128)
!1109 = distinct !DICompositeType(tag: DW_TAG_class_type, name: "MallocSlabAllocator", scope: !14, file: !1104, line: 74, flags: DIFlagFwdDecl, identifier: "_ZTSN4llvm19MallocSlabAllocatorE")
!1110 = !DIDerivedType(tag: DW_TAG_member, name: "Allocator", scope: !1103, file: !1104, line: 108, baseType: !1111, size: 64, offset: 256)
!1111 = !DIDerivedType(tag: DW_TAG_reference_type, baseType: !1112, size: 64)
!1112 = distinct !DICompositeType(tag: DW_TAG_class_type, name: "SlabAllocator", scope: !14, file: !1104, line: 64, flags: DIFlagFwdDecl, identifier: "_ZTSN4llvm13SlabAllocatorE")
!1113 = !DIDerivedType(tag: DW_TAG_member, name: "CurSlab", scope: !1103, file: !1104, line: 112, baseType: !1114, size: 64, offset: 320)
!1114 = !DIDerivedType(tag: DW_TAG_pointer_type, baseType: !1115, size: 64)
!1115 = distinct !DICompositeType(tag: DW_TAG_class_type, name: "MemSlab", scope: !14, file: !1104, line: 53, size: 128, flags: DIFlagTypePassByValue, elements: !1116, identifier: "_ZTSN4llvm7MemSlabE")
!1116 = !{!1117, !1118}
!1117 = !DIDerivedType(tag: DW_TAG_member, name: "Size", scope: !1115, file: !1104, line: 55, baseType: !223, size: 64, flags: DIFlagPublic)
!1118 = !DIDerivedType(tag: DW_TAG_member, name: "NextPtr", scope: !1115, file: !1104, line: 56, baseType: !1114, size: 64, offset: 64, flags: DIFlagPublic)
!1119 = !DIDerivedType(tag: DW_TAG_member, name: "CurPtr", scope: !1103, file: !1104, line: 116, baseType: !1120, size: 64, offset: 384)
!1120 = !DIDerivedType(tag: DW_TAG_pointer_type, baseType: !178, size: 64)
!1121 = !DIDerivedType(tag: DW_TAG_member, name: "End", scope: !1103, file: !1104, line: 120, baseType: !1120, size: 64, offset: 448)
!1122 = !DIDerivedType(tag: DW_TAG_member, name: "BytesAllocated", scope: !1103, file: !1104, line: 124, baseType: !223, size: 64, offset: 512)
!1123 = !DISubprogram(name: "BumpPtrAllocator", scope: !1103, file: !1104, line: 91, type: !1124, scopeLine: 91, flags: DIFlagPrototyped, spFlags: DISPFlagOptimized | DISPFlagDeleted)
!1124 = !DISubroutineType(types: !1125)
!1125 = !{null, !1126, !1127}
!1126 = !DIDerivedType(tag: DW_TAG_pointer_type, baseType: !1103, size: 64, flags: DIFlagArtificial | DIFlagObjectPointer)
!1127 = !DIDerivedType(tag: DW_TAG_reference_type, baseType: !1128, size: 64)
!1128 = !DIDerivedType(tag: DW_TAG_const_type, baseType: !1103)
!1129 = !DISubprogram(name: "operator=", linkageName: "_ZN4llvm16BumpPtrAllocatoraSERKS0_", scope: !1103, file: !1104, line: 92, type: !1124, scopeLine: 92, flags: DIFlagPrototyped, spFlags: DISPFlagOptimized | DISPFlagDeleted)
!1130 = !DISubprogram(name: "AlignPtr", linkageName: "_ZN4llvm16BumpPtrAllocator8AlignPtrEPcm", scope: !1103, file: !1104, line: 129, type: !1131, scopeLine: 129, flags: DIFlagPrototyped | DIFlagStaticMember, spFlags: DISPFlagOptimized)
!1131 = !DISubroutineType(types: !1132)
!1132 = !{!1120, !1120, !223}
!1133 = !DISubprogram(name: "StartNewSlab", linkageName: "_ZN4llvm16BumpPtrAllocator12StartNewSlabEv", scope: !1103, file: !1104, line: 133, type: !1134, scopeLine: 133, flags: DIFlagPrototyped, spFlags: DISPFlagOptimized)
!1134 = !DISubroutineType(types: !1135)
!1135 = !{null, !1126}
!1136 = !DISubprogram(name: "DeallocateSlabs", linkageName: "_ZN4llvm16BumpPtrAllocator15DeallocateSlabsEPNS_7MemSlabE", scope: !1103, file: !1104, line: 137, type: !1137, scopeLine: 137, flags: DIFlagPrototyped, spFlags: DISPFlagOptimized)
!1137 = !DISubroutineType(types: !1138)
!1138 = !{null, !1126, !1114}
!1139 = !DISubprogram(name: "BumpPtrAllocator", scope: !1103, file: !1104, line: 141, type: !1140, scopeLine: 141, flags: DIFlagPublic | DIFlagPrototyped, spFlags: DISPFlagOptimized)
!1140 = !DISubroutineType(types: !1141)
!1141 = !{null, !1126, !223, !223}
!1142 = !DISubprogram(name: "BumpPtrAllocator", scope: !1103, file: !1104, line: 142, type: !1143, scopeLine: 142, flags: DIFlagPublic | DIFlagPrototyped, spFlags: DISPFlagOptimized)
!1143 = !DISubroutineType(types: !1144)
!1144 = !{null, !1126, !223, !223, !1111}
!1145 = !DISubprogram(name: "~BumpPtrAllocator", scope: !1103, file: !1104, line: 143, type: !1134, scopeLine: 143, flags: DIFlagPublic | DIFlagPrototyped, spFlags: DISPFlagOptimized)
!1146 = !DISubprogram(name: "Reset", linkageName: "_ZN4llvm16BumpPtrAllocator5ResetEv", scope: !1103, file: !1104, line: 147, type: !1134, scopeLine: 147, flags: DIFlagPublic | DIFlagPrototyped, spFlags: DISPFlagOptimized)
!1147 = !DISubprogram(name: "Allocate", linkageName: "_ZN4llvm16BumpPtrAllocator8AllocateEmm", scope: !1103, file: !1104, line: 151, type: !1148, scopeLine: 151, flags: DIFlagPublic | DIFlagPrototyped, spFlags: DISPFlagOptimized)
!1148 = !DISubroutineType(types: !1149)
!1149 = !{!216, !1126, !223, !223}
!1150 = !DISubprogram(name: "Deallocate", linkageName: "_ZN4llvm16BumpPtrAllocator10DeallocateEPKv", scope: !1103, file: !1104, line: 176, type: !1151, scopeLine: 176, flags: DIFlagPublic | DIFlagPrototyped, spFlags: DISPFlagOptimized)
!1151 = !DISubroutineType(types: !1152)
!1152 = !{null, !1126, !1053}
!1153 = !DISubprogram(name: "GetNumSlabs", linkageName: "_ZNK4llvm16BumpPtrAllocator11GetNumSlabsEv", scope: !1103, file: !1104, line: 178, type: !1154, scopeLine: 178, flags: DIFlagPublic | DIFlagPrototyped, spFlags: DISPFlagOptimized)
!1154 = !DISubroutineType(types: !1155)
!1155 = !{!6, !1156}
!1156 = !DIDerivedType(tag: DW_TAG_pointer_type, baseType: !1128, size: 64, flags: DIFlagArtificial | DIFlagObjectPointer)
!1157 = !DISubprogram(name: "PrintStats", linkageName: "_ZNK4llvm16BumpPtrAllocator10PrintStatsEv", scope: !1103, file: !1104, line: 180, type: !1158, scopeLine: 180, flags: DIFlagPublic | DIFlagPrototyped, spFlags: DISPFlagOptimized)
!1158 = !DISubroutineType(types: !1159)
!1159 = !{null, !1156}
!1160 = !DISubprogram(name: "getTotalMemory", linkageName: "_ZNK4llvm16BumpPtrAllocator14getTotalMemoryEv", scope: !1103, file: !1104, line: 183, type: !1161, scopeLine: 183, flags: DIFlagPublic | DIFlagPrototyped, spFlags: DISPFlagOptimized)
!1161 = !DISubroutineType(types: !1162)
!1162 = !{!223, !1156}
!1163 = !DISubprogram(name: "isNegative", linkageName: "_ZNK4llvm5APInt10isNegativeEv", scope: !699, file: !700, line: 322, type: !714, scopeLine: 322, flags: DIFlagPublic | DIFlagPrototyped, spFlags: DISPFlagOptimized)
!1164 = !DISubprogram(name: "isNonNegative", linkageName: "_ZNK4llvm5APInt13isNonNegativeEv", scope: !699, file: !700, line: 327, type: !714, scopeLine: 327, flags: DIFlagPublic | DIFlagPrototyped, spFlags: DISPFlagOptimized)
!1165 = !DISubprogram(name: "isStrictlyPositive", linkageName: "_ZNK4llvm5APInt18isStrictlyPositiveEv", scope: !699, file: !700, line: 335, type: !714, scopeLine: 335, flags: DIFlagPublic | DIFlagPrototyped, spFlags: DISPFlagOptimized)
!1166 = !DISubprogram(name: "isAllOnesValue", linkageName: "_ZNK4llvm5APInt14isAllOnesValueEv", scope: !699, file: !700, line: 340, type: !714, scopeLine: 340, flags: DIFlagPublic | DIFlagPrototyped, spFlags: DISPFlagOptimized)
!1167 = !DISubprogram(name: "isMaxValue", linkageName: "_ZNK4llvm5APInt10isMaxValueEv", scope: !699, file: !700, line: 350, type: !714, scopeLine: 350, flags: DIFlagPublic | DIFlagPrototyped, spFlags: DISPFlagOptimized)
!1168 = !DISubprogram(name: "isMaxSignedValue", linkageName: "_ZNK4llvm5APInt16isMaxSignedValueEv", scope: !699, file: !700, line: 356, type: !714, scopeLine: 356, flags: DIFlagPublic | DIFlagPrototyped, spFlags: DISPFlagOptimized)
!1169 = !DISubprogram(name: "isMinValue", linkageName: "_ZNK4llvm5APInt10isMinValueEv", scope: !699, file: !700, line: 365, type: !714, scopeLine: 365, flags: DIFlagPublic | DIFlagPrototyped, spFlags: DISPFlagOptimized)
!1170 = !DISubprogram(name: "isMinSignedValue", linkageName: "_ZNK4llvm5APInt16isMinSignedValueEv", scope: !699, file: !700, line: 371, type: !714, scopeLine: 371, flags: DIFlagPublic | DIFlagPrototyped, spFlags: DISPFlagOptimized)
!1171 = !DISubprogram(name: "isIntN", linkageName: "_ZNK4llvm5APInt6isIntNEj", scope: !699, file: !700, line: 376, type: !1172, scopeLine: 376, flags: DIFlagPublic | DIFlagPrototyped, spFlags: DISPFlagOptimized)
!1172 = !DISubroutineType(types: !1173)
!1173 = !{!49, !716, !6}
!1174 = !DISubprogram(name: "isSignedIntN", linkageName: "_ZNK4llvm5APInt12isSignedIntNEj", scope: !699, file: !700, line: 382, type: !1172, scopeLine: 382, flags: DIFlagPublic | DIFlagPrototyped, spFlags: DISPFlagOptimized)
!1175 = !DISubprogram(name: "isPowerOf2", linkageName: "_ZNK4llvm5APInt10isPowerOf2Ev", scope: !699, file: !700, line: 390, type: !714, scopeLine: 390, flags: DIFlagPublic | DIFlagPrototyped, spFlags: DISPFlagOptimized)
!1176 = !DISubprogram(name: "isSignBit", linkageName: "_ZNK4llvm5APInt9isSignBitEv", scope: !699, file: !700, line: 399, type: !714, scopeLine: 399, flags: DIFlagPublic | DIFlagPrototyped, spFlags: DISPFlagOptimized)
!1177 = !DISubprogram(name: "getBoolValue", linkageName: "_ZNK4llvm5APInt12getBoolValueEv", scope: !699, file: !700, line: 404, type: !714, scopeLine: 404, flags: DIFlagPublic | DIFlagPrototyped, spFlags: DISPFlagOptimized)
!1178 = !DISubprogram(name: "getLimitedValue", linkageName: "_ZNK4llvm5APInt15getLimitedValueEm", scope: !699, file: !700, line: 408, type: !1179, scopeLine: 408, flags: DIFlagPublic | DIFlagPrototyped, spFlags: DISPFlagOptimized)
!1179 = !DISubroutineType(types: !1180)
!1180 = !{!127, !716, !127}
!1181 = !DISubprogram(name: "getMaxValue", linkageName: "_ZN4llvm5APInt11getMaxValueEj", scope: !699, file: !700, line: 418, type: !1182, scopeLine: 418, flags: DIFlagPublic | DIFlagPrototyped | DIFlagStaticMember, spFlags: DISPFlagOptimized)
!1182 = !DISubroutineType(types: !1183)
!1183 = !{!699, !6}
!1184 = !DISubprogram(name: "getSignedMaxValue", linkageName: "_ZN4llvm5APInt17getSignedMaxValueEj", scope: !699, file: !700, line: 423, type: !1182, scopeLine: 423, flags: DIFlagPublic | DIFlagPrototyped | DIFlagStaticMember, spFlags: DISPFlagOptimized)
!1185 = !DISubprogram(name: "getMinValue", linkageName: "_ZN4llvm5APInt11getMinValueEj", scope: !699, file: !700, line: 430, type: !1182, scopeLine: 430, flags: DIFlagPublic | DIFlagPrototyped | DIFlagStaticMember, spFlags: DISPFlagOptimized)
!1186 = !DISubprogram(name: "getSignedMinValue", linkageName: "_ZN4llvm5APInt17getSignedMinValueEj", scope: !699, file: !700, line: 433, type: !1182, scopeLine: 433, flags: DIFlagPublic | DIFlagPrototyped | DIFlagStaticMember, spFlags: DISPFlagOptimized)
!1187 = !DISubprogram(name: "getSignBit", linkageName: "_ZN4llvm5APInt10getSignBitEj", scope: !699, file: !700, line: 443, type: !1182, scopeLine: 443, flags: DIFlagPublic | DIFlagPrototyped | DIFlagStaticMember, spFlags: DISPFlagOptimized)
!1188 = !DISubprogram(name: "getAllOnesValue", linkageName: "_ZN4llvm5APInt15getAllOnesValueEj", scope: !699, file: !700, line: 450, type: !1182, scopeLine: 450, flags: DIFlagPublic | DIFlagPrototyped | DIFlagStaticMember, spFlags: DISPFlagOptimized)
!1189 = !DISubprogram(name: "getNullValue", linkageName: "_ZN4llvm5APInt12getNullValueEj", scope: !699, file: !700, line: 457, type: !1182, scopeLine: 457, flags: DIFlagPublic | DIFlagPrototyped | DIFlagStaticMember, spFlags: DISPFlagOptimized)
!1190 = !DISubprogram(name: "getHiBits", linkageName: "_ZNK4llvm5APInt9getHiBitsEj", scope: !699, file: !700, line: 465, type: !751, scopeLine: 465, flags: DIFlagPublic | DIFlagPrototyped, spFlags: DISPFlagOptimized)
!1191 = !DISubprogram(name: "getLoBits", linkageName: "_ZNK4llvm5APInt9getLoBitsEj", scope: !699, file: !700, line: 473, type: !751, scopeLine: 473, flags: DIFlagPublic | DIFlagPrototyped, spFlags: DISPFlagOptimized)
!1192 = !DISubprogram(name: "getOneBitSet", linkageName: "_ZN4llvm5APInt12getOneBitSetEjj", scope: !699, file: !700, line: 476, type: !1193, scopeLine: 476, flags: DIFlagPublic | DIFlagPrototyped | DIFlagStaticMember, spFlags: DISPFlagOptimized)
!1193 = !DISubroutineType(types: !1194)
!1194 = !{!699, !6, !6}
!1195 = !DISubprogram(name: "getBitsSet", linkageName: "_ZN4llvm5APInt10getBitsSetEjjj", scope: !699, file: !700, line: 495, type: !1196, scopeLine: 495, flags: DIFlagPublic | DIFlagPrototyped | DIFlagStaticMember, spFlags: DISPFlagOptimized)
!1196 = !DISubroutineType(types: !1197)
!1197 = !{!699, !6, !6, !6}
!1198 = !DISubprogram(name: "getHighBitsSet", linkageName: "_ZN4llvm5APInt14getHighBitsSetEjj", scope: !699, file: !700, line: 510, type: !1193, scopeLine: 510, flags: DIFlagPublic | DIFlagPrototyped | DIFlagStaticMember, spFlags: DISPFlagOptimized)
!1199 = !DISubprogram(name: "getLowBitsSet", linkageName: "_ZN4llvm5APInt13getLowBitsSetEjj", scope: !699, file: !700, line: 528, type: !1193, scopeLine: 528, flags: DIFlagPublic | DIFlagPrototyped | DIFlagStaticMember, spFlags: DISPFlagOptimized)
!1200 = !DISubprogram(name: "getSplat", linkageName: "_ZN4llvm5APInt8getSplatEjRKS0_", scope: !699, file: !700, line: 542, type: !1201, scopeLine: 542, flags: DIFlagPublic | DIFlagPrototyped | DIFlagStaticMember, spFlags: DISPFlagOptimized)
!1201 = !DISubroutineType(types: !1202)
!1202 = !{!699, !6, !737}
!1203 = !DISubprogram(name: "isSameValue", linkageName: "_ZN4llvm5APInt11isSameValueERKS0_S2_", scope: !699, file: !700, line: 554, type: !1204, scopeLine: 554, flags: DIFlagPublic | DIFlagPrototyped | DIFlagStaticMember, spFlags: DISPFlagOptimized)
!1204 = !DISubroutineType(types: !1205)
!1205 = !{!49, !737, !737}
!1206 = !DISubprogram(name: "getRawData", linkageName: "_ZNK4llvm5APInt10getRawDataEv", scope: !699, file: !700, line: 570, type: !1207, scopeLine: 570, flags: DIFlagPublic | DIFlagPrototyped, spFlags: DISPFlagOptimized)
!1207 = !DISubroutineType(types: !1208)
!1208 = !{!779, !716}
!1209 = !DISubprogram(name: "operator++", linkageName: "_ZN4llvm5APIntppEi", scope: !699, file: !700, line: 583, type: !1210, scopeLine: 583, flags: DIFlagPublic | DIFlagPrototyped, spFlags: DISPFlagOptimized)
!1210 = !DISubroutineType(types: !1211)
!1211 = !{!717, !712, !19}
!1212 = !DISubprogram(name: "operator++", linkageName: "_ZN4llvm5APIntppEv", scope: !699, file: !700, line: 592, type: !726, scopeLine: 592, flags: DIFlagPublic | DIFlagPrototyped, spFlags: DISPFlagOptimized)
!1213 = !DISubprogram(name: "operator--", linkageName: "_ZN4llvm5APIntmmEi", scope: !699, file: !700, line: 597, type: !1210, scopeLine: 597, flags: DIFlagPublic | DIFlagPrototyped, spFlags: DISPFlagOptimized)
!1214 = !DISubprogram(name: "operator--", linkageName: "_ZN4llvm5APIntmmEv", scope: !699, file: !700, line: 606, type: !726, scopeLine: 606, flags: DIFlagPublic | DIFlagPrototyped, spFlags: DISPFlagOptimized)
!1215 = !DISubprogram(name: "operator~", linkageName: "_ZNK4llvm5APIntcoEv", scope: !699, file: !700, line: 613, type: !1216, scopeLine: 613, flags: DIFlagPublic | DIFlagPrototyped, spFlags: DISPFlagOptimized)
!1216 = !DISubroutineType(types: !1217)
!1217 = !{!699, !716}
!1218 = !DISubprogram(name: "operator-", linkageName: "_ZNK4llvm5APIntngEv", scope: !699, file: !700, line: 624, type: !1216, scopeLine: 624, flags: DIFlagPublic | DIFlagPrototyped, spFlags: DISPFlagOptimized)
!1219 = !DISubprogram(name: "operator!", linkageName: "_ZNK4llvm5APIntntEv", scope: !699, file: !700, line: 631, type: !714, scopeLine: 631, flags: DIFlagPublic | DIFlagPrototyped, spFlags: DISPFlagOptimized)
!1220 = !DISubprogram(name: "operator=", linkageName: "_ZN4llvm5APIntaSERKS0_", scope: !699, file: !700, line: 648, type: !759, scopeLine: 648, flags: DIFlagPublic | DIFlagPrototyped, spFlags: DISPFlagOptimized)
!1221 = !DISubprogram(name: "operator=", linkageName: "_ZN4llvm5APIntaSEOS0_", scope: !699, file: !700, line: 661, type: !1222, scopeLine: 661, flags: DIFlagPublic | DIFlagPrototyped, spFlags: DISPFlagOptimized)
!1222 = !DISubroutineType(types: !1223)
!1223 = !{!698, !712, !786}
!1224 = !DISubprogram(name: "operator=", linkageName: "_ZN4llvm5APIntaSEm", scope: !699, file: !700, line: 681, type: !1225, scopeLine: 681, flags: DIFlagPublic | DIFlagPrototyped, spFlags: DISPFlagOptimized)
!1225 = !DISubroutineType(types: !1226)
!1226 = !{!698, !712, !127}
!1227 = !DISubprogram(name: "operator&=", linkageName: "_ZN4llvm5APIntaNERKS0_", scope: !699, file: !700, line: 689, type: !759, scopeLine: 689, flags: DIFlagPublic | DIFlagPrototyped, spFlags: DISPFlagOptimized)
!1228 = !DISubprogram(name: "operator|=", linkageName: "_ZN4llvm5APIntoRERKS0_", scope: !699, file: !700, line: 697, type: !759, scopeLine: 697, flags: DIFlagPublic | DIFlagPrototyped, spFlags: DISPFlagOptimized)
!1229 = !DISubprogram(name: "operator|=", linkageName: "_ZN4llvm5APIntoREm", scope: !699, file: !700, line: 704, type: !1225, scopeLine: 704, flags: DIFlagPublic | DIFlagPrototyped, spFlags: DISPFlagOptimized)
!1230 = !DISubprogram(name: "operator^=", linkageName: "_ZN4llvm5APInteOERKS0_", scope: !699, file: !700, line: 720, type: !759, scopeLine: 720, flags: DIFlagPublic | DIFlagPrototyped, spFlags: DISPFlagOptimized)
!1231 = !DISubprogram(name: "operator*=", linkageName: "_ZN4llvm5APIntmLERKS0_", scope: !699, file: !700, line: 727, type: !759, scopeLine: 727, flags: DIFlagPublic | DIFlagPrototyped, spFlags: DISPFlagOptimized)
!1232 = !DISubprogram(name: "operator+=", linkageName: "_ZN4llvm5APIntpLERKS0_", scope: !699, file: !700, line: 734, type: !759, scopeLine: 734, flags: DIFlagPublic | DIFlagPrototyped, spFlags: DISPFlagOptimized)
!1233 = !DISubprogram(name: "operator-=", linkageName: "_ZN4llvm5APIntmIERKS0_", scope: !699, file: !700, line: 741, type: !759, scopeLine: 741, flags: DIFlagPublic | DIFlagPrototyped, spFlags: DISPFlagOptimized)
!1234 = !DISubprogram(name: "operator<<=", linkageName: "_ZN4llvm5APIntlSEj", scope: !699, file: !700, line: 748, type: !1235, scopeLine: 748, flags: DIFlagPublic | DIFlagPrototyped, spFlags: DISPFlagOptimized)
!1235 = !DISubroutineType(types: !1236)
!1236 = !{!698, !712, !6}
!1237 = !DISubprogram(name: "operator&", linkageName: "_ZNK4llvm5APIntanERKS0_", scope: !699, file: !700, line: 762, type: !754, scopeLine: 762, flags: DIFlagPublic | DIFlagPrototyped, spFlags: DISPFlagOptimized)
!1238 = !DISubprogram(name: "And", linkageName: "_ZNK4llvm5APInt3AndERKS0_", scope: !699, file: !700, line: 768, type: !754, scopeLine: 768, flags: DIFlagPublic | DIFlagPrototyped, spFlags: DISPFlagOptimized)
!1239 = !DISubprogram(name: "operator|", linkageName: "_ZNK4llvm5APIntorERKS0_", scope: !699, file: !700, line: 777, type: !754, scopeLine: 777, flags: DIFlagPublic | DIFlagPrototyped, spFlags: DISPFlagOptimized)
!1240 = !DISubprogram(name: "Or", linkageName: "_ZNK4llvm5APInt2OrERKS0_", scope: !699, file: !700, line: 790, type: !754, scopeLine: 790, flags: DIFlagPublic | DIFlagPrototyped, spFlags: DISPFlagOptimized)
!1241 = !DISubprogram(name: "operator^", linkageName: "_ZNK4llvm5APInteoERKS0_", scope: !699, file: !700, line: 799, type: !754, scopeLine: 799, flags: DIFlagPublic | DIFlagPrototyped, spFlags: DISPFlagOptimized)
!1242 = !DISubprogram(name: "Xor", linkageName: "_ZNK4llvm5APInt3XorERKS0_", scope: !699, file: !700, line: 812, type: !754, scopeLine: 812, flags: DIFlagPublic | DIFlagPrototyped, spFlags: DISPFlagOptimized)
!1243 = !DISubprogram(name: "operator*", linkageName: "_ZNK4llvm5APIntmlERKS0_", scope: !699, file: !700, line: 819, type: !754, scopeLine: 819, flags: DIFlagPublic | DIFlagPrototyped, spFlags: DISPFlagOptimized)
!1244 = !DISubprogram(name: "operator+", linkageName: "_ZNK4llvm5APIntplERKS0_", scope: !699, file: !700, line: 824, type: !754, scopeLine: 824, flags: DIFlagPublic | DIFlagPrototyped, spFlags: DISPFlagOptimized)
!1245 = !DISubprogram(name: "operator+", linkageName: "_ZNK4llvm5APIntplEm", scope: !699, file: !700, line: 825, type: !1246, scopeLine: 825, flags: DIFlagPublic | DIFlagPrototyped, spFlags: DISPFlagOptimized)
!1246 = !DISubroutineType(types: !1247)
!1247 = !{!699, !716, !127}
!1248 = !DISubprogram(name: "operator-", linkageName: "_ZNK4llvm5APIntmiERKS0_", scope: !699, file: !700, line: 830, type: !754, scopeLine: 830, flags: DIFlagPublic | DIFlagPrototyped, spFlags: DISPFlagOptimized)
!1249 = !DISubprogram(name: "operator-", linkageName: "_ZNK4llvm5APIntmiEm", scope: !699, file: !700, line: 831, type: !1246, scopeLine: 831, flags: DIFlagPublic | DIFlagPrototyped, spFlags: DISPFlagOptimized)
!1250 = !DISubprogram(name: "operator<<", linkageName: "_ZNK4llvm5APIntlsEj", scope: !699, file: !700, line: 836, type: !751, scopeLine: 836, flags: DIFlagPublic | DIFlagPrototyped, spFlags: DISPFlagOptimized)
!1251 = !DISubprogram(name: "operator<<", linkageName: "_ZNK4llvm5APIntlsERKS0_", scope: !699, file: !700, line: 841, type: !754, scopeLine: 841, flags: DIFlagPublic | DIFlagPrototyped, spFlags: DISPFlagOptimized)
!1252 = !DISubprogram(name: "ashr", linkageName: "_ZNK4llvm5APInt4ashrEj", scope: !699, file: !700, line: 846, type: !751, scopeLine: 846, flags: DIFlagPublic | DIFlagPrototyped, spFlags: DISPFlagOptimized)
!1253 = !DISubprogram(name: "lshr", linkageName: "_ZNK4llvm5APInt4lshrEj", scope: !699, file: !700, line: 851, type: !751, scopeLine: 851, flags: DIFlagPublic | DIFlagPrototyped, spFlags: DISPFlagOptimized)
!1254 = !DISubprogram(name: "shl", linkageName: "_ZNK4llvm5APInt3shlEj", scope: !699, file: !700, line: 856, type: !751, scopeLine: 856, flags: DIFlagPublic | DIFlagPrototyped, spFlags: DISPFlagOptimized)
!1255 = !DISubprogram(name: "rotl", linkageName: "_ZNK4llvm5APInt4rotlEj", scope: !699, file: !700, line: 867, type: !751, scopeLine: 867, flags: DIFlagPublic | DIFlagPrototyped, spFlags: DISPFlagOptimized)
!1256 = !DISubprogram(name: "rotr", linkageName: "_ZNK4llvm5APInt4rotrEj", scope: !699, file: !700, line: 870, type: !751, scopeLine: 870, flags: DIFlagPublic | DIFlagPrototyped, spFlags: DISPFlagOptimized)
!1257 = !DISubprogram(name: "ashr", linkageName: "_ZNK4llvm5APInt4ashrERKS0_", scope: !699, file: !700, line: 875, type: !754, scopeLine: 875, flags: DIFlagPublic | DIFlagPrototyped, spFlags: DISPFlagOptimized)
!1258 = !DISubprogram(name: "lshr", linkageName: "_ZNK4llvm5APInt4lshrERKS0_", scope: !699, file: !700, line: 880, type: !754, scopeLine: 880, flags: DIFlagPublic | DIFlagPrototyped, spFlags: DISPFlagOptimized)
!1259 = !DISubprogram(name: "shl", linkageName: "_ZNK4llvm5APInt3shlERKS0_", scope: !699, file: !700, line: 885, type: !754, scopeLine: 885, flags: DIFlagPublic | DIFlagPrototyped, spFlags: DISPFlagOptimized)
!1260 = !DISubprogram(name: "rotl", linkageName: "_ZNK4llvm5APInt4rotlERKS0_", scope: !699, file: !700, line: 888, type: !754, scopeLine: 888, flags: DIFlagPublic | DIFlagPrototyped, spFlags: DISPFlagOptimized)
!1261 = !DISubprogram(name: "rotr", linkageName: "_ZNK4llvm5APInt4rotrERKS0_", scope: !699, file: !700, line: 891, type: !754, scopeLine: 891, flags: DIFlagPublic | DIFlagPrototyped, spFlags: DISPFlagOptimized)
!1262 = !DISubprogram(name: "udiv", linkageName: "_ZNK4llvm5APInt4udivERKS0_", scope: !699, file: !700, line: 899, type: !754, scopeLine: 899, flags: DIFlagPublic | DIFlagPrototyped, spFlags: DISPFlagOptimized)
!1263 = !DISubprogram(name: "sdiv", linkageName: "_ZNK4llvm5APInt4sdivERKS0_", scope: !699, file: !700, line: 904, type: !754, scopeLine: 904, flags: DIFlagPublic | DIFlagPrototyped, spFlags: DISPFlagOptimized)
!1264 = !DISubprogram(name: "urem", linkageName: "_ZNK4llvm5APInt4uremERKS0_", scope: !699, file: !700, line: 915, type: !754, scopeLine: 915, flags: DIFlagPublic | DIFlagPrototyped, spFlags: DISPFlagOptimized)
!1265 = !DISubprogram(name: "srem", linkageName: "_ZNK4llvm5APInt4sremERKS0_", scope: !699, file: !700, line: 920, type: !754, scopeLine: 920, flags: DIFlagPublic | DIFlagPrototyped, spFlags: DISPFlagOptimized)
!1266 = !DISubprogram(name: "udivrem", linkageName: "_ZN4llvm5APInt7udivremERKS0_S2_RS0_S3_", scope: !699, file: !700, line: 929, type: !1267, scopeLine: 929, flags: DIFlagPublic | DIFlagPrototyped | DIFlagStaticMember, spFlags: DISPFlagOptimized)
!1267 = !DISubroutineType(types: !1268)
!1268 = !{null, !737, !737, !698, !698}
!1269 = !DISubprogram(name: "sdivrem", linkageName: "_ZN4llvm5APInt7sdivremERKS0_S2_RS0_S3_", scope: !699, file: !700, line: 932, type: !1267, scopeLine: 932, flags: DIFlagPublic | DIFlagPrototyped | DIFlagStaticMember, spFlags: DISPFlagOptimized)
!1270 = !DISubprogram(name: "sadd_ov", linkageName: "_ZNK4llvm5APInt7sadd_ovERKS0_Rb", scope: !699, file: !700, line: 936, type: !1271, scopeLine: 936, flags: DIFlagPublic | DIFlagPrototyped, spFlags: DISPFlagOptimized)
!1271 = !DISubroutineType(types: !1272)
!1272 = !{!699, !716, !737, !1273}
!1273 = !DIDerivedType(tag: DW_TAG_reference_type, baseType: !49, size: 64)
!1274 = !DISubprogram(name: "uadd_ov", linkageName: "_ZNK4llvm5APInt7uadd_ovERKS0_Rb", scope: !699, file: !700, line: 937, type: !1271, scopeLine: 937, flags: DIFlagPublic | DIFlagPrototyped, spFlags: DISPFlagOptimized)
!1275 = !DISubprogram(name: "ssub_ov", linkageName: "_ZNK4llvm5APInt7ssub_ovERKS0_Rb", scope: !699, file: !700, line: 938, type: !1271, scopeLine: 938, flags: DIFlagPublic | DIFlagPrototyped, spFlags: DISPFlagOptimized)
!1276 = !DISubprogram(name: "usub_ov", linkageName: "_ZNK4llvm5APInt7usub_ovERKS0_Rb", scope: !699, file: !700, line: 939, type: !1271, scopeLine: 939, flags: DIFlagPublic | DIFlagPrototyped, spFlags: DISPFlagOptimized)
!1277 = !DISubprogram(name: "sdiv_ov", linkageName: "_ZNK4llvm5APInt7sdiv_ovERKS0_Rb", scope: !699, file: !700, line: 940, type: !1271, scopeLine: 940, flags: DIFlagPublic | DIFlagPrototyped, spFlags: DISPFlagOptimized)
!1278 = !DISubprogram(name: "smul_ov", linkageName: "_ZNK4llvm5APInt7smul_ovERKS0_Rb", scope: !699, file: !700, line: 941, type: !1271, scopeLine: 941, flags: DIFlagPublic | DIFlagPrototyped, spFlags: DISPFlagOptimized)
!1279 = !DISubprogram(name: "umul_ov", linkageName: "_ZNK4llvm5APInt7umul_ovERKS0_Rb", scope: !699, file: !700, line: 942, type: !1271, scopeLine: 942, flags: DIFlagPublic | DIFlagPrototyped, spFlags: DISPFlagOptimized)
!1280 = !DISubprogram(name: "sshl_ov", linkageName: "_ZNK4llvm5APInt7sshl_ovEjRb", scope: !699, file: !700, line: 943, type: !1281, scopeLine: 943, flags: DIFlagPublic | DIFlagPrototyped, spFlags: DISPFlagOptimized)
!1281 = !DISubroutineType(types: !1282)
!1282 = !{!699, !716, !6, !1273}
!1283 = !DISubprogram(name: "operator[]", linkageName: "_ZNK4llvm5APIntixEj", scope: !699, file: !700, line: 948, type: !1172, scopeLine: 948, flags: DIFlagPublic | DIFlagPrototyped, spFlags: DISPFlagOptimized)
!1284 = !DISubprogram(name: "operator==", linkageName: "_ZNK4llvm5APInteqERKS0_", scope: !699, file: !700, line: 963, type: !762, scopeLine: 963, flags: DIFlagPublic | DIFlagPrototyped, spFlags: DISPFlagOptimized)
!1285 = !DISubprogram(name: "operator==", linkageName: "_ZNK4llvm5APInteqEm", scope: !699, file: !700, line: 976, type: !765, scopeLine: 976, flags: DIFlagPublic | DIFlagPrototyped, spFlags: DISPFlagOptimized)
!1286 = !DISubprogram(name: "eq", linkageName: "_ZNK4llvm5APInt2eqERKS0_", scope: !699, file: !700, line: 988, type: !762, scopeLine: 988, flags: DIFlagPublic | DIFlagPrototyped, spFlags: DISPFlagOptimized)
!1287 = !DISubprogram(name: "operator!=", linkageName: "_ZNK4llvm5APIntneERKS0_", scope: !699, file: !700, line: 996, type: !762, scopeLine: 996, flags: DIFlagPublic | DIFlagPrototyped, spFlags: DISPFlagOptimized)
!1288 = !DISubprogram(name: "operator!=", linkageName: "_ZNK4llvm5APIntneEm", scope: !699, file: !700, line: 1004, type: !765, scopeLine: 1004, flags: DIFlagPublic | DIFlagPrototyped, spFlags: DISPFlagOptimized)
!1289 = !DISubprogram(name: "ne", linkageName: "_ZNK4llvm5APInt2neERKS0_", scope: !699, file: !700, line: 1012, type: !762, scopeLine: 1012, flags: DIFlagPublic | DIFlagPrototyped, spFlags: DISPFlagOptimized)
!1290 = !DISubprogram(name: "ult", linkageName: "_ZNK4llvm5APInt3ultERKS0_", scope: !699, file: !700, line: 1020, type: !762, scopeLine: 1020, flags: DIFlagPublic | DIFlagPrototyped, spFlags: DISPFlagOptimized)
!1291 = !DISubprogram(name: "ult", linkageName: "_ZNK4llvm5APInt3ultEm", scope: !699, file: !700, line: 1028, type: !765, scopeLine: 1028, flags: DIFlagPublic | DIFlagPrototyped, spFlags: DISPFlagOptimized)
!1292 = !DISubprogram(name: "slt", linkageName: "_ZNK4llvm5APInt3sltERKS0_", scope: !699, file: !700, line: 1036, type: !762, scopeLine: 1036, flags: DIFlagPublic | DIFlagPrototyped, spFlags: DISPFlagOptimized)
!1293 = !DISubprogram(name: "slt", linkageName: "_ZNK4llvm5APInt3sltEm", scope: !699, file: !700, line: 1044, type: !765, scopeLine: 1044, flags: DIFlagPublic | DIFlagPrototyped, spFlags: DISPFlagOptimized)
!1294 = !DISubprogram(name: "ule", linkageName: "_ZNK4llvm5APInt3uleERKS0_", scope: !699, file: !700, line: 1052, type: !762, scopeLine: 1052, flags: DIFlagPublic | DIFlagPrototyped, spFlags: DISPFlagOptimized)
!1295 = !DISubprogram(name: "ule", linkageName: "_ZNK4llvm5APInt3uleEm", scope: !699, file: !700, line: 1060, type: !765, scopeLine: 1060, flags: DIFlagPublic | DIFlagPrototyped, spFlags: DISPFlagOptimized)
!1296 = !DISubprogram(name: "sle", linkageName: "_ZNK4llvm5APInt3sleERKS0_", scope: !699, file: !700, line: 1068, type: !762, scopeLine: 1068, flags: DIFlagPublic | DIFlagPrototyped, spFlags: DISPFlagOptimized)
!1297 = !DISubprogram(name: "sle", linkageName: "_ZNK4llvm5APInt3sleEm", scope: !699, file: !700, line: 1076, type: !765, scopeLine: 1076, flags: DIFlagPublic | DIFlagPrototyped, spFlags: DISPFlagOptimized)
!1298 = !DISubprogram(name: "ugt", linkageName: "_ZNK4llvm5APInt3ugtERKS0_", scope: !699, file: !700, line: 1084, type: !762, scopeLine: 1084, flags: DIFlagPublic | DIFlagPrototyped, spFlags: DISPFlagOptimized)
!1299 = !DISubprogram(name: "ugt", linkageName: "_ZNK4llvm5APInt3ugtEm", scope: !699, file: !700, line: 1092, type: !765, scopeLine: 1092, flags: DIFlagPublic | DIFlagPrototyped, spFlags: DISPFlagOptimized)
!1300 = !DISubprogram(name: "sgt", linkageName: "_ZNK4llvm5APInt3sgtERKS0_", scope: !699, file: !700, line: 1100, type: !762, scopeLine: 1100, flags: DIFlagPublic | DIFlagPrototyped, spFlags: DISPFlagOptimized)
!1301 = !DISubprogram(name: "sgt", linkageName: "_ZNK4llvm5APInt3sgtEm", scope: !699, file: !700, line: 1108, type: !765, scopeLine: 1108, flags: DIFlagPublic | DIFlagPrototyped, spFlags: DISPFlagOptimized)
!1302 = !DISubprogram(name: "uge", linkageName: "_ZNK4llvm5APInt3ugeERKS0_", scope: !699, file: !700, line: 1116, type: !762, scopeLine: 1116, flags: DIFlagPublic | DIFlagPrototyped, spFlags: DISPFlagOptimized)
!1303 = !DISubprogram(name: "uge", linkageName: "_ZNK4llvm5APInt3ugeEm", scope: !699, file: !700, line: 1124, type: !765, scopeLine: 1124, flags: DIFlagPublic | DIFlagPrototyped, spFlags: DISPFlagOptimized)
!1304 = !DISubprogram(name: "sge", linkageName: "_ZNK4llvm5APInt3sgeERKS0_", scope: !699, file: !700, line: 1132, type: !762, scopeLine: 1132, flags: DIFlagPublic | DIFlagPrototyped, spFlags: DISPFlagOptimized)
!1305 = !DISubprogram(name: "sge", linkageName: "_ZNK4llvm5APInt3sgeEm", scope: !699, file: !700, line: 1140, type: !765, scopeLine: 1140, flags: DIFlagPublic | DIFlagPrototyped, spFlags: DISPFlagOptimized)
!1306 = !DISubprogram(name: "intersects", linkageName: "_ZNK4llvm5APInt10intersectsERKS0_", scope: !699, file: !700, line: 1144, type: !762, scopeLine: 1144, flags: DIFlagPublic | DIFlagPrototyped, spFlags: DISPFlagOptimized)
!1307 = !DISubprogram(name: "trunc", linkageName: "_ZNK4llvm5APInt5truncEj", scope: !699, file: !700, line: 1154, type: !751, scopeLine: 1154, flags: DIFlagPublic | DIFlagPrototyped, spFlags: DISPFlagOptimized)
!1308 = !DISubprogram(name: "sext", linkageName: "_ZNK4llvm5APInt4sextEj", scope: !699, file: !700, line: 1162, type: !751, scopeLine: 1162, flags: DIFlagPublic | DIFlagPrototyped, spFlags: DISPFlagOptimized)
!1309 = !DISubprogram(name: "zext", linkageName: "_ZNK4llvm5APInt4zextEj", scope: !699, file: !700, line: 1169, type: !751, scopeLine: 1169, flags: DIFlagPublic | DIFlagPrototyped, spFlags: DISPFlagOptimized)
!1310 = !DISubprogram(name: "sextOrTrunc", linkageName: "_ZNK4llvm5APInt11sextOrTruncEj", scope: !699, file: !700, line: 1175, type: !751, scopeLine: 1175, flags: DIFlagPublic | DIFlagPrototyped, spFlags: DISPFlagOptimized)
!1311 = !DISubprogram(name: "zextOrTrunc", linkageName: "_ZNK4llvm5APInt11zextOrTruncEj", scope: !699, file: !700, line: 1181, type: !751, scopeLine: 1181, flags: DIFlagPublic | DIFlagPrototyped, spFlags: DISPFlagOptimized)
!1312 = !DISubprogram(name: "sextOrSelf", linkageName: "_ZNK4llvm5APInt10sextOrSelfEj", scope: !699, file: !700, line: 1187, type: !751, scopeLine: 1187, flags: DIFlagPublic | DIFlagPrototyped, spFlags: DISPFlagOptimized)
!1313 = !DISubprogram(name: "zextOrSelf", linkageName: "_ZNK4llvm5APInt10zextOrSelfEj", scope: !699, file: !700, line: 1193, type: !751, scopeLine: 1193, flags: DIFlagPublic | DIFlagPrototyped, spFlags: DISPFlagOptimized)
!1314 = !DISubprogram(name: "setAllBits", linkageName: "_ZN4llvm5APInt10setAllBitsEv", scope: !699, file: !700, line: 1200, type: !788, scopeLine: 1200, flags: DIFlagPublic | DIFlagPrototyped, spFlags: DISPFlagOptimized)
!1315 = !DISubprogram(name: "setBit", linkageName: "_ZN4llvm5APInt6setBitEj", scope: !699, file: !700, line: 1215, type: !1316, scopeLine: 1215, flags: DIFlagPublic | DIFlagPrototyped, spFlags: DISPFlagOptimized)
!1316 = !DISubroutineType(types: !1317)
!1317 = !{null, !712, !6}
!1318 = !DISubprogram(name: "clearAllBits", linkageName: "_ZN4llvm5APInt12clearAllBitsEv", scope: !699, file: !700, line: 1218, type: !788, scopeLine: 1218, flags: DIFlagPublic | DIFlagPrototyped, spFlags: DISPFlagOptimized)
!1319 = !DISubprogram(name: "clearBit", linkageName: "_ZN4llvm5APInt8clearBitEj", scope: !699, file: !700, line: 1228, type: !1316, scopeLine: 1228, flags: DIFlagPublic | DIFlagPrototyped, spFlags: DISPFlagOptimized)
!1320 = !DISubprogram(name: "flipAllBits", linkageName: "_ZN4llvm5APInt11flipAllBitsEv", scope: !699, file: !700, line: 1231, type: !788, scopeLine: 1231, flags: DIFlagPublic | DIFlagPrototyped, spFlags: DISPFlagOptimized)
!1321 = !DISubprogram(name: "flipBit", linkageName: "_ZN4llvm5APInt7flipBitEj", scope: !699, file: !700, line: 1245, type: !1316, scopeLine: 1245, flags: DIFlagPublic | DIFlagPrototyped, spFlags: DISPFlagOptimized)
!1322 = !DISubprogram(name: "getBitWidth", linkageName: "_ZNK4llvm5APInt11getBitWidthEv", scope: !699, file: !700, line: 1252, type: !768, scopeLine: 1252, flags: DIFlagPublic | DIFlagPrototyped, spFlags: DISPFlagOptimized)
!1323 = !DISubprogram(name: "getNumWords", linkageName: "_ZNK4llvm5APInt11getNumWordsEv", scope: !699, file: !700, line: 1259, type: !768, scopeLine: 1259, flags: DIFlagPublic | DIFlagPrototyped, spFlags: DISPFlagOptimized)
!1324 = !DISubprogram(name: "getNumWords", linkageName: "_ZN4llvm5APInt11getNumWordsEj", scope: !699, file: !700, line: 1267, type: !719, scopeLine: 1267, flags: DIFlagPublic | DIFlagPrototyped | DIFlagStaticMember, spFlags: DISPFlagOptimized)
!1325 = !DISubprogram(name: "getActiveBits", linkageName: "_ZNK4llvm5APInt13getActiveBitsEv", scope: !699, file: !700, line: 1276, type: !768, scopeLine: 1276, flags: DIFlagPublic | DIFlagPrototyped, spFlags: DISPFlagOptimized)
!1326 = !DISubprogram(name: "getActiveWords", linkageName: "_ZNK4llvm5APInt14getActiveWordsEv", scope: !699, file: !700, line: 1282, type: !768, scopeLine: 1282, flags: DIFlagPublic | DIFlagPrototyped, spFlags: DISPFlagOptimized)
!1327 = !DISubprogram(name: "getMinSignedBits", linkageName: "_ZNK4llvm5APInt16getMinSignedBitsEv", scope: !699, file: !700, line: 1295, type: !768, scopeLine: 1295, flags: DIFlagPublic | DIFlagPrototyped, spFlags: DISPFlagOptimized)
!1328 = !DISubprogram(name: "getZExtValue", linkageName: "_ZNK4llvm5APInt12getZExtValueEv", scope: !699, file: !700, line: 1306, type: !1329, scopeLine: 1306, flags: DIFlagPublic | DIFlagPrototyped, spFlags: DISPFlagOptimized)
!1329 = !DISubroutineType(types: !1330)
!1330 = !{!127, !716}
!1331 = !DISubprogram(name: "getSExtValue", linkageName: "_ZNK4llvm5APInt12getSExtValueEv", scope: !699, file: !700, line: 1318, type: !1332, scopeLine: 1318, flags: DIFlagPublic | DIFlagPrototyped, spFlags: DISPFlagOptimized)
!1332 = !DISubroutineType(types: !1333)
!1333 = !{!262, !716}
!1334 = !DISubprogram(name: "getBitsNeeded", linkageName: "_ZN4llvm5APInt13getBitsNeededENS_9StringRefEh", scope: !699, file: !700, line: 1330, type: !1335, scopeLine: 1330, flags: DIFlagPublic | DIFlagPrototyped | DIFlagStaticMember, spFlags: DISPFlagOptimized)
!1335 = !DISubroutineType(types: !1336)
!1336 = !{!6, !596, !149}
!1337 = !DISubprogram(name: "countLeadingZeros", linkageName: "_ZNK4llvm5APInt17countLeadingZerosEv", scope: !699, file: !700, line: 1340, type: !768, scopeLine: 1340, flags: DIFlagPublic | DIFlagPrototyped, spFlags: DISPFlagOptimized)
!1338 = !DISubprogram(name: "countLeadingOnes", linkageName: "_ZNK4llvm5APInt16countLeadingOnesEv", scope: !699, file: !700, line: 1356, type: !768, scopeLine: 1356, flags: DIFlagPublic | DIFlagPrototyped, spFlags: DISPFlagOptimized)
!1339 = !DISubprogram(name: "getNumSignBits", linkageName: "_ZNK4llvm5APInt14getNumSignBitsEv", scope: !699, file: !700, line: 1360, type: !768, scopeLine: 1360, flags: DIFlagPublic | DIFlagPrototyped, spFlags: DISPFlagOptimized)
!1340 = !DISubprogram(name: "countTrailingZeros", linkageName: "_ZNK4llvm5APInt18countTrailingZerosEv", scope: !699, file: !700, line: 1372, type: !768, scopeLine: 1372, flags: DIFlagPublic | DIFlagPrototyped, spFlags: DISPFlagOptimized)
!1341 = !DISubprogram(name: "countTrailingOnes", linkageName: "_ZNK4llvm5APInt17countTrailingOnesEv", scope: !699, file: !700, line: 1382, type: !768, scopeLine: 1382, flags: DIFlagPublic | DIFlagPrototyped, spFlags: DISPFlagOptimized)
!1342 = !DISubprogram(name: "countPopulation", linkageName: "_ZNK4llvm5APInt15countPopulationEv", scope: !699, file: !700, line: 1394, type: !768, scopeLine: 1394, flags: DIFlagPublic | DIFlagPrototyped, spFlags: DISPFlagOptimized)
!1343 = !DISubprogram(name: "print", linkageName: "_ZNK4llvm5APInt5printERNS_11raw_ostreamEb", scope: !699, file: !700, line: 1403, type: !1344, scopeLine: 1403, flags: DIFlagPublic | DIFlagPrototyped, spFlags: DISPFlagOptimized)
!1344 = !DISubroutineType(types: !1345)
!1345 = !{null, !716, !336, !49}
!1346 = !DISubprogram(name: "toString", linkageName: "_ZNK4llvm5APInt8toStringERNS_15SmallVectorImplIcEEjbb", scope: !699, file: !700, line: 1407, type: !1347, scopeLine: 1407, flags: DIFlagPublic | DIFlagPrototyped, spFlags: DISPFlagOptimized)
!1347 = !DISubroutineType(types: !1348)
!1348 = !{null, !716, !1349, !6, !49, !49}
!1349 = !DIDerivedType(tag: DW_TAG_reference_type, baseType: !1350, size: 64)
!1350 = distinct !DICompositeType(tag: DW_TAG_class_type, name: "SmallVectorImpl<char>", scope: !14, file: !201, line: 371, size: 256, flags: DIFlagTypePassByReference | DIFlagNonTrivial, elements: !1351, templateParams: !1528, identifier: "_ZTSN4llvm15SmallVectorImplIcEE")
!1351 = !{!1352, !1467, !1473, !1476, !1479, !1480, !1481, !1484, !1485, !1488, !1491, !1496, !1497, !1501, !1504, !1508, !1511, !1514, !1517, !1521, !1525, !1526, !1527}
!1352 = !DIDerivedType(tag: DW_TAG_inheritance, scope: !1350, baseType: !1353, flags: DIFlagPublic, extraData: i32 0)
!1353 = distinct !DICompositeType(tag: DW_TAG_class_type, name: "SmallVectorTemplateBase<char, true>", scope: !14, file: !201, line: 296, size: 256, flags: DIFlagTypePassByValue | DIFlagNonTrivial, elements: !1354, templateParams: !1466, identifier: "_ZTSN4llvm23SmallVectorTemplateBaseIcLb1EEE")
!1354 = !{!1355, !1452, !1456, !1459, !1460, !1463}
!1355 = !DIDerivedType(tag: DW_TAG_inheritance, scope: !1353, baseType: !1356, flags: DIFlagPublic, extraData: i32 0)
!1356 = distinct !DICompositeType(tag: DW_TAG_class_type, name: "SmallVectorTemplateCommon<char, void>", scope: !14, file: !201, line: 66, size: 256, flags: DIFlagTypePassByValue | DIFlagNonTrivial, elements: !1357, templateParams: !1450, identifier: "_ZTSN4llvm25SmallVectorTemplateCommonIcvEE")
!1357 = !{!1358, !1359, !1375, !1379, !1382, !1387, !1390, !1393, !1397, !1401, !1402, !1403, !1404, !1405, !1410, !1415, !1416, !1417, !1420, !1421, !1424, !1428, !1432, !1437, !1442, !1445, !1448, !1449}
!1358 = !DIDerivedType(tag: DW_TAG_inheritance, scope: !1356, baseType: !213, flags: DIFlagPublic, extraData: i32 0)
!1359 = !DIDerivedType(tag: DW_TAG_member, name: "FirstEl", scope: !1356, file: !201, line: 74, baseType: !1360, size: 8, offset: 192)
!1360 = !DIDerivedType(tag: DW_TAG_typedef, name: "U", scope: !1356, file: !201, line: 73, baseType: !1361)
!1361 = distinct !DICompositeType(tag: DW_TAG_structure_type, name: "AlignedCharArrayUnion<char, char, char, char, char, char, char>", scope: !14, file: !240, line: 199, size: 8, flags: DIFlagTypePassByValue, elements: !1362, templateParams: !1373, identifier: "_ZTSN4llvm21AlignedCharArrayUnionIcccccccEE")
!1362 = !{!1363}
!1363 = !DIDerivedType(tag: DW_TAG_inheritance, scope: !1361, baseType: !1364, extraData: i32 0)
!1364 = distinct !DICompositeType(tag: DW_TAG_structure_type, name: "AlignedCharArray<1, 1>", scope: !14, file: !240, line: 75, size: 8, flags: DIFlagTypePassByValue, elements: !1365, templateParams: !1370, identifier: "_ZTSN4llvm16AlignedCharArrayILm1ELm1EEE")
!1365 = !{!1366}
!1366 = !DIDerivedType(tag: DW_TAG_member, name: "buffer", scope: !1364, file: !240, line: 76, baseType: !1367, size: 8, align: 8)
!1367 = !DICompositeType(tag: DW_TAG_array_type, baseType: !178, size: 8, elements: !1368)
!1368 = !{!1369}
!1369 = !DISubrange(count: 1)
!1370 = !{!1371, !1372}
!1371 = !DITemplateValueParameter(name: "Alignment", type: !131, value: i64 1)
!1372 = !DITemplateValueParameter(name: "Size", type: !131, value: i64 1)
!1373 = !{!1374, !346, !347, !348, !349, !350, !351}
!1374 = !DITemplateTypeParameter(name: "T1", type: !178)
!1375 = !DISubprogram(name: "SmallVectorTemplateCommon", scope: !1356, file: !201, line: 78, type: !1376, scopeLine: 78, flags: DIFlagProtected | DIFlagPrototyped, spFlags: DISPFlagOptimized)
!1376 = !DISubroutineType(types: !1377)
!1377 = !{null, !1378, !223}
!1378 = !DIDerivedType(tag: DW_TAG_pointer_type, baseType: !1356, size: 64, flags: DIFlagArtificial | DIFlagObjectPointer)
!1379 = !DISubprogram(name: "grow_pod", linkageName: "_ZN4llvm25SmallVectorTemplateCommonIcvE8grow_podEmm", scope: !1356, file: !201, line: 80, type: !1380, scopeLine: 80, flags: DIFlagProtected | DIFlagPrototyped, spFlags: DISPFlagOptimized)
!1380 = !DISubroutineType(types: !1381)
!1381 = !{null, !1378, !223, !223}
!1382 = !DISubprogram(name: "isSmall", linkageName: "_ZNK4llvm25SmallVectorTemplateCommonIcvE7isSmallEv", scope: !1356, file: !201, line: 86, type: !1383, scopeLine: 86, flags: DIFlagProtected | DIFlagPrototyped, spFlags: DISPFlagOptimized)
!1383 = !DISubroutineType(types: !1384)
!1384 = !{!49, !1385}
!1385 = !DIDerivedType(tag: DW_TAG_pointer_type, baseType: !1386, size: 64, flags: DIFlagArtificial | DIFlagObjectPointer)
!1386 = !DIDerivedType(tag: DW_TAG_const_type, baseType: !1356)
!1387 = !DISubprogram(name: "resetToSmall", linkageName: "_ZN4llvm25SmallVectorTemplateCommonIcvE12resetToSmallEv", scope: !1356, file: !201, line: 91, type: !1388, scopeLine: 91, flags: DIFlagProtected | DIFlagPrototyped, spFlags: DISPFlagOptimized)
!1388 = !DISubroutineType(types: !1389)
!1389 = !{null, !1378}
!1390 = !DISubprogram(name: "setEnd", linkageName: "_ZN4llvm25SmallVectorTemplateCommonIcvE6setEndEPc", scope: !1356, file: !201, line: 95, type: !1391, scopeLine: 95, flags: DIFlagProtected | DIFlagPrototyped, spFlags: DISPFlagOptimized)
!1391 = !DISubroutineType(types: !1392)
!1392 = !{null, !1378, !1120}
!1393 = !DISubprogram(name: "begin", linkageName: "_ZN4llvm25SmallVectorTemplateCommonIcvE5beginEv", scope: !1356, file: !201, line: 112, type: !1394, scopeLine: 112, flags: DIFlagPublic | DIFlagPrototyped, spFlags: DISPFlagOptimized)
!1394 = !DISubroutineType(types: !1395)
!1395 = !{!1396, !1378}
!1396 = !DIDerivedType(tag: DW_TAG_typedef, name: "iterator", scope: !1356, file: !201, line: 100, baseType: !1120)
!1397 = !DISubprogram(name: "begin", linkageName: "_ZNK4llvm25SmallVectorTemplateCommonIcvE5beginEv", scope: !1356, file: !201, line: 113, type: !1398, scopeLine: 113, flags: DIFlagPublic | DIFlagPrototyped, spFlags: DISPFlagOptimized)
!1398 = !DISubroutineType(types: !1399)
!1399 = !{!1400, !1385}
!1400 = !DIDerivedType(tag: DW_TAG_typedef, name: "const_iterator", scope: !1356, file: !201, line: 101, baseType: !176)
!1401 = !DISubprogram(name: "end", linkageName: "_ZN4llvm25SmallVectorTemplateCommonIcvE3endEv", scope: !1356, file: !201, line: 114, type: !1394, scopeLine: 114, flags: DIFlagPublic | DIFlagPrototyped, spFlags: DISPFlagOptimized)
!1402 = !DISubprogram(name: "end", linkageName: "_ZNK4llvm25SmallVectorTemplateCommonIcvE3endEv", scope: !1356, file: !201, line: 115, type: !1398, scopeLine: 115, flags: DIFlagPublic | DIFlagPrototyped, spFlags: DISPFlagOptimized)
!1403 = !DISubprogram(name: "capacity_ptr", linkageName: "_ZN4llvm25SmallVectorTemplateCommonIcvE12capacity_ptrEv", scope: !1356, file: !201, line: 117, type: !1394, scopeLine: 117, flags: DIFlagProtected | DIFlagPrototyped, spFlags: DISPFlagOptimized)
!1404 = !DISubprogram(name: "capacity_ptr", linkageName: "_ZNK4llvm25SmallVectorTemplateCommonIcvE12capacity_ptrEv", scope: !1356, file: !201, line: 118, type: !1398, scopeLine: 118, flags: DIFlagProtected | DIFlagPrototyped, spFlags: DISPFlagOptimized)
!1405 = !DISubprogram(name: "rbegin", linkageName: "_ZN4llvm25SmallVectorTemplateCommonIcvE6rbeginEv", scope: !1356, file: !201, line: 122, type: !1406, scopeLine: 122, flags: DIFlagPublic | DIFlagPrototyped, spFlags: DISPFlagOptimized)
!1406 = !DISubroutineType(types: !1407)
!1407 = !{!1408, !1378}
!1408 = !DIDerivedType(tag: DW_TAG_typedef, name: "reverse_iterator", scope: !1356, file: !201, line: 104, baseType: !1409)
!1409 = distinct !DICompositeType(tag: DW_TAG_class_type, name: "reverse_iterator<char *>", scope: !390, file: !389, line: 101, flags: DIFlagFwdDecl, identifier: "_ZTSSt16reverse_iteratorIPcE")
!1410 = !DISubprogram(name: "rbegin", linkageName: "_ZNK4llvm25SmallVectorTemplateCommonIcvE6rbeginEv", scope: !1356, file: !201, line: 123, type: !1411, scopeLine: 123, flags: DIFlagPublic | DIFlagPrototyped, spFlags: DISPFlagOptimized)
!1411 = !DISubroutineType(types: !1412)
!1412 = !{!1413, !1385}
!1413 = !DIDerivedType(tag: DW_TAG_typedef, name: "const_reverse_iterator", scope: !1356, file: !201, line: 103, baseType: !1414)
!1414 = distinct !DICompositeType(tag: DW_TAG_class_type, name: "reverse_iterator<const char *>", scope: !390, file: !389, line: 101, flags: DIFlagFwdDecl, identifier: "_ZTSSt16reverse_iteratorIPKcE")
!1415 = !DISubprogram(name: "rend", linkageName: "_ZN4llvm25SmallVectorTemplateCommonIcvE4rendEv", scope: !1356, file: !201, line: 124, type: !1406, scopeLine: 124, flags: DIFlagPublic | DIFlagPrototyped, spFlags: DISPFlagOptimized)
!1416 = !DISubprogram(name: "rend", linkageName: "_ZNK4llvm25SmallVectorTemplateCommonIcvE4rendEv", scope: !1356, file: !201, line: 125, type: !1411, scopeLine: 125, flags: DIFlagPublic | DIFlagPrototyped, spFlags: DISPFlagOptimized)
!1417 = !DISubprogram(name: "size", linkageName: "_ZNK4llvm25SmallVectorTemplateCommonIcvE4sizeEv", scope: !1356, file: !201, line: 127, type: !1418, scopeLine: 127, flags: DIFlagPublic | DIFlagPrototyped, spFlags: DISPFlagOptimized)
!1418 = !DISubroutineType(types: !1419)
!1419 = !{!401, !1385}
!1420 = !DISubprogram(name: "max_size", linkageName: "_ZNK4llvm25SmallVectorTemplateCommonIcvE8max_sizeEv", scope: !1356, file: !201, line: 128, type: !1418, scopeLine: 128, flags: DIFlagPublic | DIFlagPrototyped, spFlags: DISPFlagOptimized)
!1421 = !DISubprogram(name: "capacity", linkageName: "_ZNK4llvm25SmallVectorTemplateCommonIcvE8capacityEv", scope: !1356, file: !201, line: 132, type: !1422, scopeLine: 132, flags: DIFlagPublic | DIFlagPrototyped, spFlags: DISPFlagOptimized)
!1422 = !DISubroutineType(types: !1423)
!1423 = !{!223, !1385}
!1424 = !DISubprogram(name: "data", linkageName: "_ZN4llvm25SmallVectorTemplateCommonIcvE4dataEv", scope: !1356, file: !201, line: 135, type: !1425, scopeLine: 135, flags: DIFlagPublic | DIFlagPrototyped, spFlags: DISPFlagOptimized)
!1425 = !DISubroutineType(types: !1426)
!1426 = !{!1427, !1378}
!1427 = !DIDerivedType(tag: DW_TAG_typedef, name: "pointer", scope: !1356, file: !201, line: 108, baseType: !1120)
!1428 = !DISubprogram(name: "data", linkageName: "_ZNK4llvm25SmallVectorTemplateCommonIcvE4dataEv", scope: !1356, file: !201, line: 137, type: !1429, scopeLine: 137, flags: DIFlagPublic | DIFlagPrototyped, spFlags: DISPFlagOptimized)
!1429 = !DISubroutineType(types: !1430)
!1430 = !{!1431, !1385}
!1431 = !DIDerivedType(tag: DW_TAG_typedef, name: "const_pointer", scope: !1356, file: !201, line: 109, baseType: !176)
!1432 = !DISubprogram(name: "operator[]", linkageName: "_ZN4llvm25SmallVectorTemplateCommonIcvEixEj", scope: !1356, file: !201, line: 139, type: !1433, scopeLine: 139, flags: DIFlagPublic | DIFlagPrototyped, spFlags: DISPFlagOptimized)
!1433 = !DISubroutineType(types: !1434)
!1434 = !{!1435, !1378, !6}
!1435 = !DIDerivedType(tag: DW_TAG_typedef, name: "reference", scope: !1356, file: !201, line: 106, baseType: !1436)
!1436 = !DIDerivedType(tag: DW_TAG_reference_type, baseType: !178, size: 64)
!1437 = !DISubprogram(name: "operator[]", linkageName: "_ZNK4llvm25SmallVectorTemplateCommonIcvEixEj", scope: !1356, file: !201, line: 143, type: !1438, scopeLine: 143, flags: DIFlagPublic | DIFlagPrototyped, spFlags: DISPFlagOptimized)
!1438 = !DISubroutineType(types: !1439)
!1439 = !{!1440, !1385, !6}
!1440 = !DIDerivedType(tag: DW_TAG_typedef, name: "const_reference", scope: !1356, file: !201, line: 107, baseType: !1441)
!1441 = !DIDerivedType(tag: DW_TAG_reference_type, baseType: !177, size: 64)
!1442 = !DISubprogram(name: "front", linkageName: "_ZN4llvm25SmallVectorTemplateCommonIcvE5frontEv", scope: !1356, file: !201, line: 148, type: !1443, scopeLine: 148, flags: DIFlagPublic | DIFlagPrototyped, spFlags: DISPFlagOptimized)
!1443 = !DISubroutineType(types: !1444)
!1444 = !{!1435, !1378}
!1445 = !DISubprogram(name: "front", linkageName: "_ZNK4llvm25SmallVectorTemplateCommonIcvE5frontEv", scope: !1356, file: !201, line: 152, type: !1446, scopeLine: 152, flags: DIFlagPublic | DIFlagPrototyped, spFlags: DISPFlagOptimized)
!1446 = !DISubroutineType(types: !1447)
!1447 = !{!1440, !1385}
!1448 = !DISubprogram(name: "back", linkageName: "_ZN4llvm25SmallVectorTemplateCommonIcvE4backEv", scope: !1356, file: !201, line: 157, type: !1443, scopeLine: 157, flags: DIFlagPublic | DIFlagPrototyped, spFlags: DISPFlagOptimized)
!1449 = !DISubprogram(name: "back", linkageName: "_ZNK4llvm25SmallVectorTemplateCommonIcvE4backEv", scope: !1356, file: !201, line: 161, type: !1446, scopeLine: 161, flags: DIFlagPublic | DIFlagPrototyped, spFlags: DISPFlagOptimized)
!1450 = !{!1451, !434}
!1451 = !DITemplateTypeParameter(name: "T", type: !178)
!1452 = !DISubprogram(name: "SmallVectorTemplateBase", scope: !1353, file: !201, line: 298, type: !1453, scopeLine: 298, flags: DIFlagProtected | DIFlagPrototyped, spFlags: DISPFlagOptimized)
!1453 = !DISubroutineType(types: !1454)
!1454 = !{null, !1455, !223}
!1455 = !DIDerivedType(tag: DW_TAG_pointer_type, baseType: !1353, size: 64, flags: DIFlagArtificial | DIFlagObjectPointer)
!1456 = !DISubprogram(name: "destroy_range", linkageName: "_ZN4llvm23SmallVectorTemplateBaseIcLb1EE13destroy_rangeEPcS2_", scope: !1353, file: !201, line: 301, type: !1457, scopeLine: 301, flags: DIFlagProtected | DIFlagPrototyped | DIFlagStaticMember, spFlags: DISPFlagOptimized)
!1457 = !DISubroutineType(types: !1458)
!1458 = !{null, !1120, !1120}
!1459 = !DISubprogram(name: "grow", linkageName: "_ZN4llvm23SmallVectorTemplateBaseIcLb1EE4growEm", scope: !1353, file: !201, line: 346, type: !1453, scopeLine: 346, flags: DIFlagProtected | DIFlagPrototyped, spFlags: DISPFlagOptimized)
!1460 = !DISubprogram(name: "push_back", linkageName: "_ZN4llvm23SmallVectorTemplateBaseIcLb1EE9push_backERKc", scope: !1353, file: !201, line: 350, type: !1461, scopeLine: 350, flags: DIFlagPublic | DIFlagPrototyped, spFlags: DISPFlagOptimized)
!1461 = !DISubroutineType(types: !1462)
!1462 = !{null, !1455, !1441}
!1463 = !DISubprogram(name: "pop_back", linkageName: "_ZN4llvm23SmallVectorTemplateBaseIcLb1EE8pop_backEv", scope: !1353, file: !201, line: 361, type: !1464, scopeLine: 361, flags: DIFlagPublic | DIFlagPrototyped, spFlags: DISPFlagOptimized)
!1464 = !DISubroutineType(types: !1465)
!1465 = !{null, !1455}
!1466 = !{!1451, !450}
!1467 = !DISubprogram(name: "SmallVectorImpl", scope: !1350, file: !201, line: 374, type: !1468, scopeLine: 374, flags: DIFlagPrototyped, spFlags: DISPFlagOptimized | DISPFlagDeleted)
!1468 = !DISubroutineType(types: !1469)
!1469 = !{null, !1470, !1471}
!1470 = !DIDerivedType(tag: DW_TAG_pointer_type, baseType: !1350, size: 64, flags: DIFlagArtificial | DIFlagObjectPointer)
!1471 = !DIDerivedType(tag: DW_TAG_reference_type, baseType: !1472, size: 64)
!1472 = !DIDerivedType(tag: DW_TAG_const_type, baseType: !1350)
!1473 = !DISubprogram(name: "SmallVectorImpl", scope: !1350, file: !201, line: 381, type: !1474, scopeLine: 381, flags: DIFlagProtected | DIFlagExplicit | DIFlagPrototyped, spFlags: DISPFlagOptimized)
!1474 = !DISubroutineType(types: !1475)
!1475 = !{null, !1470, !6}
!1476 = !DISubprogram(name: "~SmallVectorImpl", scope: !1350, file: !201, line: 386, type: !1477, scopeLine: 386, flags: DIFlagPublic | DIFlagPrototyped, spFlags: DISPFlagOptimized)
!1477 = !DISubroutineType(types: !1478)
!1478 = !{null, !1470}
!1479 = !DISubprogram(name: "clear", linkageName: "_ZN4llvm15SmallVectorImplIcE5clearEv", scope: !1350, file: !201, line: 396, type: !1477, scopeLine: 396, flags: DIFlagPublic | DIFlagPrototyped, spFlags: DISPFlagOptimized)
!1480 = !DISubprogram(name: "resize", linkageName: "_ZN4llvm15SmallVectorImplIcE6resizeEj", scope: !1350, file: !201, line: 401, type: !1474, scopeLine: 401, flags: DIFlagPublic | DIFlagPrototyped, spFlags: DISPFlagOptimized)
!1481 = !DISubprogram(name: "resize", linkageName: "_ZN4llvm15SmallVectorImplIcE6resizeEjRKc", scope: !1350, file: !201, line: 413, type: !1482, scopeLine: 413, flags: DIFlagPublic | DIFlagPrototyped, spFlags: DISPFlagOptimized)
!1482 = !DISubroutineType(types: !1483)
!1483 = !{null, !1470, !6, !1441}
!1484 = !DISubprogram(name: "reserve", linkageName: "_ZN4llvm15SmallVectorImplIcE7reserveEj", scope: !1350, file: !201, line: 425, type: !1474, scopeLine: 425, flags: DIFlagPublic | DIFlagPrototyped, spFlags: DISPFlagOptimized)
!1485 = !DISubprogram(name: "pop_back_val", linkageName: "_ZN4llvm15SmallVectorImplIcE12pop_back_valEv", scope: !1350, file: !201, line: 430, type: !1486, scopeLine: 430, flags: DIFlagPublic | DIFlagPrototyped, spFlags: DISPFlagOptimized)
!1486 = !DISubroutineType(types: !1487)
!1487 = !{!178, !1470}
!1488 = !DISubprogram(name: "swap", linkageName: "_ZN4llvm15SmallVectorImplIcE4swapERS1_", scope: !1350, file: !201, line: 440, type: !1489, scopeLine: 440, flags: DIFlagPublic | DIFlagPrototyped, spFlags: DISPFlagOptimized)
!1489 = !DISubroutineType(types: !1490)
!1490 = !{null, !1470, !1349}
!1491 = !DISubprogram(name: "append", linkageName: "_ZN4llvm15SmallVectorImplIcE6appendEmRKc", scope: !1350, file: !201, line: 460, type: !1492, scopeLine: 460, flags: DIFlagPublic | DIFlagPrototyped, spFlags: DISPFlagOptimized)
!1492 = !DISubroutineType(types: !1493)
!1493 = !{null, !1470, !1494, !1441}
!1494 = !DIDerivedType(tag: DW_TAG_typedef, name: "size_type", scope: !1350, file: !201, line: 377, baseType: !1495)
!1495 = !DIDerivedType(tag: DW_TAG_typedef, name: "size_type", scope: !1356, file: !201, line: 97, baseType: !223)
!1496 = !DISubprogram(name: "assign", linkageName: "_ZN4llvm15SmallVectorImplIcE6assignEjRKc", scope: !1350, file: !201, line: 470, type: !1482, scopeLine: 470, flags: DIFlagPublic | DIFlagPrototyped, spFlags: DISPFlagOptimized)
!1497 = !DISubprogram(name: "erase", linkageName: "_ZN4llvm15SmallVectorImplIcE5eraseEPc", scope: !1350, file: !201, line: 478, type: !1498, scopeLine: 478, flags: DIFlagPublic | DIFlagPrototyped, spFlags: DISPFlagOptimized)
!1498 = !DISubroutineType(types: !1499)
!1499 = !{!1500, !1470, !1500}
!1500 = !DIDerivedType(tag: DW_TAG_typedef, name: "iterator", scope: !1350, file: !201, line: 376, baseType: !1396)
!1501 = !DISubprogram(name: "erase", linkageName: "_ZN4llvm15SmallVectorImplIcE5eraseEPcS2_", scope: !1350, file: !201, line: 490, type: !1502, scopeLine: 490, flags: DIFlagPublic | DIFlagPrototyped, spFlags: DISPFlagOptimized)
!1502 = !DISubroutineType(types: !1503)
!1503 = !{!1500, !1470, !1500, !1500}
!1504 = !DISubprogram(name: "insert", linkageName: "_ZN4llvm15SmallVectorImplIcE6insertEPcOc", scope: !1350, file: !201, line: 505, type: !1505, scopeLine: 505, flags: DIFlagPublic | DIFlagPrototyped, spFlags: DISPFlagOptimized)
!1505 = !DISubroutineType(types: !1506)
!1506 = !{!1500, !1470, !1500, !1507}
!1507 = !DIDerivedType(tag: DW_TAG_rvalue_reference_type, baseType: !178, size: 64)
!1508 = !DISubprogram(name: "insert", linkageName: "_ZN4llvm15SmallVectorImplIcE6insertEPcRKc", scope: !1350, file: !201, line: 537, type: !1509, scopeLine: 537, flags: DIFlagPublic | DIFlagPrototyped, spFlags: DISPFlagOptimized)
!1509 = !DISubroutineType(types: !1510)
!1510 = !{!1500, !1470, !1500, !1441}
!1511 = !DISubprogram(name: "insert", linkageName: "_ZN4llvm15SmallVectorImplIcE6insertEPcmRKc", scope: !1350, file: !201, line: 568, type: !1512, scopeLine: 568, flags: DIFlagPublic | DIFlagPrototyped, spFlags: DISPFlagOptimized)
!1512 = !DISubroutineType(types: !1513)
!1513 = !{!1500, !1470, !1500, !1494, !1441}
!1514 = !DISubprogram(name: "operator=", linkageName: "_ZN4llvm15SmallVectorImplIcEaSERKS1_", scope: !1350, file: !201, line: 674, type: !1515, scopeLine: 674, flags: DIFlagPublic | DIFlagPrototyped, spFlags: DISPFlagOptimized)
!1515 = !DISubroutineType(types: !1516)
!1516 = !{!1349, !1470, !1471}
!1517 = !DISubprogram(name: "operator=", linkageName: "_ZN4llvm15SmallVectorImplIcEaSEOS1_", scope: !1350, file: !201, line: 677, type: !1518, scopeLine: 677, flags: DIFlagPublic | DIFlagPrototyped, spFlags: DISPFlagOptimized)
!1518 = !DISubroutineType(types: !1519)
!1519 = !{!1349, !1470, !1520}
!1520 = !DIDerivedType(tag: DW_TAG_rvalue_reference_type, baseType: !1350, size: 64)
!1521 = !DISubprogram(name: "operator==", linkageName: "_ZNK4llvm15SmallVectorImplIcEeqERKS1_", scope: !1350, file: !201, line: 680, type: !1522, scopeLine: 680, flags: DIFlagPublic | DIFlagPrototyped, spFlags: DISPFlagOptimized)
!1522 = !DISubroutineType(types: !1523)
!1523 = !{!49, !1524, !1471}
!1524 = !DIDerivedType(tag: DW_TAG_pointer_type, baseType: !1472, size: 64, flags: DIFlagArtificial | DIFlagObjectPointer)
!1525 = !DISubprogram(name: "operator!=", linkageName: "_ZNK4llvm15SmallVectorImplIcEneERKS1_", scope: !1350, file: !201, line: 684, type: !1522, scopeLine: 684, flags: DIFlagPublic | DIFlagPrototyped, spFlags: DISPFlagOptimized)
!1526 = !DISubprogram(name: "operator<", linkageName: "_ZNK4llvm15SmallVectorImplIcEltERKS1_", scope: !1350, file: !201, line: 688, type: !1522, scopeLine: 688, flags: DIFlagPublic | DIFlagPrototyped, spFlags: DISPFlagOptimized)
!1527 = !DISubprogram(name: "set_size", linkageName: "_ZN4llvm15SmallVectorImplIcE8set_sizeEj", scope: !1350, file: !201, line: 702, type: !1474, scopeLine: 702, flags: DIFlagPublic | DIFlagPrototyped, spFlags: DISPFlagOptimized)
!1528 = !{!1451}
!1529 = !DISubprogram(name: "toStringUnsigned", linkageName: "_ZNK4llvm5APInt16toStringUnsignedERNS_15SmallVectorImplIcEEj", scope: !699, file: !700, line: 1412, type: !1530, scopeLine: 1412, flags: DIFlagPublic | DIFlagPrototyped, spFlags: DISPFlagOptimized)
!1530 = !DISubroutineType(types: !1531)
!1531 = !{null, !716, !1349, !6}
!1532 = !DISubprogram(name: "toStringSigned", linkageName: "_ZNK4llvm5APInt14toStringSignedERNS_15SmallVectorImplIcEEj", scope: !699, file: !700, line: 1418, type: !1530, scopeLine: 1418, flags: DIFlagPublic | DIFlagPrototyped, spFlags: DISPFlagOptimized)
!1533 = !DISubprogram(name: "toString", linkageName: "_ZNK4llvm5APInt8toStringB5cxx11Ejb", scope: !699, file: !700, line: 1427, type: !1534, scopeLine: 1427, flags: DIFlagPublic | DIFlagPrototyped, spFlags: DISPFlagOptimized)
!1534 = !DISubroutineType(types: !1535)
!1535 = !{!625, !716, !6, !49}
!1536 = !DISubprogram(name: "byteSwap", linkageName: "_ZNK4llvm5APInt8byteSwapEv", scope: !699, file: !700, line: 1430, type: !1216, scopeLine: 1430, flags: DIFlagPublic | DIFlagPrototyped, spFlags: DISPFlagOptimized)
!1537 = !DISubprogram(name: "roundToDouble", linkageName: "_ZNK4llvm5APInt13roundToDoubleEb", scope: !699, file: !700, line: 1433, type: !1538, scopeLine: 1433, flags: DIFlagPublic | DIFlagPrototyped, spFlags: DISPFlagOptimized)
!1538 = !DISubroutineType(types: !1539)
!1539 = !{!266, !716, !49}
!1540 = !DISubprogram(name: "roundToDouble", linkageName: "_ZNK4llvm5APInt13roundToDoubleEv", scope: !699, file: !700, line: 1436, type: !1541, scopeLine: 1436, flags: DIFlagPublic | DIFlagPrototyped, spFlags: DISPFlagOptimized)
!1541 = !DISubroutineType(types: !1542)
!1542 = !{!266, !716}
!1543 = !DISubprogram(name: "signedRoundToDouble", linkageName: "_ZNK4llvm5APInt19signedRoundToDoubleEv", scope: !699, file: !700, line: 1439, type: !1541, scopeLine: 1439, flags: DIFlagPublic | DIFlagPrototyped, spFlags: DISPFlagOptimized)
!1544 = !DISubprogram(name: "bitsToDouble", linkageName: "_ZNK4llvm5APInt12bitsToDoubleEv", scope: !699, file: !700, line: 1446, type: !1541, scopeLine: 1446, flags: DIFlagPublic | DIFlagPrototyped, spFlags: DISPFlagOptimized)
!1545 = !DISubprogram(name: "bitsToFloat", linkageName: "_ZNK4llvm5APInt11bitsToFloatEv", scope: !699, file: !700, line: 1460, type: !1546, scopeLine: 1460, flags: DIFlagPublic | DIFlagPrototyped, spFlags: DISPFlagOptimized)
!1546 = !DISubroutineType(types: !1547)
!1547 = !{!1548, !716}
!1548 = !DIBasicType(name: "float", size: 32, encoding: DW_ATE_float)
!1549 = !DISubprogram(name: "doubleToBits", linkageName: "_ZN4llvm5APInt12doubleToBitsEd", scope: !699, file: !700, line: 1473, type: !1550, scopeLine: 1473, flags: DIFlagPublic | DIFlagPrototyped | DIFlagStaticMember, spFlags: DISPFlagOptimized)
!1550 = !DISubroutineType(types: !1551)
!1551 = !{!699, !266}
!1552 = !DISubprogram(name: "floatToBits", linkageName: "_ZN4llvm5APInt11floatToBitsEf", scope: !699, file: !700, line: 1486, type: !1553, scopeLine: 1486, flags: DIFlagPublic | DIFlagPrototyped | DIFlagStaticMember, spFlags: DISPFlagOptimized)
!1553 = !DISubroutineType(types: !1554)
!1554 = !{!699, !1548}
!1555 = !DISubprogram(name: "logBase2", linkageName: "_ZNK4llvm5APInt8logBase2Ev", scope: !699, file: !700, line: 1500, type: !768, scopeLine: 1500, flags: DIFlagPublic | DIFlagPrototyped, spFlags: DISPFlagOptimized)
!1556 = !DISubprogram(name: "ceilLogBase2", linkageName: "_ZNK4llvm5APInt12ceilLogBase2Ev", scope: !699, file: !700, line: 1503, type: !768, scopeLine: 1503, flags: DIFlagPublic | DIFlagPrototyped, spFlags: DISPFlagOptimized)
!1557 = !DISubprogram(name: "exactLogBase2", linkageName: "_ZNK4llvm5APInt13exactLogBase2Ev", scope: !699, file: !700, line: 1509, type: !1558, scopeLine: 1509, flags: DIFlagPublic | DIFlagPrototyped, spFlags: DISPFlagOptimized)
!1558 = !DISubroutineType(types: !1559)
!1559 = !{!1560, !716}
!1560 = !DIDerivedType(tag: DW_TAG_typedef, name: "int32_t", file: !145, line: 26, baseType: !1561)
!1561 = !DIDerivedType(tag: DW_TAG_typedef, name: "__int32_t", file: !130, line: 40, baseType: !19)
!1562 = !DISubprogram(name: "sqrt", linkageName: "_ZNK4llvm5APInt4sqrtEv", scope: !699, file: !700, line: 1516, type: !1216, scopeLine: 1516, flags: DIFlagPublic | DIFlagPrototyped, spFlags: DISPFlagOptimized)
!1563 = !DISubprogram(name: "abs", linkageName: "_ZNK4llvm5APInt3absEv", scope: !699, file: !700, line: 1521, type: !1216, scopeLine: 1521, flags: DIFlagPublic | DIFlagPrototyped, spFlags: DISPFlagOptimized)
!1564 = !DISubprogram(name: "multiplicativeInverse", linkageName: "_ZNK4llvm5APInt21multiplicativeInverseERKS0_", scope: !699, file: !700, line: 1528, type: !754, scopeLine: 1528, flags: DIFlagPublic | DIFlagPrototyped, spFlags: DISPFlagOptimized)
!1565 = !DISubprogram(name: "magic", linkageName: "_ZNK4llvm5APInt5magicEv", scope: !699, file: !700, line: 1536, type: !1566, scopeLine: 1536, flags: DIFlagPublic | DIFlagPrototyped, spFlags: DISPFlagOptimized)
!1566 = !DISubroutineType(types: !1567)
!1567 = !{!1568, !716}
!1568 = distinct !DICompositeType(tag: DW_TAG_structure_type, name: "ms", scope: !699, file: !700, line: 1672, flags: DIFlagFwdDecl, identifier: "_ZTSN4llvm5APInt2msE")
!1569 = !DISubprogram(name: "magicu", linkageName: "_ZNK4llvm5APInt6magicuEj", scope: !699, file: !700, line: 1540, type: !1570, scopeLine: 1540, flags: DIFlagPublic | DIFlagPrototyped, spFlags: DISPFlagOptimized)
!1570 = !DISubroutineType(types: !1571)
!1571 = !{!1572, !716, !6}
!1572 = distinct !DICompositeType(tag: DW_TAG_structure_type, name: "mu", scope: !699, file: !700, line: 1678, flags: DIFlagFwdDecl, identifier: "_ZTSN4llvm5APInt2muE")
!1573 = !DISubprogram(name: "tcSet", linkageName: "_ZN4llvm5APInt5tcSetEPmmj", scope: !699, file: !700, line: 1554, type: !1574, scopeLine: 1554, flags: DIFlagPublic | DIFlagPrototyped | DIFlagStaticMember, spFlags: DISPFlagOptimized)
!1574 = !DISubroutineType(types: !1575)
!1575 = !{null, !1576, !1577, !6}
!1576 = !DIDerivedType(tag: DW_TAG_pointer_type, baseType: !1577, size: 64)
!1577 = !DIDerivedType(tag: DW_TAG_typedef, name: "integerPart", scope: !14, file: !700, line: 39, baseType: !127)
!1578 = !DISubprogram(name: "tcAssign", linkageName: "_ZN4llvm5APInt8tcAssignEPmPKmj", scope: !699, file: !700, line: 1557, type: !1579, scopeLine: 1557, flags: DIFlagPublic | DIFlagPrototyped | DIFlagStaticMember, spFlags: DISPFlagOptimized)
!1579 = !DISubroutineType(types: !1580)
!1580 = !{null, !1576, !1581, !6}
!1581 = !DIDerivedType(tag: DW_TAG_pointer_type, baseType: !1582, size: 64)
!1582 = !DIDerivedType(tag: DW_TAG_const_type, baseType: !1577)
!1583 = !DISubprogram(name: "tcIsZero", linkageName: "_ZN4llvm5APInt8tcIsZeroEPKmj", scope: !699, file: !700, line: 1560, type: !1584, scopeLine: 1560, flags: DIFlagPublic | DIFlagPrototyped | DIFlagStaticMember, spFlags: DISPFlagOptimized)
!1584 = !DISubroutineType(types: !1585)
!1585 = !{!49, !1581, !6}
!1586 = !DISubprogram(name: "tcExtractBit", linkageName: "_ZN4llvm5APInt12tcExtractBitEPKmj", scope: !699, file: !700, line: 1563, type: !1587, scopeLine: 1563, flags: DIFlagPublic | DIFlagPrototyped | DIFlagStaticMember, spFlags: DISPFlagOptimized)
!1587 = !DISubroutineType(types: !1588)
!1588 = !{!19, !1581, !6}
!1589 = !DISubprogram(name: "tcExtract", linkageName: "_ZN4llvm5APInt9tcExtractEPmjPKmjj", scope: !699, file: !700, line: 1569, type: !1590, scopeLine: 1569, flags: DIFlagPublic | DIFlagPrototyped | DIFlagStaticMember, spFlags: DISPFlagOptimized)
!1590 = !DISubroutineType(types: !1591)
!1591 = !{null, !1576, !6, !1581, !6, !6}
!1592 = !DISubprogram(name: "tcSetBit", linkageName: "_ZN4llvm5APInt8tcSetBitEPmj", scope: !699, file: !700, line: 1574, type: !1593, scopeLine: 1574, flags: DIFlagPublic | DIFlagPrototyped | DIFlagStaticMember, spFlags: DISPFlagOptimized)
!1593 = !DISubroutineType(types: !1594)
!1594 = !{null, !1576, !6}
!1595 = !DISubprogram(name: "tcClearBit", linkageName: "_ZN4llvm5APInt10tcClearBitEPmj", scope: !699, file: !700, line: 1577, type: !1593, scopeLine: 1577, flags: DIFlagPublic | DIFlagPrototyped | DIFlagStaticMember, spFlags: DISPFlagOptimized)
!1596 = !DISubprogram(name: "tcLSB", linkageName: "_ZN4llvm5APInt5tcLSBEPKmj", scope: !699, file: !700, line: 1581, type: !1597, scopeLine: 1581, flags: DIFlagPublic | DIFlagPrototyped | DIFlagStaticMember, spFlags: DISPFlagOptimized)
!1597 = !DISubroutineType(types: !1598)
!1598 = !{!6, !1581, !6}
!1599 = !DISubprogram(name: "tcMSB", linkageName: "_ZN4llvm5APInt5tcMSBEPKmj", scope: !699, file: !700, line: 1582, type: !1597, scopeLine: 1582, flags: DIFlagPublic | DIFlagPrototyped | DIFlagStaticMember, spFlags: DISPFlagOptimized)
!1600 = !DISubprogram(name: "tcNegate", linkageName: "_ZN4llvm5APInt8tcNegateEPmj", scope: !699, file: !700, line: 1585, type: !1593, scopeLine: 1585, flags: DIFlagPublic | DIFlagPrototyped | DIFlagStaticMember, spFlags: DISPFlagOptimized)
!1601 = !DISubprogram(name: "tcAdd", linkageName: "_ZN4llvm5APInt5tcAddEPmPKmmj", scope: !699, file: !700, line: 1588, type: !1602, scopeLine: 1588, flags: DIFlagPublic | DIFlagPrototyped | DIFlagStaticMember, spFlags: DISPFlagOptimized)
!1602 = !DISubroutineType(types: !1603)
!1603 = !{!1577, !1576, !1581, !1577, !6}
!1604 = !DISubprogram(name: "tcSubtract", linkageName: "_ZN4llvm5APInt10tcSubtractEPmPKmmj", scope: !699, file: !700, line: 1592, type: !1602, scopeLine: 1592, flags: DIFlagPublic | DIFlagPrototyped | DIFlagStaticMember, spFlags: DISPFlagOptimized)
!1605 = !DISubprogram(name: "tcMultiplyPart", linkageName: "_ZN4llvm5APInt14tcMultiplyPartEPmPKmmmjjb", scope: !699, file: !700, line: 1605, type: !1606, scopeLine: 1605, flags: DIFlagPublic | DIFlagPrototyped | DIFlagStaticMember, spFlags: DISPFlagOptimized)
!1606 = !DISubroutineType(types: !1607)
!1607 = !{!19, !1576, !1581, !1577, !1577, !6, !6, !49}
!1608 = !DISubprogram(name: "tcMultiply", linkageName: "_ZN4llvm5APInt10tcMultiplyEPmPKmS3_j", scope: !699, file: !700, line: 1614, type: !1609, scopeLine: 1614, flags: DIFlagPublic | DIFlagPrototyped | DIFlagStaticMember, spFlags: DISPFlagOptimized)
!1609 = !DISubroutineType(types: !1610)
!1610 = !{!19, !1576, !1581, !1581, !6}
!1611 = !DISubprogram(name: "tcFullMultiply", linkageName: "_ZN4llvm5APInt14tcFullMultiplyEPmPKmS3_jj", scope: !699, file: !700, line: 1620, type: !1612, scopeLine: 1620, flags: DIFlagPublic | DIFlagPrototyped | DIFlagStaticMember, spFlags: DISPFlagOptimized)
!1612 = !DISubroutineType(types: !1613)
!1613 = !{!6, !1576, !1581, !1581, !6, !6}
!1614 = !DISubprogram(name: "tcDivide", linkageName: "_ZN4llvm5APInt8tcDivideEPmPKmS1_S1_j", scope: !699, file: !700, line: 1632, type: !1615, scopeLine: 1632, flags: DIFlagPublic | DIFlagPrototyped | DIFlagStaticMember, spFlags: DISPFlagOptimized)
!1615 = !DISubroutineType(types: !1616)
!1616 = !{!19, !1576, !1581, !1576, !1576, !6}
!1617 = !DISubprogram(name: "tcShiftLeft", linkageName: "_ZN4llvm5APInt11tcShiftLeftEPmjj", scope: !699, file: !700, line: 1638, type: !1618, scopeLine: 1638, flags: DIFlagPublic | DIFlagPrototyped | DIFlagStaticMember, spFlags: DISPFlagOptimized)
!1618 = !DISubroutineType(types: !1619)
!1619 = !{null, !1576, !6, !6}
!1620 = !DISubprogram(name: "tcShiftRight", linkageName: "_ZN4llvm5APInt12tcShiftRightEPmjj", scope: !699, file: !700, line: 1643, type: !1618, scopeLine: 1643, flags: DIFlagPublic | DIFlagPrototyped | DIFlagStaticMember, spFlags: DISPFlagOptimized)
!1621 = !DISubprogram(name: "tcAnd", linkageName: "_ZN4llvm5APInt5tcAndEPmPKmj", scope: !699, file: !700, line: 1647, type: !1579, scopeLine: 1647, flags: DIFlagPublic | DIFlagPrototyped | DIFlagStaticMember, spFlags: DISPFlagOptimized)
!1622 = !DISubprogram(name: "tcOr", linkageName: "_ZN4llvm5APInt4tcOrEPmPKmj", scope: !699, file: !700, line: 1648, type: !1579, scopeLine: 1648, flags: DIFlagPublic | DIFlagPrototyped | DIFlagStaticMember, spFlags: DISPFlagOptimized)
!1623 = !DISubprogram(name: "tcXor", linkageName: "_ZN4llvm5APInt5tcXorEPmPKmj", scope: !699, file: !700, line: 1649, type: !1579, scopeLine: 1649, flags: DIFlagPublic | DIFlagPrototyped | DIFlagStaticMember, spFlags: DISPFlagOptimized)
!1624 = !DISubprogram(name: "tcComplement", linkageName: "_ZN4llvm5APInt12tcComplementEPmj", scope: !699, file: !700, line: 1650, type: !1593, scopeLine: 1650, flags: DIFlagPublic | DIFlagPrototyped | DIFlagStaticMember, spFlags: DISPFlagOptimized)
!1625 = !DISubprogram(name: "tcCompare", linkageName: "_ZN4llvm5APInt9tcCompareEPKmS2_j", scope: !699, file: !700, line: 1653, type: !1626, scopeLine: 1653, flags: DIFlagPublic | DIFlagPrototyped | DIFlagStaticMember, spFlags: DISPFlagOptimized)
!1626 = !DISubroutineType(types: !1627)
!1627 = !{!19, !1581, !1581, !6}
!1628 = !DISubprogram(name: "tcIncrement", linkageName: "_ZN4llvm5APInt11tcIncrementEPmj", scope: !699, file: !700, line: 1656, type: !1629, scopeLine: 1656, flags: DIFlagPublic | DIFlagPrototyped | DIFlagStaticMember, spFlags: DISPFlagOptimized)
!1629 = !DISubroutineType(types: !1630)
!1630 = !{!1577, !1576, !6}
!1631 = !DISubprogram(name: "tcDecrement", linkageName: "_ZN4llvm5APInt11tcDecrementEPmj", scope: !699, file: !700, line: 1659, type: !1629, scopeLine: 1659, flags: DIFlagPublic | DIFlagPrototyped | DIFlagStaticMember, spFlags: DISPFlagOptimized)
!1632 = !DISubprogram(name: "tcSetLeastSignificantBits", linkageName: "_ZN4llvm5APInt25tcSetLeastSignificantBitsEPmjj", scope: !699, file: !700, line: 1662, type: !1618, scopeLine: 1662, flags: DIFlagPublic | DIFlagPrototyped | DIFlagStaticMember, spFlags: DISPFlagOptimized)
!1633 = !DISubprogram(name: "dump", linkageName: "_ZNK4llvm5APInt4dumpEv", scope: !699, file: !700, line: 1666, type: !1634, scopeLine: 1666, flags: DIFlagPublic | DIFlagPrototyped, spFlags: DISPFlagOptimized)
!1634 = !DISubroutineType(types: !1635)
!1635 = !{null, !716}
!1636 = !DISubprogram(name: "lower", linkageName: "_ZNK4llvm9StringRef5lowerB5cxx11Ev", scope: !596, file: !597, line: 374, type: !663, scopeLine: 374, flags: DIFlagPublic | DIFlagPrototyped, spFlags: DISPFlagOptimized)
!1637 = !DISubprogram(name: "upper", linkageName: "_ZNK4llvm9StringRef5upperB5cxx11Ev", scope: !596, file: !597, line: 377, type: !663, scopeLine: 377, flags: DIFlagPublic | DIFlagPrototyped, spFlags: DISPFlagOptimized)
!1638 = !DISubprogram(name: "substr", linkageName: "_ZNK4llvm9StringRef6substrEmm", scope: !596, file: !597, line: 392, type: !1639, scopeLine: 392, flags: DIFlagPublic | DIFlagPrototyped, spFlags: DISPFlagOptimized)
!1639 = !DISubroutineType(types: !1640)
!1640 = !{!596, !634, !223, !223}
!1641 = !DISubprogram(name: "drop_front", linkageName: "_ZNK4llvm9StringRef10drop_frontEm", scope: !596, file: !597, line: 399, type: !1642, scopeLine: 399, flags: DIFlagPublic | DIFlagPrototyped, spFlags: DISPFlagOptimized)
!1642 = !DISubroutineType(types: !1643)
!1643 = !{!596, !634, !223}
!1644 = !DISubprogram(name: "drop_back", linkageName: "_ZNK4llvm9StringRef9drop_backEm", scope: !596, file: !597, line: 406, type: !1642, scopeLine: 406, flags: DIFlagPublic | DIFlagPrototyped, spFlags: DISPFlagOptimized)
!1645 = !DISubprogram(name: "slice", linkageName: "_ZNK4llvm9StringRef5sliceEmm", scope: !596, file: !597, line: 421, type: !1639, scopeLine: 421, flags: DIFlagPublic | DIFlagPrototyped, spFlags: DISPFlagOptimized)
!1646 = !DISubprogram(name: "split", linkageName: "_ZNK4llvm9StringRef5splitEc", scope: !596, file: !597, line: 437, type: !1647, scopeLine: 437, flags: DIFlagPublic | DIFlagPrototyped, spFlags: DISPFlagOptimized)
!1647 = !DISubroutineType(types: !1648)
!1648 = !{!1649, !634, !178}
!1649 = distinct !DICompositeType(tag: DW_TAG_structure_type, name: "pair<llvm::StringRef, llvm::StringRef>", scope: !390, file: !1650, line: 208, size: 256, flags: DIFlagTypePassByValue | DIFlagNonTrivial, elements: !1651, templateParams: !1711, identifier: "_ZTSSt4pairIN4llvm9StringRefES1_E")
!1650 = !DIFile(filename: "/usr/lib/gcc/x86_64-linux-gnu/7.5.0/../../../../include/c++/7.5.0/bits/stl_pair.h", directory: "")
!1651 = !{!1652, !1672, !1673, !1674, !1680, !1684, !1699, !1708}
!1652 = !DIDerivedType(tag: DW_TAG_inheritance, scope: !1649, baseType: !1653, flags: DIFlagPrivate, extraData: i32 0)
!1653 = distinct !DICompositeType(tag: DW_TAG_class_type, name: "__pair_base<llvm::StringRef, llvm::StringRef>", scope: !390, file: !1650, line: 190, size: 8, flags: DIFlagTypePassByValue, elements: !1654, templateParams: !1669, identifier: "_ZTSSt11__pair_baseIN4llvm9StringRefES1_E")
!1654 = !{!1655, !1659, !1660, !1665}
!1655 = !DISubprogram(name: "__pair_base", scope: !1653, file: !1650, line: 194, type: !1656, scopeLine: 194, flags: DIFlagPrototyped, spFlags: DISPFlagOptimized)
!1656 = !DISubroutineType(types: !1657)
!1657 = !{null, !1658}
!1658 = !DIDerivedType(tag: DW_TAG_pointer_type, baseType: !1653, size: 64, flags: DIFlagArtificial | DIFlagObjectPointer)
!1659 = !DISubprogram(name: "~__pair_base", scope: !1653, file: !1650, line: 195, type: !1656, scopeLine: 195, flags: DIFlagPrototyped, spFlags: DISPFlagOptimized)
!1660 = !DISubprogram(name: "__pair_base", scope: !1653, file: !1650, line: 196, type: !1661, scopeLine: 196, flags: DIFlagPrototyped, spFlags: DISPFlagOptimized)
!1661 = !DISubroutineType(types: !1662)
!1662 = !{null, !1658, !1663}
!1663 = !DIDerivedType(tag: DW_TAG_reference_type, baseType: !1664, size: 64)
!1664 = !DIDerivedType(tag: DW_TAG_const_type, baseType: !1653)
!1665 = !DISubprogram(name: "operator=", linkageName: "_ZNSt11__pair_baseIN4llvm9StringRefES1_EaSERKS2_", scope: !1653, file: !1650, line: 197, type: !1666, scopeLine: 197, flags: DIFlagPrototyped, spFlags: DISPFlagOptimized | DISPFlagDeleted)
!1666 = !DISubroutineType(types: !1667)
!1667 = !{!1668, !1658, !1663}
!1668 = !DIDerivedType(tag: DW_TAG_reference_type, baseType: !1653, size: 64)
!1669 = !{!1670, !1671}
!1670 = !DITemplateTypeParameter(name: "_U1", type: !596)
!1671 = !DITemplateTypeParameter(name: "_U2", type: !596)
!1672 = !DIDerivedType(tag: DW_TAG_member, name: "first", scope: !1649, file: !1650, line: 214, baseType: !596, size: 128)
!1673 = !DIDerivedType(tag: DW_TAG_member, name: "second", scope: !1649, file: !1650, line: 215, baseType: !596, size: 128, offset: 128)
!1674 = !DISubprogram(name: "pair", scope: !1649, file: !1650, line: 303, type: !1675, scopeLine: 303, flags: DIFlagPrototyped, spFlags: DISPFlagOptimized)
!1675 = !DISubroutineType(types: !1676)
!1676 = !{null, !1677, !1678}
!1677 = !DIDerivedType(tag: DW_TAG_pointer_type, baseType: !1649, size: 64, flags: DIFlagArtificial | DIFlagObjectPointer)
!1678 = !DIDerivedType(tag: DW_TAG_reference_type, baseType: !1679, size: 64)
!1679 = !DIDerivedType(tag: DW_TAG_const_type, baseType: !1649)
!1680 = !DISubprogram(name: "pair", scope: !1649, file: !1650, line: 304, type: !1681, scopeLine: 304, flags: DIFlagPrototyped, spFlags: DISPFlagOptimized)
!1681 = !DISubroutineType(types: !1682)
!1682 = !{null, !1677, !1683}
!1683 = !DIDerivedType(tag: DW_TAG_rvalue_reference_type, baseType: !1649, size: 64)
!1684 = !DISubprogram(name: "operator=", linkageName: "_ZNSt4pairIN4llvm9StringRefES1_EaSERKS2_", scope: !1649, file: !1650, line: 378, type: !1685, scopeLine: 378, flags: DIFlagPrototyped, spFlags: DISPFlagOptimized)
!1685 = !DISubroutineType(types: !1686)
!1686 = !{!1687, !1677, !1688}
!1687 = !DIDerivedType(tag: DW_TAG_reference_type, baseType: !1649, size: 64)
!1688 = !DIDerivedType(tag: DW_TAG_typedef, name: "type", scope: !1690, file: !1689, line: 2166, baseType: !1678)
!1689 = !DIFile(filename: "/usr/lib/gcc/x86_64-linux-gnu/7.5.0/../../../../include/c++/7.5.0/type_traits", directory: "")
!1690 = distinct !DICompositeType(tag: DW_TAG_structure_type, name: "conditional<true, const std::pair<llvm::StringRef, llvm::StringRef> &, const std::__nonesuch_no_braces &>", scope: !390, file: !1689, line: 2165, size: 8, flags: DIFlagTypePassByValue, elements: !1691, templateParams: !1692, identifier: "_ZTSSt11conditionalILb1ERKSt4pairIN4llvm9StringRefES2_ERKSt20__nonesuch_no_bracesE")
!1691 = !{}
!1692 = !{!1693, !1694, !1695}
!1693 = !DITemplateValueParameter(name: "_Cond", type: !49, value: i8 1)
!1694 = !DITemplateTypeParameter(name: "_Iftrue", type: !1678)
!1695 = !DITemplateTypeParameter(name: "_Iffalse", type: !1696)
!1696 = !DIDerivedType(tag: DW_TAG_reference_type, baseType: !1697, size: 64)
!1697 = !DIDerivedType(tag: DW_TAG_const_type, baseType: !1698)
!1698 = distinct !DICompositeType(tag: DW_TAG_structure_type, name: "__nonesuch_no_braces", scope: !390, file: !1650, line: 185, flags: DIFlagFwdDecl, identifier: "_ZTSSt20__nonesuch_no_braces")
!1699 = !DISubprogram(name: "operator=", linkageName: "_ZNSt4pairIN4llvm9StringRefES1_EaSEOS2_", scope: !1649, file: !1650, line: 389, type: !1700, scopeLine: 389, flags: DIFlagPrototyped, spFlags: DISPFlagOptimized)
!1700 = !DISubroutineType(types: !1701)
!1701 = !{!1687, !1677, !1702}
!1702 = !DIDerivedType(tag: DW_TAG_typedef, name: "type", scope: !1703, file: !1689, line: 2166, baseType: !1683)
!1703 = distinct !DICompositeType(tag: DW_TAG_structure_type, name: "conditional<true, std::pair<llvm::StringRef, llvm::StringRef> &&, std::__nonesuch_no_braces &&>", scope: !390, file: !1689, line: 2165, size: 8, flags: DIFlagTypePassByValue, elements: !1691, templateParams: !1704, identifier: "_ZTSSt11conditionalILb1EOSt4pairIN4llvm9StringRefES2_EOSt20__nonesuch_no_bracesE")
!1704 = !{!1693, !1705, !1706}
!1705 = !DITemplateTypeParameter(name: "_Iftrue", type: !1683)
!1706 = !DITemplateTypeParameter(name: "_Iffalse", type: !1707)
!1707 = !DIDerivedType(tag: DW_TAG_rvalue_reference_type, baseType: !1698, size: 64)
!1708 = !DISubprogram(name: "swap", linkageName: "_ZNSt4pairIN4llvm9StringRefES1_E4swapERS2_", scope: !1649, file: !1650, line: 424, type: !1709, scopeLine: 424, flags: DIFlagPrototyped, spFlags: DISPFlagOptimized)
!1709 = !DISubroutineType(types: !1710)
!1710 = !{null, !1677, !1687}
!1711 = !{!1712, !1713}
!1712 = !DITemplateTypeParameter(name: "_T1", type: !596)
!1713 = !DITemplateTypeParameter(name: "_T2", type: !596)
!1714 = !DISubprogram(name: "split", linkageName: "_ZNK4llvm9StringRef5splitES0_", scope: !596, file: !597, line: 454, type: !1715, scopeLine: 454, flags: DIFlagPublic | DIFlagPrototyped, spFlags: DISPFlagOptimized)
!1715 = !DISubroutineType(types: !1716)
!1716 = !{!1649, !634, !596}
!1717 = !DISubprogram(name: "split", linkageName: "_ZNK4llvm9StringRef5splitERNS_15SmallVectorImplIS0_EES0_ib", scope: !596, file: !597, line: 475, type: !1718, scopeLine: 475, flags: DIFlagPublic | DIFlagPrototyped, spFlags: DISPFlagOptimized)
!1718 = !DISubroutineType(types: !1719)
!1719 = !{null, !634, !1720, !596, !19, !49}
!1720 = !DIDerivedType(tag: DW_TAG_reference_type, baseType: !1721, size: 64)
!1721 = distinct !DICompositeType(tag: DW_TAG_class_type, name: "SmallVectorImpl<llvm::StringRef>", scope: !14, file: !597, line: 23, flags: DIFlagFwdDecl, identifier: "_ZTSN4llvm15SmallVectorImplINS_9StringRefEEE")
!1722 = !DISubprogram(name: "rsplit", linkageName: "_ZNK4llvm9StringRef6rsplitEc", scope: !596, file: !597, line: 489, type: !1647, scopeLine: 489, flags: DIFlagPublic | DIFlagPrototyped, spFlags: DISPFlagOptimized)
!1723 = !DISubprogram(name: "ltrim", linkageName: "_ZNK4llvm9StringRef5ltrimES0_", scope: !596, file: !597, line: 498, type: !1724, scopeLine: 498, flags: DIFlagPublic | DIFlagPrototyped, spFlags: DISPFlagOptimized)
!1724 = !DISubroutineType(types: !1725)
!1725 = !{!596, !634, !596}
!1726 = !DISubprogram(name: "rtrim", linkageName: "_ZNK4llvm9StringRef5rtrimES0_", scope: !596, file: !597, line: 504, type: !1724, scopeLine: 504, flags: DIFlagPublic | DIFlagPrototyped, spFlags: DISPFlagOptimized)
!1727 = !DISubprogram(name: "trim", linkageName: "_ZNK4llvm9StringRef4trimES0_", scope: !596, file: !597, line: 510, type: !1724, scopeLine: 510, flags: DIFlagPublic | DIFlagPrototyped, spFlags: DISPFlagOptimized)
!1728 = !DIDerivedType(tag: DW_TAG_reference_type, baseType: !1729, size: 64)
!1729 = distinct !DICompositeType(tag: DW_TAG_class_type, name: "MCSubtargetInfo", scope: !14, file: !1730, line: 29, size: 1024, flags: DIFlagTypePassByReference | DIFlagNonTrivial, elements: !1731, identifier: "_ZTSN4llvm15MCSubtargetInfoE")
!1730 = !DIFile(filename: "/faster/fs/llvm34/include/llvm/MC/MCSubtargetInfo.h", directory: "")
!1731 = !{!1732, !1733, !1738, !1739, !1743, !1756, !1768, !1781, !1868, !1870, !1871, !1872, !1873, !1874, !1875, !1879, !1884, !1887, !1890, !1893, !1896, !1899, !1902, !1905, !1908, !1909, !1912, !1915, !1919}
!1732 = !DIDerivedType(tag: DW_TAG_member, name: "TargetTriple", scope: !1729, file: !1730, line: 30, baseType: !625, size: 256)
!1733 = !DIDerivedType(tag: DW_TAG_member, name: "ProcFeatures", scope: !1729, file: !1730, line: 31, baseType: !1734, size: 64, offset: 256)
!1734 = !DIDerivedType(tag: DW_TAG_pointer_type, baseType: !1735, size: 64)
!1735 = !DIDerivedType(tag: DW_TAG_const_type, baseType: !1736)
!1736 = distinct !DICompositeType(tag: DW_TAG_structure_type, name: "SubtargetFeatureKV", scope: !14, file: !1737, line: 34, flags: DIFlagFwdDecl, identifier: "_ZTSN4llvm18SubtargetFeatureKVE")
!1737 = !DIFile(filename: "/faster/fs/llvm34/include/llvm/MC/SubtargetFeature.h", directory: "")
!1738 = !DIDerivedType(tag: DW_TAG_member, name: "ProcDesc", scope: !1729, file: !1730, line: 32, baseType: !1734, size: 64, offset: 320)
!1739 = !DIDerivedType(tag: DW_TAG_member, name: "ProcSchedModels", scope: !1729, file: !1730, line: 35, baseType: !1740, size: 64, offset: 384)
!1740 = !DIDerivedType(tag: DW_TAG_pointer_type, baseType: !1741, size: 64)
!1741 = !DIDerivedType(tag: DW_TAG_const_type, baseType: !1742)
!1742 = distinct !DICompositeType(tag: DW_TAG_structure_type, name: "SubtargetInfoKV", scope: !14, file: !1737, line: 51, flags: DIFlagFwdDecl, identifier: "_ZTSN4llvm15SubtargetInfoKVE")
!1743 = !DIDerivedType(tag: DW_TAG_member, name: "WriteProcResTable", scope: !1729, file: !1730, line: 36, baseType: !1744, size: 64, offset: 448)
!1744 = !DIDerivedType(tag: DW_TAG_pointer_type, baseType: !1745, size: 64)
!1745 = !DIDerivedType(tag: DW_TAG_const_type, baseType: !1746)
!1746 = distinct !DICompositeType(tag: DW_TAG_structure_type, name: "MCWriteProcResEntry", scope: !14, file: !1747, line: 50, size: 64, flags: DIFlagTypePassByValue, elements: !1748, identifier: "_ZTSN4llvm19MCWriteProcResEntryE")
!1747 = !DIFile(filename: "/faster/fs/llvm34/include/llvm/MC/MCSchedule.h", directory: "")
!1748 = !{!1749, !1750, !1751}
!1749 = !DIDerivedType(tag: DW_TAG_member, name: "ProcResourceIdx", scope: !1746, file: !1747, line: 51, baseType: !6, size: 32)
!1750 = !DIDerivedType(tag: DW_TAG_member, name: "Cycles", scope: !1746, file: !1747, line: 52, baseType: !6, size: 32, offset: 32)
!1751 = !DISubprogram(name: "operator==", linkageName: "_ZNK4llvm19MCWriteProcResEntryeqERKS0_", scope: !1746, file: !1747, line: 54, type: !1752, scopeLine: 54, flags: DIFlagPrototyped, spFlags: DISPFlagOptimized)
!1752 = !DISubroutineType(types: !1753)
!1753 = !{!49, !1754, !1755}
!1754 = !DIDerivedType(tag: DW_TAG_pointer_type, baseType: !1745, size: 64, flags: DIFlagArtificial | DIFlagObjectPointer)
!1755 = !DIDerivedType(tag: DW_TAG_reference_type, baseType: !1745, size: 64)
!1756 = !DIDerivedType(tag: DW_TAG_member, name: "WriteLatencyTable", scope: !1729, file: !1730, line: 37, baseType: !1757, size: 64, offset: 512)
!1757 = !DIDerivedType(tag: DW_TAG_pointer_type, baseType: !1758, size: 64)
!1758 = !DIDerivedType(tag: DW_TAG_const_type, baseType: !1759)
!1759 = distinct !DICompositeType(tag: DW_TAG_structure_type, name: "MCWriteLatencyEntry", scope: !14, file: !1747, line: 64, size: 64, flags: DIFlagTypePassByValue, elements: !1760, identifier: "_ZTSN4llvm19MCWriteLatencyEntryE")
!1760 = !{!1761, !1762, !1763}
!1761 = !DIDerivedType(tag: DW_TAG_member, name: "Cycles", scope: !1759, file: !1747, line: 65, baseType: !19, size: 32)
!1762 = !DIDerivedType(tag: DW_TAG_member, name: "WriteResourceID", scope: !1759, file: !1747, line: 66, baseType: !6, size: 32, offset: 32)
!1763 = !DISubprogram(name: "operator==", linkageName: "_ZNK4llvm19MCWriteLatencyEntryeqERKS0_", scope: !1759, file: !1747, line: 68, type: !1764, scopeLine: 68, flags: DIFlagPrototyped, spFlags: DISPFlagOptimized)
!1764 = !DISubroutineType(types: !1765)
!1765 = !{!49, !1766, !1767}
!1766 = !DIDerivedType(tag: DW_TAG_pointer_type, baseType: !1758, size: 64, flags: DIFlagArtificial | DIFlagObjectPointer)
!1767 = !DIDerivedType(tag: DW_TAG_reference_type, baseType: !1758, size: 64)
!1768 = !DIDerivedType(tag: DW_TAG_member, name: "ReadAdvanceTable", scope: !1729, file: !1730, line: 38, baseType: !1769, size: 64, offset: 576)
!1769 = !DIDerivedType(tag: DW_TAG_pointer_type, baseType: !1770, size: 64)
!1770 = !DIDerivedType(tag: DW_TAG_const_type, baseType: !1771)
!1771 = distinct !DICompositeType(tag: DW_TAG_structure_type, name: "MCReadAdvanceEntry", scope: !14, file: !1747, line: 81, size: 96, flags: DIFlagTypePassByValue, elements: !1772, identifier: "_ZTSN4llvm18MCReadAdvanceEntryE")
!1772 = !{!1773, !1774, !1775, !1776}
!1773 = !DIDerivedType(tag: DW_TAG_member, name: "UseIdx", scope: !1771, file: !1747, line: 82, baseType: !6, size: 32)
!1774 = !DIDerivedType(tag: DW_TAG_member, name: "WriteResourceID", scope: !1771, file: !1747, line: 83, baseType: !6, size: 32, offset: 32)
!1775 = !DIDerivedType(tag: DW_TAG_member, name: "Cycles", scope: !1771, file: !1747, line: 84, baseType: !19, size: 32, offset: 64)
!1776 = !DISubprogram(name: "operator==", linkageName: "_ZNK4llvm18MCReadAdvanceEntryeqERKS0_", scope: !1771, file: !1747, line: 86, type: !1777, scopeLine: 86, flags: DIFlagPrototyped, spFlags: DISPFlagOptimized)
!1777 = !DISubroutineType(types: !1778)
!1778 = !{!49, !1779, !1780}
!1779 = !DIDerivedType(tag: DW_TAG_pointer_type, baseType: !1770, size: 64, flags: DIFlagArtificial | DIFlagObjectPointer)
!1780 = !DIDerivedType(tag: DW_TAG_reference_type, baseType: !1770, size: 64)
!1781 = !DIDerivedType(tag: DW_TAG_member, name: "CPUSchedModel", scope: !1729, file: !1730, line: 39, baseType: !1782, size: 64, offset: 640)
!1782 = !DIDerivedType(tag: DW_TAG_pointer_type, baseType: !1783, size: 64)
!1783 = !DIDerivedType(tag: DW_TAG_const_type, baseType: !1784)
!1784 = distinct !DICompositeType(tag: DW_TAG_class_type, name: "MCSchedModel", scope: !14, file: !1747, line: 131, size: 512, flags: DIFlagTypePassByValue | DIFlagNonTrivial, elements: !1785, identifier: "_ZTSN4llvm12MCSchedModelE")
!1785 = !{!1786, !1787, !1788, !1789, !1790, !1791, !1792, !1793, !1794, !1795, !1796, !1797, !1798, !1799, !1812, !1834, !1835, !1836, !1846, !1850, !1853, !1857, !1860, !1861, !1862, !1865}
!1786 = !DIDerivedType(tag: DW_TAG_member, name: "DefaultSchedModel", scope: !1784, file: !1747, line: 133, baseType: !1784, flags: DIFlagPublic | DIFlagStaticMember)
!1787 = !DIDerivedType(tag: DW_TAG_member, name: "IssueWidth", scope: !1784, file: !1747, line: 137, baseType: !6, size: 32, flags: DIFlagPublic)
!1788 = !DIDerivedType(tag: DW_TAG_member, name: "DefaultIssueWidth", scope: !1784, file: !1747, line: 138, baseType: !856, flags: DIFlagPublic | DIFlagStaticMember, extraData: i32 1)
!1789 = !DIDerivedType(tag: DW_TAG_member, name: "MicroOpBufferSize", scope: !1784, file: !1747, line: 154, baseType: !6, size: 32, offset: 32, flags: DIFlagPublic)
!1790 = !DIDerivedType(tag: DW_TAG_member, name: "DefaultMicroOpBufferSize", scope: !1784, file: !1747, line: 155, baseType: !856, flags: DIFlagPublic | DIFlagStaticMember, extraData: i32 0)
!1791 = !DIDerivedType(tag: DW_TAG_member, name: "LoadLatency", scope: !1784, file: !1747, line: 161, baseType: !6, size: 32, offset: 64, flags: DIFlagPublic)
!1792 = !DIDerivedType(tag: DW_TAG_member, name: "DefaultLoadLatency", scope: !1784, file: !1747, line: 162, baseType: !856, flags: DIFlagPublic | DIFlagStaticMember, extraData: i32 4)
!1793 = !DIDerivedType(tag: DW_TAG_member, name: "HighLatency", scope: !1784, file: !1747, line: 169, baseType: !6, size: 32, offset: 96, flags: DIFlagPublic)
!1794 = !DIDerivedType(tag: DW_TAG_member, name: "DefaultHighLatency", scope: !1784, file: !1747, line: 170, baseType: !856, flags: DIFlagPublic | DIFlagStaticMember, extraData: i32 10)
!1795 = !DIDerivedType(tag: DW_TAG_member, name: "MispredictPenalty", scope: !1784, file: !1747, line: 174, baseType: !6, size: 32, offset: 128, flags: DIFlagPublic)
!1796 = !DIDerivedType(tag: DW_TAG_member, name: "DefaultMispredictPenalty", scope: !1784, file: !1747, line: 175, baseType: !856, flags: DIFlagPublic | DIFlagStaticMember, extraData: i32 10)
!1797 = !DIDerivedType(tag: DW_TAG_member, name: "CompleteModel", scope: !1784, file: !1747, line: 177, baseType: !49, size: 8, offset: 160, flags: DIFlagPublic)
!1798 = !DIDerivedType(tag: DW_TAG_member, name: "ProcID", scope: !1784, file: !1747, line: 180, baseType: !6, size: 32, offset: 192)
!1799 = !DIDerivedType(tag: DW_TAG_member, name: "ProcResourceTable", scope: !1784, file: !1747, line: 181, baseType: !1800, size: 64, offset: 256)
!1800 = !DIDerivedType(tag: DW_TAG_pointer_type, baseType: !1801, size: 64)
!1801 = !DIDerivedType(tag: DW_TAG_const_type, baseType: !1802)
!1802 = distinct !DICompositeType(tag: DW_TAG_structure_type, name: "MCProcResourceDesc", scope: !14, file: !1747, line: 26, size: 96, flags: DIFlagTypePassByValue, elements: !1803, identifier: "_ZTSN4llvm18MCProcResourceDescE")
!1803 = !{!1804, !1805, !1806, !1807}
!1804 = !DIDerivedType(tag: DW_TAG_member, name: "NumUnits", scope: !1802, file: !1747, line: 30, baseType: !6, size: 32)
!1805 = !DIDerivedType(tag: DW_TAG_member, name: "SuperIdx", scope: !1802, file: !1747, line: 31, baseType: !6, size: 32, offset: 32)
!1806 = !DIDerivedType(tag: DW_TAG_member, name: "BufferSize", scope: !1802, file: !1747, line: 40, baseType: !19, size: 32, offset: 64)
!1807 = !DISubprogram(name: "operator==", linkageName: "_ZNK4llvm18MCProcResourceDesceqERKS0_", scope: !1802, file: !1747, line: 42, type: !1808, scopeLine: 42, flags: DIFlagPrototyped, spFlags: DISPFlagOptimized)
!1808 = !DISubroutineType(types: !1809)
!1809 = !{!49, !1810, !1811}
!1810 = !DIDerivedType(tag: DW_TAG_pointer_type, baseType: !1801, size: 64, flags: DIFlagArtificial | DIFlagObjectPointer)
!1811 = !DIDerivedType(tag: DW_TAG_reference_type, baseType: !1801, size: 64)
!1812 = !DIDerivedType(tag: DW_TAG_member, name: "SchedClassTable", scope: !1784, file: !1747, line: 182, baseType: !1813, size: 64, offset: 320)
!1813 = !DIDerivedType(tag: DW_TAG_pointer_type, baseType: !1814, size: 64)
!1814 = !DIDerivedType(tag: DW_TAG_const_type, baseType: !1815)
!1815 = distinct !DICompositeType(tag: DW_TAG_structure_type, name: "MCSchedClassDesc", scope: !14, file: !1747, line: 96, size: 224, flags: DIFlagTypePassByValue, elements: !1816, identifier: "_ZTSN4llvm16MCSchedClassDescE")
!1816 = !{!1817, !1819, !1820, !1821, !1822, !1823, !1824, !1825, !1826, !1827, !1828, !1829, !1833}
!1817 = !DIDerivedType(tag: DW_TAG_member, name: "InvalidNumMicroOps", scope: !1815, file: !1747, line: 97, baseType: !1818, flags: DIFlagStaticMember, extraData: i16 -1)
!1818 = !DIDerivedType(tag: DW_TAG_const_type, baseType: !120)
!1819 = !DIDerivedType(tag: DW_TAG_member, name: "VariantNumMicroOps", scope: !1815, file: !1747, line: 98, baseType: !1818, flags: DIFlagStaticMember, extraData: i16 -2)
!1820 = !DIDerivedType(tag: DW_TAG_member, name: "NumMicroOps", scope: !1815, file: !1747, line: 103, baseType: !120, size: 16)
!1821 = !DIDerivedType(tag: DW_TAG_member, name: "BeginGroup", scope: !1815, file: !1747, line: 104, baseType: !49, size: 8, offset: 16)
!1822 = !DIDerivedType(tag: DW_TAG_member, name: "EndGroup", scope: !1815, file: !1747, line: 105, baseType: !49, size: 8, offset: 24)
!1823 = !DIDerivedType(tag: DW_TAG_member, name: "WriteProcResIdx", scope: !1815, file: !1747, line: 106, baseType: !6, size: 32, offset: 32)
!1824 = !DIDerivedType(tag: DW_TAG_member, name: "NumWriteProcResEntries", scope: !1815, file: !1747, line: 107, baseType: !6, size: 32, offset: 64)
!1825 = !DIDerivedType(tag: DW_TAG_member, name: "WriteLatencyIdx", scope: !1815, file: !1747, line: 108, baseType: !6, size: 32, offset: 96)
!1826 = !DIDerivedType(tag: DW_TAG_member, name: "NumWriteLatencyEntries", scope: !1815, file: !1747, line: 109, baseType: !6, size: 32, offset: 128)
!1827 = !DIDerivedType(tag: DW_TAG_member, name: "ReadAdvanceIdx", scope: !1815, file: !1747, line: 110, baseType: !6, size: 32, offset: 160)
!1828 = !DIDerivedType(tag: DW_TAG_member, name: "NumReadAdvanceEntries", scope: !1815, file: !1747, line: 111, baseType: !6, size: 32, offset: 192)
!1829 = !DISubprogram(name: "isValid", linkageName: "_ZNK4llvm16MCSchedClassDesc7isValidEv", scope: !1815, file: !1747, line: 113, type: !1830, scopeLine: 113, flags: DIFlagPrototyped, spFlags: DISPFlagOptimized)
!1830 = !DISubroutineType(types: !1831)
!1831 = !{!49, !1832}
!1832 = !DIDerivedType(tag: DW_TAG_pointer_type, baseType: !1814, size: 64, flags: DIFlagArtificial | DIFlagObjectPointer)
!1833 = !DISubprogram(name: "isVariant", linkageName: "_ZNK4llvm16MCSchedClassDesc9isVariantEv", scope: !1815, file: !1747, line: 116, type: !1830, scopeLine: 116, flags: DIFlagPrototyped, spFlags: DISPFlagOptimized)
!1834 = !DIDerivedType(tag: DW_TAG_member, name: "NumProcResourceKinds", scope: !1784, file: !1747, line: 183, baseType: !6, size: 32, offset: 384)
!1835 = !DIDerivedType(tag: DW_TAG_member, name: "NumSchedClasses", scope: !1784, file: !1747, line: 184, baseType: !6, size: 32, offset: 416)
!1836 = !DIDerivedType(tag: DW_TAG_member, name: "InstrItineraries", scope: !1784, file: !1747, line: 187, baseType: !1837, size: 64, offset: 448)
!1837 = !DIDerivedType(tag: DW_TAG_pointer_type, baseType: !1838, size: 64)
!1838 = !DIDerivedType(tag: DW_TAG_const_type, baseType: !1839)
!1839 = distinct !DICompositeType(tag: DW_TAG_structure_type, name: "InstrItinerary", scope: !14, file: !12, line: 98, size: 160, flags: DIFlagTypePassByValue, elements: !1840, identifier: "_ZTSN4llvm14InstrItineraryE")
!1840 = !{!1841, !1842, !1843, !1844, !1845}
!1841 = !DIDerivedType(tag: DW_TAG_member, name: "NumMicroOps", scope: !1839, file: !12, line: 99, baseType: !19, size: 32)
!1842 = !DIDerivedType(tag: DW_TAG_member, name: "FirstStage", scope: !1839, file: !12, line: 100, baseType: !6, size: 32, offset: 32)
!1843 = !DIDerivedType(tag: DW_TAG_member, name: "LastStage", scope: !1839, file: !12, line: 101, baseType: !6, size: 32, offset: 64)
!1844 = !DIDerivedType(tag: DW_TAG_member, name: "FirstOperandCycle", scope: !1839, file: !12, line: 102, baseType: !6, size: 32, offset: 96)
!1845 = !DIDerivedType(tag: DW_TAG_member, name: "LastOperandCycle", scope: !1839, file: !12, line: 103, baseType: !6, size: 32, offset: 128)
!1846 = !DISubprogram(name: "MCSchedModel", scope: !1784, file: !1747, line: 194, type: !1847, scopeLine: 194, flags: DIFlagPublic | DIFlagPrototyped, spFlags: DISPFlagOptimized)
!1847 = !DISubroutineType(types: !1848)
!1848 = !{null, !1849}
!1849 = !DIDerivedType(tag: DW_TAG_pointer_type, baseType: !1784, size: 64, flags: DIFlagArtificial | DIFlagObjectPointer)
!1850 = !DISubprogram(name: "MCSchedModel", scope: !1784, file: !1747, line: 208, type: !1851, scopeLine: 208, flags: DIFlagPublic | DIFlagPrototyped, spFlags: DISPFlagOptimized)
!1851 = !DISubroutineType(types: !1852)
!1852 = !{null, !1849, !6, !19, !6, !6, !6, !49, !6, !1800, !1813, !6, !6, !1837}
!1853 = !DISubprogram(name: "getProcessorID", linkageName: "_ZNK4llvm12MCSchedModel14getProcessorIDEv", scope: !1784, file: !1747, line: 217, type: !1854, scopeLine: 217, flags: DIFlagPublic | DIFlagPrototyped, spFlags: DISPFlagOptimized)
!1854 = !DISubroutineType(types: !1855)
!1855 = !{!6, !1856}
!1856 = !DIDerivedType(tag: DW_TAG_pointer_type, baseType: !1783, size: 64, flags: DIFlagArtificial | DIFlagObjectPointer)
!1857 = !DISubprogram(name: "hasInstrSchedModel", linkageName: "_ZNK4llvm12MCSchedModel18hasInstrSchedModelEv", scope: !1784, file: !1747, line: 220, type: !1858, scopeLine: 220, flags: DIFlagPublic | DIFlagPrototyped, spFlags: DISPFlagOptimized)
!1858 = !DISubroutineType(types: !1859)
!1859 = !{!49, !1856}
!1860 = !DISubprogram(name: "isComplete", linkageName: "_ZNK4llvm12MCSchedModel10isCompleteEv", scope: !1784, file: !1747, line: 224, type: !1858, scopeLine: 224, flags: DIFlagPublic | DIFlagPrototyped, spFlags: DISPFlagOptimized)
!1861 = !DISubprogram(name: "getNumProcResourceKinds", linkageName: "_ZNK4llvm12MCSchedModel23getNumProcResourceKindsEv", scope: !1784, file: !1747, line: 226, type: !1854, scopeLine: 226, flags: DIFlagPublic | DIFlagPrototyped, spFlags: DISPFlagOptimized)
!1862 = !DISubprogram(name: "getProcResource", linkageName: "_ZNK4llvm12MCSchedModel15getProcResourceEj", scope: !1784, file: !1747, line: 230, type: !1863, scopeLine: 230, flags: DIFlagPublic | DIFlagPrototyped, spFlags: DISPFlagOptimized)
!1863 = !DISubroutineType(types: !1864)
!1864 = !{!1800, !1856, !6}
!1865 = !DISubprogram(name: "getSchedClassDesc", linkageName: "_ZNK4llvm12MCSchedModel17getSchedClassDescEj", scope: !1784, file: !1747, line: 237, type: !1866, scopeLine: 237, flags: DIFlagPublic | DIFlagPrototyped, spFlags: DISPFlagOptimized)
!1866 = !DISubroutineType(types: !1867)
!1867 = !{!1813, !1856, !6}
!1868 = !DIDerivedType(tag: DW_TAG_member, name: "Stages", scope: !1729, file: !1730, line: 41, baseType: !1869, size: 64, offset: 704)
!1869 = !DIDerivedType(tag: DW_TAG_pointer_type, baseType: !25, size: 64)
!1870 = !DIDerivedType(tag: DW_TAG_member, name: "OperandCycles", scope: !1729, file: !1730, line: 42, baseType: !855, size: 64, offset: 768)
!1871 = !DIDerivedType(tag: DW_TAG_member, name: "ForwardingPaths", scope: !1729, file: !1730, line: 43, baseType: !855, size: 64, offset: 832)
!1872 = !DIDerivedType(tag: DW_TAG_member, name: "NumFeatures", scope: !1729, file: !1730, line: 44, baseType: !6, size: 32, offset: 896)
!1873 = !DIDerivedType(tag: DW_TAG_member, name: "NumProcs", scope: !1729, file: !1730, line: 45, baseType: !6, size: 32, offset: 928)
!1874 = !DIDerivedType(tag: DW_TAG_member, name: "FeatureBits", scope: !1729, file: !1730, line: 46, baseType: !127, size: 64, offset: 960)
!1875 = !DISubprogram(name: "InitMCSubtargetInfo", linkageName: "_ZN4llvm15MCSubtargetInfo19InitMCSubtargetInfoENS_9StringRefES1_S1_PKNS_18SubtargetFeatureKVES4_PKNS_15SubtargetInfoKVEPKNS_19MCWriteProcResEntryEPKNS_19MCWriteLatencyEntryEPKNS_18MCReadAdvanceEntryEPKNS_10InstrStageEPKjSL_jj", scope: !1729, file: !1730, line: 49, type: !1876, scopeLine: 49, flags: DIFlagPublic | DIFlagPrototyped, spFlags: DISPFlagOptimized)
!1876 = !DISubroutineType(types: !1877)
!1877 = !{null, !1878, !596, !596, !596, !1734, !1734, !1740, !1744, !1757, !1769, !1869, !855, !855, !6, !6}
!1878 = !DIDerivedType(tag: DW_TAG_pointer_type, baseType: !1729, size: 64, flags: DIFlagArtificial | DIFlagObjectPointer)
!1879 = !DISubprogram(name: "getTargetTriple", linkageName: "_ZNK4llvm15MCSubtargetInfo15getTargetTripleEv", scope: !1729, file: !1730, line: 61, type: !1880, scopeLine: 61, flags: DIFlagPublic | DIFlagPrototyped, spFlags: DISPFlagOptimized)
!1880 = !DISubroutineType(types: !1881)
!1881 = !{!596, !1882}
!1882 = !DIDerivedType(tag: DW_TAG_pointer_type, baseType: !1883, size: 64, flags: DIFlagArtificial | DIFlagObjectPointer)
!1883 = !DIDerivedType(tag: DW_TAG_const_type, baseType: !1729)
!1884 = !DISubprogram(name: "getFeatureBits", linkageName: "_ZNK4llvm15MCSubtargetInfo14getFeatureBitsEv", scope: !1729, file: !1730, line: 67, type: !1885, scopeLine: 67, flags: DIFlagPublic | DIFlagPrototyped, spFlags: DISPFlagOptimized)
!1885 = !DISubroutineType(types: !1886)
!1886 = !{!127, !1882}
!1887 = !DISubprogram(name: "InitMCProcessorInfo", linkageName: "_ZN4llvm15MCSubtargetInfo19InitMCProcessorInfoENS_9StringRefES1_", scope: !1729, file: !1730, line: 73, type: !1888, scopeLine: 73, flags: DIFlagPublic | DIFlagPrototyped, spFlags: DISPFlagOptimized)
!1888 = !DISubroutineType(types: !1889)
!1889 = !{null, !1878, !596, !596}
!1890 = !DISubprogram(name: "InitCPUSchedModel", linkageName: "_ZN4llvm15MCSubtargetInfo17InitCPUSchedModelENS_9StringRefE", scope: !1729, file: !1730, line: 76, type: !1891, scopeLine: 76, flags: DIFlagPublic | DIFlagPrototyped, spFlags: DISPFlagOptimized)
!1891 = !DISubroutineType(types: !1892)
!1892 = !{null, !1878, !596}
!1893 = !DISubprogram(name: "ToggleFeature", linkageName: "_ZN4llvm15MCSubtargetInfo13ToggleFeatureEm", scope: !1729, file: !1730, line: 80, type: !1894, scopeLine: 80, flags: DIFlagPublic | DIFlagPrototyped, spFlags: DISPFlagOptimized)
!1894 = !DISubroutineType(types: !1895)
!1895 = !{!127, !1878, !127}
!1896 = !DISubprogram(name: "ToggleFeature", linkageName: "_ZN4llvm15MCSubtargetInfo13ToggleFeatureENS_9StringRefE", scope: !1729, file: !1730, line: 84, type: !1897, scopeLine: 84, flags: DIFlagPublic | DIFlagPrototyped, spFlags: DISPFlagOptimized)
!1897 = !DISubroutineType(types: !1898)
!1898 = !{!127, !1878, !596}
!1899 = !DISubprogram(name: "getSchedModelForCPU", linkageName: "_ZNK4llvm15MCSubtargetInfo19getSchedModelForCPUENS_9StringRefE", scope: !1729, file: !1730, line: 88, type: !1900, scopeLine: 88, flags: DIFlagPublic | DIFlagPrototyped, spFlags: DISPFlagOptimized)
!1900 = !DISubroutineType(types: !1901)
!1901 = !{!1782, !1882, !596}
!1902 = !DISubprogram(name: "getSchedModel", linkageName: "_ZNK4llvm15MCSubtargetInfo13getSchedModelEv", scope: !1729, file: !1730, line: 92, type: !1903, scopeLine: 92, flags: DIFlagPublic | DIFlagPrototyped, spFlags: DISPFlagOptimized)
!1903 = !DISubroutineType(types: !1904)
!1904 = !{!1782, !1882}
!1905 = !DISubprogram(name: "getWriteProcResBegin", linkageName: "_ZNK4llvm15MCSubtargetInfo20getWriteProcResBeginEPKNS_16MCSchedClassDescE", scope: !1729, file: !1730, line: 96, type: !1906, scopeLine: 96, flags: DIFlagPublic | DIFlagPrototyped, spFlags: DISPFlagOptimized)
!1906 = !DISubroutineType(types: !1907)
!1907 = !{!1744, !1882, !1813}
!1908 = !DISubprogram(name: "getWriteProcResEnd", linkageName: "_ZNK4llvm15MCSubtargetInfo18getWriteProcResEndEPKNS_16MCSchedClassDescE", scope: !1729, file: !1730, line: 100, type: !1906, scopeLine: 100, flags: DIFlagPublic | DIFlagPrototyped, spFlags: DISPFlagOptimized)
!1909 = !DISubprogram(name: "getWriteLatencyEntry", linkageName: "_ZNK4llvm15MCSubtargetInfo20getWriteLatencyEntryEPKNS_16MCSchedClassDescEj", scope: !1729, file: !1730, line: 105, type: !1910, scopeLine: 105, flags: DIFlagPublic | DIFlagPrototyped, spFlags: DISPFlagOptimized)
!1910 = !DISubroutineType(types: !1911)
!1911 = !{!1757, !1882, !1813, !6}
!1912 = !DISubprogram(name: "getReadAdvanceCycles", linkageName: "_ZNK4llvm15MCSubtargetInfo20getReadAdvanceCyclesEPKNS_16MCSchedClassDescEjj", scope: !1729, file: !1730, line: 113, type: !1913, scopeLine: 113, flags: DIFlagPublic | DIFlagPrototyped, spFlags: DISPFlagOptimized)
!1913 = !DISubroutineType(types: !1914)
!1914 = !{!19, !1882, !1813, !6, !6}
!1915 = !DISubprogram(name: "getInstrItineraryForCPU", linkageName: "_ZNK4llvm15MCSubtargetInfo23getInstrItineraryForCPUENS_9StringRefE", scope: !1729, file: !1730, line: 134, type: !1916, scopeLine: 134, flags: DIFlagPublic | DIFlagPrototyped, spFlags: DISPFlagOptimized)
!1916 = !DISubroutineType(types: !1917)
!1917 = !{!1918, !1882, !596}
