; ModuleID = '<stdin>'
source_filename = "/faster/fs/llvm34/lib/Support/DeltaAlgorithm.cpp"
target datalayout = "e-m:e-p270:32:32-p271:32:32-p272:64:64-i64:64-f80:128-n8:16:32:64-S128"
target triple = "x86_64-unknown-linux-gnu"

%"class.std::_Rb_tree.1" = type { %"struct.std::_Rb_tree<unsigned int, unsigned int, std::_Identity<unsigned int>, std::less<unsigned int>, std::allocator<unsigned int> >::_Rb_tree_impl" }
%"struct.std::_Rb_tree<unsigned int, unsigned int, std::_Identity<unsigned int>, std::less<unsigned int>, std::allocator<unsigned int> >::_Rb_tree_impl" = type { %"struct.std::_Rb_tree_key_compare.5", %"struct.std::_Rb_tree_header" }
%"struct.std::_Rb_tree_key_compare.5" = type { %"struct.std::less.6" }
%"struct.std::less.6" = type { i8 }
%"struct.std::_Rb_tree_header" = type { %"struct.std::_Rb_tree_node_base", i64 }
%"struct.std::_Rb_tree_node_base" = type { i32, %"struct.std::_Rb_tree_node_base"*, %"struct.std::_Rb_tree_node_base"*, %"struct.std::_Rb_tree_node_base"* }
%"struct.std::_Rb_tree_node.17" = type <{ %"struct.std::_Rb_tree_node_base", %"struct.__gnu_cxx::__aligned_membuf.18", [4 x i8] }>
%"struct.__gnu_cxx::__aligned_membuf.18" = type { [4 x i8] }
%"class.std::vector" = type { %"struct.std::_Vector_base" }
%"struct.std::_Vector_base" = type { %"struct.std::_Vector_base<std::set<unsigned int, std::less<unsigned int>, std::allocator<unsigned int> >, std::allocator<std::set<unsigned int, std::less<unsigned int>, std::allocator<unsigned int> > > >::_Vector_impl" }
%"struct.std::_Vector_base<std::set<unsigned int, std::less<unsigned int>, std::allocator<unsigned int> >, std::allocator<std::set<unsigned int, std::less<unsigned int>, std::allocator<unsigned int> > > >::_Vector_impl" = type { %"class.std::set.0"*, %"class.std::set.0"*, %"class.std::set.0"* }
%"class.std::set.0" = type { %"class.std::_Rb_tree.1" }

$_ZNSt6vectorISt3setIjSt4lessIjESaIjEESaIS4_EE15_M_range_insertIN9__gnu_cxx17__normal_iteratorIPKS4_S6_EEEEvNS9_IPS4_S6_EET_SF_St20forward_iterator_tag = comdat any

@.str.1 = external hidden unnamed_addr constant [24 x i8], align 1

; Function Attrs: nounwind uwtable
declare void @_ZNSt8_Rb_treeIjjSt9_IdentityIjESt4lessIjESaIjEE8_M_eraseEPSt13_Rb_tree_nodeIjE(%"class.std::_Rb_tree.1"*, %"struct.std::_Rb_tree_node.17"*) local_unnamed_addr #0 align 2

; Function Attrs: nobuiltin nofree allocsize(0)
declare noalias nonnull i8* @_Znwm(i64) local_unnamed_addr #1

; Function Attrs: nounwind uwtable
define weak_odr void @_ZNSt6vectorISt3setIjSt4lessIjESaIjEESaIS4_EE15_M_range_insertIN9__gnu_cxx17__normal_iteratorIPKS4_S6_EEEEvNS9_IPS4_S6_EET_SF_St20forward_iterator_tag(%"class.std::vector"* %this, %"class.std::set.0"* %__position.coerce, %"class.std::set.0"* %__first.coerce, %"class.std::set.0"* %__last.coerce) local_unnamed_addr #0 comdat align 2 !dbg !2900 {
entry:
  %0 = ptrtoint %"class.std::set.0"* %__position.coerce to i64
  br i1 undef, label %if.end109, label %if.then, !dbg !2933

if.then:                                          ; preds = %entry
  %1 = ptrtoint %"class.std::set.0"* %__first.coerce to i64
  %2 = ptrtoint %"class.std::set.0"* %__last.coerce to i64
  %sub.ptr.sub.i.i.i = sub i64 %2, %1, !dbg !2934
  %sub.ptr.div.i.i.i = sdiv exact i64 %sub.ptr.sub.i.i.i, 48, !dbg !2934
  %3 = load i64, i64* undef, align 8
  %_M_finish = getelementptr inbounds %"class.std::vector", %"class.std::vector"* %this, i64 0, i32 0, i32 0, i32 1
  %4 = bitcast %"class.std::set.0"** %_M_finish to i64*
  %5 = load i64, i64* %4, align 8, !tbaa !2976
  %sub.ptr.sub = sub i64 %3, %5
  %sub.ptr.div = sdiv exact i64 %sub.ptr.sub, 48
  %cmp = icmp ult i64 %sub.ptr.div, %sub.ptr.div.i.i.i, !dbg !2982
  %6 = inttoptr i64 %5 to %"class.std::set.0"*, !dbg !2984
  br i1 %cmp, label %if.else68, label %if.then9, !dbg !2984

if.then9:                                         ; preds = %if.then
  %sub.ptr.sub.i = sub i64 %5, %0, !dbg !2985
  %sub.ptr.div.i = sdiv exact i64 %sub.ptr.sub.i, 48, !dbg !2985
  %cmp15 = icmp ult i64 %sub.ptr.div.i.i.i, %sub.ptr.div.i, !dbg !2995
  br i1 %cmp15, label %if.then16, label %if.else, !dbg !2997

if.then16:                                        ; preds = %if.then9
  %idx.neg = sub nsw i64 0, %sub.ptr.div.i.i.i, !dbg !2998
  %add.ptr = getelementptr inbounds %"class.std::set.0", %"class.std::set.0"* %6, i64 %idx.neg, !dbg !2998
  br label %_ZSt22__uninitialized_move_aIPSt3setIjSt4lessIjESaIjEES5_SaIS4_EET0_T_S8_S7_RT1_.exit

_ZSt10_ConstructISt3setIjSt4lessIjESaIjEEJS4_EEvPT_DpOT0_.exit.i.i.i.i199: ; No predecessors!
  %cmp.i.i.i.i.i.i198 = icmp eq %"class.std::set.0"* undef, %6, !dbg !3000
  ret void

_ZSt22__uninitialized_move_aIPSt3setIjSt4lessIjESaIjEES5_SaIS4_EET0_T_S8_S7_RT1_.exit: ; preds = %if.then16
  %sub.ptr.lhs.cast.i.i.i.i209 = ptrtoint %"class.std::set.0"* %add.ptr to i64, !dbg !3064
  %sub.ptr.sub.i.i.i.i211 = sub i64 %sub.ptr.lhs.cast.i.i.i.i209, %0, !dbg !3064
  %cmp7.i.i.i.i = icmp sgt i64 %sub.ptr.sub.i.i.i.i211, 0, !dbg !3105
  br i1 %cmp7.i.i.i.i, label %for.body.preheader.i.i.i.i212, label %_ZSt13move_backwardIPSt3setIjSt4lessIjESaIjEES5_ET0_T_S7_S6_.exit, !dbg !3107

for.body.preheader.i.i.i.i212:                    ; preds = %_ZSt22__uninitialized_move_aIPSt3setIjSt4lessIjESaIjEES5_SaIS4_EET0_T_S8_S7_RT1_.exit
  %sub.ptr.div11.i.i.i.i = udiv exact i64 %sub.ptr.sub.i.i.i.i211, 48, !dbg !3064
  br label %for.body.i.i.i.i221, !dbg !3107

for.body.i.i.i.i221:                              ; preds = %_ZNSt3setIjSt4lessIjESaIjEEaSEOS3_.exit.i.i.i.i, %for.body.preheader.i.i.i.i212
  %__n.010.i.i.i.i = phi i64 [ %dec.i.i.i.i222, %_ZNSt3setIjSt4lessIjESaIjEEaSEOS3_.exit.i.i.i.i ], [ %sub.ptr.div11.i.i.i.i, %for.body.preheader.i.i.i.i212 ]
  %__result.addr.09.i.i.i.i = phi %"class.std::set.0"* [ %incdec.ptr1.i.i.i.i214, %_ZNSt3setIjSt4lessIjESaIjEEaSEOS3_.exit.i.i.i.i ], [ %6, %for.body.preheader.i.i.i.i212 ]
  %__last.addr.08.i.i.i.i = phi %"class.std::set.0"* [ %incdec.ptr.i.i.i.i213, %_ZNSt3setIjSt4lessIjESaIjEEaSEOS3_.exit.i.i.i.i ], [ %add.ptr, %for.body.preheader.i.i.i.i212 ]
  %incdec.ptr.i.i.i.i213 = getelementptr inbounds %"class.std::set.0", %"class.std::set.0"* %__last.addr.08.i.i.i.i, i64 -1, !dbg !3108
  %incdec.ptr1.i.i.i.i214 = getelementptr inbounds %"class.std::set.0", %"class.std::set.0"* %__result.addr.09.i.i.i.i, i64 -1, !dbg !3109
  %_M_t.i.i.i.i.i215 = getelementptr inbounds %"class.std::set.0", %"class.std::set.0"* %incdec.ptr1.i.i.i.i214, i64 0, i32 0, !dbg !3110
  %7 = getelementptr inbounds %"class.std::set.0", %"class.std::set.0"* %incdec.ptr1.i.i.i.i214, i64 0, i32 0, i32 0, i32 0, i32 0, i32 0
  %_M_parent.i.i.i.i.i.i.i.i.i216 = getelementptr inbounds i8, i8* %7, i64 16
  %8 = bitcast i8* %_M_parent.i.i.i.i.i.i.i.i.i216 to %"struct.std::_Rb_tree_node.17"**
  %9 = load %"struct.std::_Rb_tree_node.17"*, %"struct.std::_Rb_tree_node.17"** %8, align 8, !tbaa !3117
  tail call void @_ZNSt8_Rb_treeIjjSt9_IdentityIjESt4lessIjESaIjEE8_M_eraseEPSt13_Rb_tree_nodeIjE(%"class.std::_Rb_tree.1"* nonnull %_M_t.i.i.i.i.i215, %"struct.std::_Rb_tree_node.17"* %9) #3
  %add.ptr.i.i.i.i.i.i.i.i217 = getelementptr inbounds i8, i8* %7, i64 8, !dbg !3122
  %_M_left.i.i.i.i.i.i.i.i.i218 = getelementptr inbounds i8, i8* %7, i64 24, !dbg !3139
  %10 = bitcast i8* %_M_left.i.i.i.i.i.i.i.i.i218 to i8**
  store i8* %add.ptr.i.i.i.i.i.i.i.i217, i8** %10, align 8, !tbaa !3145
  %11 = getelementptr inbounds %"class.std::set.0", %"class.std::set.0"* %incdec.ptr.i.i.i.i213, i64 0, i32 0, i32 0, i32 0, i32 0, i32 0, !dbg !3146
  %_M_parent.i.i.i.i.i.i.i.i = getelementptr inbounds i8, i8* %11, i64 16, !dbg !3152
  %12 = bitcast i8* %_M_parent.i.i.i.i.i.i.i.i to %"struct.std::_Rb_tree_node_base"**, !dbg !3152
  %13 = load %"struct.std::_Rb_tree_node_base"*, %"struct.std::_Rb_tree_node_base"** %12, align 8, !tbaa !3153
  %cmp.i.i.i.i.i.i.i = icmp eq %"struct.std::_Rb_tree_node_base"* %13, null
  br i1 %cmp.i.i.i.i.i.i.i, label %_ZNSt3setIjSt4lessIjESaIjEEaSEOS3_.exit.i.i.i.i, label %if.then.i.i.i.i.i.i.i

if.then.i.i.i.i.i.i.i:                            ; preds = %for.body.i.i.i.i221
  %add.ptr3.i.i.i.i.i.i.i.i = getelementptr inbounds i8, i8* %11, i64 8, !dbg !3154
  %_M_right.i.i9.i.i.i.i.i.i.i = getelementptr inbounds i8, i8* %11, i64 32
  %14 = bitcast i8* %_M_left.i.i.i.i.i.i.i.i.i218 to <2 x i64>*
  %15 = bitcast i8* %_M_right.i.i9.i.i.i.i.i.i.i to i8**
  store i8* %add.ptr3.i.i.i.i.i.i.i.i, i8** %15, align 8, !tbaa !3161
  br label %_ZNSt3setIjSt4lessIjESaIjEEaSEOS3_.exit.i.i.i.i

_ZNSt3setIjSt4lessIjESaIjEEaSEOS3_.exit.i.i.i.i:  ; preds = %if.then.i.i.i.i.i.i.i, %for.body.i.i.i.i221
  %dec.i.i.i.i222 = add nsw i64 %__n.010.i.i.i.i, -1
  %cmp.i.i.i.i223 = icmp sgt i64 %__n.010.i.i.i.i, 1, !dbg !3105
  br i1 %cmp.i.i.i.i223, label %for.body.i.i.i.i221, label %_ZSt13move_backwardIPSt3setIjSt4lessIjESaIjEES5_ET0_T_S7_S6_.exit, !dbg !3107, !llvm.loop !3162

_ZSt13move_backwardIPSt3setIjSt4lessIjESaIjEES5_ET0_T_S7_S6_.exit: ; preds = %_ZNSt3setIjSt4lessIjESaIjEEaSEOS3_.exit.i.i.i.i, %_ZSt22__uninitialized_move_aIPSt3setIjSt4lessIjESaIjEES5_SaIS4_EET0_T_S8_S7_RT1_.exit
  call void @llvm.dbg.value(metadata %"class.std::set.0"* %__position.coerce, metadata !3164, metadata !DIExpression()) #3, !dbg !3180
  br i1 undef, label %for.body.preheader.i.i.i.i230, label %if.end109, !dbg !3209

for.body.preheader.i.i.i.i230:                    ; preds = %_ZSt13move_backwardIPSt3setIjSt4lessIjESaIjEES5_ET0_T_S7_S6_.exit
  %sub.ptr.div12.i.i.i.i229 = udiv exact i64 %sub.ptr.sub.i.i.i, 48, !dbg !3211
  br label %for.body.i.i.i.i241, !dbg !3209

for.body.i.i.i.i241:                              ; preds = %for.body.i.i.i.i241, %for.body.preheader.i.i.i.i230
  %__n.011.i.i.i.i231 = phi i64 [ undef, %for.body.i.i.i.i241 ], [ %sub.ptr.div12.i.i.i.i229, %for.body.preheader.i.i.i.i230 ]
  %__result.addr.010.i.i.i.i232 = phi %"class.std::set.0"* [ %incdec.ptr1.i.i.i.i238, %for.body.i.i.i.i241 ], [ %__position.coerce, %for.body.preheader.i.i.i.i230 ]
  %__first.addr.09.i.i.i.i233 = phi %"class.std::set.0"* [ %incdec.ptr.i.i.i.i237, %for.body.i.i.i.i241 ], [ %__first.coerce, %for.body.preheader.i.i.i.i230 ]
  %_M_t.i.i.i.i.i234 = getelementptr inbounds %"class.std::set.0", %"class.std::set.0"* %__result.addr.010.i.i.i.i232, i64 0, i32 0, !dbg !3212
  %_M_t2.i.i.i.i.i235 = getelementptr inbounds %"class.std::set.0", %"class.std::set.0"* %__first.addr.09.i.i.i.i233, i64 0, i32 0, !dbg !3212
  %incdec.ptr.i.i.i.i237 = getelementptr inbounds %"class.std::set.0", %"class.std::set.0"* %__first.addr.09.i.i.i.i233, i64 1
  %incdec.ptr1.i.i.i.i238 = getelementptr inbounds %"class.std::set.0", %"class.std::set.0"* %__result.addr.010.i.i.i.i232, i64 1
  %cmp.i.i.i.i240 = icmp sgt i64 %__n.011.i.i.i.i231, 1, !dbg !3221
  br i1 %cmp.i.i.i.i240, label %for.body.i.i.i.i241, label %if.end109, !dbg !3209, !llvm.loop !3222

if.else:                                          ; preds = %if.then9
  ret void

if.else68:                                        ; preds = %if.then
  br label %_ZNKSt6vectorISt3setIjSt4lessIjESaIjEESaIS4_EE12_M_check_lenEmPKc.exit

_ZNKSt6vectorISt3setIjSt4lessIjESaIjEESaIS4_EE12_M_check_lenEmPKc.exit: ; preds = %if.else68
  br i1 undef, label %_ZNSt12_Vector_baseISt3setIjSt4lessIjESaIjEESaIS4_EE11_M_allocateEm.exit, label %_ZNSt16allocator_traitsISaISt3setIjSt4lessIjESaIjEEEE8allocateERS5_m.exit.i, !dbg !3224

_ZNSt16allocator_traitsISaISt3setIjSt4lessIjESaIjEEEE8allocateERS5_m.exit.i: ; preds = %_ZNKSt6vectorISt3setIjSt4lessIjESaIjEESaIS4_EE12_M_check_lenEmPKc.exit
  %call2.i.i.i = tail call noalias nonnull i8* @_Znwm(i64 undef) #4
  %.pre318 = load %"class.std::set.0"*, %"class.std::set.0"** undef, align 8, !dbg !3232, !tbaa !3235
  br label %_ZNSt12_Vector_baseISt3setIjSt4lessIjESaIjEESaIS4_EE11_M_allocateEm.exit, !dbg !3224

_ZNSt12_Vector_baseISt3setIjSt4lessIjESaIjEESaIS4_EE11_M_allocateEm.exit: ; preds = %_ZNSt16allocator_traitsISaISt3setIjSt4lessIjESaIjEEEE8allocateERS5_m.exit.i, %_ZNKSt6vectorISt3setIjSt4lessIjESaIjEESaIS4_EE12_M_check_lenEmPKc.exit
  %16 = phi %"class.std::set.0"* [ %.pre318, %_ZNSt16allocator_traitsISaISt3setIjSt4lessIjESaIjEEEE8allocateERS5_m.exit.i ], [ undef, %_ZNKSt6vectorISt3setIjSt4lessIjESaIjEESaIS4_EE12_M_check_lenEmPKc.exit ], !dbg !3232
  br i1 undef, label %for.body.lr.ph.i.i.i, label %for.body.i.i.i.i147, !dbg !3236

for.body.i.i.i.i147:                              ; preds = %_ZSt10_ConstructISt3setIjSt4lessIjESaIjEEJS4_EEvPT_DpOT0_.exit.i.i.i.i167, %_ZNSt12_Vector_baseISt3setIjSt4lessIjESaIjEESaIS4_EE11_M_allocateEm.exit
  %__cur.012.i.i.i.i142 = phi %"class.std::set.0"* [ %incdec.ptr.i.i.i.i165, %_ZSt10_ConstructISt3setIjSt4lessIjESaIjEEJS4_EEvPT_DpOT0_.exit.i.i.i.i167 ], [ undef, %_ZNSt12_Vector_baseISt3setIjSt4lessIjESaIjEESaIS4_EE11_M_allocateEm.exit ]
  %__first.sroa.0.011.i.i.i.i143 = phi %"class.std::set.0"* [ %incdec.ptr.i.i.i.i.i164, %_ZSt10_ConstructISt3setIjSt4lessIjESaIjEEJS4_EEvPT_DpOT0_.exit.i.i.i.i167 ], [ %16, %_ZNSt12_Vector_baseISt3setIjSt4lessIjESaIjEESaIS4_EE11_M_allocateEm.exit ]
  %17 = getelementptr inbounds %"class.std::set.0", %"class.std::set.0"* %__cur.012.i.i.i.i142, i64 0, i32 0, i32 0, i32 0, i32 0, i32 0, !dbg !3247
  %18 = getelementptr inbounds i8, i8* %17, i64 8, !dbg !3247
  %19 = getelementptr inbounds %"class.std::set.0", %"class.std::set.0"* %__first.sroa.0.011.i.i.i.i143, i64 0, i32 0, i32 0, i32 0, i32 0, i32 0, !dbg !3277
  %add.ptr.i.i.i.i.i.i.i.i144 = getelementptr inbounds i8, i8* %19, i64 8, !dbg !3277
  br i1 undef, label %if.else.i.i.i.i.i.i.i.i.i162, label %if.then.i.i.i.i.i.i.i.i.i157

if.then.i.i.i.i.i.i.i.i.i157:                     ; preds = %for.body.i.i.i.i147
  %_M_color.i.i.i.i.i.i.i.i.i.i148 = bitcast i8* %add.ptr.i.i.i.i.i.i.i.i144 to i32*, !dbg !3278
  %20 = load i32, i32* %_M_color.i.i.i.i.i.i.i.i.i.i148, align 8, !dbg !3278, !tbaa !3291
  %_M_parent6.i.i.i.i.i.i.i.i.i.i149 = getelementptr inbounds i8, i8* %17, i64 16, !dbg !3292
  store i8* %18, i8** undef, align 8
  %_M_node_count.i.i.i.i.i.i.i.i.i.i155 = getelementptr inbounds i8, i8* %19, i64 40, !dbg !3293
  %21 = bitcast i8* %_M_node_count.i.i.i.i.i.i.i.i.i.i155 to i64*, !dbg !3293
  %22 = load i64, i64* %21, align 8, !dbg !3293, !tbaa !3294
  store i8* %add.ptr.i.i.i.i.i.i.i.i144, i8** undef, align 8, !dbg !3295, !tbaa !3145
  br label %_ZSt10_ConstructISt3setIjSt4lessIjESaIjEEJS4_EEvPT_DpOT0_.exit.i.i.i.i167, !dbg !3297

if.else.i.i.i.i.i.i.i.i.i162:                     ; preds = %for.body.i.i.i.i147
  br label %_ZSt10_ConstructISt3setIjSt4lessIjESaIjEEJS4_EEvPT_DpOT0_.exit.i.i.i.i167

_ZSt10_ConstructISt3setIjSt4lessIjESaIjEEJS4_EEvPT_DpOT0_.exit.i.i.i.i167: ; preds = %if.else.i.i.i.i.i.i.i.i.i162, %if.then.i.i.i.i.i.i.i.i.i157
  %.sink323 = phi i64* [ undef, %if.else.i.i.i.i.i.i.i.i.i162 ], [ %21, %if.then.i.i.i.i.i.i.i.i.i157 ]
  %.sink.i.i.i.i.i.i.i.i.i163 = phi i32 [ 0, %if.else.i.i.i.i.i.i.i.i.i162 ], [ %20, %if.then.i.i.i.i.i.i.i.i.i157 ]
  store i64 0, i64* %.sink323, align 8, !tbaa !3294
  %23 = bitcast i8* %18 to i32*
  store i32 %.sink.i.i.i.i.i.i.i.i.i163, i32* %23, align 8
  %incdec.ptr.i.i.i.i.i164 = getelementptr inbounds %"class.std::set.0", %"class.std::set.0"* %__first.sroa.0.011.i.i.i.i143, i64 1, !dbg !3298
  %incdec.ptr.i.i.i.i165 = getelementptr inbounds %"class.std::set.0", %"class.std::set.0"* %__cur.012.i.i.i.i142, i64 1, !dbg !3304
  %cmp.i.i.i.i.i.i166 = icmp eq %"class.std::set.0"* %incdec.ptr.i.i.i.i.i164, %__position.coerce, !dbg !3305
  br i1 %cmp.i.i.i.i.i.i166, label %for.body.lr.ph.i.i.i, label %for.body.i.i.i.i147, !dbg !3236, !llvm.loop !3308

for.body.lr.ph.i.i.i:                             ; preds = %_ZSt10_ConstructISt3setIjSt4lessIjESaIjEEJS4_EEvPT_DpOT0_.exit.i.i.i.i167, %_ZNSt12_Vector_baseISt3setIjSt4lessIjESaIjEESaIS4_EE11_M_allocateEm.exit
  %__cur.0.lcssa.i.i.i.i168 = phi %"class.std::set.0"* [ undef, %_ZNSt12_Vector_baseISt3setIjSt4lessIjESaIjEESaIS4_EE11_M_allocateEm.exit ], [ %incdec.ptr.i.i.i.i165, %_ZSt10_ConstructISt3setIjSt4lessIjESaIjEEJS4_EEvPT_DpOT0_.exit.i.i.i.i167 ], !dbg !3310
  br label %for.body.i.i.i136, !dbg !3311

for.body.i.i.i136:                                ; preds = %_ZSt10_ConstructISt3setIjSt4lessIjESaIjEEJRKS4_EEvPT_DpOT0_.exit.i.i.i, %for.body.lr.ph.i.i.i
  %__cur.012.i.i.i = phi %"class.std::set.0"* [ %__cur.0.lcssa.i.i.i.i168, %for.body.lr.ph.i.i.i ], [ %incdec.ptr.i.i.i140, %_ZSt10_ConstructISt3setIjSt4lessIjESaIjEEJRKS4_EEvPT_DpOT0_.exit.i.i.i ]
  %__first.sroa.0.011.i.i.i = phi %"class.std::set.0"* [ %__first.coerce, %for.body.lr.ph.i.i.i ], [ %incdec.ptr.i.i.i.i139, %_ZSt10_ConstructISt3setIjSt4lessIjESaIjEEJRKS4_EEvPT_DpOT0_.exit.i.i.i ]
  br i1 undef, label %_ZSt10_ConstructISt3setIjSt4lessIjESaIjEEJRKS4_EEvPT_DpOT0_.exit.i.i.i, label %if.then.i.i.i.i.i.i, !dbg !3343

if.then.i.i.i.i.i.i:                              ; preds = %for.body.i.i.i136
  br label %while.cond.i.i17.i.i.i.i.i.i.i.i, !dbg !3367

while.cond.i.i17.i.i.i.i.i.i.i.i:                 ; preds = %while.cond.i.i17.i.i.i.i.i.i.i.i, %if.then.i.i.i.i.i.i
  %cmp.i.i16.i.i.i.i.i.i.i.i = icmp eq %"struct.std::_Rb_tree_node_base"* undef, null, !dbg !3403
  br i1 %cmp.i.i16.i.i.i.i.i.i.i.i, label %_ZNSt8_Rb_treeIjjSt9_IdentityIjESt4lessIjESaIjEE10_S_minimumEPSt18_Rb_tree_node_base.exit.i.i.i.i.i.i.i.i, label %while.cond.i.i17.i.i.i.i.i.i.i.i, !dbg !3367, !llvm.loop !3404

_ZNSt8_Rb_treeIjjSt9_IdentityIjESt4lessIjESaIjEE10_S_minimumEPSt18_Rb_tree_node_base.exit.i.i.i.i.i.i.i.i: ; preds = %while.cond.i.i17.i.i.i.i.i.i.i.i
  br label %while.cond.i.i.i.i.i.i.i.i.i.i, !dbg !3406

while.cond.i.i.i.i.i.i.i.i.i.i:                   ; preds = %while.cond.i.i.i.i.i.i.i.i.i.i, %_ZNSt8_Rb_treeIjjSt9_IdentityIjESt4lessIjESaIjEE10_S_minimumEPSt18_Rb_tree_node_base.exit.i.i.i.i.i.i.i.i
  br i1 undef, label %_ZNSt8_Rb_treeIjjSt9_IdentityIjESt4lessIjESaIjEE7_M_copyERKS5_.exit.i.i.i.i.i.i, label %while.cond.i.i.i.i.i.i.i.i.i.i, !dbg !3406, !llvm.loop !3415

_ZNSt8_Rb_treeIjjSt9_IdentityIjESt4lessIjESaIjEE7_M_copyERKS5_.exit.i.i.i.i.i.i: ; preds = %while.cond.i.i.i.i.i.i.i.i.i.i
  br label %_ZSt10_ConstructISt3setIjSt4lessIjESaIjEEJRKS4_EEvPT_DpOT0_.exit.i.i.i, !dbg !3417

_ZSt10_ConstructISt3setIjSt4lessIjESaIjEEJRKS4_EEvPT_DpOT0_.exit.i.i.i: ; preds = %_ZNSt8_Rb_treeIjjSt9_IdentityIjESt4lessIjESaIjEE7_M_copyERKS5_.exit.i.i.i.i.i.i, %for.body.i.i.i136
  %incdec.ptr.i.i.i.i139 = getelementptr inbounds %"class.std::set.0", %"class.std::set.0"* %__first.sroa.0.011.i.i.i, i64 1, !dbg !3418
  %incdec.ptr.i.i.i140 = getelementptr inbounds %"class.std::set.0", %"class.std::set.0"* %__cur.012.i.i.i, i64 1, !dbg !3424
  %cmp.i.i.i.i = icmp eq %"class.std::set.0"* %incdec.ptr.i.i.i.i139, %__last.coerce, !dbg !3425
  br i1 %cmp.i.i.i.i, label %_ZSt22__uninitialized_copy_aIN9__gnu_cxx17__normal_iteratorIPKSt3setIjSt4lessIjESaIjEESt6vectorIS6_SaIS6_EEEEPS6_S6_ET0_T_SF_SE_RSaIT1_E.exit, label %for.body.i.i.i136, !dbg !3311, !llvm.loop !3433

_ZSt22__uninitialized_copy_aIN9__gnu_cxx17__normal_iteratorIPKSt3setIjSt4lessIjESaIjEESt6vectorIS6_SaIS6_EEEEPS6_S6_ET0_T_SF_SE_RSaIT1_E.exit: ; preds = %_ZSt10_ConstructISt3setIjSt4lessIjESaIjEEJRKS4_EEvPT_DpOT0_.exit.i.i.i
  br label %_ZSt34__uninitialized_move_if_noexcept_aIPSt3setIjSt4lessIjESaIjEES5_SaIS4_EET0_T_S8_S7_RT1_.exit

_ZSt34__uninitialized_move_if_noexcept_aIPSt3setIjSt4lessIjESaIjEES5_SaIS4_EET0_T_S8_S7_RT1_.exit: ; preds = %_ZSt22__uninitialized_copy_aIN9__gnu_cxx17__normal_iteratorIPKSt3setIjSt4lessIjESaIjEESt6vectorIS6_SaIS6_EEEEPS6_S6_ET0_T_SF_SE_RSaIT1_E.exit
  %24 = load %"class.std::set.0"*, %"class.std::set.0"** undef, align 8, !dbg !3435, !tbaa !3235
  br i1 undef, label %_ZSt8_DestroyIPSt3setIjSt4lessIjESaIjEES4_EvT_S6_RSaIT0_E.exit, label %for.body.i.i.i, !dbg !3436

for.body.i.i.i:                                   ; preds = %for.body.i.i.i, %_ZSt34__uninitialized_move_if_noexcept_aIPSt3setIjSt4lessIjESaIjEES5_SaIS4_EET0_T_S8_S7_RT1_.exit
  %__first.addr.04.i.i.i = phi %"class.std::set.0"* [ %incdec.ptr.i.i.i, %for.body.i.i.i ], [ %24, %_ZSt34__uninitialized_move_if_noexcept_aIPSt3setIjSt4lessIjESaIjEES5_SaIS4_EET0_T_S8_S7_RT1_.exit ]
  call void @_ZNSt8_Rb_treeIjjSt9_IdentityIjESt4lessIjESaIjEE8_M_eraseEPSt13_Rb_tree_nodeIjE(%"class.std::_Rb_tree.1"* undef, %"struct.std::_Rb_tree_node.17"* undef) #3, !dbg !3463
  %incdec.ptr.i.i.i = getelementptr inbounds %"class.std::set.0", %"class.std::set.0"* %__first.addr.04.i.i.i, i64 1, !dbg !3481
  %cmp.i.i.i = icmp eq %"class.std::set.0"* %incdec.ptr.i.i.i, %__position.coerce, !dbg !3482
  br i1 %cmp.i.i.i, label %_ZSt8_DestroyIPSt3setIjSt4lessIjESaIjEES4_EvT_S6_RSaIT0_E.exitthread-pre-split, label %for.body.i.i.i, !dbg !3436, !llvm.loop !3483

_ZSt8_DestroyIPSt3setIjSt4lessIjESaIjEES4_EvT_S6_RSaIT0_E.exitthread-pre-split: ; preds = %for.body.i.i.i
  br label %_ZSt8_DestroyIPSt3setIjSt4lessIjESaIjEES4_EvT_S6_RSaIT0_E.exit, !dbg !3485

_ZSt8_DestroyIPSt3setIjSt4lessIjESaIjEES4_EvT_S6_RSaIT0_E.exit: ; preds = %_ZSt8_DestroyIPSt3setIjSt4lessIjESaIjEES4_EvT_S6_RSaIT0_E.exitthread-pre-split, %_ZSt34__uninitialized_move_if_noexcept_aIPSt3setIjSt4lessIjESaIjEES5_SaIS4_EET0_T_S8_S7_RT1_.exit
  br label %_ZNSt12_Vector_baseISt3setIjSt4lessIjESaIjEESaIS4_EE13_M_deallocateEPS4_m.exit

_ZNSt12_Vector_baseISt3setIjSt4lessIjESaIjEESaIS4_EE13_M_deallocateEPS4_m.exit: ; preds = %_ZSt8_DestroyIPSt3setIjSt4lessIjESaIjEES4_EvT_S6_RSaIT0_E.exit
  store %"class.std::set.0"* %incdec.ptr.i.i.i140, %"class.std::set.0"** %_M_finish, align 8, !tbaa !2976
  br label %if.end109

if.end109:                                        ; preds = %_ZNSt12_Vector_baseISt3setIjSt4lessIjESaIjEESaIS4_EE13_M_deallocateEPS4_m.exit, %for.body.i.i.i.i241, %_ZSt13move_backwardIPSt3setIjSt4lessIjESaIjEES5_ET0_T_S7_S6_.exit, %entry
  ret void, !dbg !3486
}

; Function Attrs: nounwind readnone speculatable willreturn
declare void @llvm.dbg.value(metadata, metadata, metadata) #2

attributes #0 = { nounwind uwtable "correctly-rounded-divide-sqrt-fp-math"="false" "denormal-fp-math"="ieee,ieee" "denormal-fp-math-f32"="ieee,ieee" "disable-tail-calls"="false" "frame-pointer"="none" "less-precise-fpmad"="false" "min-legal-vector-width"="0" "no-infs-fp-math"="false" "no-jump-tables"="false" "no-nans-fp-math"="false" "no-signed-zeros-fp-math"="false" "no-trapping-math"="false" "stack-protector-buffer-size"="8" "target-cpu"="x86-64" "target-features"="+cx8,+fxsr,+mmx,+sse,+sse2,+x87" "unsafe-fp-math"="false" "use-soft-float"="false" }
attributes #1 = { nobuiltin nofree allocsize(0) "correctly-rounded-divide-sqrt-fp-math"="false" "denormal-fp-math"="ieee,ieee" "denormal-fp-math-f32"="ieee,ieee" "disable-tail-calls"="false" "frame-pointer"="none" "less-precise-fpmad"="false" "no-infs-fp-math"="false" "no-nans-fp-math"="false" "no-signed-zeros-fp-math"="false" "no-trapping-math"="false" "stack-protector-buffer-size"="8" "target-cpu"="x86-64" "target-features"="+cx8,+fxsr,+mmx,+sse,+sse2,+x87" "unsafe-fp-math"="false" "use-soft-float"="false" }
attributes #2 = { nounwind readnone speculatable willreturn }
attributes #3 = { nounwind }
attributes #4 = { nounwind allocsize(0) }

!llvm.dbg.cu = !{!0}
!llvm.module.flags = !{!2895, !2896, !2897, !2898}
!llvm.ident = !{!2899}

!0 = distinct !DICompileUnit(language: DW_LANG_C_plus_plus_14, file: !1, producer: "clang version 11.0.0 (git@github.com:llvm/llvm-project 5a58db2c60248ec46f47a51e3ffe2a9b9f4fdaa9)", isOptimized: true, runtimeVersion: 0, emissionKind: FullDebug, enums: !2, retainedTypes: !10, imports: !1981, splitDebugInlining: false, nameTableKind: None)
!1 = !DIFile(filename: "/faster/fs/llvm34/lib/Support/DeltaAlgorithm.cpp", directory: "/fast/fs/build34reldebinfo")
!2 = !{!3}
!3 = distinct !DICompositeType(tag: DW_TAG_enumeration_type, name: "_Rb_tree_color", scope: !5, file: !4, line: 99, baseType: !6, size: 32, elements: !7, identifier: "_ZTSSt14_Rb_tree_color")
!4 = !DIFile(filename: "/usr/lib/gcc/x86_64-linux-gnu/7.5.0/../../../../include/c++/7.5.0/bits/stl_tree.h", directory: "")
!5 = !DINamespace(name: "std", scope: null)
!6 = !DIBasicType(name: "unsigned int", size: 32, encoding: DW_ATE_unsigned)
!7 = !{!8, !9}
!8 = !DIEnumerator(name: "_S_red", value: 0, isUnsigned: true)
!9 = !DIEnumerator(name: "_S_black", value: 1, isUnsigned: true)
!10 = !{!11, !1496, !33, !149, !1497, !324, !1501, !57, !70, !199, !1502, !63, !161, !347, !1249, !961, !1200, !460, !1335, !1078, !1505, !550, !1506, !1508, !1588, !1896, !1946, !1653, !477, !1947, !1948, !1843, !1654}
!11 = !DIDerivedType(tag: DW_TAG_typedef, name: "_Link_type", scope: !12, file: !4, line: 454, baseType: !1078)
!12 = distinct !DICompositeType(tag: DW_TAG_class_type, name: "_Rb_tree<std::set<unsigned int, std::less<unsigned int>, std::allocator<unsigned int> >, std::set<unsigned int, std::less<unsigned int>, std::allocator<unsigned int> >, std::_Identity<std::set<unsigned int, std::less<unsigned int>, std::allocator<unsigned int> > >, std::less<std::set<unsigned int, std::less<unsigned int>, std::allocator<unsigned int> > >, std::allocator<std::set<unsigned int, std::less<unsigned int>, std::allocator<unsigned int> > > >", scope: !5, file: !4, line: 444, size: 384, flags: DIFlagTypePassByReference | DIFlagNonTrivial, elements: !13, templateParams: !1477, identifier: "_ZTSSt8_Rb_treeISt3setIjSt4lessIjESaIjEES4_St9_IdentityIS4_ES1_IS4_ESaIS4_EE")
!13 = !{!14, !1162, !1167, !1174, !1178, !1181, !1184, !1185, !1186, !1189, !1192, !1193, !1194, !1195, !1196, !1197, !1201, !1204, !1205, !1212, !1215, !1218, !1221, !1222, !1223, !1226, !1229, !1233, !1237, !1238, !1239, !1245, !1246, !1331, !1332, !1336, !1339, !1342, !1346, !1347, !1350, !1353, !1354, !1355, !1358, !1363, !1366, !1369, !1372, !1376, !1379, !1382, !1383, !1387, !1390, !1393, !1396, !1397, !1398, !1403, !1408, !1409, !1410, !1413, !1416, !1417, !1420, !1423, !1426, !1429, !1432, !1436, !1439, !1443, !1444, !1447, !1450, !1453, !1454, !1455, !1456, !1457, !1461, !1465, !1466, !1469, !1472, !1475, !1476}
!14 = !DIDerivedType(tag: DW_TAG_member, name: "_M_impl", scope: !12, file: !4, line: 708, baseType: !15, size: 384, flags: DIFlagProtected)
!15 = distinct !DICompositeType(tag: DW_TAG_structure_type, name: "_Rb_tree_impl<std::less<std::set<unsigned int, std::less<unsigned int>, std::allocator<unsigned int> > >, true>", scope: !12, file: !4, line: 677, size: 384, flags: DIFlagTypePassByReference | DIFlagNonTrivial, elements: !16, templateParams: !1161, identifier: "_ZTSNSt8_Rb_treeISt3setIjSt4lessIjESaIjEES4_St9_IdentityIS4_ES1_IS4_ESaIS4_EE13_Rb_tree_implIS7_Lb1EEE")
!16 = !{!17, !1108, !1143, !1144, !1148, !1152, !1157}
!17 = !DIDerivedType(tag: DW_TAG_inheritance, scope: !15, baseType: !18, extraData: i32 0)
!18 = !DIDerivedType(tag: DW_TAG_typedef, name: "_Node_allocator", scope: !12, file: !4, line: 447, baseType: !19)
!19 = !DIDerivedType(tag: DW_TAG_typedef, name: "other", scope: !21, file: !20, line: 117, baseType: !1057)
!20 = !DIFile(filename: "/usr/lib/gcc/x86_64-linux-gnu/7.5.0/../../../../include/c++/7.5.0/ext/alloc_traits.h", directory: "")
!21 = distinct !DICompositeType(tag: DW_TAG_structure_type, name: "rebind<std::_Rb_tree_node<std::set<unsigned int, std::less<unsigned int>, std::allocator<unsigned int> > > >", scope: !22, file: !20, line: 116, size: 8, flags: DIFlagTypePassByValue, elements: !103, templateParams: !1013, identifier: "_ZTSN9__gnu_cxx14__alloc_traitsISaISt3setIjSt4lessIjESaIjEEEE6rebindISt13_Rb_tree_nodeIS5_EEE")
!22 = distinct !DICompositeType(tag: DW_TAG_structure_type, name: "__alloc_traits<std::allocator<std::set<unsigned int, std::less<unsigned int>, std::allocator<unsigned int> > > >", scope: !23, file: !20, line: 50, size: 8, flags: DIFlagTypePassByValue, elements: !24, templateParams: !999, identifier: "_ZTSN9__gnu_cxx14__alloc_traitsISaISt3setIjSt4lessIjESaIjEEEEE")
!23 = !DINamespace(name: "__gnu_cxx", scope: null)
!24 = !{!25, !1001, !1004, !1008, !1009, !1010, !1011, !1012}
!25 = !DIDerivedType(tag: DW_TAG_inheritance, scope: !22, baseType: !26, extraData: i32 0)
!26 = distinct !DICompositeType(tag: DW_TAG_structure_type, name: "allocator_traits<std::allocator<std::set<unsigned int, std::less<unsigned int>, std::allocator<unsigned int> > > >", scope: !5, file: !27, line: 384, size: 8, flags: DIFlagTypePassByValue, elements: !28, templateParams: !999, identifier: "_ZTSSt16allocator_traitsISaISt3setIjSt4lessIjESaIjEEEE")
!27 = !DIFile(filename: "/usr/lib/gcc/x86_64-linux-gnu/7.5.0/../../../../include/c++/7.5.0/bits/alloc_traits.h", directory: "")
!28 = !{!29, !984, !987, !990, !996}
!29 = !DISubprogram(name: "allocate", linkageName: "_ZNSt16allocator_traitsISaISt3setIjSt4lessIjESaIjEEEE8allocateERS5_m", scope: !26, file: !27, line: 435, type: !30, scopeLine: 435, flags: DIFlagPrototyped | DIFlagStaticMember, spFlags: DISPFlagOptimized)
!30 = !DISubroutineType(types: !31)
!31 = !{!32, !933, !62}
!32 = !DIDerivedType(tag: DW_TAG_typedef, name: "pointer", scope: !26, file: !27, line: 392, baseType: !33)
!33 = !DIDerivedType(tag: DW_TAG_pointer_type, baseType: !34, size: 64)
!34 = distinct !DICompositeType(tag: DW_TAG_class_type, name: "set<unsigned int, std::less<unsigned int>, std::allocator<unsigned int> >", scope: !5, file: !35, line: 93, size: 384, flags: DIFlagTypePassByReference | DIFlagNonTrivial, elements: !36, templateParams: !932, identifier: "_ZTSSt3setIjSt4lessIjESaIjEE")
!35 = !DIFile(filename: "/usr/lib/gcc/x86_64-linux-gnu/7.5.0/../../../../include/c++/7.5.0/bits/stl_set.h", directory: "")
!36 = !{!37, !741, !745, !751, !756, !760, !765, !768, !771, !774, !777, !778, !782, !785, !788, !793, !797, !800, !804, !805, !809, !810, !811, !812, !813, !814, !817, !821, !822, !825, !886, !890, !894, !897, !900, !903, !909, !912, !913, !916, !919, !922, !923, !924, !925, !926, !929}
!37 = !DIDerivedType(tag: DW_TAG_member, name: "_M_t", scope: !34, file: !35, line: 123, baseType: !38, size: 384)
!38 = !DIDerivedType(tag: DW_TAG_typedef, name: "_Rep_type", scope: !34, file: !35, line: 122, baseType: !39)
!39 = distinct !DICompositeType(tag: DW_TAG_class_type, name: "_Rb_tree<unsigned int, unsigned int, std::_Identity<unsigned int>, std::less<unsigned int>, std::allocator<unsigned int> >", scope: !5, file: !4, line: 444, size: 384, flags: DIFlagTypePassByReference | DIFlagNonTrivial, elements: !40, templateParams: !722, identifier: "_ZTSSt8_Rb_treeIjjSt9_IdentityIjESt4lessIjESaIjEE")
!40 = !{!41, !305, !310, !317, !321, !325, !328, !329, !330, !335, !339, !340, !341, !342, !343, !344, !348, !351, !352, !359, !362, !365, !368, !369, !370, !373, !376, !380, !384, !385, !386, !456, !457, !546, !547, !551, !554, !557, !561, !562, !565, !568, !569, !570, !573, !578, !581, !584, !587, !591, !594, !597, !598, !602, !605, !608, !611, !612, !613, !619, !624, !625, !626, !629, !633, !634, !637, !640, !643, !646, !649, !653, !656, !660, !661, !664, !667, !670, !671, !672, !673, !674, !678, !682, !683, !686, !704, !720, !721}
!41 = !DIDerivedType(tag: DW_TAG_member, name: "_M_impl", scope: !39, file: !4, line: 708, baseType: !42, size: 384, flags: DIFlagProtected)
!42 = distinct !DICompositeType(tag: DW_TAG_structure_type, name: "_Rb_tree_impl<std::less<unsigned int>, true>", scope: !39, file: !4, line: 677, size: 384, flags: DIFlagTypePassByReference | DIFlagNonTrivial, elements: !43, templateParams: !303, identifier: "_ZTSNSt8_Rb_treeIjjSt9_IdentityIjESt4lessIjESaIjEE13_Rb_tree_implIS3_Lb1EEE")
!43 = !{!44, !230, !268, !286, !290, !294, !299}
!44 = !DIDerivedType(tag: DW_TAG_inheritance, scope: !42, baseType: !45, extraData: i32 0)
!45 = !DIDerivedType(tag: DW_TAG_typedef, name: "_Node_allocator", scope: !39, file: !4, line: 447, baseType: !46)
!46 = !DIDerivedType(tag: DW_TAG_typedef, name: "other", scope: !47, file: !20, line: 117, baseType: !176)
!47 = distinct !DICompositeType(tag: DW_TAG_structure_type, name: "rebind<std::_Rb_tree_node<unsigned int> >", scope: !48, file: !20, line: 116, size: 8, flags: DIFlagTypePassByValue, elements: !103, templateParams: !104, identifier: "_ZTSN9__gnu_cxx14__alloc_traitsISaIjEE6rebindISt13_Rb_tree_nodeIjEEE")
!48 = distinct !DICompositeType(tag: DW_TAG_structure_type, name: "__alloc_traits<std::allocator<unsigned int> >", scope: !23, file: !20, line: 50, size: 8, flags: DIFlagTypePassByValue, elements: !49, templateParams: !84, identifier: "_ZTSN9__gnu_cxx14__alloc_traitsISaIjEEE")
!49 = !{!50, !86, !91, !95, !99, !100, !101, !102}
!50 = !DIDerivedType(tag: DW_TAG_inheritance, scope: !48, baseType: !51, extraData: i32 0)
!51 = distinct !DICompositeType(tag: DW_TAG_structure_type, name: "allocator_traits<std::allocator<unsigned int> >", scope: !5, file: !27, line: 384, size: 8, flags: DIFlagTypePassByValue, elements: !52, templateParams: !84, identifier: "_ZTSSt16allocator_traitsISaIjEE")
!52 = !{!53, !66, !72, !75, !81}
!53 = !DISubprogram(name: "allocate", linkageName: "_ZNSt16allocator_traitsISaIjEE8allocateERS0_m", scope: !51, file: !27, line: 435, type: !54, scopeLine: 435, flags: DIFlagPrototyped | DIFlagStaticMember, spFlags: DISPFlagOptimized)
!54 = !DISubroutineType(types: !55)
!55 = !{!56, !58, !62}
!56 = !DIDerivedType(tag: DW_TAG_typedef, name: "pointer", scope: !51, file: !27, line: 392, baseType: !57)
!57 = !DIDerivedType(tag: DW_TAG_pointer_type, baseType: !6, size: 64)
!58 = !DIDerivedType(tag: DW_TAG_reference_type, baseType: !59, size: 64)
!59 = !DIDerivedType(tag: DW_TAG_typedef, name: "allocator_type", scope: !51, file: !27, line: 387, baseType: !60)
!60 = distinct !DICompositeType(tag: DW_TAG_class_type, name: "allocator<unsigned int>", scope: !5, file: !61, line: 108, flags: DIFlagFwdDecl, identifier: "_ZTSSaIjE")
!61 = !DIFile(filename: "/usr/lib/gcc/x86_64-linux-gnu/7.5.0/../../../../include/c++/7.5.0/bits/allocator.h", directory: "")
!62 = !DIDerivedType(tag: DW_TAG_typedef, name: "size_type", file: !27, line: 407, baseType: !63)
!63 = !DIDerivedType(tag: DW_TAG_typedef, name: "size_t", scope: !5, file: !64, line: 231, baseType: !65)
!64 = !DIFile(filename: "/usr/lib/gcc/x86_64-linux-gnu/7.5.0/../../../../include/x86_64-linux-gnu/c++/7.5.0/bits/c++config.h", directory: "")
!65 = !DIBasicType(name: "long unsigned int", size: 64, encoding: DW_ATE_unsigned)
!66 = !DISubprogram(name: "allocate", linkageName: "_ZNSt16allocator_traitsISaIjEE8allocateERS0_mPKv", scope: !51, file: !27, line: 449, type: !67, scopeLine: 449, flags: DIFlagPrototyped | DIFlagStaticMember, spFlags: DISPFlagOptimized)
!67 = !DISubroutineType(types: !68)
!68 = !{!56, !58, !62, !69}
!69 = !DIDerivedType(tag: DW_TAG_typedef, name: "const_void_pointer", file: !27, line: 401, baseType: !70)
!70 = !DIDerivedType(tag: DW_TAG_pointer_type, baseType: !71, size: 64)
!71 = !DIDerivedType(tag: DW_TAG_const_type, baseType: null)
!72 = !DISubprogram(name: "deallocate", linkageName: "_ZNSt16allocator_traitsISaIjEE10deallocateERS0_Pjm", scope: !51, file: !27, line: 461, type: !73, scopeLine: 461, flags: DIFlagPrototyped | DIFlagStaticMember, spFlags: DISPFlagOptimized)
!73 = !DISubroutineType(types: !74)
!74 = !{null, !58, !56, !62}
!75 = !DISubprogram(name: "max_size", linkageName: "_ZNSt16allocator_traitsISaIjEE8max_sizeERKS0_", scope: !51, file: !27, line: 495, type: !76, scopeLine: 495, flags: DIFlagPrototyped | DIFlagStaticMember, spFlags: DISPFlagOptimized)
!76 = !DISubroutineType(types: !77)
!77 = !{!78, !79}
!78 = !DIDerivedType(tag: DW_TAG_typedef, name: "size_type", scope: !51, file: !27, line: 407, baseType: !63)
!79 = !DIDerivedType(tag: DW_TAG_reference_type, baseType: !80, size: 64)
!80 = !DIDerivedType(tag: DW_TAG_const_type, baseType: !59)
!81 = !DISubprogram(name: "select_on_container_copy_construction", linkageName: "_ZNSt16allocator_traitsISaIjEE37select_on_container_copy_constructionERKS0_", scope: !51, file: !27, line: 504, type: !82, scopeLine: 504, flags: DIFlagPrototyped | DIFlagStaticMember, spFlags: DISPFlagOptimized)
!82 = !DISubroutineType(types: !83)
!83 = !{!59, !79}
!84 = !{!85}
!85 = !DITemplateTypeParameter(name: "_Alloc", type: !60)
!86 = !DISubprogram(name: "_S_select_on_copy", linkageName: "_ZN9__gnu_cxx14__alloc_traitsISaIjEE17_S_select_on_copyERKS1_", scope: !48, file: !20, line: 94, type: !87, scopeLine: 94, flags: DIFlagPrototyped | DIFlagStaticMember, spFlags: DISPFlagOptimized)
!87 = !DISubroutineType(types: !88)
!88 = !{!60, !89}
!89 = !DIDerivedType(tag: DW_TAG_reference_type, baseType: !90, size: 64)
!90 = !DIDerivedType(tag: DW_TAG_const_type, baseType: !60)
!91 = !DISubprogram(name: "_S_on_swap", linkageName: "_ZN9__gnu_cxx14__alloc_traitsISaIjEE10_S_on_swapERS1_S3_", scope: !48, file: !20, line: 97, type: !92, scopeLine: 97, flags: DIFlagPrototyped | DIFlagStaticMember, spFlags: DISPFlagOptimized)
!92 = !DISubroutineType(types: !93)
!93 = !{null, !94, !94}
!94 = !DIDerivedType(tag: DW_TAG_reference_type, baseType: !60, size: 64)
!95 = !DISubprogram(name: "_S_propagate_on_copy_assign", linkageName: "_ZN9__gnu_cxx14__alloc_traitsISaIjEE27_S_propagate_on_copy_assignEv", scope: !48, file: !20, line: 100, type: !96, scopeLine: 100, flags: DIFlagPrototyped | DIFlagStaticMember, spFlags: DISPFlagOptimized)
!96 = !DISubroutineType(types: !97)
!97 = !{!98}
!98 = !DIBasicType(name: "bool", size: 8, encoding: DW_ATE_boolean)
!99 = !DISubprogram(name: "_S_propagate_on_move_assign", linkageName: "_ZN9__gnu_cxx14__alloc_traitsISaIjEE27_S_propagate_on_move_assignEv", scope: !48, file: !20, line: 103, type: !96, scopeLine: 103, flags: DIFlagPrototyped | DIFlagStaticMember, spFlags: DISPFlagOptimized)
!100 = !DISubprogram(name: "_S_propagate_on_swap", linkageName: "_ZN9__gnu_cxx14__alloc_traitsISaIjEE20_S_propagate_on_swapEv", scope: !48, file: !20, line: 106, type: !96, scopeLine: 106, flags: DIFlagPrototyped | DIFlagStaticMember, spFlags: DISPFlagOptimized)
!101 = !DISubprogram(name: "_S_always_equal", linkageName: "_ZN9__gnu_cxx14__alloc_traitsISaIjEE15_S_always_equalEv", scope: !48, file: !20, line: 109, type: !96, scopeLine: 109, flags: DIFlagPrototyped | DIFlagStaticMember, spFlags: DISPFlagOptimized)
!102 = !DISubprogram(name: "_S_nothrow_move", linkageName: "_ZN9__gnu_cxx14__alloc_traitsISaIjEE15_S_nothrow_moveEv", scope: !48, file: !20, line: 112, type: !96, scopeLine: 112, flags: DIFlagPrototyped | DIFlagStaticMember, spFlags: DISPFlagOptimized)
!103 = !{}
!104 = !{!105}
!105 = !DITemplateTypeParameter(name: "_Tp", type: !106)
!106 = distinct !DICompositeType(tag: DW_TAG_structure_type, name: "_Rb_tree_node<unsigned int>", scope: !5, file: !4, line: 216, size: 320, flags: DIFlagTypePassByValue, elements: !107, templateParams: !174, identifier: "_ZTSSt13_Rb_tree_nodeIjE")
!107 = !{!108, !128, !165, !169}
!108 = !DIDerivedType(tag: DW_TAG_inheritance, scope: !106, baseType: !109, extraData: i32 0)
!109 = distinct !DICompositeType(tag: DW_TAG_structure_type, name: "_Rb_tree_node_base", scope: !5, file: !4, line: 101, size: 256, flags: DIFlagTypePassByValue, elements: !110, identifier: "_ZTSSt18_Rb_tree_node_base")
!110 = !{!111, !112, !115, !116, !117, !120, !126, !127}
!111 = !DIDerivedType(tag: DW_TAG_member, name: "_M_color", scope: !109, file: !4, line: 106, baseType: !3, size: 32)
!112 = !DIDerivedType(tag: DW_TAG_member, name: "_M_parent", scope: !109, file: !4, line: 107, baseType: !113, size: 64, offset: 64)
!113 = !DIDerivedType(tag: DW_TAG_typedef, name: "_Base_ptr", scope: !109, file: !4, line: 103, baseType: !114)
!114 = !DIDerivedType(tag: DW_TAG_pointer_type, baseType: !109, size: 64)
!115 = !DIDerivedType(tag: DW_TAG_member, name: "_M_left", scope: !109, file: !4, line: 108, baseType: !113, size: 64, offset: 128)
!116 = !DIDerivedType(tag: DW_TAG_member, name: "_M_right", scope: !109, file: !4, line: 109, baseType: !113, size: 64, offset: 192)
!117 = !DISubprogram(name: "_S_minimum", linkageName: "_ZNSt18_Rb_tree_node_base10_S_minimumEPS_", scope: !109, file: !4, line: 112, type: !118, scopeLine: 112, flags: DIFlagPrototyped | DIFlagStaticMember, spFlags: DISPFlagOptimized)
!118 = !DISubroutineType(types: !119)
!119 = !{!113, !113}
!120 = !DISubprogram(name: "_S_minimum", linkageName: "_ZNSt18_Rb_tree_node_base10_S_minimumEPKS_", scope: !109, file: !4, line: 119, type: !121, scopeLine: 119, flags: DIFlagPrototyped | DIFlagStaticMember, spFlags: DISPFlagOptimized)
!121 = !DISubroutineType(types: !122)
!122 = !{!123, !123}
!123 = !DIDerivedType(tag: DW_TAG_typedef, name: "_Const_Base_ptr", scope: !109, file: !4, line: 104, baseType: !124)
!124 = !DIDerivedType(tag: DW_TAG_pointer_type, baseType: !125, size: 64)
!125 = !DIDerivedType(tag: DW_TAG_const_type, baseType: !109)
!126 = !DISubprogram(name: "_S_maximum", linkageName: "_ZNSt18_Rb_tree_node_base10_S_maximumEPS_", scope: !109, file: !4, line: 126, type: !118, scopeLine: 126, flags: DIFlagPrototyped | DIFlagStaticMember, spFlags: DISPFlagOptimized)
!127 = !DISubprogram(name: "_S_maximum", linkageName: "_ZNSt18_Rb_tree_node_base10_S_maximumEPKS_", scope: !109, file: !4, line: 133, type: !121, scopeLine: 133, flags: DIFlagPrototyped | DIFlagStaticMember, spFlags: DISPFlagOptimized)
!128 = !DIDerivedType(tag: DW_TAG_member, name: "_M_storage", scope: !106, file: !4, line: 231, baseType: !129, size: 32, offset: 256)
!129 = distinct !DICompositeType(tag: DW_TAG_structure_type, name: "__aligned_membuf<unsigned int>", scope: !23, file: !130, line: 47, size: 32, flags: DIFlagTypePassByValue, elements: !131, templateParams: !163, identifier: "_ZTSN9__gnu_cxx16__aligned_membufIjEE")
!130 = !DIFile(filename: "/usr/lib/gcc/x86_64-linux-gnu/7.5.0/../../../../include/c++/7.5.0/ext/aligned_buffer.h", directory: "")
!131 = !{!132, !137, !141, !146, !150, !155, !158}
!132 = !DIDerivedType(tag: DW_TAG_member, name: "_M_storage", scope: !129, file: !130, line: 54, baseType: !133, size: 32, align: 32)
!133 = !DICompositeType(tag: DW_TAG_array_type, baseType: !134, size: 32, elements: !135)
!134 = !DIBasicType(name: "unsigned char", size: 8, encoding: DW_ATE_unsigned_char)
!135 = !{!136}
!136 = !DISubrange(count: 4)
!137 = !DISubprogram(name: "__aligned_membuf", scope: !129, file: !130, line: 56, type: !138, scopeLine: 56, flags: DIFlagPrototyped, spFlags: DISPFlagOptimized)
!138 = !DISubroutineType(types: !139)
!139 = !{null, !140}
!140 = !DIDerivedType(tag: DW_TAG_pointer_type, baseType: !129, size: 64, flags: DIFlagArtificial | DIFlagObjectPointer)
!141 = !DISubprogram(name: "__aligned_membuf", scope: !129, file: !130, line: 59, type: !142, scopeLine: 59, flags: DIFlagPrototyped, spFlags: DISPFlagOptimized)
!142 = !DISubroutineType(types: !143)
!143 = !{null, !140, !144}
!144 = !DIDerivedType(tag: DW_TAG_typedef, name: "nullptr_t", scope: !5, file: !64, line: 235, baseType: !145)
!145 = !DIBasicType(tag: DW_TAG_unspecified_type, name: "decltype(nullptr)")
!146 = !DISubprogram(name: "_M_addr", linkageName: "_ZN9__gnu_cxx16__aligned_membufIjE7_M_addrEv", scope: !129, file: !130, line: 62, type: !147, scopeLine: 62, flags: DIFlagPrototyped, spFlags: DISPFlagOptimized)
!147 = !DISubroutineType(types: !148)
!148 = !{!149, !140}
!149 = !DIDerivedType(tag: DW_TAG_pointer_type, baseType: null, size: 64)
!150 = !DISubprogram(name: "_M_addr", linkageName: "_ZNK9__gnu_cxx16__aligned_membufIjE7_M_addrEv", scope: !129, file: !130, line: 66, type: !151, scopeLine: 66, flags: DIFlagPrototyped, spFlags: DISPFlagOptimized)
!151 = !DISubroutineType(types: !152)
!152 = !{!70, !153}
!153 = !DIDerivedType(tag: DW_TAG_pointer_type, baseType: !154, size: 64, flags: DIFlagArtificial | DIFlagObjectPointer)
!154 = !DIDerivedType(tag: DW_TAG_const_type, baseType: !129)
!155 = !DISubprogram(name: "_M_ptr", linkageName: "_ZN9__gnu_cxx16__aligned_membufIjE6_M_ptrEv", scope: !129, file: !130, line: 70, type: !156, scopeLine: 70, flags: DIFlagPrototyped, spFlags: DISPFlagOptimized)
!156 = !DISubroutineType(types: !157)
!157 = !{!57, !140}
!158 = !DISubprogram(name: "_M_ptr", linkageName: "_ZNK9__gnu_cxx16__aligned_membufIjE6_M_ptrEv", scope: !129, file: !130, line: 74, type: !159, scopeLine: 74, flags: DIFlagPrototyped, spFlags: DISPFlagOptimized)
!159 = !DISubroutineType(types: !160)
!160 = !{!161, !153}
!161 = !DIDerivedType(tag: DW_TAG_pointer_type, baseType: !162, size: 64)
!162 = !DIDerivedType(tag: DW_TAG_const_type, baseType: !6)
!163 = !{!164}
!164 = !DITemplateTypeParameter(name: "_Tp", type: !6)
!165 = !DISubprogram(name: "_M_valptr", linkageName: "_ZNSt13_Rb_tree_nodeIjE9_M_valptrEv", scope: !106, file: !4, line: 234, type: !166, scopeLine: 234, flags: DIFlagPrototyped, spFlags: DISPFlagOptimized)
!166 = !DISubroutineType(types: !167)
!167 = !{!57, !168}
!168 = !DIDerivedType(tag: DW_TAG_pointer_type, baseType: !106, size: 64, flags: DIFlagArtificial | DIFlagObjectPointer)
!169 = !DISubprogram(name: "_M_valptr", linkageName: "_ZNKSt13_Rb_tree_nodeIjE9_M_valptrEv", scope: !106, file: !4, line: 238, type: !170, scopeLine: 238, flags: DIFlagPrototyped, spFlags: DISPFlagOptimized)
!170 = !DISubroutineType(types: !171)
!171 = !{!161, !172}
!172 = !DIDerivedType(tag: DW_TAG_pointer_type, baseType: !173, size: 64, flags: DIFlagArtificial | DIFlagObjectPointer)
!173 = !DIDerivedType(tag: DW_TAG_const_type, baseType: !106)
!174 = !{!175}
!175 = !DITemplateTypeParameter(name: "_Val", type: !6)
!176 = !DIDerivedType(tag: DW_TAG_typedef, name: "rebind_alloc<std::_Rb_tree_node<unsigned int> >", scope: !51, file: !27, line: 422, baseType: !177)
!177 = distinct !DICompositeType(tag: DW_TAG_class_type, name: "allocator<std::_Rb_tree_node<unsigned int> >", scope: !5, file: !61, line: 108, size: 8, flags: DIFlagTypePassByReference | DIFlagNonTrivial, elements: !178, templateParams: !104, identifier: "_ZTSSaISt13_Rb_tree_nodeIjEE")
!178 = !{!179, !220, !224, !229}
!179 = !DIDerivedType(tag: DW_TAG_inheritance, scope: !177, baseType: !180, flags: DIFlagPublic, extraData: i32 0)
!180 = !DIDerivedType(tag: DW_TAG_typedef, name: "__allocator_base<std::_Rb_tree_node<unsigned int> >", scope: !5, file: !181, line: 48, baseType: !182)
!181 = !DIFile(filename: "/usr/lib/gcc/x86_64-linux-gnu/7.5.0/../../../../include/x86_64-linux-gnu/c++/7.5.0/bits/c++allocator.h", directory: "")
!182 = distinct !DICompositeType(tag: DW_TAG_class_type, name: "new_allocator<std::_Rb_tree_node<unsigned int> >", scope: !23, file: !183, line: 58, size: 8, flags: DIFlagTypePassByReference | DIFlagNonTrivial, elements: !184, templateParams: !104, identifier: "_ZTSN9__gnu_cxx13new_allocatorISt13_Rb_tree_nodeIjEEE")
!183 = !DIFile(filename: "/usr/lib/gcc/x86_64-linux-gnu/7.5.0/../../../../include/c++/7.5.0/ext/new_allocator.h", directory: "")
!184 = !{!185, !189, !194, !195, !203, !210, !214, !217}
!185 = !DISubprogram(name: "new_allocator", scope: !182, file: !183, line: 79, type: !186, scopeLine: 79, flags: DIFlagPublic | DIFlagPrototyped, spFlags: DISPFlagOptimized)
!186 = !DISubroutineType(types: !187)
!187 = !{null, !188}
!188 = !DIDerivedType(tag: DW_TAG_pointer_type, baseType: !182, size: 64, flags: DIFlagArtificial | DIFlagObjectPointer)
!189 = !DISubprogram(name: "new_allocator", scope: !182, file: !183, line: 81, type: !190, scopeLine: 81, flags: DIFlagPublic | DIFlagPrototyped, spFlags: DISPFlagOptimized)
!190 = !DISubroutineType(types: !191)
!191 = !{null, !188, !192}
!192 = !DIDerivedType(tag: DW_TAG_reference_type, baseType: !193, size: 64)
!193 = !DIDerivedType(tag: DW_TAG_const_type, baseType: !182)
!194 = !DISubprogram(name: "~new_allocator", scope: !182, file: !183, line: 86, type: !186, scopeLine: 86, flags: DIFlagPublic | DIFlagPrototyped, spFlags: DISPFlagOptimized)
!195 = !DISubprogram(name: "address", linkageName: "_ZNK9__gnu_cxx13new_allocatorISt13_Rb_tree_nodeIjEE7addressERS2_", scope: !182, file: !183, line: 89, type: !196, scopeLine: 89, flags: DIFlagPublic | DIFlagPrototyped, spFlags: DISPFlagOptimized)
!196 = !DISubroutineType(types: !197)
!197 = !{!198, !200, !201}
!198 = !DIDerivedType(tag: DW_TAG_typedef, name: "pointer", scope: !182, file: !183, line: 63, baseType: !199)
!199 = !DIDerivedType(tag: DW_TAG_pointer_type, baseType: !106, size: 64)
!200 = !DIDerivedType(tag: DW_TAG_pointer_type, baseType: !193, size: 64, flags: DIFlagArtificial | DIFlagObjectPointer)
!201 = !DIDerivedType(tag: DW_TAG_typedef, name: "reference", scope: !182, file: !183, line: 65, baseType: !202)
!202 = !DIDerivedType(tag: DW_TAG_reference_type, baseType: !106, size: 64)
!203 = !DISubprogram(name: "address", linkageName: "_ZNK9__gnu_cxx13new_allocatorISt13_Rb_tree_nodeIjEE7addressERKS2_", scope: !182, file: !183, line: 93, type: !204, scopeLine: 93, flags: DIFlagPublic | DIFlagPrototyped, spFlags: DISPFlagOptimized)
!204 = !DISubroutineType(types: !205)
!205 = !{!206, !200, !208}
!206 = !DIDerivedType(tag: DW_TAG_typedef, name: "const_pointer", scope: !182, file: !183, line: 64, baseType: !207)
!207 = !DIDerivedType(tag: DW_TAG_pointer_type, baseType: !173, size: 64)
!208 = !DIDerivedType(tag: DW_TAG_typedef, name: "const_reference", scope: !182, file: !183, line: 66, baseType: !209)
!209 = !DIDerivedType(tag: DW_TAG_reference_type, baseType: !173, size: 64)
!210 = !DISubprogram(name: "allocate", linkageName: "_ZN9__gnu_cxx13new_allocatorISt13_Rb_tree_nodeIjEE8allocateEmPKv", scope: !182, file: !183, line: 99, type: !211, scopeLine: 99, flags: DIFlagPublic | DIFlagPrototyped, spFlags: DISPFlagOptimized)
!211 = !DISubroutineType(types: !212)
!212 = !{!198, !188, !213, !70}
!213 = !DIDerivedType(tag: DW_TAG_typedef, name: "size_type", file: !183, line: 61, baseType: !63)
!214 = !DISubprogram(name: "deallocate", linkageName: "_ZN9__gnu_cxx13new_allocatorISt13_Rb_tree_nodeIjEE10deallocateEPS2_m", scope: !182, file: !183, line: 116, type: !215, scopeLine: 116, flags: DIFlagPublic | DIFlagPrototyped, spFlags: DISPFlagOptimized)
!215 = !DISubroutineType(types: !216)
!216 = !{null, !188, !198, !213}
!217 = !DISubprogram(name: "max_size", linkageName: "_ZNK9__gnu_cxx13new_allocatorISt13_Rb_tree_nodeIjEE8max_sizeEv", scope: !182, file: !183, line: 129, type: !218, scopeLine: 129, flags: DIFlagPublic | DIFlagPrototyped, spFlags: DISPFlagOptimized)
!218 = !DISubroutineType(types: !219)
!219 = !{!213, !200}
!220 = !DISubprogram(name: "allocator", scope: !177, file: !61, line: 131, type: !221, scopeLine: 131, flags: DIFlagPublic | DIFlagPrototyped, spFlags: DISPFlagOptimized)
!221 = !DISubroutineType(types: !222)
!222 = !{null, !223}
!223 = !DIDerivedType(tag: DW_TAG_pointer_type, baseType: !177, size: 64, flags: DIFlagArtificial | DIFlagObjectPointer)
!224 = !DISubprogram(name: "allocator", scope: !177, file: !61, line: 133, type: !225, scopeLine: 133, flags: DIFlagPublic | DIFlagPrototyped, spFlags: DISPFlagOptimized)
!225 = !DISubroutineType(types: !226)
!226 = !{null, !223, !227}
!227 = !DIDerivedType(tag: DW_TAG_reference_type, baseType: !228, size: 64)
!228 = !DIDerivedType(tag: DW_TAG_const_type, baseType: !177)
!229 = !DISubprogram(name: "~allocator", scope: !177, file: !61, line: 139, type: !221, scopeLine: 139, flags: DIFlagPublic | DIFlagPrototyped, spFlags: DISPFlagOptimized)
!230 = !DIDerivedType(tag: DW_TAG_inheritance, scope: !42, baseType: !231, extraData: i32 0)
!231 = distinct !DICompositeType(tag: DW_TAG_structure_type, name: "_Rb_tree_key_compare<std::less<unsigned int> >", scope: !5, file: !4, line: 142, size: 8, flags: DIFlagTypePassByReference | DIFlagNonTrivial, elements: !232, templateParams: !266, identifier: "_ZTSSt20_Rb_tree_key_compareISt4lessIjEE")
!232 = !{!233, !249, !253, !257, !262}
!233 = !DIDerivedType(tag: DW_TAG_member, name: "_M_key_compare", scope: !231, file: !4, line: 144, baseType: !234, size: 8)
!234 = distinct !DICompositeType(tag: DW_TAG_structure_type, name: "less<unsigned int>", scope: !5, file: !235, line: 381, size: 8, flags: DIFlagTypePassByValue, elements: !236, templateParams: !163, identifier: "_ZTSSt4lessIjE")
!235 = !DIFile(filename: "/usr/lib/gcc/x86_64-linux-gnu/7.5.0/../../../../include/c++/7.5.0/bits/stl_function.h", directory: "")
!236 = !{!237, !243}
!237 = !DIDerivedType(tag: DW_TAG_inheritance, scope: !234, baseType: !238, extraData: i32 0)
!238 = distinct !DICompositeType(tag: DW_TAG_structure_type, name: "binary_function<unsigned int, unsigned int, bool>", scope: !5, file: !235, line: 118, size: 8, flags: DIFlagTypePassByValue, elements: !103, templateParams: !239, identifier: "_ZTSSt15binary_functionIjjbE")
!239 = !{!240, !241, !242}
!240 = !DITemplateTypeParameter(name: "_Arg1", type: !6)
!241 = !DITemplateTypeParameter(name: "_Arg2", type: !6)
!242 = !DITemplateTypeParameter(name: "_Result", type: !98)
!243 = !DISubprogram(name: "operator()", linkageName: "_ZNKSt4lessIjEclERKjS2_", scope: !234, file: !235, line: 385, type: !244, scopeLine: 385, flags: DIFlagPrototyped, spFlags: DISPFlagOptimized)
!244 = !DISubroutineType(types: !245)
!245 = !{!98, !246, !248, !248}
!246 = !DIDerivedType(tag: DW_TAG_pointer_type, baseType: !247, size: 64, flags: DIFlagArtificial | DIFlagObjectPointer)
!247 = !DIDerivedType(tag: DW_TAG_const_type, baseType: !234)
!248 = !DIDerivedType(tag: DW_TAG_reference_type, baseType: !162, size: 64)
!249 = !DISubprogram(name: "_Rb_tree_key_compare", scope: !231, file: !4, line: 146, type: !250, scopeLine: 146, flags: DIFlagPrototyped, spFlags: DISPFlagOptimized)
!250 = !DISubroutineType(types: !251)
!251 = !{null, !252}
!252 = !DIDerivedType(tag: DW_TAG_pointer_type, baseType: !231, size: 64, flags: DIFlagArtificial | DIFlagObjectPointer)
!253 = !DISubprogram(name: "_Rb_tree_key_compare", scope: !231, file: !4, line: 152, type: !254, scopeLine: 152, flags: DIFlagPrototyped, spFlags: DISPFlagOptimized)
!254 = !DISubroutineType(types: !255)
!255 = !{null, !252, !256}
!256 = !DIDerivedType(tag: DW_TAG_reference_type, baseType: !247, size: 64)
!257 = !DISubprogram(name: "_Rb_tree_key_compare", scope: !231, file: !4, line: 158, type: !258, scopeLine: 158, flags: DIFlagPrototyped, spFlags: DISPFlagOptimized)
!258 = !DISubroutineType(types: !259)
!259 = !{null, !252, !260}
!260 = !DIDerivedType(tag: DW_TAG_reference_type, baseType: !261, size: 64)
!261 = !DIDerivedType(tag: DW_TAG_const_type, baseType: !231)
!262 = !DISubprogram(name: "_Rb_tree_key_compare", scope: !231, file: !4, line: 160, type: !263, scopeLine: 160, flags: DIFlagPrototyped, spFlags: DISPFlagOptimized)
!263 = !DISubroutineType(types: !264)
!264 = !{null, !252, !265}
!265 = !DIDerivedType(tag: DW_TAG_rvalue_reference_type, baseType: !231, size: 64)
!266 = !{!267}
!267 = !DITemplateTypeParameter(name: "_Key_compare", type: !234)
!268 = !DIDerivedType(tag: DW_TAG_inheritance, scope: !42, baseType: !269, offset: 64, extraData: i32 0)
!269 = distinct !DICompositeType(tag: DW_TAG_structure_type, name: "_Rb_tree_header", scope: !5, file: !4, line: 168, size: 320, flags: DIFlagTypePassByReference | DIFlagNonTrivial, elements: !270, identifier: "_ZTSSt15_Rb_tree_header")
!270 = !{!271, !272, !273, !277, !281, !285}
!271 = !DIDerivedType(tag: DW_TAG_member, name: "_M_header", scope: !269, file: !4, line: 170, baseType: !109, size: 256)
!272 = !DIDerivedType(tag: DW_TAG_member, name: "_M_node_count", scope: !269, file: !4, line: 171, baseType: !63, size: 64, offset: 256)
!273 = !DISubprogram(name: "_Rb_tree_header", scope: !269, file: !4, line: 173, type: !274, scopeLine: 173, flags: DIFlagPrototyped, spFlags: DISPFlagOptimized)
!274 = !DISubroutineType(types: !275)
!275 = !{null, !276}
!276 = !DIDerivedType(tag: DW_TAG_pointer_type, baseType: !269, size: 64, flags: DIFlagArtificial | DIFlagObjectPointer)
!277 = !DISubprogram(name: "_Rb_tree_header", scope: !269, file: !4, line: 180, type: !278, scopeLine: 180, flags: DIFlagPrototyped, spFlags: DISPFlagOptimized)
!278 = !DISubroutineType(types: !279)
!279 = !{null, !276, !280}
!280 = !DIDerivedType(tag: DW_TAG_rvalue_reference_type, baseType: !269, size: 64)
!281 = !DISubprogram(name: "_M_move_data", linkageName: "_ZNSt15_Rb_tree_header12_M_move_dataERS_", scope: !269, file: !4, line: 193, type: !282, scopeLine: 193, flags: DIFlagPrototyped, spFlags: DISPFlagOptimized)
!282 = !DISubroutineType(types: !283)
!283 = !{null, !276, !284}
!284 = !DIDerivedType(tag: DW_TAG_reference_type, baseType: !269, size: 64)
!285 = !DISubprogram(name: "_M_reset", linkageName: "_ZNSt15_Rb_tree_header8_M_resetEv", scope: !269, file: !4, line: 206, type: !274, scopeLine: 206, flags: DIFlagPrototyped, spFlags: DISPFlagOptimized)
!286 = !DISubprogram(name: "_Rb_tree_impl", scope: !42, file: !4, line: 688, type: !287, scopeLine: 688, flags: DIFlagPrototyped, spFlags: DISPFlagOptimized)
!287 = !DISubroutineType(types: !288)
!288 = !{null, !289}
!289 = !DIDerivedType(tag: DW_TAG_pointer_type, baseType: !42, size: 64, flags: DIFlagArtificial | DIFlagObjectPointer)
!290 = !DISubprogram(name: "_Rb_tree_impl", scope: !42, file: !4, line: 689, type: !291, scopeLine: 689, flags: DIFlagPrototyped, spFlags: DISPFlagOptimized)
!291 = !DISubroutineType(types: !292)
!292 = !{null, !289, !293}
!293 = !DIDerivedType(tag: DW_TAG_rvalue_reference_type, baseType: !42, size: 64)
!294 = !DISubprogram(name: "_Rb_tree_impl", scope: !42, file: !4, line: 692, type: !295, scopeLine: 692, flags: DIFlagPrototyped, spFlags: DISPFlagOptimized)
!295 = !DISubroutineType(types: !296)
!296 = !{null, !289, !297}
!297 = !DIDerivedType(tag: DW_TAG_reference_type, baseType: !298, size: 64)
!298 = !DIDerivedType(tag: DW_TAG_const_type, baseType: !42)
!299 = !DISubprogram(name: "_Rb_tree_impl", scope: !42, file: !4, line: 702, type: !300, scopeLine: 702, flags: DIFlagPrototyped, spFlags: DISPFlagOptimized)
!300 = !DISubroutineType(types: !301)
!301 = !{null, !289, !256, !302}
!302 = !DIDerivedType(tag: DW_TAG_rvalue_reference_type, baseType: !45, size: 64)
!303 = !{!267, !304}
!304 = !DITemplateValueParameter(type: !98, value: i8 1)
!305 = !DISubprogram(name: "_M_get_Node_allocator", linkageName: "_ZNSt8_Rb_treeIjjSt9_IdentityIjESt4lessIjESaIjEE21_M_get_Node_allocatorEv", scope: !39, file: !4, line: 574, type: !306, scopeLine: 574, flags: DIFlagPublic | DIFlagPrototyped, spFlags: DISPFlagOptimized)
!306 = !DISubroutineType(types: !307)
!307 = !{!308, !309}
!308 = !DIDerivedType(tag: DW_TAG_reference_type, baseType: !45, size: 64)
!309 = !DIDerivedType(tag: DW_TAG_pointer_type, baseType: !39, size: 64, flags: DIFlagArtificial | DIFlagObjectPointer)
!310 = !DISubprogram(name: "_M_get_Node_allocator", linkageName: "_ZNKSt8_Rb_treeIjjSt9_IdentityIjESt4lessIjESaIjEE21_M_get_Node_allocatorEv", scope: !39, file: !4, line: 578, type: !311, scopeLine: 578, flags: DIFlagPublic | DIFlagPrototyped, spFlags: DISPFlagOptimized)
!311 = !DISubroutineType(types: !312)
!312 = !{!313, !315}
!313 = !DIDerivedType(tag: DW_TAG_reference_type, baseType: !314, size: 64)
!314 = !DIDerivedType(tag: DW_TAG_const_type, baseType: !45)
!315 = !DIDerivedType(tag: DW_TAG_pointer_type, baseType: !316, size: 64, flags: DIFlagArtificial | DIFlagObjectPointer)
!316 = !DIDerivedType(tag: DW_TAG_const_type, baseType: !39)
!317 = !DISubprogram(name: "get_allocator", linkageName: "_ZNKSt8_Rb_treeIjjSt9_IdentityIjESt4lessIjESaIjEE13get_allocatorEv", scope: !39, file: !4, line: 582, type: !318, scopeLine: 582, flags: DIFlagPublic | DIFlagPrototyped, spFlags: DISPFlagOptimized)
!318 = !DISubroutineType(types: !319)
!319 = !{!320, !315}
!320 = !DIDerivedType(tag: DW_TAG_typedef, name: "allocator_type", scope: !39, file: !4, line: 571, baseType: !60)
!321 = !DISubprogram(name: "_M_get_node", linkageName: "_ZNSt8_Rb_treeIjjSt9_IdentityIjESt4lessIjESaIjEE11_M_get_nodeEv", scope: !39, file: !4, line: 587, type: !322, scopeLine: 587, flags: DIFlagProtected | DIFlagPrototyped, spFlags: DISPFlagOptimized)
!322 = !DISubroutineType(types: !323)
!323 = !{!324, !309}
!324 = !DIDerivedType(tag: DW_TAG_typedef, name: "_Link_type", scope: !39, file: !4, line: 454, baseType: !199)
!325 = !DISubprogram(name: "_M_put_node", linkageName: "_ZNSt8_Rb_treeIjjSt9_IdentityIjESt4lessIjESaIjEE11_M_put_nodeEPSt13_Rb_tree_nodeIjE", scope: !39, file: !4, line: 591, type: !326, scopeLine: 591, flags: DIFlagProtected | DIFlagPrototyped, spFlags: DISPFlagOptimized)
!326 = !DISubroutineType(types: !327)
!327 = !{null, !309, !324}
!328 = !DISubprogram(name: "_M_destroy_node", linkageName: "_ZNSt8_Rb_treeIjjSt9_IdentityIjESt4lessIjESaIjEE15_M_destroy_nodeEPSt13_Rb_tree_nodeIjE", scope: !39, file: !4, line: 648, type: !326, scopeLine: 648, flags: DIFlagProtected | DIFlagPrototyped, spFlags: DISPFlagOptimized)
!329 = !DISubprogram(name: "_M_drop_node", linkageName: "_ZNSt8_Rb_treeIjjSt9_IdentityIjESt4lessIjESaIjEE12_M_drop_nodeEPSt13_Rb_tree_nodeIjE", scope: !39, file: !4, line: 656, type: !326, scopeLine: 656, flags: DIFlagProtected | DIFlagPrototyped, spFlags: DISPFlagOptimized)
!330 = !DISubprogram(name: "_M_root", linkageName: "_ZNSt8_Rb_treeIjjSt9_IdentityIjESt4lessIjESaIjEE7_M_rootEv", scope: !39, file: !4, line: 712, type: !331, scopeLine: 712, flags: DIFlagProtected | DIFlagPrototyped, spFlags: DISPFlagOptimized)
!331 = !DISubroutineType(types: !332)
!332 = !{!333, !309}
!333 = !DIDerivedType(tag: DW_TAG_reference_type, baseType: !334, size: 64)
!334 = !DIDerivedType(tag: DW_TAG_typedef, name: "_Base_ptr", file: !4, line: 452, baseType: !114)
!335 = !DISubprogram(name: "_M_root", linkageName: "_ZNKSt8_Rb_treeIjjSt9_IdentityIjESt4lessIjESaIjEE7_M_rootEv", scope: !39, file: !4, line: 716, type: !336, scopeLine: 716, flags: DIFlagProtected | DIFlagPrototyped, spFlags: DISPFlagOptimized)
!336 = !DISubroutineType(types: !337)
!337 = !{!338, !315}
!338 = !DIDerivedType(tag: DW_TAG_typedef, name: "_Const_Base_ptr", file: !4, line: 453, baseType: !124)
!339 = !DISubprogram(name: "_M_leftmost", linkageName: "_ZNSt8_Rb_treeIjjSt9_IdentityIjESt4lessIjESaIjEE11_M_leftmostEv", scope: !39, file: !4, line: 720, type: !331, scopeLine: 720, flags: DIFlagProtected | DIFlagPrototyped, spFlags: DISPFlagOptimized)
!340 = !DISubprogram(name: "_M_leftmost", linkageName: "_ZNKSt8_Rb_treeIjjSt9_IdentityIjESt4lessIjESaIjEE11_M_leftmostEv", scope: !39, file: !4, line: 724, type: !336, scopeLine: 724, flags: DIFlagProtected | DIFlagPrototyped, spFlags: DISPFlagOptimized)
!341 = !DISubprogram(name: "_M_rightmost", linkageName: "_ZNSt8_Rb_treeIjjSt9_IdentityIjESt4lessIjESaIjEE12_M_rightmostEv", scope: !39, file: !4, line: 728, type: !331, scopeLine: 728, flags: DIFlagProtected | DIFlagPrototyped, spFlags: DISPFlagOptimized)
!342 = !DISubprogram(name: "_M_rightmost", linkageName: "_ZNKSt8_Rb_treeIjjSt9_IdentityIjESt4lessIjESaIjEE12_M_rightmostEv", scope: !39, file: !4, line: 732, type: !336, scopeLine: 732, flags: DIFlagProtected | DIFlagPrototyped, spFlags: DISPFlagOptimized)
!343 = !DISubprogram(name: "_M_begin", linkageName: "_ZNSt8_Rb_treeIjjSt9_IdentityIjESt4lessIjESaIjEE8_M_beginEv", scope: !39, file: !4, line: 736, type: !322, scopeLine: 736, flags: DIFlagProtected | DIFlagPrototyped, spFlags: DISPFlagOptimized)
!344 = !DISubprogram(name: "_M_begin", linkageName: "_ZNKSt8_Rb_treeIjjSt9_IdentityIjESt4lessIjESaIjEE8_M_beginEv", scope: !39, file: !4, line: 740, type: !345, scopeLine: 740, flags: DIFlagProtected | DIFlagPrototyped, spFlags: DISPFlagOptimized)
!345 = !DISubroutineType(types: !346)
!346 = !{!347, !315}
!347 = !DIDerivedType(tag: DW_TAG_typedef, name: "_Const_Link_type", scope: !39, file: !4, line: 455, baseType: !207)
!348 = !DISubprogram(name: "_M_end", linkageName: "_ZNSt8_Rb_treeIjjSt9_IdentityIjESt4lessIjESaIjEE6_M_endEv", scope: !39, file: !4, line: 747, type: !349, scopeLine: 747, flags: DIFlagProtected | DIFlagPrototyped, spFlags: DISPFlagOptimized)
!349 = !DISubroutineType(types: !350)
!350 = !{!334, !309}
!351 = !DISubprogram(name: "_M_end", linkageName: "_ZNKSt8_Rb_treeIjjSt9_IdentityIjESt4lessIjESaIjEE6_M_endEv", scope: !39, file: !4, line: 751, type: !336, scopeLine: 751, flags: DIFlagProtected | DIFlagPrototyped, spFlags: DISPFlagOptimized)
!352 = !DISubprogram(name: "_S_value", linkageName: "_ZNSt8_Rb_treeIjjSt9_IdentityIjESt4lessIjESaIjEE8_S_valueEPKSt13_Rb_tree_nodeIjE", scope: !39, file: !4, line: 755, type: !353, scopeLine: 755, flags: DIFlagProtected | DIFlagPrototyped | DIFlagStaticMember, spFlags: DISPFlagOptimized)
!353 = !DISubroutineType(types: !354)
!354 = !{!355, !347}
!355 = !DIDerivedType(tag: DW_TAG_typedef, name: "const_reference", scope: !39, file: !4, line: 568, baseType: !356)
!356 = !DIDerivedType(tag: DW_TAG_reference_type, baseType: !357, size: 64)
!357 = !DIDerivedType(tag: DW_TAG_const_type, baseType: !358)
!358 = !DIDerivedType(tag: DW_TAG_typedef, name: "value_type", scope: !39, file: !4, line: 564, baseType: !6)
!359 = !DISubprogram(name: "_S_key", linkageName: "_ZNSt8_Rb_treeIjjSt9_IdentityIjESt4lessIjESaIjEE6_S_keyEPKSt13_Rb_tree_nodeIjE", scope: !39, file: !4, line: 759, type: !360, scopeLine: 759, flags: DIFlagProtected | DIFlagPrototyped | DIFlagStaticMember, spFlags: DISPFlagOptimized)
!360 = !DISubroutineType(types: !361)
!361 = !{!248, !347}
!362 = !DISubprogram(name: "_S_left", linkageName: "_ZNSt8_Rb_treeIjjSt9_IdentityIjESt4lessIjESaIjEE7_S_leftEPSt18_Rb_tree_node_base", scope: !39, file: !4, line: 763, type: !363, scopeLine: 763, flags: DIFlagProtected | DIFlagPrototyped | DIFlagStaticMember, spFlags: DISPFlagOptimized)
!363 = !DISubroutineType(types: !364)
!364 = !{!324, !334}
!365 = !DISubprogram(name: "_S_left", linkageName: "_ZNSt8_Rb_treeIjjSt9_IdentityIjESt4lessIjESaIjEE7_S_leftEPKSt18_Rb_tree_node_base", scope: !39, file: !4, line: 767, type: !366, scopeLine: 767, flags: DIFlagProtected | DIFlagPrototyped | DIFlagStaticMember, spFlags: DISPFlagOptimized)
!366 = !DISubroutineType(types: !367)
!367 = !{!347, !338}
!368 = !DISubprogram(name: "_S_right", linkageName: "_ZNSt8_Rb_treeIjjSt9_IdentityIjESt4lessIjESaIjEE8_S_rightEPSt18_Rb_tree_node_base", scope: !39, file: !4, line: 771, type: !363, scopeLine: 771, flags: DIFlagProtected | DIFlagPrototyped | DIFlagStaticMember, spFlags: DISPFlagOptimized)
!369 = !DISubprogram(name: "_S_right", linkageName: "_ZNSt8_Rb_treeIjjSt9_IdentityIjESt4lessIjESaIjEE8_S_rightEPKSt18_Rb_tree_node_base", scope: !39, file: !4, line: 775, type: !366, scopeLine: 775, flags: DIFlagProtected | DIFlagPrototyped | DIFlagStaticMember, spFlags: DISPFlagOptimized)
!370 = !DISubprogram(name: "_S_value", linkageName: "_ZNSt8_Rb_treeIjjSt9_IdentityIjESt4lessIjESaIjEE8_S_valueEPKSt18_Rb_tree_node_base", scope: !39, file: !4, line: 779, type: !371, scopeLine: 779, flags: DIFlagProtected | DIFlagPrototyped | DIFlagStaticMember, spFlags: DISPFlagOptimized)
!371 = !DISubroutineType(types: !372)
!372 = !{!355, !338}
!373 = !DISubprogram(name: "_S_key", linkageName: "_ZNSt8_Rb_treeIjjSt9_IdentityIjESt4lessIjESaIjEE6_S_keyEPKSt18_Rb_tree_node_base", scope: !39, file: !4, line: 783, type: !374, scopeLine: 783, flags: DIFlagProtected | DIFlagPrototyped | DIFlagStaticMember, spFlags: DISPFlagOptimized)
!374 = !DISubroutineType(types: !375)
!375 = !{!248, !338}
!376 = !DISubprogram(name: "_S_minimum", linkageName: "_ZNSt8_Rb_treeIjjSt9_IdentityIjESt4lessIjESaIjEE10_S_minimumEPSt18_Rb_tree_node_base", scope: !39, file: !4, line: 787, type: !377, scopeLine: 787, flags: DIFlagProtected | DIFlagPrototyped | DIFlagStaticMember, spFlags: DISPFlagOptimized)
!377 = !DISubroutineType(types: !378)
!378 = !{!379, !334}
!379 = !DIDerivedType(tag: DW_TAG_typedef, name: "_Base_ptr", scope: !39, file: !4, line: 452, baseType: !114)
!380 = !DISubprogram(name: "_S_minimum", linkageName: "_ZNSt8_Rb_treeIjjSt9_IdentityIjESt4lessIjESaIjEE10_S_minimumEPKSt18_Rb_tree_node_base", scope: !39, file: !4, line: 791, type: !381, scopeLine: 791, flags: DIFlagProtected | DIFlagPrototyped | DIFlagStaticMember, spFlags: DISPFlagOptimized)
!381 = !DISubroutineType(types: !382)
!382 = !{!383, !338}
!383 = !DIDerivedType(tag: DW_TAG_typedef, name: "_Const_Base_ptr", scope: !39, file: !4, line: 453, baseType: !124)
!384 = !DISubprogram(name: "_S_maximum", linkageName: "_ZNSt8_Rb_treeIjjSt9_IdentityIjESt4lessIjESaIjEE10_S_maximumEPSt18_Rb_tree_node_base", scope: !39, file: !4, line: 795, type: !377, scopeLine: 795, flags: DIFlagProtected | DIFlagPrototyped | DIFlagStaticMember, spFlags: DISPFlagOptimized)
!385 = !DISubprogram(name: "_S_maximum", linkageName: "_ZNSt8_Rb_treeIjjSt9_IdentityIjESt4lessIjESaIjEE10_S_maximumEPKSt18_Rb_tree_node_base", scope: !39, file: !4, line: 799, type: !381, scopeLine: 799, flags: DIFlagProtected | DIFlagPrototyped | DIFlagStaticMember, spFlags: DISPFlagOptimized)
!386 = !DISubprogram(name: "_M_get_insert_unique_pos", linkageName: "_ZNSt8_Rb_treeIjjSt9_IdentityIjESt4lessIjESaIjEE24_M_get_insert_unique_posERKj", scope: !39, file: !4, line: 817, type: !387, scopeLine: 817, flags: DIFlagPublic | DIFlagPrototyped, spFlags: DISPFlagOptimized)
!387 = !DISubroutineType(types: !388)
!388 = !{!389, !309, !453}
!389 = distinct !DICompositeType(tag: DW_TAG_structure_type, name: "pair<std::_Rb_tree_node_base *, std::_Rb_tree_node_base *>", scope: !5, file: !390, line: 208, size: 128, flags: DIFlagTypePassByValue | DIFlagNonTrivial, elements: !391, templateParams: !450, identifier: "_ZTSSt4pairIPSt18_Rb_tree_node_baseS1_E")
!390 = !DIFile(filename: "/usr/lib/gcc/x86_64-linux-gnu/7.5.0/../../../../include/c++/7.5.0/bits/stl_pair.h", directory: "")
!391 = !{!392, !412, !413, !414, !420, !424, !438, !447}
!392 = !DIDerivedType(tag: DW_TAG_inheritance, scope: !389, baseType: !393, flags: DIFlagPrivate, extraData: i32 0)
!393 = distinct !DICompositeType(tag: DW_TAG_class_type, name: "__pair_base<std::_Rb_tree_node_base *, std::_Rb_tree_node_base *>", scope: !5, file: !390, line: 190, size: 8, flags: DIFlagTypePassByValue, elements: !394, templateParams: !409, identifier: "_ZTSSt11__pair_baseIPSt18_Rb_tree_node_baseS1_E")
!394 = !{!395, !399, !400, !405}
!395 = !DISubprogram(name: "__pair_base", scope: !393, file: !390, line: 194, type: !396, scopeLine: 194, flags: DIFlagPrototyped, spFlags: DISPFlagOptimized)
!396 = !DISubroutineType(types: !397)
!397 = !{null, !398}
!398 = !DIDerivedType(tag: DW_TAG_pointer_type, baseType: !393, size: 64, flags: DIFlagArtificial | DIFlagObjectPointer)
!399 = !DISubprogram(name: "~__pair_base", scope: !393, file: !390, line: 195, type: !396, scopeLine: 195, flags: DIFlagPrototyped, spFlags: DISPFlagOptimized)
!400 = !DISubprogram(name: "__pair_base", scope: !393, file: !390, line: 196, type: !401, scopeLine: 196, flags: DIFlagPrototyped, spFlags: DISPFlagOptimized)
!401 = !DISubroutineType(types: !402)
!402 = !{null, !398, !403}
!403 = !DIDerivedType(tag: DW_TAG_reference_type, baseType: !404, size: 64)
!404 = !DIDerivedType(tag: DW_TAG_const_type, baseType: !393)
!405 = !DISubprogram(name: "operator=", linkageName: "_ZNSt11__pair_baseIPSt18_Rb_tree_node_baseS1_EaSERKS2_", scope: !393, file: !390, line: 197, type: !406, scopeLine: 197, flags: DIFlagPrototyped, spFlags: DISPFlagOptimized | DISPFlagDeleted)
!406 = !DISubroutineType(types: !407)
!407 = !{!408, !398, !403}
!408 = !DIDerivedType(tag: DW_TAG_reference_type, baseType: !393, size: 64)
!409 = !{!410, !411}
!410 = !DITemplateTypeParameter(name: "_U1", type: !114)
!411 = !DITemplateTypeParameter(name: "_U2", type: !114)
!412 = !DIDerivedType(tag: DW_TAG_member, name: "first", scope: !389, file: !390, line: 214, baseType: !114, size: 64)
!413 = !DIDerivedType(tag: DW_TAG_member, name: "second", scope: !389, file: !390, line: 215, baseType: !114, size: 64, offset: 64)
!414 = !DISubprogram(name: "pair", scope: !389, file: !390, line: 303, type: !415, scopeLine: 303, flags: DIFlagPrototyped, spFlags: DISPFlagOptimized)
!415 = !DISubroutineType(types: !416)
!416 = !{null, !417, !418}
!417 = !DIDerivedType(tag: DW_TAG_pointer_type, baseType: !389, size: 64, flags: DIFlagArtificial | DIFlagObjectPointer)
!418 = !DIDerivedType(tag: DW_TAG_reference_type, baseType: !419, size: 64)
!419 = !DIDerivedType(tag: DW_TAG_const_type, baseType: !389)
!420 = !DISubprogram(name: "pair", scope: !389, file: !390, line: 304, type: !421, scopeLine: 304, flags: DIFlagPrototyped, spFlags: DISPFlagOptimized)
!421 = !DISubroutineType(types: !422)
!422 = !{null, !417, !423}
!423 = !DIDerivedType(tag: DW_TAG_rvalue_reference_type, baseType: !389, size: 64)
!424 = !DISubprogram(name: "operator=", linkageName: "_ZNSt4pairIPSt18_Rb_tree_node_baseS1_EaSERKS2_", scope: !389, file: !390, line: 378, type: !425, scopeLine: 378, flags: DIFlagPrototyped, spFlags: DISPFlagOptimized)
!425 = !DISubroutineType(types: !426)
!426 = !{!427, !417, !428}
!427 = !DIDerivedType(tag: DW_TAG_reference_type, baseType: !389, size: 64)
!428 = !DIDerivedType(tag: DW_TAG_typedef, name: "type", scope: !430, file: !429, line: 2166, baseType: !418)
!429 = !DIFile(filename: "/usr/lib/gcc/x86_64-linux-gnu/7.5.0/../../../../include/c++/7.5.0/type_traits", directory: "")
!430 = distinct !DICompositeType(tag: DW_TAG_structure_type, name: "conditional<true, const std::pair<std::_Rb_tree_node_base *, std::_Rb_tree_node_base *> &, const std::__nonesuch_no_braces &>", scope: !5, file: !429, line: 2165, size: 8, flags: DIFlagTypePassByValue, elements: !103, templateParams: !431, identifier: "_ZTSSt11conditionalILb1ERKSt4pairIPSt18_Rb_tree_node_baseS2_ERKSt20__nonesuch_no_bracesE")
!431 = !{!432, !433, !434}
!432 = !DITemplateValueParameter(name: "_Cond", type: !98, value: i8 1)
!433 = !DITemplateTypeParameter(name: "_Iftrue", type: !418)
!434 = !DITemplateTypeParameter(name: "_Iffalse", type: !435)
!435 = !DIDerivedType(tag: DW_TAG_reference_type, baseType: !436, size: 64)
!436 = !DIDerivedType(tag: DW_TAG_const_type, baseType: !437)
!437 = distinct !DICompositeType(tag: DW_TAG_structure_type, name: "__nonesuch_no_braces", scope: !5, file: !390, line: 185, flags: DIFlagFwdDecl, identifier: "_ZTSSt20__nonesuch_no_braces")
!438 = !DISubprogram(name: "operator=", linkageName: "_ZNSt4pairIPSt18_Rb_tree_node_baseS1_EaSEOS2_", scope: !389, file: !390, line: 389, type: !439, scopeLine: 389, flags: DIFlagPrototyped, spFlags: DISPFlagOptimized)
!439 = !DISubroutineType(types: !440)
!440 = !{!427, !417, !441}
!441 = !DIDerivedType(tag: DW_TAG_typedef, name: "type", scope: !442, file: !429, line: 2166, baseType: !423)
!442 = distinct !DICompositeType(tag: DW_TAG_structure_type, name: "conditional<true, std::pair<std::_Rb_tree_node_base *, std::_Rb_tree_node_base *> &&, std::__nonesuch_no_braces &&>", scope: !5, file: !429, line: 2165, size: 8, flags: DIFlagTypePassByValue, elements: !103, templateParams: !443, identifier: "_ZTSSt11conditionalILb1EOSt4pairIPSt18_Rb_tree_node_baseS2_EOSt20__nonesuch_no_bracesE")
!443 = !{!432, !444, !445}
!444 = !DITemplateTypeParameter(name: "_Iftrue", type: !423)
!445 = !DITemplateTypeParameter(name: "_Iffalse", type: !446)
!446 = !DIDerivedType(tag: DW_TAG_rvalue_reference_type, baseType: !437, size: 64)
!447 = !DISubprogram(name: "swap", linkageName: "_ZNSt4pairIPSt18_Rb_tree_node_baseS1_E4swapERS2_", scope: !389, file: !390, line: 424, type: !448, scopeLine: 424, flags: DIFlagPrototyped, spFlags: DISPFlagOptimized)
!448 = !DISubroutineType(types: !449)
!449 = !{null, !417, !427}
!450 = !{!451, !452}
!451 = !DITemplateTypeParameter(name: "_T1", type: !114)
!452 = !DITemplateTypeParameter(name: "_T2", type: !114)
!453 = !DIDerivedType(tag: DW_TAG_reference_type, baseType: !454, size: 64)
!454 = !DIDerivedType(tag: DW_TAG_const_type, baseType: !455)
!455 = !DIDerivedType(tag: DW_TAG_typedef, name: "key_type", scope: !39, file: !4, line: 563, baseType: !6)
!456 = !DISubprogram(name: "_M_get_insert_equal_pos", linkageName: "_ZNSt8_Rb_treeIjjSt9_IdentityIjESt4lessIjESaIjEE23_M_get_insert_equal_posERKj", scope: !39, file: !4, line: 820, type: !387, scopeLine: 820, flags: DIFlagPublic | DIFlagPrototyped, spFlags: DISPFlagOptimized)
!457 = !DISubprogram(name: "_M_get_insert_hint_unique_pos", linkageName: "_ZNSt8_Rb_treeIjjSt9_IdentityIjESt4lessIjESaIjEE29_M_get_insert_hint_unique_posESt23_Rb_tree_const_iteratorIjERKj", scope: !39, file: !4, line: 823, type: !458, scopeLine: 823, flags: DIFlagPublic | DIFlagPrototyped, spFlags: DISPFlagOptimized)
!458 = !DISubroutineType(types: !459)
!459 = !{!389, !309, !460, !453}
!460 = !DIDerivedType(tag: DW_TAG_typedef, name: "const_iterator", scope: !39, file: !4, line: 804, baseType: !461)
!461 = distinct !DICompositeType(tag: DW_TAG_structure_type, name: "_Rb_tree_const_iterator<unsigned int>", scope: !5, file: !4, line: 326, size: 64, flags: DIFlagTypePassByValue | DIFlagNonTrivial, elements: !462, templateParams: !163, identifier: "_ZTSSt23_Rb_tree_const_iteratorIjE")
!462 = !{!463, !465, !469, !472, !517, !522, !526, !530, !535, !538, !539, !540, !545}
!463 = !DIDerivedType(tag: DW_TAG_member, name: "_M_node", scope: !461, file: !4, line: 401, baseType: !464, size: 64)
!464 = !DIDerivedType(tag: DW_TAG_typedef, name: "_Base_ptr", file: !4, line: 338, baseType: !123)
!465 = !DISubprogram(name: "_Rb_tree_const_iterator", scope: !461, file: !4, line: 341, type: !466, scopeLine: 341, flags: DIFlagPrototyped, spFlags: DISPFlagOptimized)
!466 = !DISubroutineType(types: !467)
!467 = !{null, !468}
!468 = !DIDerivedType(tag: DW_TAG_pointer_type, baseType: !461, size: 64, flags: DIFlagArtificial | DIFlagObjectPointer)
!469 = !DISubprogram(name: "_Rb_tree_const_iterator", scope: !461, file: !4, line: 345, type: !470, scopeLine: 345, flags: DIFlagExplicit | DIFlagPrototyped, spFlags: DISPFlagOptimized)
!470 = !DISubroutineType(types: !471)
!471 = !{null, !468, !464}
!472 = !DISubprogram(name: "_Rb_tree_const_iterator", scope: !461, file: !4, line: 348, type: !473, scopeLine: 348, flags: DIFlagPrototyped, spFlags: DISPFlagOptimized)
!473 = !DISubroutineType(types: !474)
!474 = !{null, !468, !475}
!475 = !DIDerivedType(tag: DW_TAG_reference_type, baseType: !476, size: 64)
!476 = !DIDerivedType(tag: DW_TAG_const_type, baseType: !477)
!477 = !DIDerivedType(tag: DW_TAG_typedef, name: "iterator", scope: !461, file: !4, line: 332, baseType: !478)
!478 = distinct !DICompositeType(tag: DW_TAG_structure_type, name: "_Rb_tree_iterator<unsigned int>", scope: !5, file: !4, line: 256, size: 64, flags: DIFlagTypePassByValue | DIFlagNonTrivial, elements: !479, templateParams: !163, identifier: "_ZTSSt17_Rb_tree_iteratorIjE")
!479 = !{!480, !482, !486, !489, !496, !500, !505, !509, !510, !511, !516}
!480 = !DIDerivedType(tag: DW_TAG_member, name: "_M_node", scope: !478, file: !4, line: 322, baseType: !481, size: 64)
!481 = !DIDerivedType(tag: DW_TAG_typedef, name: "_Base_ptr", file: !4, line: 266, baseType: !113)
!482 = !DISubprogram(name: "_Rb_tree_iterator", scope: !478, file: !4, line: 269, type: !483, scopeLine: 269, flags: DIFlagPrototyped, spFlags: DISPFlagOptimized)
!483 = !DISubroutineType(types: !484)
!484 = !{null, !485}
!485 = !DIDerivedType(tag: DW_TAG_pointer_type, baseType: !478, size: 64, flags: DIFlagArtificial | DIFlagObjectPointer)
!486 = !DISubprogram(name: "_Rb_tree_iterator", scope: !478, file: !4, line: 273, type: !487, scopeLine: 273, flags: DIFlagExplicit | DIFlagPrototyped, spFlags: DISPFlagOptimized)
!487 = !DISubroutineType(types: !488)
!488 = !{null, !485, !481}
!489 = !DISubprogram(name: "operator*", linkageName: "_ZNKSt17_Rb_tree_iteratorIjEdeEv", scope: !478, file: !4, line: 277, type: !490, scopeLine: 277, flags: DIFlagPrototyped, spFlags: DISPFlagOptimized)
!490 = !DISubroutineType(types: !491)
!491 = !{!492, !494}
!492 = !DIDerivedType(tag: DW_TAG_typedef, name: "reference", scope: !478, file: !4, line: 259, baseType: !493)
!493 = !DIDerivedType(tag: DW_TAG_reference_type, baseType: !6, size: 64)
!494 = !DIDerivedType(tag: DW_TAG_pointer_type, baseType: !495, size: 64, flags: DIFlagArtificial | DIFlagObjectPointer)
!495 = !DIDerivedType(tag: DW_TAG_const_type, baseType: !478)
!496 = !DISubprogram(name: "operator->", linkageName: "_ZNKSt17_Rb_tree_iteratorIjEptEv", scope: !478, file: !4, line: 281, type: !497, scopeLine: 281, flags: DIFlagPrototyped, spFlags: DISPFlagOptimized)
!497 = !DISubroutineType(types: !498)
!498 = !{!499, !494}
!499 = !DIDerivedType(tag: DW_TAG_typedef, name: "pointer", scope: !478, file: !4, line: 260, baseType: !57)
!500 = !DISubprogram(name: "operator++", linkageName: "_ZNSt17_Rb_tree_iteratorIjEppEv", scope: !478, file: !4, line: 285, type: !501, scopeLine: 285, flags: DIFlagPrototyped, spFlags: DISPFlagOptimized)
!501 = !DISubroutineType(types: !502)
!502 = !{!503, !485}
!503 = !DIDerivedType(tag: DW_TAG_reference_type, baseType: !504, size: 64)
!504 = !DIDerivedType(tag: DW_TAG_typedef, name: "_Self", scope: !478, file: !4, line: 265, baseType: !478)
!505 = !DISubprogram(name: "operator++", linkageName: "_ZNSt17_Rb_tree_iteratorIjEppEi", scope: !478, file: !4, line: 292, type: !506, scopeLine: 292, flags: DIFlagPrototyped, spFlags: DISPFlagOptimized)
!506 = !DISubroutineType(types: !507)
!507 = !{!504, !485, !508}
!508 = !DIBasicType(name: "int", size: 32, encoding: DW_ATE_signed)
!509 = !DISubprogram(name: "operator--", linkageName: "_ZNSt17_Rb_tree_iteratorIjEmmEv", scope: !478, file: !4, line: 300, type: !501, scopeLine: 300, flags: DIFlagPrototyped, spFlags: DISPFlagOptimized)
!510 = !DISubprogram(name: "operator--", linkageName: "_ZNSt17_Rb_tree_iteratorIjEmmEi", scope: !478, file: !4, line: 307, type: !506, scopeLine: 307, flags: DIFlagPrototyped, spFlags: DISPFlagOptimized)
!511 = !DISubprogram(name: "operator==", linkageName: "_ZNKSt17_Rb_tree_iteratorIjEeqERKS0_", scope: !478, file: !4, line: 315, type: !512, scopeLine: 315, flags: DIFlagPrototyped, spFlags: DISPFlagOptimized)
!512 = !DISubroutineType(types: !513)
!513 = !{!98, !494, !514}
!514 = !DIDerivedType(tag: DW_TAG_reference_type, baseType: !515, size: 64)
!515 = !DIDerivedType(tag: DW_TAG_const_type, baseType: !504)
!516 = !DISubprogram(name: "operator!=", linkageName: "_ZNKSt17_Rb_tree_iteratorIjEneERKS0_", scope: !478, file: !4, line: 319, type: !512, scopeLine: 319, flags: DIFlagPrototyped, spFlags: DISPFlagOptimized)
!517 = !DISubprogram(name: "_M_const_cast", linkageName: "_ZNKSt23_Rb_tree_const_iteratorIjE13_M_const_castEv", scope: !461, file: !4, line: 352, type: !518, scopeLine: 352, flags: DIFlagPrototyped, spFlags: DISPFlagOptimized)
!518 = !DISubroutineType(types: !519)
!519 = !{!477, !520}
!520 = !DIDerivedType(tag: DW_TAG_pointer_type, baseType: !521, size: 64, flags: DIFlagArtificial | DIFlagObjectPointer)
!521 = !DIDerivedType(tag: DW_TAG_const_type, baseType: !461)
!522 = !DISubprogram(name: "operator*", linkageName: "_ZNKSt23_Rb_tree_const_iteratorIjEdeEv", scope: !461, file: !4, line: 356, type: !523, scopeLine: 356, flags: DIFlagPrototyped, spFlags: DISPFlagOptimized)
!523 = !DISubroutineType(types: !524)
!524 = !{!525, !520}
!525 = !DIDerivedType(tag: DW_TAG_typedef, name: "reference", scope: !461, file: !4, line: 329, baseType: !248)
!526 = !DISubprogram(name: "operator->", linkageName: "_ZNKSt23_Rb_tree_const_iteratorIjEptEv", scope: !461, file: !4, line: 360, type: !527, scopeLine: 360, flags: DIFlagPrototyped, spFlags: DISPFlagOptimized)
!527 = !DISubroutineType(types: !528)
!528 = !{!529, !520}
!529 = !DIDerivedType(tag: DW_TAG_typedef, name: "pointer", scope: !461, file: !4, line: 330, baseType: !161)
!530 = !DISubprogram(name: "operator++", linkageName: "_ZNSt23_Rb_tree_const_iteratorIjEppEv", scope: !461, file: !4, line: 364, type: !531, scopeLine: 364, flags: DIFlagPrototyped, spFlags: DISPFlagOptimized)
!531 = !DISubroutineType(types: !532)
!532 = !{!533, !468}
!533 = !DIDerivedType(tag: DW_TAG_reference_type, baseType: !534, size: 64)
!534 = !DIDerivedType(tag: DW_TAG_typedef, name: "_Self", scope: !461, file: !4, line: 337, baseType: !461)
!535 = !DISubprogram(name: "operator++", linkageName: "_ZNSt23_Rb_tree_const_iteratorIjEppEi", scope: !461, file: !4, line: 371, type: !536, scopeLine: 371, flags: DIFlagPrototyped, spFlags: DISPFlagOptimized)
!536 = !DISubroutineType(types: !537)
!537 = !{!534, !468, !508}
!538 = !DISubprogram(name: "operator--", linkageName: "_ZNSt23_Rb_tree_const_iteratorIjEmmEv", scope: !461, file: !4, line: 379, type: !531, scopeLine: 379, flags: DIFlagPrototyped, spFlags: DISPFlagOptimized)
!539 = !DISubprogram(name: "operator--", linkageName: "_ZNSt23_Rb_tree_const_iteratorIjEmmEi", scope: !461, file: !4, line: 386, type: !536, scopeLine: 386, flags: DIFlagPrototyped, spFlags: DISPFlagOptimized)
!540 = !DISubprogram(name: "operator==", linkageName: "_ZNKSt23_Rb_tree_const_iteratorIjEeqERKS0_", scope: !461, file: !4, line: 394, type: !541, scopeLine: 394, flags: DIFlagPrototyped, spFlags: DISPFlagOptimized)
!541 = !DISubroutineType(types: !542)
!542 = !{!98, !520, !543}
!543 = !DIDerivedType(tag: DW_TAG_reference_type, baseType: !544, size: 64)
!544 = !DIDerivedType(tag: DW_TAG_const_type, baseType: !534)
!545 = !DISubprogram(name: "operator!=", linkageName: "_ZNKSt23_Rb_tree_const_iteratorIjEneERKS0_", scope: !461, file: !4, line: 398, type: !541, scopeLine: 398, flags: DIFlagPrototyped, spFlags: DISPFlagOptimized)
!546 = !DISubprogram(name: "_M_get_insert_hint_equal_pos", linkageName: "_ZNSt8_Rb_treeIjjSt9_IdentityIjESt4lessIjESaIjEE28_M_get_insert_hint_equal_posESt23_Rb_tree_const_iteratorIjERKj", scope: !39, file: !4, line: 827, type: !458, scopeLine: 827, flags: DIFlagPublic | DIFlagPrototyped, spFlags: DISPFlagOptimized)
!547 = !DISubprogram(name: "_M_insert_node", linkageName: "_ZNSt8_Rb_treeIjjSt9_IdentityIjESt4lessIjESaIjEE14_M_insert_nodeEPSt18_Rb_tree_node_baseS7_PSt13_Rb_tree_nodeIjE", scope: !39, file: !4, line: 837, type: !548, scopeLine: 837, flags: DIFlagPrototyped, spFlags: DISPFlagOptimized)
!548 = !DISubroutineType(types: !549)
!549 = !{!550, !309, !334, !334, !324}
!550 = !DIDerivedType(tag: DW_TAG_typedef, name: "iterator", scope: !39, file: !4, line: 803, baseType: !478)
!551 = !DISubprogram(name: "_M_insert_lower_node", linkageName: "_ZNSt8_Rb_treeIjjSt9_IdentityIjESt4lessIjESaIjEE20_M_insert_lower_nodeEPSt18_Rb_tree_node_basePSt13_Rb_tree_nodeIjE", scope: !39, file: !4, line: 848, type: !552, scopeLine: 848, flags: DIFlagPrototyped, spFlags: DISPFlagOptimized)
!552 = !DISubroutineType(types: !553)
!553 = !{!550, !309, !334, !324}
!554 = !DISubprogram(name: "_M_insert_equal_lower_node", linkageName: "_ZNSt8_Rb_treeIjjSt9_IdentityIjESt4lessIjESaIjEE26_M_insert_equal_lower_nodeEPSt13_Rb_tree_nodeIjE", scope: !39, file: !4, line: 851, type: !555, scopeLine: 851, flags: DIFlagPrototyped, spFlags: DISPFlagOptimized)
!555 = !DISubroutineType(types: !556)
!556 = !{!550, !309, !324}
!557 = !DISubprogram(name: "_M_copy", linkageName: "_ZNSt8_Rb_treeIjjSt9_IdentityIjESt4lessIjESaIjEE7_M_copyERKS5_", scope: !39, file: !4, line: 883, type: !558, scopeLine: 883, flags: DIFlagPrototyped, spFlags: DISPFlagOptimized)
!558 = !DISubroutineType(types: !559)
!559 = !{!324, !309, !560}
!560 = !DIDerivedType(tag: DW_TAG_reference_type, baseType: !316, size: 64)
!561 = !DISubprogram(name: "_M_erase", linkageName: "_ZNSt8_Rb_treeIjjSt9_IdentityIjESt4lessIjESaIjEE8_M_eraseEPSt13_Rb_tree_nodeIjE", scope: !39, file: !4, line: 890, type: !326, scopeLine: 890, flags: DIFlagPrototyped, spFlags: DISPFlagOptimized)
!562 = !DISubprogram(name: "_M_lower_bound", linkageName: "_ZNSt8_Rb_treeIjjSt9_IdentityIjESt4lessIjESaIjEE14_M_lower_boundEPSt13_Rb_tree_nodeIjEPSt18_Rb_tree_node_baseRKj", scope: !39, file: !4, line: 893, type: !563, scopeLine: 893, flags: DIFlagPrototyped, spFlags: DISPFlagOptimized)
!563 = !DISubroutineType(types: !564)
!564 = !{!550, !309, !324, !334, !248}
!565 = !DISubprogram(name: "_M_lower_bound", linkageName: "_ZNKSt8_Rb_treeIjjSt9_IdentityIjESt4lessIjESaIjEE14_M_lower_boundEPKSt13_Rb_tree_nodeIjEPKSt18_Rb_tree_node_baseRKj", scope: !39, file: !4, line: 897, type: !566, scopeLine: 897, flags: DIFlagPrototyped, spFlags: DISPFlagOptimized)
!566 = !DISubroutineType(types: !567)
!567 = !{!460, !315, !347, !338, !248}
!568 = !DISubprogram(name: "_M_upper_bound", linkageName: "_ZNSt8_Rb_treeIjjSt9_IdentityIjESt4lessIjESaIjEE14_M_upper_boundEPSt13_Rb_tree_nodeIjEPSt18_Rb_tree_node_baseRKj", scope: !39, file: !4, line: 901, type: !563, scopeLine: 901, flags: DIFlagPrototyped, spFlags: DISPFlagOptimized)
!569 = !DISubprogram(name: "_M_upper_bound", linkageName: "_ZNKSt8_Rb_treeIjjSt9_IdentityIjESt4lessIjESaIjEE14_M_upper_boundEPKSt13_Rb_tree_nodeIjEPKSt18_Rb_tree_node_baseRKj", scope: !39, file: !4, line: 905, type: !566, scopeLine: 905, flags: DIFlagPrototyped, spFlags: DISPFlagOptimized)
!570 = !DISubprogram(name: "_Rb_tree", scope: !39, file: !4, line: 913, type: !571, scopeLine: 913, flags: DIFlagPublic | DIFlagPrototyped, spFlags: DISPFlagOptimized)
!571 = !DISubroutineType(types: !572)
!572 = !{null, !309}
!573 = !DISubprogram(name: "_Rb_tree", scope: !39, file: !4, line: 916, type: !574, scopeLine: 916, flags: DIFlagPublic | DIFlagPrototyped, spFlags: DISPFlagOptimized)
!574 = !DISubroutineType(types: !575)
!575 = !{null, !309, !256, !576}
!576 = !DIDerivedType(tag: DW_TAG_reference_type, baseType: !577, size: 64)
!577 = !DIDerivedType(tag: DW_TAG_const_type, baseType: !320)
!578 = !DISubprogram(name: "_Rb_tree", scope: !39, file: !4, line: 920, type: !579, scopeLine: 920, flags: DIFlagPublic | DIFlagPrototyped, spFlags: DISPFlagOptimized)
!579 = !DISubroutineType(types: !580)
!580 = !{null, !309, !560}
!581 = !DISubprogram(name: "_Rb_tree", scope: !39, file: !4, line: 928, type: !582, scopeLine: 928, flags: DIFlagPublic | DIFlagPrototyped, spFlags: DISPFlagOptimized)
!582 = !DISubroutineType(types: !583)
!583 = !{null, !309, !576}
!584 = !DISubprogram(name: "_Rb_tree", scope: !39, file: !4, line: 932, type: !585, scopeLine: 932, flags: DIFlagPublic | DIFlagPrototyped, spFlags: DISPFlagOptimized)
!585 = !DISubroutineType(types: !586)
!586 = !{null, !309, !560, !576}
!587 = !DISubprogram(name: "_Rb_tree", scope: !39, file: !4, line: 939, type: !588, scopeLine: 939, flags: DIFlagPublic | DIFlagPrototyped, spFlags: DISPFlagOptimized)
!588 = !DISubroutineType(types: !589)
!589 = !{null, !309, !590}
!590 = !DIDerivedType(tag: DW_TAG_rvalue_reference_type, baseType: !39, size: 64)
!591 = !DISubprogram(name: "_Rb_tree", scope: !39, file: !4, line: 941, type: !592, scopeLine: 941, flags: DIFlagPublic | DIFlagPrototyped, spFlags: DISPFlagOptimized)
!592 = !DISubroutineType(types: !593)
!593 = !{null, !309, !590, !576}
!594 = !DISubprogram(name: "_Rb_tree", scope: !39, file: !4, line: 945, type: !595, scopeLine: 945, flags: DIFlagPublic | DIFlagPrototyped, spFlags: DISPFlagOptimized)
!595 = !DISubroutineType(types: !596)
!596 = !{null, !309, !590, !302}
!597 = !DISubprogram(name: "~_Rb_tree", scope: !39, file: !4, line: 948, type: !571, scopeLine: 948, flags: DIFlagPublic | DIFlagPrototyped, spFlags: DISPFlagOptimized)
!598 = !DISubprogram(name: "operator=", linkageName: "_ZNSt8_Rb_treeIjjSt9_IdentityIjESt4lessIjESaIjEEaSERKS5_", scope: !39, file: !4, line: 952, type: !599, scopeLine: 952, flags: DIFlagPublic | DIFlagPrototyped, spFlags: DISPFlagOptimized)
!599 = !DISubroutineType(types: !600)
!600 = !{!601, !309, !560}
!601 = !DIDerivedType(tag: DW_TAG_reference_type, baseType: !39, size: 64)
!602 = !DISubprogram(name: "key_comp", linkageName: "_ZNKSt8_Rb_treeIjjSt9_IdentityIjESt4lessIjESaIjEE8key_compEv", scope: !39, file: !4, line: 956, type: !603, scopeLine: 956, flags: DIFlagPublic | DIFlagPrototyped, spFlags: DISPFlagOptimized)
!603 = !DISubroutineType(types: !604)
!604 = !{!234, !315}
!605 = !DISubprogram(name: "begin", linkageName: "_ZNSt8_Rb_treeIjjSt9_IdentityIjESt4lessIjESaIjEE5beginEv", scope: !39, file: !4, line: 960, type: !606, scopeLine: 960, flags: DIFlagPublic | DIFlagPrototyped, spFlags: DISPFlagOptimized)
!606 = !DISubroutineType(types: !607)
!607 = !{!550, !309}
!608 = !DISubprogram(name: "begin", linkageName: "_ZNKSt8_Rb_treeIjjSt9_IdentityIjESt4lessIjESaIjEE5beginEv", scope: !39, file: !4, line: 964, type: !609, scopeLine: 964, flags: DIFlagPublic | DIFlagPrototyped, spFlags: DISPFlagOptimized)
!609 = !DISubroutineType(types: !610)
!610 = !{!460, !315}
!611 = !DISubprogram(name: "end", linkageName: "_ZNSt8_Rb_treeIjjSt9_IdentityIjESt4lessIjESaIjEE3endEv", scope: !39, file: !4, line: 968, type: !606, scopeLine: 968, flags: DIFlagPublic | DIFlagPrototyped, spFlags: DISPFlagOptimized)
!612 = !DISubprogram(name: "end", linkageName: "_ZNKSt8_Rb_treeIjjSt9_IdentityIjESt4lessIjESaIjEE3endEv", scope: !39, file: !4, line: 972, type: !609, scopeLine: 972, flags: DIFlagPublic | DIFlagPrototyped, spFlags: DISPFlagOptimized)
!613 = !DISubprogram(name: "rbegin", linkageName: "_ZNSt8_Rb_treeIjjSt9_IdentityIjESt4lessIjESaIjEE6rbeginEv", scope: !39, file: !4, line: 976, type: !614, scopeLine: 976, flags: DIFlagPublic | DIFlagPrototyped, spFlags: DISPFlagOptimized)
!614 = !DISubroutineType(types: !615)
!615 = !{!616, !309}
!616 = !DIDerivedType(tag: DW_TAG_typedef, name: "reverse_iterator", scope: !39, file: !4, line: 806, baseType: !617)
!617 = distinct !DICompositeType(tag: DW_TAG_class_type, name: "reverse_iterator<std::_Rb_tree_iterator<unsigned int> >", scope: !5, file: !618, line: 101, flags: DIFlagFwdDecl, identifier: "_ZTSSt16reverse_iteratorISt17_Rb_tree_iteratorIjEE")
!618 = !DIFile(filename: "/usr/lib/gcc/x86_64-linux-gnu/7.5.0/../../../../include/c++/7.5.0/bits/stl_iterator.h", directory: "")
!619 = !DISubprogram(name: "rbegin", linkageName: "_ZNKSt8_Rb_treeIjjSt9_IdentityIjESt4lessIjESaIjEE6rbeginEv", scope: !39, file: !4, line: 980, type: !620, scopeLine: 980, flags: DIFlagPublic | DIFlagPrototyped, spFlags: DISPFlagOptimized)
!620 = !DISubroutineType(types: !621)
!621 = !{!622, !315}
!622 = !DIDerivedType(tag: DW_TAG_typedef, name: "const_reverse_iterator", scope: !39, file: !4, line: 807, baseType: !623)
!623 = distinct !DICompositeType(tag: DW_TAG_class_type, name: "reverse_iterator<std::_Rb_tree_const_iterator<unsigned int> >", scope: !5, file: !618, line: 101, flags: DIFlagFwdDecl, identifier: "_ZTSSt16reverse_iteratorISt23_Rb_tree_const_iteratorIjEE")
!624 = !DISubprogram(name: "rend", linkageName: "_ZNSt8_Rb_treeIjjSt9_IdentityIjESt4lessIjESaIjEE4rendEv", scope: !39, file: !4, line: 984, type: !614, scopeLine: 984, flags: DIFlagPublic | DIFlagPrototyped, spFlags: DISPFlagOptimized)
!625 = !DISubprogram(name: "rend", linkageName: "_ZNKSt8_Rb_treeIjjSt9_IdentityIjESt4lessIjESaIjEE4rendEv", scope: !39, file: !4, line: 988, type: !620, scopeLine: 988, flags: DIFlagPublic | DIFlagPrototyped, spFlags: DISPFlagOptimized)
!626 = !DISubprogram(name: "empty", linkageName: "_ZNKSt8_Rb_treeIjjSt9_IdentityIjESt4lessIjESaIjEE5emptyEv", scope: !39, file: !4, line: 992, type: !627, scopeLine: 992, flags: DIFlagPublic | DIFlagPrototyped, spFlags: DISPFlagOptimized)
!627 = !DISubroutineType(types: !628)
!628 = !{!98, !315}
!629 = !DISubprogram(name: "size", linkageName: "_ZNKSt8_Rb_treeIjjSt9_IdentityIjESt4lessIjESaIjEE4sizeEv", scope: !39, file: !4, line: 996, type: !630, scopeLine: 996, flags: DIFlagPublic | DIFlagPrototyped, spFlags: DISPFlagOptimized)
!630 = !DISubroutineType(types: !631)
!631 = !{!632, !315}
!632 = !DIDerivedType(tag: DW_TAG_typedef, name: "size_type", file: !4, line: 569, baseType: !63)
!633 = !DISubprogram(name: "max_size", linkageName: "_ZNKSt8_Rb_treeIjjSt9_IdentityIjESt4lessIjESaIjEE8max_sizeEv", scope: !39, file: !4, line: 1000, type: !630, scopeLine: 1000, flags: DIFlagPublic | DIFlagPrototyped, spFlags: DISPFlagOptimized)
!634 = !DISubprogram(name: "swap", linkageName: "_ZNSt8_Rb_treeIjjSt9_IdentityIjESt4lessIjESaIjEE4swapERS5_", scope: !39, file: !4, line: 1004, type: !635, scopeLine: 1004, flags: DIFlagPublic | DIFlagPrototyped, spFlags: DISPFlagOptimized)
!635 = !DISubroutineType(types: !636)
!636 = !{null, !309, !601}
!637 = !DISubprogram(name: "_M_erase_aux", linkageName: "_ZNSt8_Rb_treeIjjSt9_IdentityIjESt4lessIjESaIjEE12_M_erase_auxESt23_Rb_tree_const_iteratorIjE", scope: !39, file: !4, line: 1097, type: !638, scopeLine: 1097, flags: DIFlagPrototyped, spFlags: DISPFlagOptimized)
!638 = !DISubroutineType(types: !639)
!639 = !{null, !309, !460}
!640 = !DISubprogram(name: "_M_erase_aux", linkageName: "_ZNSt8_Rb_treeIjjSt9_IdentityIjESt4lessIjESaIjEE12_M_erase_auxESt23_Rb_tree_const_iteratorIjES7_", scope: !39, file: !4, line: 1100, type: !641, scopeLine: 1100, flags: DIFlagPrototyped, spFlags: DISPFlagOptimized)
!641 = !DISubroutineType(types: !642)
!642 = !{null, !309, !460, !460}
!643 = !DISubprogram(name: "erase", linkageName: "_ZNSt8_Rb_treeIjjSt9_IdentityIjESt4lessIjESaIjEE5eraseB5cxx11ESt23_Rb_tree_const_iteratorIjE", scope: !39, file: !4, line: 1108, type: !644, scopeLine: 1108, flags: DIFlagPublic | DIFlagPrototyped, spFlags: DISPFlagOptimized)
!644 = !DISubroutineType(types: !645)
!645 = !{!550, !309, !460}
!646 = !DISubprogram(name: "erase", linkageName: "_ZNSt8_Rb_treeIjjSt9_IdentityIjESt4lessIjESaIjEE5eraseB5cxx11ESt17_Rb_tree_iteratorIjE", scope: !39, file: !4, line: 1120, type: !647, scopeLine: 1120, flags: DIFlagPublic | DIFlagPrototyped, spFlags: DISPFlagOptimized)
!647 = !DISubroutineType(types: !648)
!648 = !{!550, !309, !550}
!649 = !DISubprogram(name: "erase", linkageName: "_ZNSt8_Rb_treeIjjSt9_IdentityIjESt4lessIjESaIjEE5eraseERKj", scope: !39, file: !4, line: 1144, type: !650, scopeLine: 1144, flags: DIFlagPublic | DIFlagPrototyped, spFlags: DISPFlagOptimized)
!650 = !DISubroutineType(types: !651)
!651 = !{!652, !309, !453}
!652 = !DIDerivedType(tag: DW_TAG_typedef, name: "size_type", scope: !39, file: !4, line: 569, baseType: !63)
!653 = !DISubprogram(name: "erase", linkageName: "_ZNSt8_Rb_treeIjjSt9_IdentityIjESt4lessIjESaIjEE5eraseB5cxx11ESt23_Rb_tree_const_iteratorIjES7_", scope: !39, file: !4, line: 1151, type: !654, scopeLine: 1151, flags: DIFlagPublic | DIFlagPrototyped, spFlags: DISPFlagOptimized)
!654 = !DISubroutineType(types: !655)
!655 = !{!550, !309, !460, !460}
!656 = !DISubprogram(name: "erase", linkageName: "_ZNSt8_Rb_treeIjjSt9_IdentityIjESt4lessIjESaIjEE5eraseEPKjS7_", scope: !39, file: !4, line: 1166, type: !657, scopeLine: 1166, flags: DIFlagPublic | DIFlagPrototyped, spFlags: DISPFlagOptimized)
!657 = !DISubroutineType(types: !658)
!658 = !{null, !309, !659, !659}
!659 = !DIDerivedType(tag: DW_TAG_pointer_type, baseType: !454, size: 64)
!660 = !DISubprogram(name: "clear", linkageName: "_ZNSt8_Rb_treeIjjSt9_IdentityIjESt4lessIjESaIjEE5clearEv", scope: !39, file: !4, line: 1169, type: !571, scopeLine: 1169, flags: DIFlagPublic | DIFlagPrototyped, spFlags: DISPFlagOptimized)
!661 = !DISubprogram(name: "find", linkageName: "_ZNSt8_Rb_treeIjjSt9_IdentityIjESt4lessIjESaIjEE4findERKj", scope: !39, file: !4, line: 1177, type: !662, scopeLine: 1177, flags: DIFlagPublic | DIFlagPrototyped, spFlags: DISPFlagOptimized)
!662 = !DISubroutineType(types: !663)
!663 = !{!550, !309, !453}
!664 = !DISubprogram(name: "find", linkageName: "_ZNKSt8_Rb_treeIjjSt9_IdentityIjESt4lessIjESaIjEE4findERKj", scope: !39, file: !4, line: 1180, type: !665, scopeLine: 1180, flags: DIFlagPublic | DIFlagPrototyped, spFlags: DISPFlagOptimized)
!665 = !DISubroutineType(types: !666)
!666 = !{!460, !315, !453}
!667 = !DISubprogram(name: "count", linkageName: "_ZNKSt8_Rb_treeIjjSt9_IdentityIjESt4lessIjESaIjEE5countERKj", scope: !39, file: !4, line: 1183, type: !668, scopeLine: 1183, flags: DIFlagPublic | DIFlagPrototyped, spFlags: DISPFlagOptimized)
!668 = !DISubroutineType(types: !669)
!669 = !{!652, !315, !453}
!670 = !DISubprogram(name: "lower_bound", linkageName: "_ZNSt8_Rb_treeIjjSt9_IdentityIjESt4lessIjESaIjEE11lower_boundERKj", scope: !39, file: !4, line: 1186, type: !662, scopeLine: 1186, flags: DIFlagPublic | DIFlagPrototyped, spFlags: DISPFlagOptimized)
!671 = !DISubprogram(name: "lower_bound", linkageName: "_ZNKSt8_Rb_treeIjjSt9_IdentityIjESt4lessIjESaIjEE11lower_boundERKj", scope: !39, file: !4, line: 1190, type: !665, scopeLine: 1190, flags: DIFlagPublic | DIFlagPrototyped, spFlags: DISPFlagOptimized)
!672 = !DISubprogram(name: "upper_bound", linkageName: "_ZNSt8_Rb_treeIjjSt9_IdentityIjESt4lessIjESaIjEE11upper_boundERKj", scope: !39, file: !4, line: 1194, type: !662, scopeLine: 1194, flags: DIFlagPublic | DIFlagPrototyped, spFlags: DISPFlagOptimized)
!673 = !DISubprogram(name: "upper_bound", linkageName: "_ZNKSt8_Rb_treeIjjSt9_IdentityIjESt4lessIjESaIjEE11upper_boundERKj", scope: !39, file: !4, line: 1198, type: !665, scopeLine: 1198, flags: DIFlagPublic | DIFlagPrototyped, spFlags: DISPFlagOptimized)
!674 = !DISubprogram(name: "equal_range", linkageName: "_ZNSt8_Rb_treeIjjSt9_IdentityIjESt4lessIjESaIjEE11equal_rangeERKj", scope: !39, file: !4, line: 1202, type: !675, scopeLine: 1202, flags: DIFlagPublic | DIFlagPrototyped, spFlags: DISPFlagOptimized)
!675 = !DISubroutineType(types: !676)
!676 = !{!677, !309, !453}
!677 = distinct !DICompositeType(tag: DW_TAG_structure_type, name: "pair<std::_Rb_tree_iterator<unsigned int>, std::_Rb_tree_iterator<unsigned int> >", scope: !5, file: !390, line: 208, flags: DIFlagFwdDecl, identifier: "_ZTSSt4pairISt17_Rb_tree_iteratorIjES1_E")
!678 = !DISubprogram(name: "equal_range", linkageName: "_ZNKSt8_Rb_treeIjjSt9_IdentityIjESt4lessIjESaIjEE11equal_rangeERKj", scope: !39, file: !4, line: 1205, type: !679, scopeLine: 1205, flags: DIFlagPublic | DIFlagPrototyped, spFlags: DISPFlagOptimized)
!679 = !DISubroutineType(types: !680)
!680 = !{!681, !315, !453}
!681 = distinct !DICompositeType(tag: DW_TAG_structure_type, name: "pair<std::_Rb_tree_const_iterator<unsigned int>, std::_Rb_tree_const_iterator<unsigned int> >", scope: !5, file: !390, line: 208, flags: DIFlagFwdDecl, identifier: "_ZTSSt4pairISt23_Rb_tree_const_iteratorIjES1_E")
!682 = !DISubprogram(name: "__rb_verify", linkageName: "_ZNKSt8_Rb_treeIjjSt9_IdentityIjESt4lessIjESaIjEE11__rb_verifyEv", scope: !39, file: !4, line: 1326, type: !627, scopeLine: 1326, flags: DIFlagPublic | DIFlagPrototyped, spFlags: DISPFlagOptimized)
!683 = !DISubprogram(name: "operator=", linkageName: "_ZNSt8_Rb_treeIjjSt9_IdentityIjESt4lessIjESaIjEEaSEOS5_", scope: !39, file: !4, line: 1330, type: !684, scopeLine: 1330, flags: DIFlagPublic | DIFlagPrototyped, spFlags: DISPFlagOptimized)
!684 = !DISubroutineType(types: !685)
!685 = !{!601, !309, !590}
!686 = !DISubprogram(name: "_M_move_data", linkageName: "_ZNSt8_Rb_treeIjjSt9_IdentityIjESt4lessIjESaIjEE12_M_move_dataERS5_St17integral_constantIbLb1EE", scope: !39, file: !4, line: 1345, type: !687, scopeLine: 1345, flags: DIFlagPrototyped, spFlags: DISPFlagOptimized)
!687 = !DISubroutineType(types: !688)
!688 = !{null, !309, !601, !689}
!689 = !DIDerivedType(tag: DW_TAG_typedef, name: "true_type", scope: !5, file: !429, line: 87, baseType: !690)
!690 = distinct !DICompositeType(tag: DW_TAG_structure_type, name: "integral_constant<bool, true>", scope: !5, file: !429, line: 69, size: 8, flags: DIFlagTypePassByValue, elements: !691, templateParams: !701, identifier: "_ZTSSt17integral_constantIbLb1EE")
!691 = !{!692, !694, !700}
!692 = !DIDerivedType(tag: DW_TAG_member, name: "value", scope: !690, file: !429, line: 71, baseType: !693, flags: DIFlagStaticMember, extraData: i1 true)
!693 = !DIDerivedType(tag: DW_TAG_const_type, baseType: !98)
!694 = !DISubprogram(name: "operator bool", linkageName: "_ZNKSt17integral_constantIbLb1EEcvbEv", scope: !690, file: !429, line: 74, type: !695, scopeLine: 74, flags: DIFlagPrototyped, spFlags: DISPFlagOptimized)
!695 = !DISubroutineType(types: !696)
!696 = !{!697, !698}
!697 = !DIDerivedType(tag: DW_TAG_typedef, name: "value_type", scope: !690, file: !429, line: 72, baseType: !98)
!698 = !DIDerivedType(tag: DW_TAG_pointer_type, baseType: !699, size: 64, flags: DIFlagArtificial | DIFlagObjectPointer)
!699 = !DIDerivedType(tag: DW_TAG_const_type, baseType: !690)
!700 = !DISubprogram(name: "operator()", linkageName: "_ZNKSt17integral_constantIbLb1EEclEv", scope: !690, file: !429, line: 79, type: !695, scopeLine: 79, flags: DIFlagPrototyped, spFlags: DISPFlagOptimized)
!701 = !{!702, !703}
!702 = !DITemplateTypeParameter(name: "_Tp", type: !98)
!703 = !DITemplateValueParameter(name: "__v", type: !98, value: i8 1)
!704 = !DISubprogram(name: "_M_move_data", linkageName: "_ZNSt8_Rb_treeIjjSt9_IdentityIjESt4lessIjESaIjEE12_M_move_dataERS5_St17integral_constantIbLb0EE", scope: !39, file: !4, line: 1351, type: !705, scopeLine: 1351, flags: DIFlagPrototyped, spFlags: DISPFlagOptimized)
!705 = !DISubroutineType(types: !706)
!706 = !{null, !309, !601, !707}
!707 = !DIDerivedType(tag: DW_TAG_typedef, name: "false_type", scope: !5, file: !429, line: 90, baseType: !708)
!708 = distinct !DICompositeType(tag: DW_TAG_structure_type, name: "integral_constant<bool, false>", scope: !5, file: !429, line: 69, size: 8, flags: DIFlagTypePassByValue, elements: !709, templateParams: !718, identifier: "_ZTSSt17integral_constantIbLb0EE")
!709 = !{!710, !711, !717}
!710 = !DIDerivedType(tag: DW_TAG_member, name: "value", scope: !708, file: !429, line: 71, baseType: !693, flags: DIFlagStaticMember, extraData: i1 false)
!711 = !DISubprogram(name: "operator bool", linkageName: "_ZNKSt17integral_constantIbLb0EEcvbEv", scope: !708, file: !429, line: 74, type: !712, scopeLine: 74, flags: DIFlagPrototyped, spFlags: DISPFlagOptimized)
!712 = !DISubroutineType(types: !713)
!713 = !{!714, !715}
!714 = !DIDerivedType(tag: DW_TAG_typedef, name: "value_type", scope: !708, file: !429, line: 72, baseType: !98)
!715 = !DIDerivedType(tag: DW_TAG_pointer_type, baseType: !716, size: 64, flags: DIFlagArtificial | DIFlagObjectPointer)
!716 = !DIDerivedType(tag: DW_TAG_const_type, baseType: !708)
!717 = !DISubprogram(name: "operator()", linkageName: "_ZNKSt17integral_constantIbLb0EEclEv", scope: !708, file: !429, line: 79, type: !712, scopeLine: 79, flags: DIFlagPrototyped, spFlags: DISPFlagOptimized)
!718 = !{!702, !719}
!719 = !DITemplateValueParameter(name: "__v", type: !98, value: i8 0)
!720 = !DISubprogram(name: "_M_move_assign", linkageName: "_ZNSt8_Rb_treeIjjSt9_IdentityIjESt4lessIjESaIjEE14_M_move_assignERS5_St17integral_constantIbLb1EE", scope: !39, file: !4, line: 1355, type: !687, scopeLine: 1355, flags: DIFlagPrototyped, spFlags: DISPFlagOptimized)
!721 = !DISubprogram(name: "_M_move_assign", linkageName: "_ZNSt8_Rb_treeIjjSt9_IdentityIjESt4lessIjESaIjEE14_M_move_assignERS5_St17integral_constantIbLb0EE", scope: !39, file: !4, line: 1360, type: !705, scopeLine: 1360, flags: DIFlagPrototyped, spFlags: DISPFlagOptimized)
!722 = !{!723, !175, !724, !740, !85}
!723 = !DITemplateTypeParameter(name: "_Key", type: !6)
!724 = !DITemplateTypeParameter(name: "_KeyOfValue", type: !725)
!725 = distinct !DICompositeType(tag: DW_TAG_structure_type, name: "_Identity<unsigned int>", scope: !5, file: !235, line: 869, size: 8, flags: DIFlagTypePassByValue, elements: !726, templateParams: !163, identifier: "_ZTSSt9_IdentityIjE")
!726 = !{!727, !732, !737}
!727 = !DIDerivedType(tag: DW_TAG_inheritance, scope: !725, baseType: !728, extraData: i32 0)
!728 = distinct !DICompositeType(tag: DW_TAG_structure_type, name: "unary_function<unsigned int, unsigned int>", scope: !5, file: !235, line: 105, size: 8, flags: DIFlagTypePassByValue, elements: !103, templateParams: !729, identifier: "_ZTSSt14unary_functionIjjE")
!729 = !{!730, !731}
!730 = !DITemplateTypeParameter(name: "_Arg", type: !6)
!731 = !DITemplateTypeParameter(name: "_Result", type: !6)
!732 = !DISubprogram(name: "operator()", linkageName: "_ZNKSt9_IdentityIjEclERj", scope: !725, file: !235, line: 873, type: !733, scopeLine: 873, flags: DIFlagPrototyped, spFlags: DISPFlagOptimized)
!733 = !DISubroutineType(types: !734)
!734 = !{!493, !735, !493}
!735 = !DIDerivedType(tag: DW_TAG_pointer_type, baseType: !736, size: 64, flags: DIFlagArtificial | DIFlagObjectPointer)
!736 = !DIDerivedType(tag: DW_TAG_const_type, baseType: !725)
!737 = !DISubprogram(name: "operator()", linkageName: "_ZNKSt9_IdentityIjEclERKj", scope: !725, file: !235, line: 877, type: !738, scopeLine: 877, flags: DIFlagPrototyped, spFlags: DISPFlagOptimized)
!738 = !DISubroutineType(types: !739)
!739 = !{!248, !735, !248}
!740 = !DITemplateTypeParameter(name: "_Compare", type: !234)
!741 = !DISubprogram(name: "set", scope: !34, file: !35, line: 157, type: !742, scopeLine: 157, flags: DIFlagPublic | DIFlagPrototyped, spFlags: DISPFlagOptimized)
!742 = !DISubroutineType(types: !743)
!743 = !{null, !744}
!744 = !DIDerivedType(tag: DW_TAG_pointer_type, baseType: !34, size: 64, flags: DIFlagArtificial | DIFlagObjectPointer)
!745 = !DISubprogram(name: "set", scope: !34, file: !35, line: 166, type: !746, scopeLine: 166, flags: DIFlagPublic | DIFlagExplicit | DIFlagPrototyped, spFlags: DISPFlagOptimized)
!746 = !DISubroutineType(types: !747)
!747 = !{null, !744, !256, !748}
!748 = !DIDerivedType(tag: DW_TAG_reference_type, baseType: !749, size: 64)
!749 = !DIDerivedType(tag: DW_TAG_const_type, baseType: !750)
!750 = !DIDerivedType(tag: DW_TAG_typedef, name: "allocator_type", scope: !34, file: !35, line: 114, baseType: !60)
!751 = !DISubprogram(name: "set", scope: !34, file: !35, line: 213, type: !752, scopeLine: 213, flags: DIFlagPublic | DIFlagPrototyped, spFlags: DISPFlagOptimized)
!752 = !DISubroutineType(types: !753)
!753 = !{null, !744, !754}
!754 = !DIDerivedType(tag: DW_TAG_reference_type, baseType: !755, size: 64)
!755 = !DIDerivedType(tag: DW_TAG_const_type, baseType: !34)
!756 = !DISubprogram(name: "set", scope: !34, file: !35, line: 221, type: !757, scopeLine: 221, flags: DIFlagPublic | DIFlagPrototyped, spFlags: DISPFlagOptimized)
!757 = !DISubroutineType(types: !758)
!758 = !{null, !744, !759}
!759 = !DIDerivedType(tag: DW_TAG_rvalue_reference_type, baseType: !34, size: 64)
!760 = !DISubprogram(name: "set", scope: !34, file: !35, line: 233, type: !761, scopeLine: 233, flags: DIFlagPublic | DIFlagPrototyped, spFlags: DISPFlagOptimized)
!761 = !DISubroutineType(types: !762)
!762 = !{null, !744, !763, !256, !748}
!763 = distinct !DICompositeType(tag: DW_TAG_class_type, name: "initializer_list<unsigned int>", scope: !5, file: !764, line: 47, flags: DIFlagFwdDecl, identifier: "_ZTSSt16initializer_listIjE")
!764 = !DIFile(filename: "/usr/lib/gcc/x86_64-linux-gnu/7.5.0/../../../../include/c++/7.5.0/initializer_list", directory: "")
!765 = !DISubprogram(name: "set", scope: !34, file: !35, line: 241, type: !766, scopeLine: 241, flags: DIFlagPublic | DIFlagExplicit | DIFlagPrototyped, spFlags: DISPFlagOptimized)
!766 = !DISubroutineType(types: !767)
!767 = !{null, !744, !748}
!768 = !DISubprogram(name: "set", scope: !34, file: !35, line: 245, type: !769, scopeLine: 245, flags: DIFlagPublic | DIFlagPrototyped, spFlags: DISPFlagOptimized)
!769 = !DISubroutineType(types: !770)
!770 = !{null, !744, !754, !748}
!771 = !DISubprogram(name: "set", scope: !34, file: !35, line: 249, type: !772, scopeLine: 249, flags: DIFlagPublic | DIFlagPrototyped, spFlags: DISPFlagOptimized)
!772 = !DISubroutineType(types: !773)
!773 = !{null, !744, !759, !748}
!774 = !DISubprogram(name: "set", scope: !34, file: !35, line: 255, type: !775, scopeLine: 255, flags: DIFlagPublic | DIFlagPrototyped, spFlags: DISPFlagOptimized)
!775 = !DISubroutineType(types: !776)
!776 = !{null, !744, !763, !748}
!777 = !DISubprogram(name: "~set", scope: !34, file: !35, line: 271, type: !742, scopeLine: 271, flags: DIFlagPublic | DIFlagPrototyped, spFlags: DISPFlagOptimized)
!778 = !DISubprogram(name: "operator=", linkageName: "_ZNSt3setIjSt4lessIjESaIjEEaSERKS3_", scope: !34, file: !35, line: 288, type: !779, scopeLine: 288, flags: DIFlagPublic | DIFlagPrototyped, spFlags: DISPFlagOptimized)
!779 = !DISubroutineType(types: !780)
!780 = !{!781, !744, !754}
!781 = !DIDerivedType(tag: DW_TAG_reference_type, baseType: !34, size: 64)
!782 = !DISubprogram(name: "operator=", linkageName: "_ZNSt3setIjSt4lessIjESaIjEEaSEOS3_", scope: !34, file: !35, line: 292, type: !783, scopeLine: 292, flags: DIFlagPublic | DIFlagPrototyped, spFlags: DISPFlagOptimized)
!783 = !DISubroutineType(types: !784)
!784 = !{!781, !744, !759}
!785 = !DISubprogram(name: "operator=", linkageName: "_ZNSt3setIjSt4lessIjESaIjEEaSESt16initializer_listIjE", scope: !34, file: !35, line: 306, type: !786, scopeLine: 306, flags: DIFlagPublic | DIFlagPrototyped, spFlags: DISPFlagOptimized)
!786 = !DISubroutineType(types: !787)
!787 = !{!781, !744, !763}
!788 = !DISubprogram(name: "key_comp", linkageName: "_ZNKSt3setIjSt4lessIjESaIjEE8key_compEv", scope: !34, file: !35, line: 317, type: !789, scopeLine: 317, flags: DIFlagPublic | DIFlagPrototyped, spFlags: DISPFlagOptimized)
!789 = !DISubroutineType(types: !790)
!790 = !{!791, !792}
!791 = !DIDerivedType(tag: DW_TAG_typedef, name: "key_compare", scope: !34, file: !35, line: 112, baseType: !234)
!792 = !DIDerivedType(tag: DW_TAG_pointer_type, baseType: !755, size: 64, flags: DIFlagArtificial | DIFlagObjectPointer)
!793 = !DISubprogram(name: "value_comp", linkageName: "_ZNKSt3setIjSt4lessIjESaIjEE10value_compEv", scope: !34, file: !35, line: 321, type: !794, scopeLine: 321, flags: DIFlagPublic | DIFlagPrototyped, spFlags: DISPFlagOptimized)
!794 = !DISubroutineType(types: !795)
!795 = !{!796, !792}
!796 = !DIDerivedType(tag: DW_TAG_typedef, name: "value_compare", scope: !34, file: !35, line: 113, baseType: !234)
!797 = !DISubprogram(name: "get_allocator", linkageName: "_ZNKSt3setIjSt4lessIjESaIjEE13get_allocatorEv", scope: !34, file: !35, line: 325, type: !798, scopeLine: 325, flags: DIFlagPublic | DIFlagPrototyped, spFlags: DISPFlagOptimized)
!798 = !DISubroutineType(types: !799)
!799 = !{!750, !792}
!800 = !DISubprogram(name: "begin", linkageName: "_ZNKSt3setIjSt4lessIjESaIjEE5beginEv", scope: !34, file: !35, line: 334, type: !801, scopeLine: 334, flags: DIFlagPublic | DIFlagPrototyped, spFlags: DISPFlagOptimized)
!801 = !DISubroutineType(types: !802)
!802 = !{!803, !792}
!803 = !DIDerivedType(tag: DW_TAG_typedef, name: "iterator", scope: !34, file: !35, line: 137, baseType: !460)
!804 = !DISubprogram(name: "end", linkageName: "_ZNKSt3setIjSt4lessIjESaIjEE3endEv", scope: !34, file: !35, line: 343, type: !801, scopeLine: 343, flags: DIFlagPublic | DIFlagPrototyped, spFlags: DISPFlagOptimized)
!805 = !DISubprogram(name: "rbegin", linkageName: "_ZNKSt3setIjSt4lessIjESaIjEE6rbeginEv", scope: !34, file: !35, line: 352, type: !806, scopeLine: 352, flags: DIFlagPublic | DIFlagPrototyped, spFlags: DISPFlagOptimized)
!806 = !DISubroutineType(types: !807)
!807 = !{!808, !792}
!808 = !DIDerivedType(tag: DW_TAG_typedef, name: "reverse_iterator", scope: !34, file: !35, line: 139, baseType: !622)
!809 = !DISubprogram(name: "rend", linkageName: "_ZNKSt3setIjSt4lessIjESaIjEE4rendEv", scope: !34, file: !35, line: 361, type: !806, scopeLine: 361, flags: DIFlagPublic | DIFlagPrototyped, spFlags: DISPFlagOptimized)
!810 = !DISubprogram(name: "cbegin", linkageName: "_ZNKSt3setIjSt4lessIjESaIjEE6cbeginEv", scope: !34, file: !35, line: 371, type: !801, scopeLine: 371, flags: DIFlagPublic | DIFlagPrototyped, spFlags: DISPFlagOptimized)
!811 = !DISubprogram(name: "cend", linkageName: "_ZNKSt3setIjSt4lessIjESaIjEE4cendEv", scope: !34, file: !35, line: 380, type: !801, scopeLine: 380, flags: DIFlagPublic | DIFlagPrototyped, spFlags: DISPFlagOptimized)
!812 = !DISubprogram(name: "crbegin", linkageName: "_ZNKSt3setIjSt4lessIjESaIjEE7crbeginEv", scope: !34, file: !35, line: 389, type: !806, scopeLine: 389, flags: DIFlagPublic | DIFlagPrototyped, spFlags: DISPFlagOptimized)
!813 = !DISubprogram(name: "crend", linkageName: "_ZNKSt3setIjSt4lessIjESaIjEE5crendEv", scope: !34, file: !35, line: 398, type: !806, scopeLine: 398, flags: DIFlagPublic | DIFlagPrototyped, spFlags: DISPFlagOptimized)
!814 = !DISubprogram(name: "empty", linkageName: "_ZNKSt3setIjSt4lessIjESaIjEE5emptyEv", scope: !34, file: !35, line: 404, type: !815, scopeLine: 404, flags: DIFlagPublic | DIFlagPrototyped, spFlags: DISPFlagOptimized)
!815 = !DISubroutineType(types: !816)
!816 = !{!98, !792}
!817 = !DISubprogram(name: "size", linkageName: "_ZNKSt3setIjSt4lessIjESaIjEE4sizeEv", scope: !34, file: !35, line: 409, type: !818, scopeLine: 409, flags: DIFlagPublic | DIFlagPrototyped, spFlags: DISPFlagOptimized)
!818 = !DISubroutineType(types: !819)
!819 = !{!820, !792}
!820 = !DIDerivedType(tag: DW_TAG_typedef, name: "size_type", scope: !34, file: !35, line: 141, baseType: !652)
!821 = !DISubprogram(name: "max_size", linkageName: "_ZNKSt3setIjSt4lessIjESaIjEE8max_sizeEv", scope: !34, file: !35, line: 414, type: !818, scopeLine: 414, flags: DIFlagPublic | DIFlagPrototyped, spFlags: DISPFlagOptimized)
!822 = !DISubprogram(name: "swap", linkageName: "_ZNSt3setIjSt4lessIjESaIjEE4swapERS3_", scope: !34, file: !35, line: 431, type: !823, scopeLine: 431, flags: DIFlagPublic | DIFlagPrototyped, spFlags: DISPFlagOptimized)
!823 = !DISubroutineType(types: !824)
!824 = !{null, !744, !781}
!825 = !DISubprogram(name: "insert", linkageName: "_ZNSt3setIjSt4lessIjESaIjEE6insertERKj", scope: !34, file: !35, line: 499, type: !826, scopeLine: 499, flags: DIFlagPublic | DIFlagPrototyped, spFlags: DISPFlagOptimized)
!826 = !DISubroutineType(types: !827)
!827 = !{!828, !744, !883}
!828 = distinct !DICompositeType(tag: DW_TAG_structure_type, name: "pair<std::_Rb_tree_const_iterator<unsigned int>, bool>", scope: !5, file: !390, line: 208, size: 128, flags: DIFlagTypePassByValue | DIFlagNonTrivial, elements: !829, templateParams: !880, identifier: "_ZTSSt4pairISt23_Rb_tree_const_iteratorIjEbE")
!829 = !{!830, !850, !851, !852, !858, !862, !870, !877}
!830 = !DIDerivedType(tag: DW_TAG_inheritance, scope: !828, baseType: !831, flags: DIFlagPrivate, extraData: i32 0)
!831 = distinct !DICompositeType(tag: DW_TAG_class_type, name: "__pair_base<std::_Rb_tree_const_iterator<unsigned int>, bool>", scope: !5, file: !390, line: 190, size: 8, flags: DIFlagTypePassByValue, elements: !832, templateParams: !847, identifier: "_ZTSSt11__pair_baseISt23_Rb_tree_const_iteratorIjEbE")
!832 = !{!833, !837, !838, !843}
!833 = !DISubprogram(name: "__pair_base", scope: !831, file: !390, line: 194, type: !834, scopeLine: 194, flags: DIFlagPrototyped, spFlags: DISPFlagOptimized)
!834 = !DISubroutineType(types: !835)
!835 = !{null, !836}
!836 = !DIDerivedType(tag: DW_TAG_pointer_type, baseType: !831, size: 64, flags: DIFlagArtificial | DIFlagObjectPointer)
!837 = !DISubprogram(name: "~__pair_base", scope: !831, file: !390, line: 195, type: !834, scopeLine: 195, flags: DIFlagPrototyped, spFlags: DISPFlagOptimized)
!838 = !DISubprogram(name: "__pair_base", scope: !831, file: !390, line: 196, type: !839, scopeLine: 196, flags: DIFlagPrototyped, spFlags: DISPFlagOptimized)
!839 = !DISubroutineType(types: !840)
!840 = !{null, !836, !841}
!841 = !DIDerivedType(tag: DW_TAG_reference_type, baseType: !842, size: 64)
!842 = !DIDerivedType(tag: DW_TAG_const_type, baseType: !831)
!843 = !DISubprogram(name: "operator=", linkageName: "_ZNSt11__pair_baseISt23_Rb_tree_const_iteratorIjEbEaSERKS2_", scope: !831, file: !390, line: 197, type: !844, scopeLine: 197, flags: DIFlagPrototyped, spFlags: DISPFlagOptimized | DISPFlagDeleted)
!844 = !DISubroutineType(types: !845)
!845 = !{!846, !836, !841}
!846 = !DIDerivedType(tag: DW_TAG_reference_type, baseType: !831, size: 64)
!847 = !{!848, !849}
!848 = !DITemplateTypeParameter(name: "_U1", type: !461)
!849 = !DITemplateTypeParameter(name: "_U2", type: !98)
!850 = !DIDerivedType(tag: DW_TAG_member, name: "first", scope: !828, file: !390, line: 214, baseType: !461, size: 64)
!851 = !DIDerivedType(tag: DW_TAG_member, name: "second", scope: !828, file: !390, line: 215, baseType: !98, size: 8, offset: 64)
!852 = !DISubprogram(name: "pair", scope: !828, file: !390, line: 303, type: !853, scopeLine: 303, flags: DIFlagPrototyped, spFlags: DISPFlagOptimized)
!853 = !DISubroutineType(types: !854)
!854 = !{null, !855, !856}
!855 = !DIDerivedType(tag: DW_TAG_pointer_type, baseType: !828, size: 64, flags: DIFlagArtificial | DIFlagObjectPointer)
!856 = !DIDerivedType(tag: DW_TAG_reference_type, baseType: !857, size: 64)
!857 = !DIDerivedType(tag: DW_TAG_const_type, baseType: !828)
!858 = !DISubprogram(name: "pair", scope: !828, file: !390, line: 304, type: !859, scopeLine: 304, flags: DIFlagPrototyped, spFlags: DISPFlagOptimized)
!859 = !DISubroutineType(types: !860)
!860 = !{null, !855, !861}
!861 = !DIDerivedType(tag: DW_TAG_rvalue_reference_type, baseType: !828, size: 64)
!862 = !DISubprogram(name: "operator=", linkageName: "_ZNSt4pairISt23_Rb_tree_const_iteratorIjEbEaSERKS2_", scope: !828, file: !390, line: 378, type: !863, scopeLine: 378, flags: DIFlagPrototyped, spFlags: DISPFlagOptimized)
!863 = !DISubroutineType(types: !864)
!864 = !{!865, !855, !866}
!865 = !DIDerivedType(tag: DW_TAG_reference_type, baseType: !828, size: 64)
!866 = !DIDerivedType(tag: DW_TAG_typedef, name: "type", scope: !867, file: !429, line: 2166, baseType: !856)
!867 = distinct !DICompositeType(tag: DW_TAG_structure_type, name: "conditional<true, const std::pair<std::_Rb_tree_const_iterator<unsigned int>, bool> &, const std::__nonesuch_no_braces &>", scope: !5, file: !429, line: 2165, size: 8, flags: DIFlagTypePassByValue, elements: !103, templateParams: !868, identifier: "_ZTSSt11conditionalILb1ERKSt4pairISt23_Rb_tree_const_iteratorIjEbERKSt20__nonesuch_no_bracesE")
!868 = !{!432, !869, !434}
!869 = !DITemplateTypeParameter(name: "_Iftrue", type: !856)
!870 = !DISubprogram(name: "operator=", linkageName: "_ZNSt4pairISt23_Rb_tree_const_iteratorIjEbEaSEOS2_", scope: !828, file: !390, line: 389, type: !871, scopeLine: 389, flags: DIFlagPrototyped, spFlags: DISPFlagOptimized)
!871 = !DISubroutineType(types: !872)
!872 = !{!865, !855, !873}
!873 = !DIDerivedType(tag: DW_TAG_typedef, name: "type", scope: !874, file: !429, line: 2166, baseType: !861)
!874 = distinct !DICompositeType(tag: DW_TAG_structure_type, name: "conditional<true, std::pair<std::_Rb_tree_const_iterator<unsigned int>, bool> &&, std::__nonesuch_no_braces &&>", scope: !5, file: !429, line: 2165, size: 8, flags: DIFlagTypePassByValue, elements: !103, templateParams: !875, identifier: "_ZTSSt11conditionalILb1EOSt4pairISt23_Rb_tree_const_iteratorIjEbEOSt20__nonesuch_no_bracesE")
!875 = !{!432, !876, !445}
!876 = !DITemplateTypeParameter(name: "_Iftrue", type: !861)
!877 = !DISubprogram(name: "swap", linkageName: "_ZNSt4pairISt23_Rb_tree_const_iteratorIjEbE4swapERS2_", scope: !828, file: !390, line: 424, type: !878, scopeLine: 424, flags: DIFlagPrototyped, spFlags: DISPFlagOptimized)
!878 = !DISubroutineType(types: !879)
!879 = !{null, !855, !865}
!880 = !{!881, !882}
!881 = !DITemplateTypeParameter(name: "_T1", type: !461)
!882 = !DITemplateTypeParameter(name: "_T2", type: !98)
!883 = !DIDerivedType(tag: DW_TAG_reference_type, baseType: !884, size: 64)
!884 = !DIDerivedType(tag: DW_TAG_const_type, baseType: !885)
!885 = !DIDerivedType(tag: DW_TAG_typedef, name: "value_type", scope: !34, file: !35, line: 111, baseType: !6)
!886 = !DISubprogram(name: "insert", linkageName: "_ZNSt3setIjSt4lessIjESaIjEE6insertEOj", scope: !34, file: !35, line: 508, type: !887, scopeLine: 508, flags: DIFlagPublic | DIFlagPrototyped, spFlags: DISPFlagOptimized)
!887 = !DISubroutineType(types: !888)
!888 = !{!828, !744, !889}
!889 = !DIDerivedType(tag: DW_TAG_rvalue_reference_type, baseType: !885, size: 64)
!890 = !DISubprogram(name: "insert", linkageName: "_ZNSt3setIjSt4lessIjESaIjEE6insertESt23_Rb_tree_const_iteratorIjERKj", scope: !34, file: !35, line: 536, type: !891, scopeLine: 536, flags: DIFlagPublic | DIFlagPrototyped, spFlags: DISPFlagOptimized)
!891 = !DISubroutineType(types: !892)
!892 = !{!803, !744, !893, !883}
!893 = !DIDerivedType(tag: DW_TAG_typedef, name: "const_iterator", scope: !34, file: !35, line: 138, baseType: !460)
!894 = !DISubprogram(name: "insert", linkageName: "_ZNSt3setIjSt4lessIjESaIjEE6insertESt23_Rb_tree_const_iteratorIjEOj", scope: !34, file: !35, line: 541, type: !895, scopeLine: 541, flags: DIFlagPublic | DIFlagPrototyped, spFlags: DISPFlagOptimized)
!895 = !DISubroutineType(types: !896)
!896 = !{!803, !744, !893, !889}
!897 = !DISubprogram(name: "insert", linkageName: "_ZNSt3setIjSt4lessIjESaIjEE6insertESt16initializer_listIjE", scope: !34, file: !35, line: 568, type: !898, scopeLine: 568, flags: DIFlagPublic | DIFlagPrototyped, spFlags: DISPFlagOptimized)
!898 = !DISubroutineType(types: !899)
!899 = !{null, !744, !763}
!900 = !DISubprogram(name: "erase", linkageName: "_ZNSt3setIjSt4lessIjESaIjEE5eraseB5cxx11ESt23_Rb_tree_const_iteratorIjE", scope: !34, file: !35, line: 644, type: !901, scopeLine: 644, flags: DIFlagPublic | DIFlagPrototyped, spFlags: DISPFlagOptimized)
!901 = !DISubroutineType(types: !902)
!902 = !{!803, !744, !893}
!903 = !DISubprogram(name: "erase", linkageName: "_ZNSt3setIjSt4lessIjESaIjEE5eraseERKj", scope: !34, file: !35, line: 674, type: !904, scopeLine: 674, flags: DIFlagPublic | DIFlagPrototyped, spFlags: DISPFlagOptimized)
!904 = !DISubroutineType(types: !905)
!905 = !{!820, !744, !906}
!906 = !DIDerivedType(tag: DW_TAG_reference_type, baseType: !907, size: 64)
!907 = !DIDerivedType(tag: DW_TAG_const_type, baseType: !908)
!908 = !DIDerivedType(tag: DW_TAG_typedef, name: "key_type", scope: !34, file: !35, line: 110, baseType: !6)
!909 = !DISubprogram(name: "erase", linkageName: "_ZNSt3setIjSt4lessIjESaIjEE5eraseB5cxx11ESt23_Rb_tree_const_iteratorIjES5_", scope: !34, file: !35, line: 696, type: !910, scopeLine: 696, flags: DIFlagPublic | DIFlagPrototyped, spFlags: DISPFlagOptimized)
!910 = !DISubroutineType(types: !911)
!911 = !{!803, !744, !893, !893}
!912 = !DISubprogram(name: "clear", linkageName: "_ZNSt3setIjSt4lessIjESaIjEE5clearEv", scope: !34, file: !35, line: 723, type: !742, scopeLine: 723, flags: DIFlagPublic | DIFlagPrototyped, spFlags: DISPFlagOptimized)
!913 = !DISubprogram(name: "count", linkageName: "_ZNKSt3setIjSt4lessIjESaIjEE5countERKj", scope: !34, file: !35, line: 738, type: !914, scopeLine: 738, flags: DIFlagPublic | DIFlagPrototyped, spFlags: DISPFlagOptimized)
!914 = !DISubroutineType(types: !915)
!915 = !{!820, !792, !906}
!916 = !DISubprogram(name: "find", linkageName: "_ZNSt3setIjSt4lessIjESaIjEE4findERKj", scope: !34, file: !35, line: 765, type: !917, scopeLine: 765, flags: DIFlagPublic | DIFlagPrototyped, spFlags: DISPFlagOptimized)
!917 = !DISubroutineType(types: !918)
!918 = !{!803, !744, !906}
!919 = !DISubprogram(name: "find", linkageName: "_ZNKSt3setIjSt4lessIjESaIjEE4findERKj", scope: !34, file: !35, line: 769, type: !920, scopeLine: 769, flags: DIFlagPublic | DIFlagPrototyped, spFlags: DISPFlagOptimized)
!920 = !DISubroutineType(types: !921)
!921 = !{!893, !792, !906}
!922 = !DISubprogram(name: "lower_bound", linkageName: "_ZNSt3setIjSt4lessIjESaIjEE11lower_boundERKj", scope: !34, file: !35, line: 800, type: !917, scopeLine: 800, flags: DIFlagPublic | DIFlagPrototyped, spFlags: DISPFlagOptimized)
!923 = !DISubprogram(name: "lower_bound", linkageName: "_ZNKSt3setIjSt4lessIjESaIjEE11lower_boundERKj", scope: !34, file: !35, line: 804, type: !920, scopeLine: 804, flags: DIFlagPublic | DIFlagPrototyped, spFlags: DISPFlagOptimized)
!924 = !DISubprogram(name: "upper_bound", linkageName: "_ZNSt3setIjSt4lessIjESaIjEE11upper_boundERKj", scope: !34, file: !35, line: 830, type: !917, scopeLine: 830, flags: DIFlagPublic | DIFlagPrototyped, spFlags: DISPFlagOptimized)
!925 = !DISubprogram(name: "upper_bound", linkageName: "_ZNKSt3setIjSt4lessIjESaIjEE11upper_boundERKj", scope: !34, file: !35, line: 834, type: !920, scopeLine: 834, flags: DIFlagPublic | DIFlagPrototyped, spFlags: DISPFlagOptimized)
!926 = !DISubprogram(name: "equal_range", linkageName: "_ZNSt3setIjSt4lessIjESaIjEE11equal_rangeERKj", scope: !34, file: !35, line: 869, type: !927, scopeLine: 869, flags: DIFlagPublic | DIFlagPrototyped, spFlags: DISPFlagOptimized)
!927 = !DISubroutineType(types: !928)
!928 = !{!681, !744, !906}
!929 = !DISubprogram(name: "equal_range", linkageName: "_ZNKSt3setIjSt4lessIjESaIjEE11equal_rangeERKj", scope: !34, file: !35, line: 873, type: !930, scopeLine: 873, flags: DIFlagPublic | DIFlagPrototyped, spFlags: DISPFlagOptimized)
!930 = !DISubroutineType(types: !931)
!931 = !{!681, !792, !906}
!932 = !{!723, !740, !85}
!933 = !DIDerivedType(tag: DW_TAG_reference_type, baseType: !934, size: 64)
!934 = !DIDerivedType(tag: DW_TAG_typedef, name: "allocator_type", scope: !26, file: !27, line: 387, baseType: !935)
!935 = distinct !DICompositeType(tag: DW_TAG_class_type, name: "allocator<std::set<unsigned int, std::less<unsigned int>, std::allocator<unsigned int> > >", scope: !5, file: !61, line: 108, size: 8, flags: DIFlagTypePassByReference | DIFlagNonTrivial, elements: !936, templateParams: !972, identifier: "_ZTSSaISt3setIjSt4lessIjESaIjEEE")
!936 = !{!937, !974, !978, !983}
!937 = !DIDerivedType(tag: DW_TAG_inheritance, scope: !935, baseType: !938, flags: DIFlagPublic, extraData: i32 0)
!938 = !DIDerivedType(tag: DW_TAG_typedef, name: "__allocator_base<std::set<unsigned int, std::less<unsigned int>, std::allocator<unsigned int> > >", scope: !5, file: !181, line: 48, baseType: !939)
!939 = distinct !DICompositeType(tag: DW_TAG_class_type, name: "new_allocator<std::set<unsigned int, std::less<unsigned int>, std::allocator<unsigned int> > >", scope: !23, file: !183, line: 58, size: 8, flags: DIFlagTypePassByReference | DIFlagNonTrivial, elements: !940, templateParams: !972, identifier: "_ZTSN9__gnu_cxx13new_allocatorISt3setIjSt4lessIjESaIjEEEE")
!940 = !{!941, !945, !950, !951, !957, !963, !966, !969}
!941 = !DISubprogram(name: "new_allocator", scope: !939, file: !183, line: 79, type: !942, scopeLine: 79, flags: DIFlagPublic | DIFlagPrototyped, spFlags: DISPFlagOptimized)
!942 = !DISubroutineType(types: !943)
!943 = !{null, !944}
!944 = !DIDerivedType(tag: DW_TAG_pointer_type, baseType: !939, size: 64, flags: DIFlagArtificial | DIFlagObjectPointer)
!945 = !DISubprogram(name: "new_allocator", scope: !939, file: !183, line: 81, type: !946, scopeLine: 81, flags: DIFlagPublic | DIFlagPrototyped, spFlags: DISPFlagOptimized)
!946 = !DISubroutineType(types: !947)
!947 = !{null, !944, !948}
!948 = !DIDerivedType(tag: DW_TAG_reference_type, baseType: !949, size: 64)
!949 = !DIDerivedType(tag: DW_TAG_const_type, baseType: !939)
!950 = !DISubprogram(name: "~new_allocator", scope: !939, file: !183, line: 86, type: !942, scopeLine: 86, flags: DIFlagPublic | DIFlagPrototyped, spFlags: DISPFlagOptimized)
!951 = !DISubprogram(name: "address", linkageName: "_ZNK9__gnu_cxx13new_allocatorISt3setIjSt4lessIjESaIjEEE7addressERS5_", scope: !939, file: !183, line: 89, type: !952, scopeLine: 89, flags: DIFlagPublic | DIFlagPrototyped, spFlags: DISPFlagOptimized)
!952 = !DISubroutineType(types: !953)
!953 = !{!954, !955, !956}
!954 = !DIDerivedType(tag: DW_TAG_typedef, name: "pointer", scope: !939, file: !183, line: 63, baseType: !33)
!955 = !DIDerivedType(tag: DW_TAG_pointer_type, baseType: !949, size: 64, flags: DIFlagArtificial | DIFlagObjectPointer)
!956 = !DIDerivedType(tag: DW_TAG_typedef, name: "reference", scope: !939, file: !183, line: 65, baseType: !781)
!957 = !DISubprogram(name: "address", linkageName: "_ZNK9__gnu_cxx13new_allocatorISt3setIjSt4lessIjESaIjEEE7addressERKS5_", scope: !939, file: !183, line: 93, type: !958, scopeLine: 93, flags: DIFlagPublic | DIFlagPrototyped, spFlags: DISPFlagOptimized)
!958 = !DISubroutineType(types: !959)
!959 = !{!960, !955, !962}
!960 = !DIDerivedType(tag: DW_TAG_typedef, name: "const_pointer", scope: !939, file: !183, line: 64, baseType: !961)
!961 = !DIDerivedType(tag: DW_TAG_pointer_type, baseType: !755, size: 64)
!962 = !DIDerivedType(tag: DW_TAG_typedef, name: "const_reference", scope: !939, file: !183, line: 66, baseType: !754)
!963 = !DISubprogram(name: "allocate", linkageName: "_ZN9__gnu_cxx13new_allocatorISt3setIjSt4lessIjESaIjEEE8allocateEmPKv", scope: !939, file: !183, line: 99, type: !964, scopeLine: 99, flags: DIFlagPublic | DIFlagPrototyped, spFlags: DISPFlagOptimized)
!964 = !DISubroutineType(types: !965)
!965 = !{!954, !944, !213, !70}
!966 = !DISubprogram(name: "deallocate", linkageName: "_ZN9__gnu_cxx13new_allocatorISt3setIjSt4lessIjESaIjEEE10deallocateEPS5_m", scope: !939, file: !183, line: 116, type: !967, scopeLine: 116, flags: DIFlagPublic | DIFlagPrototyped, spFlags: DISPFlagOptimized)
!967 = !DISubroutineType(types: !968)
!968 = !{null, !944, !954, !213}
!969 = !DISubprogram(name: "max_size", linkageName: "_ZNK9__gnu_cxx13new_allocatorISt3setIjSt4lessIjESaIjEEE8max_sizeEv", scope: !939, file: !183, line: 129, type: !970, scopeLine: 129, flags: DIFlagPublic | DIFlagPrototyped, spFlags: DISPFlagOptimized)
!970 = !DISubroutineType(types: !971)
!971 = !{!213, !955}
!972 = !{!973}
!973 = !DITemplateTypeParameter(name: "_Tp", type: !34)
!974 = !DISubprogram(name: "allocator", scope: !935, file: !61, line: 131, type: !975, scopeLine: 131, flags: DIFlagPublic | DIFlagPrototyped, spFlags: DISPFlagOptimized)
!975 = !DISubroutineType(types: !976)
!976 = !{null, !977}
!977 = !DIDerivedType(tag: DW_TAG_pointer_type, baseType: !935, size: 64, flags: DIFlagArtificial | DIFlagObjectPointer)
!978 = !DISubprogram(name: "allocator", scope: !935, file: !61, line: 133, type: !979, scopeLine: 133, flags: DIFlagPublic | DIFlagPrototyped, spFlags: DISPFlagOptimized)
!979 = !DISubroutineType(types: !980)
!980 = !{null, !977, !981}
!981 = !DIDerivedType(tag: DW_TAG_reference_type, baseType: !982, size: 64)
!982 = !DIDerivedType(tag: DW_TAG_const_type, baseType: !935)
!983 = !DISubprogram(name: "~allocator", scope: !935, file: !61, line: 139, type: !975, scopeLine: 139, flags: DIFlagPublic | DIFlagPrototyped, spFlags: DISPFlagOptimized)
!984 = !DISubprogram(name: "allocate", linkageName: "_ZNSt16allocator_traitsISaISt3setIjSt4lessIjESaIjEEEE8allocateERS5_mPKv", scope: !26, file: !27, line: 449, type: !985, scopeLine: 449, flags: DIFlagPrototyped | DIFlagStaticMember, spFlags: DISPFlagOptimized)
!985 = !DISubroutineType(types: !986)
!986 = !{!32, !933, !62, !69}
!987 = !DISubprogram(name: "deallocate", linkageName: "_ZNSt16allocator_traitsISaISt3setIjSt4lessIjESaIjEEEE10deallocateERS5_PS4_m", scope: !26, file: !27, line: 461, type: !988, scopeLine: 461, flags: DIFlagPrototyped | DIFlagStaticMember, spFlags: DISPFlagOptimized)
!988 = !DISubroutineType(types: !989)
!989 = !{null, !933, !32, !62}
!990 = !DISubprogram(name: "max_size", linkageName: "_ZNSt16allocator_traitsISaISt3setIjSt4lessIjESaIjEEEE8max_sizeERKS5_", scope: !26, file: !27, line: 495, type: !991, scopeLine: 495, flags: DIFlagPrototyped | DIFlagStaticMember, spFlags: DISPFlagOptimized)
!991 = !DISubroutineType(types: !992)
!992 = !{!993, !994}
!993 = !DIDerivedType(tag: DW_TAG_typedef, name: "size_type", scope: !26, file: !27, line: 407, baseType: !63)
!994 = !DIDerivedType(tag: DW_TAG_reference_type, baseType: !995, size: 64)
!995 = !DIDerivedType(tag: DW_TAG_const_type, baseType: !934)
!996 = !DISubprogram(name: "select_on_container_copy_construction", linkageName: "_ZNSt16allocator_traitsISaISt3setIjSt4lessIjESaIjEEEE37select_on_container_copy_constructionERKS5_", scope: !26, file: !27, line: 504, type: !997, scopeLine: 504, flags: DIFlagPrototyped | DIFlagStaticMember, spFlags: DISPFlagOptimized)
!997 = !DISubroutineType(types: !998)
!998 = !{!934, !994}
!999 = !{!1000}
!1000 = !DITemplateTypeParameter(name: "_Alloc", type: !935)
!1001 = !DISubprogram(name: "_S_select_on_copy", linkageName: "_ZN9__gnu_cxx14__alloc_traitsISaISt3setIjSt4lessIjESaIjEEEE17_S_select_on_copyERKS6_", scope: !22, file: !20, line: 94, type: !1002, scopeLine: 94, flags: DIFlagPrototyped | DIFlagStaticMember, spFlags: DISPFlagOptimized)
!1002 = !DISubroutineType(types: !1003)
!1003 = !{!935, !981}
!1004 = !DISubprogram(name: "_S_on_swap", linkageName: "_ZN9__gnu_cxx14__alloc_traitsISaISt3setIjSt4lessIjESaIjEEEE10_S_on_swapERS6_S8_", scope: !22, file: !20, line: 97, type: !1005, scopeLine: 97, flags: DIFlagPrototyped | DIFlagStaticMember, spFlags: DISPFlagOptimized)
!1005 = !DISubroutineType(types: !1006)
!1006 = !{null, !1007, !1007}
!1007 = !DIDerivedType(tag: DW_TAG_reference_type, baseType: !935, size: 64)
!1008 = !DISubprogram(name: "_S_propagate_on_copy_assign", linkageName: "_ZN9__gnu_cxx14__alloc_traitsISaISt3setIjSt4lessIjESaIjEEEE27_S_propagate_on_copy_assignEv", scope: !22, file: !20, line: 100, type: !96, scopeLine: 100, flags: DIFlagPrototyped | DIFlagStaticMember, spFlags: DISPFlagOptimized)
!1009 = !DISubprogram(name: "_S_propagate_on_move_assign", linkageName: "_ZN9__gnu_cxx14__alloc_traitsISaISt3setIjSt4lessIjESaIjEEEE27_S_propagate_on_move_assignEv", scope: !22, file: !20, line: 103, type: !96, scopeLine: 103, flags: DIFlagPrototyped | DIFlagStaticMember, spFlags: DISPFlagOptimized)
!1010 = !DISubprogram(name: "_S_propagate_on_swap", linkageName: "_ZN9__gnu_cxx14__alloc_traitsISaISt3setIjSt4lessIjESaIjEEEE20_S_propagate_on_swapEv", scope: !22, file: !20, line: 106, type: !96, scopeLine: 106, flags: DIFlagPrototyped | DIFlagStaticMember, spFlags: DISPFlagOptimized)
!1011 = !DISubprogram(name: "_S_always_equal", linkageName: "_ZN9__gnu_cxx14__alloc_traitsISaISt3setIjSt4lessIjESaIjEEEE15_S_always_equalEv", scope: !22, file: !20, line: 109, type: !96, scopeLine: 109, flags: DIFlagPrototyped | DIFlagStaticMember, spFlags: DISPFlagOptimized)
!1012 = !DISubprogram(name: "_S_nothrow_move", linkageName: "_ZN9__gnu_cxx14__alloc_traitsISaISt3setIjSt4lessIjESaIjEEEE15_S_nothrow_moveEv", scope: !22, file: !20, line: 112, type: !96, scopeLine: 112, flags: DIFlagPrototyped | DIFlagStaticMember, spFlags: DISPFlagOptimized)
!1013 = !{!1014}
!1014 = !DITemplateTypeParameter(name: "_Tp", type: !1015)
!1015 = distinct !DICompositeType(tag: DW_TAG_structure_type, name: "_Rb_tree_node<std::set<unsigned int, std::less<unsigned int>, std::allocator<unsigned int> > >", scope: !5, file: !4, line: 216, size: 640, flags: DIFlagTypePassByValue, elements: !1016, templateParams: !1055, identifier: "_ZTSSt13_Rb_tree_nodeISt3setIjSt4lessIjESaIjEEE")
!1016 = !{!1017, !1018, !1046, !1050}
!1017 = !DIDerivedType(tag: DW_TAG_inheritance, scope: !1015, baseType: !109, extraData: i32 0)
!1018 = !DIDerivedType(tag: DW_TAG_member, name: "_M_storage", scope: !1015, file: !4, line: 231, baseType: !1019, size: 384, offset: 256)
!1019 = distinct !DICompositeType(tag: DW_TAG_structure_type, name: "__aligned_membuf<std::set<unsigned int, std::less<unsigned int>, std::allocator<unsigned int> > >", scope: !23, file: !130, line: 47, size: 384, flags: DIFlagTypePassByValue, elements: !1020, templateParams: !972, identifier: "_ZTSN9__gnu_cxx16__aligned_membufISt3setIjSt4lessIjESaIjEEEE")
!1020 = !{!1021, !1025, !1029, !1032, !1035, !1040, !1043}
!1021 = !DIDerivedType(tag: DW_TAG_member, name: "_M_storage", scope: !1019, file: !130, line: 54, baseType: !1022, size: 384, align: 64)
!1022 = !DICompositeType(tag: DW_TAG_array_type, baseType: !134, size: 384, elements: !1023)
!1023 = !{!1024}
!1024 = !DISubrange(count: 48)
!1025 = !DISubprogram(name: "__aligned_membuf", scope: !1019, file: !130, line: 56, type: !1026, scopeLine: 56, flags: DIFlagPrototyped, spFlags: DISPFlagOptimized)
!1026 = !DISubroutineType(types: !1027)
!1027 = !{null, !1028}
!1028 = !DIDerivedType(tag: DW_TAG_pointer_type, baseType: !1019, size: 64, flags: DIFlagArtificial | DIFlagObjectPointer)
!1029 = !DISubprogram(name: "__aligned_membuf", scope: !1019, file: !130, line: 59, type: !1030, scopeLine: 59, flags: DIFlagPrototyped, spFlags: DISPFlagOptimized)
!1030 = !DISubroutineType(types: !1031)
!1031 = !{null, !1028, !144}
!1032 = !DISubprogram(name: "_M_addr", linkageName: "_ZN9__gnu_cxx16__aligned_membufISt3setIjSt4lessIjESaIjEEE7_M_addrEv", scope: !1019, file: !130, line: 62, type: !1033, scopeLine: 62, flags: DIFlagPrototyped, spFlags: DISPFlagOptimized)
!1033 = !DISubroutineType(types: !1034)
!1034 = !{!149, !1028}
!1035 = !DISubprogram(name: "_M_addr", linkageName: "_ZNK9__gnu_cxx16__aligned_membufISt3setIjSt4lessIjESaIjEEE7_M_addrEv", scope: !1019, file: !130, line: 66, type: !1036, scopeLine: 66, flags: DIFlagPrototyped, spFlags: DISPFlagOptimized)
!1036 = !DISubroutineType(types: !1037)
!1037 = !{!70, !1038}
!1038 = !DIDerivedType(tag: DW_TAG_pointer_type, baseType: !1039, size: 64, flags: DIFlagArtificial | DIFlagObjectPointer)
!1039 = !DIDerivedType(tag: DW_TAG_const_type, baseType: !1019)
!1040 = !DISubprogram(name: "_M_ptr", linkageName: "_ZN9__gnu_cxx16__aligned_membufISt3setIjSt4lessIjESaIjEEE6_M_ptrEv", scope: !1019, file: !130, line: 70, type: !1041, scopeLine: 70, flags: DIFlagPrototyped, spFlags: DISPFlagOptimized)
!1041 = !DISubroutineType(types: !1042)
!1042 = !{!33, !1028}
!1043 = !DISubprogram(name: "_M_ptr", linkageName: "_ZNK9__gnu_cxx16__aligned_membufISt3setIjSt4lessIjESaIjEEE6_M_ptrEv", scope: !1019, file: !130, line: 74, type: !1044, scopeLine: 74, flags: DIFlagPrototyped, spFlags: DISPFlagOptimized)
!1044 = !DISubroutineType(types: !1045)
!1045 = !{!961, !1038}
!1046 = !DISubprogram(name: "_M_valptr", linkageName: "_ZNSt13_Rb_tree_nodeISt3setIjSt4lessIjESaIjEEE9_M_valptrEv", scope: !1015, file: !4, line: 234, type: !1047, scopeLine: 234, flags: DIFlagPrototyped, spFlags: DISPFlagOptimized)
!1047 = !DISubroutineType(types: !1048)
!1048 = !{!33, !1049}
!1049 = !DIDerivedType(tag: DW_TAG_pointer_type, baseType: !1015, size: 64, flags: DIFlagArtificial | DIFlagObjectPointer)
!1050 = !DISubprogram(name: "_M_valptr", linkageName: "_ZNKSt13_Rb_tree_nodeISt3setIjSt4lessIjESaIjEEE9_M_valptrEv", scope: !1015, file: !4, line: 238, type: !1051, scopeLine: 238, flags: DIFlagPrototyped, spFlags: DISPFlagOptimized)
!1051 = !DISubroutineType(types: !1052)
!1052 = !{!961, !1053}
!1053 = !DIDerivedType(tag: DW_TAG_pointer_type, baseType: !1054, size: 64, flags: DIFlagArtificial | DIFlagObjectPointer)
!1054 = !DIDerivedType(tag: DW_TAG_const_type, baseType: !1015)
!1055 = !{!1056}
!1056 = !DITemplateTypeParameter(name: "_Val", type: !34)
!1057 = !DIDerivedType(tag: DW_TAG_typedef, name: "rebind_alloc<std::_Rb_tree_node<std::set<unsigned int, std::less<unsigned int>, std::allocator<unsigned int> > > >", scope: !26, file: !27, line: 422, baseType: !1058)
!1058 = distinct !DICompositeType(tag: DW_TAG_class_type, name: "allocator<std::_Rb_tree_node<std::set<unsigned int, std::less<unsigned int>, std::allocator<unsigned int> > > >", scope: !5, file: !61, line: 108, size: 8, flags: DIFlagTypePassByReference | DIFlagNonTrivial, elements: !1059, templateParams: !1013, identifier: "_ZTSSaISt13_Rb_tree_nodeISt3setIjSt4lessIjESaIjEEEE")
!1059 = !{!1060, !1098, !1102, !1107}
!1060 = !DIDerivedType(tag: DW_TAG_inheritance, scope: !1058, baseType: !1061, flags: DIFlagPublic, extraData: i32 0)
!1061 = !DIDerivedType(tag: DW_TAG_typedef, name: "__allocator_base<std::_Rb_tree_node<std::set<unsigned int, std::less<unsigned int>, std::allocator<unsigned int> > > >", scope: !5, file: !181, line: 48, baseType: !1062)
!1062 = distinct !DICompositeType(tag: DW_TAG_class_type, name: "new_allocator<std::_Rb_tree_node<std::set<unsigned int, std::less<unsigned int>, std::allocator<unsigned int> > > >", scope: !23, file: !183, line: 58, size: 8, flags: DIFlagTypePassByReference | DIFlagNonTrivial, elements: !1063, templateParams: !1013, identifier: "_ZTSN9__gnu_cxx13new_allocatorISt13_Rb_tree_nodeISt3setIjSt4lessIjESaIjEEEEE")
!1063 = !{!1064, !1068, !1073, !1074, !1082, !1089, !1092, !1095}
!1064 = !DISubprogram(name: "new_allocator", scope: !1062, file: !183, line: 79, type: !1065, scopeLine: 79, flags: DIFlagPublic | DIFlagPrototyped, spFlags: DISPFlagOptimized)
!1065 = !DISubroutineType(types: !1066)
!1066 = !{null, !1067}
!1067 = !DIDerivedType(tag: DW_TAG_pointer_type, baseType: !1062, size: 64, flags: DIFlagArtificial | DIFlagObjectPointer)
!1068 = !DISubprogram(name: "new_allocator", scope: !1062, file: !183, line: 81, type: !1069, scopeLine: 81, flags: DIFlagPublic | DIFlagPrototyped, spFlags: DISPFlagOptimized)
!1069 = !DISubroutineType(types: !1070)
!1070 = !{null, !1067, !1071}
!1071 = !DIDerivedType(tag: DW_TAG_reference_type, baseType: !1072, size: 64)
!1072 = !DIDerivedType(tag: DW_TAG_const_type, baseType: !1062)
!1073 = !DISubprogram(name: "~new_allocator", scope: !1062, file: !183, line: 86, type: !1065, scopeLine: 86, flags: DIFlagPublic | DIFlagPrototyped, spFlags: DISPFlagOptimized)
!1074 = !DISubprogram(name: "address", linkageName: "_ZNK9__gnu_cxx13new_allocatorISt13_Rb_tree_nodeISt3setIjSt4lessIjESaIjEEEE7addressERS7_", scope: !1062, file: !183, line: 89, type: !1075, scopeLine: 89, flags: DIFlagPublic | DIFlagPrototyped, spFlags: DISPFlagOptimized)
!1075 = !DISubroutineType(types: !1076)
!1076 = !{!1077, !1079, !1080}
!1077 = !DIDerivedType(tag: DW_TAG_typedef, name: "pointer", scope: !1062, file: !183, line: 63, baseType: !1078)
!1078 = !DIDerivedType(tag: DW_TAG_pointer_type, baseType: !1015, size: 64)
!1079 = !DIDerivedType(tag: DW_TAG_pointer_type, baseType: !1072, size: 64, flags: DIFlagArtificial | DIFlagObjectPointer)
!1080 = !DIDerivedType(tag: DW_TAG_typedef, name: "reference", scope: !1062, file: !183, line: 65, baseType: !1081)
!1081 = !DIDerivedType(tag: DW_TAG_reference_type, baseType: !1015, size: 64)
!1082 = !DISubprogram(name: "address", linkageName: "_ZNK9__gnu_cxx13new_allocatorISt13_Rb_tree_nodeISt3setIjSt4lessIjESaIjEEEE7addressERKS7_", scope: !1062, file: !183, line: 93, type: !1083, scopeLine: 93, flags: DIFlagPublic | DIFlagPrototyped, spFlags: DISPFlagOptimized)
!1083 = !DISubroutineType(types: !1084)
!1084 = !{!1085, !1079, !1087}
!1085 = !DIDerivedType(tag: DW_TAG_typedef, name: "const_pointer", scope: !1062, file: !183, line: 64, baseType: !1086)
!1086 = !DIDerivedType(tag: DW_TAG_pointer_type, baseType: !1054, size: 64)
!1087 = !DIDerivedType(tag: DW_TAG_typedef, name: "const_reference", scope: !1062, file: !183, line: 66, baseType: !1088)
!1088 = !DIDerivedType(tag: DW_TAG_reference_type, baseType: !1054, size: 64)
!1089 = !DISubprogram(name: "allocate", linkageName: "_ZN9__gnu_cxx13new_allocatorISt13_Rb_tree_nodeISt3setIjSt4lessIjESaIjEEEE8allocateEmPKv", scope: !1062, file: !183, line: 99, type: !1090, scopeLine: 99, flags: DIFlagPublic | DIFlagPrototyped, spFlags: DISPFlagOptimized)
!1090 = !DISubroutineType(types: !1091)
!1091 = !{!1077, !1067, !213, !70}
!1092 = !DISubprogram(name: "deallocate", linkageName: "_ZN9__gnu_cxx13new_allocatorISt13_Rb_tree_nodeISt3setIjSt4lessIjESaIjEEEE10deallocateEPS7_m", scope: !1062, file: !183, line: 116, type: !1093, scopeLine: 116, flags: DIFlagPublic | DIFlagPrototyped, spFlags: DISPFlagOptimized)
!1093 = !DISubroutineType(types: !1094)
!1094 = !{null, !1067, !1077, !213}
!1095 = !DISubprogram(name: "max_size", linkageName: "_ZNK9__gnu_cxx13new_allocatorISt13_Rb_tree_nodeISt3setIjSt4lessIjESaIjEEEE8max_sizeEv", scope: !1062, file: !183, line: 129, type: !1096, scopeLine: 129, flags: DIFlagPublic | DIFlagPrototyped, spFlags: DISPFlagOptimized)
!1096 = !DISubroutineType(types: !1097)
!1097 = !{!213, !1079}
!1098 = !DISubprogram(name: "allocator", scope: !1058, file: !61, line: 131, type: !1099, scopeLine: 131, flags: DIFlagPublic | DIFlagPrototyped, spFlags: DISPFlagOptimized)
!1099 = !DISubroutineType(types: !1100)
!1100 = !{null, !1101}
!1101 = !DIDerivedType(tag: DW_TAG_pointer_type, baseType: !1058, size: 64, flags: DIFlagArtificial | DIFlagObjectPointer)
!1102 = !DISubprogram(name: "allocator", scope: !1058, file: !61, line: 133, type: !1103, scopeLine: 133, flags: DIFlagPublic | DIFlagPrototyped, spFlags: DISPFlagOptimized)
!1103 = !DISubroutineType(types: !1104)
!1104 = !{null, !1101, !1105}
!1105 = !DIDerivedType(tag: DW_TAG_reference_type, baseType: !1106, size: 64)
!1106 = !DIDerivedType(tag: DW_TAG_const_type, baseType: !1058)
!1107 = !DISubprogram(name: "~allocator", scope: !1058, file: !61, line: 139, type: !1099, scopeLine: 139, flags: DIFlagPublic | DIFlagPrototyped, spFlags: DISPFlagOptimized)
!1108 = !DIDerivedType(tag: DW_TAG_inheritance, scope: !15, baseType: !1109, extraData: i32 0)
!1109 = distinct !DICompositeType(tag: DW_TAG_structure_type, name: "_Rb_tree_key_compare<std::less<std::set<unsigned int, std::less<unsigned int>, std::allocator<unsigned int> > > >", scope: !5, file: !4, line: 142, size: 8, flags: DIFlagTypePassByReference | DIFlagNonTrivial, elements: !1110, templateParams: !1141, identifier: "_ZTSSt20_Rb_tree_key_compareISt4lessISt3setIjS0_IjESaIjEEEE")
!1110 = !{!1111, !1124, !1128, !1132, !1137}
!1111 = !DIDerivedType(tag: DW_TAG_member, name: "_M_key_compare", scope: !1109, file: !4, line: 144, baseType: !1112, size: 8)
!1112 = distinct !DICompositeType(tag: DW_TAG_structure_type, name: "less<std::set<unsigned int, std::less<unsigned int>, std::allocator<unsigned int> > >", scope: !5, file: !235, line: 381, size: 8, flags: DIFlagTypePassByValue, elements: !1113, templateParams: !972, identifier: "_ZTSSt4lessISt3setIjS_IjESaIjEEE")
!1113 = !{!1114, !1119}
!1114 = !DIDerivedType(tag: DW_TAG_inheritance, scope: !1112, baseType: !1115, extraData: i32 0)
!1115 = distinct !DICompositeType(tag: DW_TAG_structure_type, name: "binary_function<std::set<unsigned int, std::less<unsigned int>, std::allocator<unsigned int> >, std::set<unsigned int, std::less<unsigned int>, std::allocator<unsigned int> >, bool>", scope: !5, file: !235, line: 118, size: 8, flags: DIFlagTypePassByValue, elements: !103, templateParams: !1116, identifier: "_ZTSSt15binary_functionISt3setIjSt4lessIjESaIjEES4_bE")
!1116 = !{!1117, !1118, !242}
!1117 = !DITemplateTypeParameter(name: "_Arg1", type: !34)
!1118 = !DITemplateTypeParameter(name: "_Arg2", type: !34)
!1119 = !DISubprogram(name: "operator()", linkageName: "_ZNKSt4lessISt3setIjS_IjESaIjEEEclERKS3_S6_", scope: !1112, file: !235, line: 385, type: !1120, scopeLine: 385, flags: DIFlagPrototyped, spFlags: DISPFlagOptimized)
!1120 = !DISubroutineType(types: !1121)
!1121 = !{!98, !1122, !754, !754}
!1122 = !DIDerivedType(tag: DW_TAG_pointer_type, baseType: !1123, size: 64, flags: DIFlagArtificial | DIFlagObjectPointer)
!1123 = !DIDerivedType(tag: DW_TAG_const_type, baseType: !1112)
!1124 = !DISubprogram(name: "_Rb_tree_key_compare", scope: !1109, file: !4, line: 146, type: !1125, scopeLine: 146, flags: DIFlagPrototyped, spFlags: DISPFlagOptimized)
!1125 = !DISubroutineType(types: !1126)
!1126 = !{null, !1127}
!1127 = !DIDerivedType(tag: DW_TAG_pointer_type, baseType: !1109, size: 64, flags: DIFlagArtificial | DIFlagObjectPointer)
!1128 = !DISubprogram(name: "_Rb_tree_key_compare", scope: !1109, file: !4, line: 152, type: !1129, scopeLine: 152, flags: DIFlagPrototyped, spFlags: DISPFlagOptimized)
!1129 = !DISubroutineType(types: !1130)
!1130 = !{null, !1127, !1131}
!1131 = !DIDerivedType(tag: DW_TAG_reference_type, baseType: !1123, size: 64)
!1132 = !DISubprogram(name: "_Rb_tree_key_compare", scope: !1109, file: !4, line: 158, type: !1133, scopeLine: 158, flags: DIFlagPrototyped, spFlags: DISPFlagOptimized)
!1133 = !DISubroutineType(types: !1134)
!1134 = !{null, !1127, !1135}
!1135 = !DIDerivedType(tag: DW_TAG_reference_type, baseType: !1136, size: 64)
!1136 = !DIDerivedType(tag: DW_TAG_const_type, baseType: !1109)
!1137 = !DISubprogram(name: "_Rb_tree_key_compare", scope: !1109, file: !4, line: 160, type: !1138, scopeLine: 160, flags: DIFlagPrototyped, spFlags: DISPFlagOptimized)
!1138 = !DISubroutineType(types: !1139)
!1139 = !{null, !1127, !1140}
!1140 = !DIDerivedType(tag: DW_TAG_rvalue_reference_type, baseType: !1109, size: 64)
!1141 = !{!1142}
!1142 = !DITemplateTypeParameter(name: "_Key_compare", type: !1112)
!1143 = !DIDerivedType(tag: DW_TAG_inheritance, scope: !15, baseType: !269, offset: 64, extraData: i32 0)
!1144 = !DISubprogram(name: "_Rb_tree_impl", scope: !15, file: !4, line: 688, type: !1145, scopeLine: 688, flags: DIFlagPrototyped, spFlags: DISPFlagOptimized)
!1145 = !DISubroutineType(types: !1146)
!1146 = !{null, !1147}
!1147 = !DIDerivedType(tag: DW_TAG_pointer_type, baseType: !15, size: 64, flags: DIFlagArtificial | DIFlagObjectPointer)
!1148 = !DISubprogram(name: "_Rb_tree_impl", scope: !15, file: !4, line: 689, type: !1149, scopeLine: 689, flags: DIFlagPrototyped, spFlags: DISPFlagOptimized)
!1149 = !DISubroutineType(types: !1150)
!1150 = !{null, !1147, !1151}
!1151 = !DIDerivedType(tag: DW_TAG_rvalue_reference_type, baseType: !15, size: 64)
!1152 = !DISubprogram(name: "_Rb_tree_impl", scope: !15, file: !4, line: 692, type: !1153, scopeLine: 692, flags: DIFlagPrototyped, spFlags: DISPFlagOptimized)
!1153 = !DISubroutineType(types: !1154)
!1154 = !{null, !1147, !1155}
!1155 = !DIDerivedType(tag: DW_TAG_reference_type, baseType: !1156, size: 64)
!1156 = !DIDerivedType(tag: DW_TAG_const_type, baseType: !15)
!1157 = !DISubprogram(name: "_Rb_tree_impl", scope: !15, file: !4, line: 702, type: !1158, scopeLine: 702, flags: DIFlagPrototyped, spFlags: DISPFlagOptimized)
!1158 = !DISubroutineType(types: !1159)
!1159 = !{null, !1147, !1131, !1160}
!1160 = !DIDerivedType(tag: DW_TAG_rvalue_reference_type, baseType: !18, size: 64)
!1161 = !{!1142, !304}
!1162 = !DISubprogram(name: "_M_get_Node_allocator", linkageName: "_ZNSt8_Rb_treeISt3setIjSt4lessIjESaIjEES4_St9_IdentityIS4_ES1_IS4_ESaIS4_EE21_M_get_Node_allocatorEv", scope: !12, file: !4, line: 574, type: !1163, scopeLine: 574, flags: DIFlagPublic | DIFlagPrototyped, spFlags: DISPFlagOptimized)
!1163 = !DISubroutineType(types: !1164)
!1164 = !{!1165, !1166}
!1165 = !DIDerivedType(tag: DW_TAG_reference_type, baseType: !18, size: 64)
!1166 = !DIDerivedType(tag: DW_TAG_pointer_type, baseType: !12, size: 64, flags: DIFlagArtificial | DIFlagObjectPointer)
!1167 = !DISubprogram(name: "_M_get_Node_allocator", linkageName: "_ZNKSt8_Rb_treeISt3setIjSt4lessIjESaIjEES4_St9_IdentityIS4_ES1_IS4_ESaIS4_EE21_M_get_Node_allocatorEv", scope: !12, file: !4, line: 578, type: !1168, scopeLine: 578, flags: DIFlagPublic | DIFlagPrototyped, spFlags: DISPFlagOptimized)
!1168 = !DISubroutineType(types: !1169)
!1169 = !{!1170, !1172}
!1170 = !DIDerivedType(tag: DW_TAG_reference_type, baseType: !1171, size: 64)
!1171 = !DIDerivedType(tag: DW_TAG_const_type, baseType: !18)
!1172 = !DIDerivedType(tag: DW_TAG_pointer_type, baseType: !1173, size: 64, flags: DIFlagArtificial | DIFlagObjectPointer)
!1173 = !DIDerivedType(tag: DW_TAG_const_type, baseType: !12)
!1174 = !DISubprogram(name: "get_allocator", linkageName: "_ZNKSt8_Rb_treeISt3setIjSt4lessIjESaIjEES4_St9_IdentityIS4_ES1_IS4_ESaIS4_EE13get_allocatorEv", scope: !12, file: !4, line: 582, type: !1175, scopeLine: 582, flags: DIFlagPublic | DIFlagPrototyped, spFlags: DISPFlagOptimized)
!1175 = !DISubroutineType(types: !1176)
!1176 = !{!1177, !1172}
!1177 = !DIDerivedType(tag: DW_TAG_typedef, name: "allocator_type", scope: !12, file: !4, line: 571, baseType: !935)
!1178 = !DISubprogram(name: "_M_get_node", linkageName: "_ZNSt8_Rb_treeISt3setIjSt4lessIjESaIjEES4_St9_IdentityIS4_ES1_IS4_ESaIS4_EE11_M_get_nodeEv", scope: !12, file: !4, line: 587, type: !1179, scopeLine: 587, flags: DIFlagProtected | DIFlagPrototyped, spFlags: DISPFlagOptimized)
!1179 = !DISubroutineType(types: !1180)
!1180 = !{!11, !1166}
!1181 = !DISubprogram(name: "_M_put_node", linkageName: "_ZNSt8_Rb_treeISt3setIjSt4lessIjESaIjEES4_St9_IdentityIS4_ES1_IS4_ESaIS4_EE11_M_put_nodeEPSt13_Rb_tree_nodeIS4_E", scope: !12, file: !4, line: 591, type: !1182, scopeLine: 591, flags: DIFlagProtected | DIFlagPrototyped, spFlags: DISPFlagOptimized)
!1182 = !DISubroutineType(types: !1183)
!1183 = !{null, !1166, !11}
!1184 = !DISubprogram(name: "_M_destroy_node", linkageName: "_ZNSt8_Rb_treeISt3setIjSt4lessIjESaIjEES4_St9_IdentityIS4_ES1_IS4_ESaIS4_EE15_M_destroy_nodeEPSt13_Rb_tree_nodeIS4_E", scope: !12, file: !4, line: 648, type: !1182, scopeLine: 648, flags: DIFlagProtected | DIFlagPrototyped, spFlags: DISPFlagOptimized)
!1185 = !DISubprogram(name: "_M_drop_node", linkageName: "_ZNSt8_Rb_treeISt3setIjSt4lessIjESaIjEES4_St9_IdentityIS4_ES1_IS4_ESaIS4_EE12_M_drop_nodeEPSt13_Rb_tree_nodeIS4_E", scope: !12, file: !4, line: 656, type: !1182, scopeLine: 656, flags: DIFlagProtected | DIFlagPrototyped, spFlags: DISPFlagOptimized)
!1186 = !DISubprogram(name: "_M_root", linkageName: "_ZNSt8_Rb_treeISt3setIjSt4lessIjESaIjEES4_St9_IdentityIS4_ES1_IS4_ESaIS4_EE7_M_rootEv", scope: !12, file: !4, line: 712, type: !1187, scopeLine: 712, flags: DIFlagProtected | DIFlagPrototyped, spFlags: DISPFlagOptimized)
!1187 = !DISubroutineType(types: !1188)
!1188 = !{!333, !1166}
!1189 = !DISubprogram(name: "_M_root", linkageName: "_ZNKSt8_Rb_treeISt3setIjSt4lessIjESaIjEES4_St9_IdentityIS4_ES1_IS4_ESaIS4_EE7_M_rootEv", scope: !12, file: !4, line: 716, type: !1190, scopeLine: 716, flags: DIFlagProtected | DIFlagPrototyped, spFlags: DISPFlagOptimized)
!1190 = !DISubroutineType(types: !1191)
!1191 = !{!338, !1172}
!1192 = !DISubprogram(name: "_M_leftmost", linkageName: "_ZNSt8_Rb_treeISt3setIjSt4lessIjESaIjEES4_St9_IdentityIS4_ES1_IS4_ESaIS4_EE11_M_leftmostEv", scope: !12, file: !4, line: 720, type: !1187, scopeLine: 720, flags: DIFlagProtected | DIFlagPrototyped, spFlags: DISPFlagOptimized)
!1193 = !DISubprogram(name: "_M_leftmost", linkageName: "_ZNKSt8_Rb_treeISt3setIjSt4lessIjESaIjEES4_St9_IdentityIS4_ES1_IS4_ESaIS4_EE11_M_leftmostEv", scope: !12, file: !4, line: 724, type: !1190, scopeLine: 724, flags: DIFlagProtected | DIFlagPrototyped, spFlags: DISPFlagOptimized)
!1194 = !DISubprogram(name: "_M_rightmost", linkageName: "_ZNSt8_Rb_treeISt3setIjSt4lessIjESaIjEES4_St9_IdentityIS4_ES1_IS4_ESaIS4_EE12_M_rightmostEv", scope: !12, file: !4, line: 728, type: !1187, scopeLine: 728, flags: DIFlagProtected | DIFlagPrototyped, spFlags: DISPFlagOptimized)
!1195 = !DISubprogram(name: "_M_rightmost", linkageName: "_ZNKSt8_Rb_treeISt3setIjSt4lessIjESaIjEES4_St9_IdentityIS4_ES1_IS4_ESaIS4_EE12_M_rightmostEv", scope: !12, file: !4, line: 732, type: !1190, scopeLine: 732, flags: DIFlagProtected | DIFlagPrototyped, spFlags: DISPFlagOptimized)
!1196 = !DISubprogram(name: "_M_begin", linkageName: "_ZNSt8_Rb_treeISt3setIjSt4lessIjESaIjEES4_St9_IdentityIS4_ES1_IS4_ESaIS4_EE8_M_beginEv", scope: !12, file: !4, line: 736, type: !1179, scopeLine: 736, flags: DIFlagProtected | DIFlagPrototyped, spFlags: DISPFlagOptimized)
!1197 = !DISubprogram(name: "_M_begin", linkageName: "_ZNKSt8_Rb_treeISt3setIjSt4lessIjESaIjEES4_St9_IdentityIS4_ES1_IS4_ESaIS4_EE8_M_beginEv", scope: !12, file: !4, line: 740, type: !1198, scopeLine: 740, flags: DIFlagProtected | DIFlagPrototyped, spFlags: DISPFlagOptimized)
!1198 = !DISubroutineType(types: !1199)
!1199 = !{!1200, !1172}
!1200 = !DIDerivedType(tag: DW_TAG_typedef, name: "_Const_Link_type", scope: !12, file: !4, line: 455, baseType: !1086)
!1201 = !DISubprogram(name: "_M_end", linkageName: "_ZNSt8_Rb_treeISt3setIjSt4lessIjESaIjEES4_St9_IdentityIS4_ES1_IS4_ESaIS4_EE6_M_endEv", scope: !12, file: !4, line: 747, type: !1202, scopeLine: 747, flags: DIFlagProtected | DIFlagPrototyped, spFlags: DISPFlagOptimized)
!1202 = !DISubroutineType(types: !1203)
!1203 = !{!334, !1166}
!1204 = !DISubprogram(name: "_M_end", linkageName: "_ZNKSt8_Rb_treeISt3setIjSt4lessIjESaIjEES4_St9_IdentityIS4_ES1_IS4_ESaIS4_EE6_M_endEv", scope: !12, file: !4, line: 751, type: !1190, scopeLine: 751, flags: DIFlagProtected | DIFlagPrototyped, spFlags: DISPFlagOptimized)
!1205 = !DISubprogram(name: "_S_value", linkageName: "_ZNSt8_Rb_treeISt3setIjSt4lessIjESaIjEES4_St9_IdentityIS4_ES1_IS4_ESaIS4_EE8_S_valueEPKSt13_Rb_tree_nodeIS4_E", scope: !12, file: !4, line: 755, type: !1206, scopeLine: 755, flags: DIFlagProtected | DIFlagPrototyped | DIFlagStaticMember, spFlags: DISPFlagOptimized)
!1206 = !DISubroutineType(types: !1207)
!1207 = !{!1208, !1200}
!1208 = !DIDerivedType(tag: DW_TAG_typedef, name: "const_reference", scope: !12, file: !4, line: 568, baseType: !1209)
!1209 = !DIDerivedType(tag: DW_TAG_reference_type, baseType: !1210, size: 64)
!1210 = !DIDerivedType(tag: DW_TAG_const_type, baseType: !1211)
!1211 = !DIDerivedType(tag: DW_TAG_typedef, name: "value_type", scope: !12, file: !4, line: 564, baseType: !34)
!1212 = !DISubprogram(name: "_S_key", linkageName: "_ZNSt8_Rb_treeISt3setIjSt4lessIjESaIjEES4_St9_IdentityIS4_ES1_IS4_ESaIS4_EE6_S_keyEPKSt13_Rb_tree_nodeIS4_E", scope: !12, file: !4, line: 759, type: !1213, scopeLine: 759, flags: DIFlagProtected | DIFlagPrototyped | DIFlagStaticMember, spFlags: DISPFlagOptimized)
!1213 = !DISubroutineType(types: !1214)
!1214 = !{!754, !1200}
!1215 = !DISubprogram(name: "_S_left", linkageName: "_ZNSt8_Rb_treeISt3setIjSt4lessIjESaIjEES4_St9_IdentityIS4_ES1_IS4_ESaIS4_EE7_S_leftEPSt18_Rb_tree_node_base", scope: !12, file: !4, line: 763, type: !1216, scopeLine: 763, flags: DIFlagProtected | DIFlagPrototyped | DIFlagStaticMember, spFlags: DISPFlagOptimized)
!1216 = !DISubroutineType(types: !1217)
!1217 = !{!11, !334}
!1218 = !DISubprogram(name: "_S_left", linkageName: "_ZNSt8_Rb_treeISt3setIjSt4lessIjESaIjEES4_St9_IdentityIS4_ES1_IS4_ESaIS4_EE7_S_leftEPKSt18_Rb_tree_node_base", scope: !12, file: !4, line: 767, type: !1219, scopeLine: 767, flags: DIFlagProtected | DIFlagPrototyped | DIFlagStaticMember, spFlags: DISPFlagOptimized)
!1219 = !DISubroutineType(types: !1220)
!1220 = !{!1200, !338}
!1221 = !DISubprogram(name: "_S_right", linkageName: "_ZNSt8_Rb_treeISt3setIjSt4lessIjESaIjEES4_St9_IdentityIS4_ES1_IS4_ESaIS4_EE8_S_rightEPSt18_Rb_tree_node_base", scope: !12, file: !4, line: 771, type: !1216, scopeLine: 771, flags: DIFlagProtected | DIFlagPrototyped | DIFlagStaticMember, spFlags: DISPFlagOptimized)
!1222 = !DISubprogram(name: "_S_right", linkageName: "_ZNSt8_Rb_treeISt3setIjSt4lessIjESaIjEES4_St9_IdentityIS4_ES1_IS4_ESaIS4_EE8_S_rightEPKSt18_Rb_tree_node_base", scope: !12, file: !4, line: 775, type: !1219, scopeLine: 775, flags: DIFlagProtected | DIFlagPrototyped | DIFlagStaticMember, spFlags: DISPFlagOptimized)
!1223 = !DISubprogram(name: "_S_value", linkageName: "_ZNSt8_Rb_treeISt3setIjSt4lessIjESaIjEES4_St9_IdentityIS4_ES1_IS4_ESaIS4_EE8_S_valueEPKSt18_Rb_tree_node_base", scope: !12, file: !4, line: 779, type: !1224, scopeLine: 779, flags: DIFlagProtected | DIFlagPrototyped | DIFlagStaticMember, spFlags: DISPFlagOptimized)
!1224 = !DISubroutineType(types: !1225)
!1225 = !{!1208, !338}
!1226 = !DISubprogram(name: "_S_key", linkageName: "_ZNSt8_Rb_treeISt3setIjSt4lessIjESaIjEES4_St9_IdentityIS4_ES1_IS4_ESaIS4_EE6_S_keyEPKSt18_Rb_tree_node_base", scope: !12, file: !4, line: 783, type: !1227, scopeLine: 783, flags: DIFlagProtected | DIFlagPrototyped | DIFlagStaticMember, spFlags: DISPFlagOptimized)
!1227 = !DISubroutineType(types: !1228)
!1228 = !{!754, !338}
!1229 = !DISubprogram(name: "_S_minimum", linkageName: "_ZNSt8_Rb_treeISt3setIjSt4lessIjESaIjEES4_St9_IdentityIS4_ES1_IS4_ESaIS4_EE10_S_minimumEPSt18_Rb_tree_node_base", scope: !12, file: !4, line: 787, type: !1230, scopeLine: 787, flags: DIFlagProtected | DIFlagPrototyped | DIFlagStaticMember, spFlags: DISPFlagOptimized)
!1230 = !DISubroutineType(types: !1231)
!1231 = !{!1232, !334}
!1232 = !DIDerivedType(tag: DW_TAG_typedef, name: "_Base_ptr", scope: !12, file: !4, line: 452, baseType: !114)
!1233 = !DISubprogram(name: "_S_minimum", linkageName: "_ZNSt8_Rb_treeISt3setIjSt4lessIjESaIjEES4_St9_IdentityIS4_ES1_IS4_ESaIS4_EE10_S_minimumEPKSt18_Rb_tree_node_base", scope: !12, file: !4, line: 791, type: !1234, scopeLine: 791, flags: DIFlagProtected | DIFlagPrototyped | DIFlagStaticMember, spFlags: DISPFlagOptimized)
!1234 = !DISubroutineType(types: !1235)
!1235 = !{!1236, !338}
!1236 = !DIDerivedType(tag: DW_TAG_typedef, name: "_Const_Base_ptr", scope: !12, file: !4, line: 453, baseType: !124)
!1237 = !DISubprogram(name: "_S_maximum", linkageName: "_ZNSt8_Rb_treeISt3setIjSt4lessIjESaIjEES4_St9_IdentityIS4_ES1_IS4_ESaIS4_EE10_S_maximumEPSt18_Rb_tree_node_base", scope: !12, file: !4, line: 795, type: !1230, scopeLine: 795, flags: DIFlagProtected | DIFlagPrototyped | DIFlagStaticMember, spFlags: DISPFlagOptimized)
!1238 = !DISubprogram(name: "_S_maximum", linkageName: "_ZNSt8_Rb_treeISt3setIjSt4lessIjESaIjEES4_St9_IdentityIS4_ES1_IS4_ESaIS4_EE10_S_maximumEPKSt18_Rb_tree_node_base", scope: !12, file: !4, line: 799, type: !1234, scopeLine: 799, flags: DIFlagProtected | DIFlagPrototyped | DIFlagStaticMember, spFlags: DISPFlagOptimized)
!1239 = !DISubprogram(name: "_M_get_insert_unique_pos", linkageName: "_ZNSt8_Rb_treeISt3setIjSt4lessIjESaIjEES4_St9_IdentityIS4_ES1_IS4_ESaIS4_EE24_M_get_insert_unique_posERKS4_", scope: !12, file: !4, line: 817, type: !1240, scopeLine: 817, flags: DIFlagPublic | DIFlagPrototyped, spFlags: DISPFlagOptimized)
!1240 = !DISubroutineType(types: !1241)
!1241 = !{!389, !1166, !1242}
!1242 = !DIDerivedType(tag: DW_TAG_reference_type, baseType: !1243, size: 64)
!1243 = !DIDerivedType(tag: DW_TAG_const_type, baseType: !1244)
!1244 = !DIDerivedType(tag: DW_TAG_typedef, name: "key_type", scope: !12, file: !4, line: 563, baseType: !34)
!1245 = !DISubprogram(name: "_M_get_insert_equal_pos", linkageName: "_ZNSt8_Rb_treeISt3setIjSt4lessIjESaIjEES4_St9_IdentityIS4_ES1_IS4_ESaIS4_EE23_M_get_insert_equal_posERKS4_", scope: !12, file: !4, line: 820, type: !1240, scopeLine: 820, flags: DIFlagPublic | DIFlagPrototyped, spFlags: DISPFlagOptimized)
!1246 = !DISubprogram(name: "_M_get_insert_hint_unique_pos", linkageName: "_ZNSt8_Rb_treeISt3setIjSt4lessIjESaIjEES4_St9_IdentityIS4_ES1_IS4_ESaIS4_EE29_M_get_insert_hint_unique_posESt23_Rb_tree_const_iteratorIS4_ERKS4_", scope: !12, file: !4, line: 823, type: !1247, scopeLine: 823, flags: DIFlagPublic | DIFlagPrototyped, spFlags: DISPFlagOptimized)
!1247 = !DISubroutineType(types: !1248)
!1248 = !{!389, !1166, !1249, !1242}
!1249 = !DIDerivedType(tag: DW_TAG_typedef, name: "const_iterator", scope: !12, file: !4, line: 804, baseType: !1250)
!1250 = distinct !DICompositeType(tag: DW_TAG_structure_type, name: "_Rb_tree_const_iterator<std::set<unsigned int, std::less<unsigned int>, std::allocator<unsigned int> > >", scope: !5, file: !4, line: 326, size: 64, flags: DIFlagTypePassByValue | DIFlagNonTrivial, elements: !1251, templateParams: !972, identifier: "_ZTSSt23_Rb_tree_const_iteratorISt3setIjSt4lessIjESaIjEEE")
!1251 = !{!1252, !1253, !1257, !1260, !1302, !1307, !1311, !1315, !1320, !1323, !1324, !1325, !1330}
!1252 = !DIDerivedType(tag: DW_TAG_member, name: "_M_node", scope: !1250, file: !4, line: 401, baseType: !464, size: 64)
!1253 = !DISubprogram(name: "_Rb_tree_const_iterator", scope: !1250, file: !4, line: 341, type: !1254, scopeLine: 341, flags: DIFlagPrototyped, spFlags: DISPFlagOptimized)
!1254 = !DISubroutineType(types: !1255)
!1255 = !{null, !1256}
!1256 = !DIDerivedType(tag: DW_TAG_pointer_type, baseType: !1250, size: 64, flags: DIFlagArtificial | DIFlagObjectPointer)
!1257 = !DISubprogram(name: "_Rb_tree_const_iterator", scope: !1250, file: !4, line: 345, type: !1258, scopeLine: 345, flags: DIFlagExplicit | DIFlagPrototyped, spFlags: DISPFlagOptimized)
!1258 = !DISubroutineType(types: !1259)
!1259 = !{null, !1256, !464}
!1260 = !DISubprogram(name: "_Rb_tree_const_iterator", scope: !1250, file: !4, line: 348, type: !1261, scopeLine: 348, flags: DIFlagPrototyped, spFlags: DISPFlagOptimized)
!1261 = !DISubroutineType(types: !1262)
!1262 = !{null, !1256, !1263}
!1263 = !DIDerivedType(tag: DW_TAG_reference_type, baseType: !1264, size: 64)
!1264 = !DIDerivedType(tag: DW_TAG_const_type, baseType: !1265)
!1265 = !DIDerivedType(tag: DW_TAG_typedef, name: "iterator", scope: !1250, file: !4, line: 332, baseType: !1266)
!1266 = distinct !DICompositeType(tag: DW_TAG_structure_type, name: "_Rb_tree_iterator<std::set<unsigned int, std::less<unsigned int>, std::allocator<unsigned int> > >", scope: !5, file: !4, line: 256, size: 64, flags: DIFlagTypePassByValue | DIFlagNonTrivial, elements: !1267, templateParams: !972, identifier: "_ZTSSt17_Rb_tree_iteratorISt3setIjSt4lessIjESaIjEEE")
!1267 = !{!1268, !1269, !1273, !1276, !1282, !1286, !1291, !1294, !1295, !1296, !1301}
!1268 = !DIDerivedType(tag: DW_TAG_member, name: "_M_node", scope: !1266, file: !4, line: 322, baseType: !481, size: 64)
!1269 = !DISubprogram(name: "_Rb_tree_iterator", scope: !1266, file: !4, line: 269, type: !1270, scopeLine: 269, flags: DIFlagPrototyped, spFlags: DISPFlagOptimized)
!1270 = !DISubroutineType(types: !1271)
!1271 = !{null, !1272}
!1272 = !DIDerivedType(tag: DW_TAG_pointer_type, baseType: !1266, size: 64, flags: DIFlagArtificial | DIFlagObjectPointer)
!1273 = !DISubprogram(name: "_Rb_tree_iterator", scope: !1266, file: !4, line: 273, type: !1274, scopeLine: 273, flags: DIFlagExplicit | DIFlagPrototyped, spFlags: DISPFlagOptimized)
!1274 = !DISubroutineType(types: !1275)
!1275 = !{null, !1272, !481}
!1276 = !DISubprogram(name: "operator*", linkageName: "_ZNKSt17_Rb_tree_iteratorISt3setIjSt4lessIjESaIjEEEdeEv", scope: !1266, file: !4, line: 277, type: !1277, scopeLine: 277, flags: DIFlagPrototyped, spFlags: DISPFlagOptimized)
!1277 = !DISubroutineType(types: !1278)
!1278 = !{!1279, !1280}
!1279 = !DIDerivedType(tag: DW_TAG_typedef, name: "reference", scope: !1266, file: !4, line: 259, baseType: !781)
!1280 = !DIDerivedType(tag: DW_TAG_pointer_type, baseType: !1281, size: 64, flags: DIFlagArtificial | DIFlagObjectPointer)
!1281 = !DIDerivedType(tag: DW_TAG_const_type, baseType: !1266)
!1282 = !DISubprogram(name: "operator->", linkageName: "_ZNKSt17_Rb_tree_iteratorISt3setIjSt4lessIjESaIjEEEptEv", scope: !1266, file: !4, line: 281, type: !1283, scopeLine: 281, flags: DIFlagPrototyped, spFlags: DISPFlagOptimized)
!1283 = !DISubroutineType(types: !1284)
!1284 = !{!1285, !1280}
!1285 = !DIDerivedType(tag: DW_TAG_typedef, name: "pointer", scope: !1266, file: !4, line: 260, baseType: !33)
!1286 = !DISubprogram(name: "operator++", linkageName: "_ZNSt17_Rb_tree_iteratorISt3setIjSt4lessIjESaIjEEEppEv", scope: !1266, file: !4, line: 285, type: !1287, scopeLine: 285, flags: DIFlagPrototyped, spFlags: DISPFlagOptimized)
!1287 = !DISubroutineType(types: !1288)
!1288 = !{!1289, !1272}
!1289 = !DIDerivedType(tag: DW_TAG_reference_type, baseType: !1290, size: 64)
!1290 = !DIDerivedType(tag: DW_TAG_typedef, name: "_Self", scope: !1266, file: !4, line: 265, baseType: !1266)
!1291 = !DISubprogram(name: "operator++", linkageName: "_ZNSt17_Rb_tree_iteratorISt3setIjSt4lessIjESaIjEEEppEi", scope: !1266, file: !4, line: 292, type: !1292, scopeLine: 292, flags: DIFlagPrototyped, spFlags: DISPFlagOptimized)
!1292 = !DISubroutineType(types: !1293)
!1293 = !{!1290, !1272, !508}
!1294 = !DISubprogram(name: "operator--", linkageName: "_ZNSt17_Rb_tree_iteratorISt3setIjSt4lessIjESaIjEEEmmEv", scope: !1266, file: !4, line: 300, type: !1287, scopeLine: 300, flags: DIFlagPrototyped, spFlags: DISPFlagOptimized)
!1295 = !DISubprogram(name: "operator--", linkageName: "_ZNSt17_Rb_tree_iteratorISt3setIjSt4lessIjESaIjEEEmmEi", scope: !1266, file: !4, line: 307, type: !1292, scopeLine: 307, flags: DIFlagPrototyped, spFlags: DISPFlagOptimized)
!1296 = !DISubprogram(name: "operator==", linkageName: "_ZNKSt17_Rb_tree_iteratorISt3setIjSt4lessIjESaIjEEEeqERKS5_", scope: !1266, file: !4, line: 315, type: !1297, scopeLine: 315, flags: DIFlagPrototyped, spFlags: DISPFlagOptimized)
!1297 = !DISubroutineType(types: !1298)
!1298 = !{!98, !1280, !1299}
!1299 = !DIDerivedType(tag: DW_TAG_reference_type, baseType: !1300, size: 64)
!1300 = !DIDerivedType(tag: DW_TAG_const_type, baseType: !1290)
!1301 = !DISubprogram(name: "operator!=", linkageName: "_ZNKSt17_Rb_tree_iteratorISt3setIjSt4lessIjESaIjEEEneERKS5_", scope: !1266, file: !4, line: 319, type: !1297, scopeLine: 319, flags: DIFlagPrototyped, spFlags: DISPFlagOptimized)
!1302 = !DISubprogram(name: "_M_const_cast", linkageName: "_ZNKSt23_Rb_tree_const_iteratorISt3setIjSt4lessIjESaIjEEE13_M_const_castEv", scope: !1250, file: !4, line: 352, type: !1303, scopeLine: 352, flags: DIFlagPrototyped, spFlags: DISPFlagOptimized)
!1303 = !DISubroutineType(types: !1304)
!1304 = !{!1265, !1305}
!1305 = !DIDerivedType(tag: DW_TAG_pointer_type, baseType: !1306, size: 64, flags: DIFlagArtificial | DIFlagObjectPointer)
!1306 = !DIDerivedType(tag: DW_TAG_const_type, baseType: !1250)
!1307 = !DISubprogram(name: "operator*", linkageName: "_ZNKSt23_Rb_tree_const_iteratorISt3setIjSt4lessIjESaIjEEEdeEv", scope: !1250, file: !4, line: 356, type: !1308, scopeLine: 356, flags: DIFlagPrototyped, spFlags: DISPFlagOptimized)
!1308 = !DISubroutineType(types: !1309)
!1309 = !{!1310, !1305}
!1310 = !DIDerivedType(tag: DW_TAG_typedef, name: "reference", scope: !1250, file: !4, line: 329, baseType: !754)
!1311 = !DISubprogram(name: "operator->", linkageName: "_ZNKSt23_Rb_tree_const_iteratorISt3setIjSt4lessIjESaIjEEEptEv", scope: !1250, file: !4, line: 360, type: !1312, scopeLine: 360, flags: DIFlagPrototyped, spFlags: DISPFlagOptimized)
!1312 = !DISubroutineType(types: !1313)
!1313 = !{!1314, !1305}
!1314 = !DIDerivedType(tag: DW_TAG_typedef, name: "pointer", scope: !1250, file: !4, line: 330, baseType: !961)
!1315 = !DISubprogram(name: "operator++", linkageName: "_ZNSt23_Rb_tree_const_iteratorISt3setIjSt4lessIjESaIjEEEppEv", scope: !1250, file: !4, line: 364, type: !1316, scopeLine: 364, flags: DIFlagPrototyped, spFlags: DISPFlagOptimized)
!1316 = !DISubroutineType(types: !1317)
!1317 = !{!1318, !1256}
!1318 = !DIDerivedType(tag: DW_TAG_reference_type, baseType: !1319, size: 64)
!1319 = !DIDerivedType(tag: DW_TAG_typedef, name: "_Self", scope: !1250, file: !4, line: 337, baseType: !1250)
!1320 = !DISubprogram(name: "operator++", linkageName: "_ZNSt23_Rb_tree_const_iteratorISt3setIjSt4lessIjESaIjEEEppEi", scope: !1250, file: !4, line: 371, type: !1321, scopeLine: 371, flags: DIFlagPrototyped, spFlags: DISPFlagOptimized)
!1321 = !DISubroutineType(types: !1322)
!1322 = !{!1319, !1256, !508}
!1323 = !DISubprogram(name: "operator--", linkageName: "_ZNSt23_Rb_tree_const_iteratorISt3setIjSt4lessIjESaIjEEEmmEv", scope: !1250, file: !4, line: 379, type: !1316, scopeLine: 379, flags: DIFlagPrototyped, spFlags: DISPFlagOptimized)
!1324 = !DISubprogram(name: "operator--", linkageName: "_ZNSt23_Rb_tree_const_iteratorISt3setIjSt4lessIjESaIjEEEmmEi", scope: !1250, file: !4, line: 386, type: !1321, scopeLine: 386, flags: DIFlagPrototyped, spFlags: DISPFlagOptimized)
!1325 = !DISubprogram(name: "operator==", linkageName: "_ZNKSt23_Rb_tree_const_iteratorISt3setIjSt4lessIjESaIjEEEeqERKS5_", scope: !1250, file: !4, line: 394, type: !1326, scopeLine: 394, flags: DIFlagPrototyped, spFlags: DISPFlagOptimized)
!1326 = !DISubroutineType(types: !1327)
!1327 = !{!98, !1305, !1328}
!1328 = !DIDerivedType(tag: DW_TAG_reference_type, baseType: !1329, size: 64)
!1329 = !DIDerivedType(tag: DW_TAG_const_type, baseType: !1319)
!1330 = !DISubprogram(name: "operator!=", linkageName: "_ZNKSt23_Rb_tree_const_iteratorISt3setIjSt4lessIjESaIjEEEneERKS5_", scope: !1250, file: !4, line: 398, type: !1326, scopeLine: 398, flags: DIFlagPrototyped, spFlags: DISPFlagOptimized)
!1331 = !DISubprogram(name: "_M_get_insert_hint_equal_pos", linkageName: "_ZNSt8_Rb_treeISt3setIjSt4lessIjESaIjEES4_St9_IdentityIS4_ES1_IS4_ESaIS4_EE28_M_get_insert_hint_equal_posESt23_Rb_tree_const_iteratorIS4_ERKS4_", scope: !12, file: !4, line: 827, type: !1247, scopeLine: 827, flags: DIFlagPublic | DIFlagPrototyped, spFlags: DISPFlagOptimized)
!1332 = !DISubprogram(name: "_M_insert_node", linkageName: "_ZNSt8_Rb_treeISt3setIjSt4lessIjESaIjEES4_St9_IdentityIS4_ES1_IS4_ESaIS4_EE14_M_insert_nodeEPSt18_Rb_tree_node_baseSB_PSt13_Rb_tree_nodeIS4_E", scope: !12, file: !4, line: 837, type: !1333, scopeLine: 837, flags: DIFlagPrototyped, spFlags: DISPFlagOptimized)
!1333 = !DISubroutineType(types: !1334)
!1334 = !{!1335, !1166, !334, !334, !11}
!1335 = !DIDerivedType(tag: DW_TAG_typedef, name: "iterator", scope: !12, file: !4, line: 803, baseType: !1266)
!1336 = !DISubprogram(name: "_M_insert_lower_node", linkageName: "_ZNSt8_Rb_treeISt3setIjSt4lessIjESaIjEES4_St9_IdentityIS4_ES1_IS4_ESaIS4_EE20_M_insert_lower_nodeEPSt18_Rb_tree_node_basePSt13_Rb_tree_nodeIS4_E", scope: !12, file: !4, line: 848, type: !1337, scopeLine: 848, flags: DIFlagPrototyped, spFlags: DISPFlagOptimized)
!1337 = !DISubroutineType(types: !1338)
!1338 = !{!1335, !1166, !334, !11}
!1339 = !DISubprogram(name: "_M_insert_equal_lower_node", linkageName: "_ZNSt8_Rb_treeISt3setIjSt4lessIjESaIjEES4_St9_IdentityIS4_ES1_IS4_ESaIS4_EE26_M_insert_equal_lower_nodeEPSt13_Rb_tree_nodeIS4_E", scope: !12, file: !4, line: 851, type: !1340, scopeLine: 851, flags: DIFlagPrototyped, spFlags: DISPFlagOptimized)
!1340 = !DISubroutineType(types: !1341)
!1341 = !{!1335, !1166, !11}
!1342 = !DISubprogram(name: "_M_copy", linkageName: "_ZNSt8_Rb_treeISt3setIjSt4lessIjESaIjEES4_St9_IdentityIS4_ES1_IS4_ESaIS4_EE7_M_copyERKS9_", scope: !12, file: !4, line: 883, type: !1343, scopeLine: 883, flags: DIFlagPrototyped, spFlags: DISPFlagOptimized)
!1343 = !DISubroutineType(types: !1344)
!1344 = !{!11, !1166, !1345}
!1345 = !DIDerivedType(tag: DW_TAG_reference_type, baseType: !1173, size: 64)
!1346 = !DISubprogram(name: "_M_erase", linkageName: "_ZNSt8_Rb_treeISt3setIjSt4lessIjESaIjEES4_St9_IdentityIS4_ES1_IS4_ESaIS4_EE8_M_eraseEPSt13_Rb_tree_nodeIS4_E", scope: !12, file: !4, line: 890, type: !1182, scopeLine: 890, flags: DIFlagPrototyped, spFlags: DISPFlagOptimized)
!1347 = !DISubprogram(name: "_M_lower_bound", linkageName: "_ZNSt8_Rb_treeISt3setIjSt4lessIjESaIjEES4_St9_IdentityIS4_ES1_IS4_ESaIS4_EE14_M_lower_boundEPSt13_Rb_tree_nodeIS4_EPSt18_Rb_tree_node_baseRKS4_", scope: !12, file: !4, line: 893, type: !1348, scopeLine: 893, flags: DIFlagPrototyped, spFlags: DISPFlagOptimized)
!1348 = !DISubroutineType(types: !1349)
!1349 = !{!1335, !1166, !11, !334, !754}
!1350 = !DISubprogram(name: "_M_lower_bound", linkageName: "_ZNKSt8_Rb_treeISt3setIjSt4lessIjESaIjEES4_St9_IdentityIS4_ES1_IS4_ESaIS4_EE14_M_lower_boundEPKSt13_Rb_tree_nodeIS4_EPKSt18_Rb_tree_node_baseRKS4_", scope: !12, file: !4, line: 897, type: !1351, scopeLine: 897, flags: DIFlagPrototyped, spFlags: DISPFlagOptimized)
!1351 = !DISubroutineType(types: !1352)
!1352 = !{!1249, !1172, !1200, !338, !754}
!1353 = !DISubprogram(name: "_M_upper_bound", linkageName: "_ZNSt8_Rb_treeISt3setIjSt4lessIjESaIjEES4_St9_IdentityIS4_ES1_IS4_ESaIS4_EE14_M_upper_boundEPSt13_Rb_tree_nodeIS4_EPSt18_Rb_tree_node_baseRKS4_", scope: !12, file: !4, line: 901, type: !1348, scopeLine: 901, flags: DIFlagPrototyped, spFlags: DISPFlagOptimized)
!1354 = !DISubprogram(name: "_M_upper_bound", linkageName: "_ZNKSt8_Rb_treeISt3setIjSt4lessIjESaIjEES4_St9_IdentityIS4_ES1_IS4_ESaIS4_EE14_M_upper_boundEPKSt13_Rb_tree_nodeIS4_EPKSt18_Rb_tree_node_baseRKS4_", scope: !12, file: !4, line: 905, type: !1351, scopeLine: 905, flags: DIFlagPrototyped, spFlags: DISPFlagOptimized)
!1355 = !DISubprogram(name: "_Rb_tree", scope: !12, file: !4, line: 913, type: !1356, scopeLine: 913, flags: DIFlagPublic | DIFlagPrototyped, spFlags: DISPFlagOptimized)
!1356 = !DISubroutineType(types: !1357)
!1357 = !{null, !1166}
!1358 = !DISubprogram(name: "_Rb_tree", scope: !12, file: !4, line: 916, type: !1359, scopeLine: 916, flags: DIFlagPublic | DIFlagPrototyped, spFlags: DISPFlagOptimized)
!1359 = !DISubroutineType(types: !1360)
!1360 = !{null, !1166, !1131, !1361}
!1361 = !DIDerivedType(tag: DW_TAG_reference_type, baseType: !1362, size: 64)
!1362 = !DIDerivedType(tag: DW_TAG_const_type, baseType: !1177)
!1363 = !DISubprogram(name: "_Rb_tree", scope: !12, file: !4, line: 920, type: !1364, scopeLine: 920, flags: DIFlagPublic | DIFlagPrototyped, spFlags: DISPFlagOptimized)
!1364 = !DISubroutineType(types: !1365)
!1365 = !{null, !1166, !1345}
!1366 = !DISubprogram(name: "_Rb_tree", scope: !12, file: !4, line: 928, type: !1367, scopeLine: 928, flags: DIFlagPublic | DIFlagPrototyped, spFlags: DISPFlagOptimized)
!1367 = !DISubroutineType(types: !1368)
!1368 = !{null, !1166, !1361}
!1369 = !DISubprogram(name: "_Rb_tree", scope: !12, file: !4, line: 932, type: !1370, scopeLine: 932, flags: DIFlagPublic | DIFlagPrototyped, spFlags: DISPFlagOptimized)
!1370 = !DISubroutineType(types: !1371)
!1371 = !{null, !1166, !1345, !1361}
!1372 = !DISubprogram(name: "_Rb_tree", scope: !12, file: !4, line: 939, type: !1373, scopeLine: 939, flags: DIFlagPublic | DIFlagPrototyped, spFlags: DISPFlagOptimized)
!1373 = !DISubroutineType(types: !1374)
!1374 = !{null, !1166, !1375}
!1375 = !DIDerivedType(tag: DW_TAG_rvalue_reference_type, baseType: !12, size: 64)
!1376 = !DISubprogram(name: "_Rb_tree", scope: !12, file: !4, line: 941, type: !1377, scopeLine: 941, flags: DIFlagPublic | DIFlagPrototyped, spFlags: DISPFlagOptimized)
!1377 = !DISubroutineType(types: !1378)
!1378 = !{null, !1166, !1375, !1361}
!1379 = !DISubprogram(name: "_Rb_tree", scope: !12, file: !4, line: 945, type: !1380, scopeLine: 945, flags: DIFlagPublic | DIFlagPrototyped, spFlags: DISPFlagOptimized)
!1380 = !DISubroutineType(types: !1381)
!1381 = !{null, !1166, !1375, !1160}
!1382 = !DISubprogram(name: "~_Rb_tree", scope: !12, file: !4, line: 948, type: !1356, scopeLine: 948, flags: DIFlagPublic | DIFlagPrototyped, spFlags: DISPFlagOptimized)
!1383 = !DISubprogram(name: "operator=", linkageName: "_ZNSt8_Rb_treeISt3setIjSt4lessIjESaIjEES4_St9_IdentityIS4_ES1_IS4_ESaIS4_EEaSERKS9_", scope: !12, file: !4, line: 952, type: !1384, scopeLine: 952, flags: DIFlagPublic | DIFlagPrototyped, spFlags: DISPFlagOptimized)
!1384 = !DISubroutineType(types: !1385)
!1385 = !{!1386, !1166, !1345}
!1386 = !DIDerivedType(tag: DW_TAG_reference_type, baseType: !12, size: 64)
!1387 = !DISubprogram(name: "key_comp", linkageName: "_ZNKSt8_Rb_treeISt3setIjSt4lessIjESaIjEES4_St9_IdentityIS4_ES1_IS4_ESaIS4_EE8key_compEv", scope: !12, file: !4, line: 956, type: !1388, scopeLine: 956, flags: DIFlagPublic | DIFlagPrototyped, spFlags: DISPFlagOptimized)
!1388 = !DISubroutineType(types: !1389)
!1389 = !{!1112, !1172}
!1390 = !DISubprogram(name: "begin", linkageName: "_ZNSt8_Rb_treeISt3setIjSt4lessIjESaIjEES4_St9_IdentityIS4_ES1_IS4_ESaIS4_EE5beginEv", scope: !12, file: !4, line: 960, type: !1391, scopeLine: 960, flags: DIFlagPublic | DIFlagPrototyped, spFlags: DISPFlagOptimized)
!1391 = !DISubroutineType(types: !1392)
!1392 = !{!1335, !1166}
!1393 = !DISubprogram(name: "begin", linkageName: "_ZNKSt8_Rb_treeISt3setIjSt4lessIjESaIjEES4_St9_IdentityIS4_ES1_IS4_ESaIS4_EE5beginEv", scope: !12, file: !4, line: 964, type: !1394, scopeLine: 964, flags: DIFlagPublic | DIFlagPrototyped, spFlags: DISPFlagOptimized)
!1394 = !DISubroutineType(types: !1395)
!1395 = !{!1249, !1172}
!1396 = !DISubprogram(name: "end", linkageName: "_ZNSt8_Rb_treeISt3setIjSt4lessIjESaIjEES4_St9_IdentityIS4_ES1_IS4_ESaIS4_EE3endEv", scope: !12, file: !4, line: 968, type: !1391, scopeLine: 968, flags: DIFlagPublic | DIFlagPrototyped, spFlags: DISPFlagOptimized)
!1397 = !DISubprogram(name: "end", linkageName: "_ZNKSt8_Rb_treeISt3setIjSt4lessIjESaIjEES4_St9_IdentityIS4_ES1_IS4_ESaIS4_EE3endEv", scope: !12, file: !4, line: 972, type: !1394, scopeLine: 972, flags: DIFlagPublic | DIFlagPrototyped, spFlags: DISPFlagOptimized)
!1398 = !DISubprogram(name: "rbegin", linkageName: "_ZNSt8_Rb_treeISt3setIjSt4lessIjESaIjEES4_St9_IdentityIS4_ES1_IS4_ESaIS4_EE6rbeginEv", scope: !12, file: !4, line: 976, type: !1399, scopeLine: 976, flags: DIFlagPublic | DIFlagPrototyped, spFlags: DISPFlagOptimized)
!1399 = !DISubroutineType(types: !1400)
!1400 = !{!1401, !1166}
!1401 = !DIDerivedType(tag: DW_TAG_typedef, name: "reverse_iterator", scope: !12, file: !4, line: 806, baseType: !1402)
!1402 = distinct !DICompositeType(tag: DW_TAG_class_type, name: "reverse_iterator<std::_Rb_tree_iterator<std::set<unsigned int, std::less<unsigned int>, std::allocator<unsigned int> > > >", scope: !5, file: !618, line: 101, flags: DIFlagFwdDecl, identifier: "_ZTSSt16reverse_iteratorISt17_Rb_tree_iteratorISt3setIjSt4lessIjESaIjEEEE")
!1403 = !DISubprogram(name: "rbegin", linkageName: "_ZNKSt8_Rb_treeISt3setIjSt4lessIjESaIjEES4_St9_IdentityIS4_ES1_IS4_ESaIS4_EE6rbeginEv", scope: !12, file: !4, line: 980, type: !1404, scopeLine: 980, flags: DIFlagPublic | DIFlagPrototyped, spFlags: DISPFlagOptimized)
!1404 = !DISubroutineType(types: !1405)
!1405 = !{!1406, !1172}
!1406 = !DIDerivedType(tag: DW_TAG_typedef, name: "const_reverse_iterator", scope: !12, file: !4, line: 807, baseType: !1407)
!1407 = distinct !DICompositeType(tag: DW_TAG_class_type, name: "reverse_iterator<std::_Rb_tree_const_iterator<std::set<unsigned int, std::less<unsigned int>, std::allocator<unsigned int> > > >", scope: !5, file: !618, line: 101, flags: DIFlagFwdDecl, identifier: "_ZTSSt16reverse_iteratorISt23_Rb_tree_const_iteratorISt3setIjSt4lessIjESaIjEEEE")
!1408 = !DISubprogram(name: "rend", linkageName: "_ZNSt8_Rb_treeISt3setIjSt4lessIjESaIjEES4_St9_IdentityIS4_ES1_IS4_ESaIS4_EE4rendEv", scope: !12, file: !4, line: 984, type: !1399, scopeLine: 984, flags: DIFlagPublic | DIFlagPrototyped, spFlags: DISPFlagOptimized)
!1409 = !DISubprogram(name: "rend", linkageName: "_ZNKSt8_Rb_treeISt3setIjSt4lessIjESaIjEES4_St9_IdentityIS4_ES1_IS4_ESaIS4_EE4rendEv", scope: !12, file: !4, line: 988, type: !1404, scopeLine: 988, flags: DIFlagPublic | DIFlagPrototyped, spFlags: DISPFlagOptimized)
!1410 = !DISubprogram(name: "empty", linkageName: "_ZNKSt8_Rb_treeISt3setIjSt4lessIjESaIjEES4_St9_IdentityIS4_ES1_IS4_ESaIS4_EE5emptyEv", scope: !12, file: !4, line: 992, type: !1411, scopeLine: 992, flags: DIFlagPublic | DIFlagPrototyped, spFlags: DISPFlagOptimized)
!1411 = !DISubroutineType(types: !1412)
!1412 = !{!98, !1172}
!1413 = !DISubprogram(name: "size", linkageName: "_ZNKSt8_Rb_treeISt3setIjSt4lessIjESaIjEES4_St9_IdentityIS4_ES1_IS4_ESaIS4_EE4sizeEv", scope: !12, file: !4, line: 996, type: !1414, scopeLine: 996, flags: DIFlagPublic | DIFlagPrototyped, spFlags: DISPFlagOptimized)
!1414 = !DISubroutineType(types: !1415)
!1415 = !{!632, !1172}
!1416 = !DISubprogram(name: "max_size", linkageName: "_ZNKSt8_Rb_treeISt3setIjSt4lessIjESaIjEES4_St9_IdentityIS4_ES1_IS4_ESaIS4_EE8max_sizeEv", scope: !12, file: !4, line: 1000, type: !1414, scopeLine: 1000, flags: DIFlagPublic | DIFlagPrototyped, spFlags: DISPFlagOptimized)
!1417 = !DISubprogram(name: "swap", linkageName: "_ZNSt8_Rb_treeISt3setIjSt4lessIjESaIjEES4_St9_IdentityIS4_ES1_IS4_ESaIS4_EE4swapERS9_", scope: !12, file: !4, line: 1004, type: !1418, scopeLine: 1004, flags: DIFlagPublic | DIFlagPrototyped, spFlags: DISPFlagOptimized)
!1418 = !DISubroutineType(types: !1419)
!1419 = !{null, !1166, !1386}
!1420 = !DISubprogram(name: "_M_erase_aux", linkageName: "_ZNSt8_Rb_treeISt3setIjSt4lessIjESaIjEES4_St9_IdentityIS4_ES1_IS4_ESaIS4_EE12_M_erase_auxESt23_Rb_tree_const_iteratorIS4_E", scope: !12, file: !4, line: 1097, type: !1421, scopeLine: 1097, flags: DIFlagPrototyped, spFlags: DISPFlagOptimized)
!1421 = !DISubroutineType(types: !1422)
!1422 = !{null, !1166, !1249}
!1423 = !DISubprogram(name: "_M_erase_aux", linkageName: "_ZNSt8_Rb_treeISt3setIjSt4lessIjESaIjEES4_St9_IdentityIS4_ES1_IS4_ESaIS4_EE12_M_erase_auxESt23_Rb_tree_const_iteratorIS4_ESB_", scope: !12, file: !4, line: 1100, type: !1424, scopeLine: 1100, flags: DIFlagPrototyped, spFlags: DISPFlagOptimized)
!1424 = !DISubroutineType(types: !1425)
!1425 = !{null, !1166, !1249, !1249}
!1426 = !DISubprogram(name: "erase", linkageName: "_ZNSt8_Rb_treeISt3setIjSt4lessIjESaIjEES4_St9_IdentityIS4_ES1_IS4_ESaIS4_EE5eraseB5cxx11ESt23_Rb_tree_const_iteratorIS4_E", scope: !12, file: !4, line: 1108, type: !1427, scopeLine: 1108, flags: DIFlagPublic | DIFlagPrototyped, spFlags: DISPFlagOptimized)
!1427 = !DISubroutineType(types: !1428)
!1428 = !{!1335, !1166, !1249}
!1429 = !DISubprogram(name: "erase", linkageName: "_ZNSt8_Rb_treeISt3setIjSt4lessIjESaIjEES4_St9_IdentityIS4_ES1_IS4_ESaIS4_EE5eraseB5cxx11ESt17_Rb_tree_iteratorIS4_E", scope: !12, file: !4, line: 1120, type: !1430, scopeLine: 1120, flags: DIFlagPublic | DIFlagPrototyped, spFlags: DISPFlagOptimized)
!1430 = !DISubroutineType(types: !1431)
!1431 = !{!1335, !1166, !1335}
!1432 = !DISubprogram(name: "erase", linkageName: "_ZNSt8_Rb_treeISt3setIjSt4lessIjESaIjEES4_St9_IdentityIS4_ES1_IS4_ESaIS4_EE5eraseERKS4_", scope: !12, file: !4, line: 1144, type: !1433, scopeLine: 1144, flags: DIFlagPublic | DIFlagPrototyped, spFlags: DISPFlagOptimized)
!1433 = !DISubroutineType(types: !1434)
!1434 = !{!1435, !1166, !1242}
!1435 = !DIDerivedType(tag: DW_TAG_typedef, name: "size_type", scope: !12, file: !4, line: 569, baseType: !63)
!1436 = !DISubprogram(name: "erase", linkageName: "_ZNSt8_Rb_treeISt3setIjSt4lessIjESaIjEES4_St9_IdentityIS4_ES1_IS4_ESaIS4_EE5eraseB5cxx11ESt23_Rb_tree_const_iteratorIS4_ESB_", scope: !12, file: !4, line: 1151, type: !1437, scopeLine: 1151, flags: DIFlagPublic | DIFlagPrototyped, spFlags: DISPFlagOptimized)
!1437 = !DISubroutineType(types: !1438)
!1438 = !{!1335, !1166, !1249, !1249}
!1439 = !DISubprogram(name: "erase", linkageName: "_ZNSt8_Rb_treeISt3setIjSt4lessIjESaIjEES4_St9_IdentityIS4_ES1_IS4_ESaIS4_EE5eraseEPKS4_SB_", scope: !12, file: !4, line: 1166, type: !1440, scopeLine: 1166, flags: DIFlagPublic | DIFlagPrototyped, spFlags: DISPFlagOptimized)
!1440 = !DISubroutineType(types: !1441)
!1441 = !{null, !1166, !1442, !1442}
!1442 = !DIDerivedType(tag: DW_TAG_pointer_type, baseType: !1243, size: 64)
!1443 = !DISubprogram(name: "clear", linkageName: "_ZNSt8_Rb_treeISt3setIjSt4lessIjESaIjEES4_St9_IdentityIS4_ES1_IS4_ESaIS4_EE5clearEv", scope: !12, file: !4, line: 1169, type: !1356, scopeLine: 1169, flags: DIFlagPublic | DIFlagPrototyped, spFlags: DISPFlagOptimized)
!1444 = !DISubprogram(name: "find", linkageName: "_ZNSt8_Rb_treeISt3setIjSt4lessIjESaIjEES4_St9_IdentityIS4_ES1_IS4_ESaIS4_EE4findERKS4_", scope: !12, file: !4, line: 1177, type: !1445, scopeLine: 1177, flags: DIFlagPublic | DIFlagPrototyped, spFlags: DISPFlagOptimized)
!1445 = !DISubroutineType(types: !1446)
!1446 = !{!1335, !1166, !1242}
!1447 = !DISubprogram(name: "find", linkageName: "_ZNKSt8_Rb_treeISt3setIjSt4lessIjESaIjEES4_St9_IdentityIS4_ES1_IS4_ESaIS4_EE4findERKS4_", scope: !12, file: !4, line: 1180, type: !1448, scopeLine: 1180, flags: DIFlagPublic | DIFlagPrototyped, spFlags: DISPFlagOptimized)
!1448 = !DISubroutineType(types: !1449)
!1449 = !{!1249, !1172, !1242}
!1450 = !DISubprogram(name: "count", linkageName: "_ZNKSt8_Rb_treeISt3setIjSt4lessIjESaIjEES4_St9_IdentityIS4_ES1_IS4_ESaIS4_EE5countERKS4_", scope: !12, file: !4, line: 1183, type: !1451, scopeLine: 1183, flags: DIFlagPublic | DIFlagPrototyped, spFlags: DISPFlagOptimized)
!1451 = !DISubroutineType(types: !1452)
!1452 = !{!1435, !1172, !1242}
!1453 = !DISubprogram(name: "lower_bound", linkageName: "_ZNSt8_Rb_treeISt3setIjSt4lessIjESaIjEES4_St9_IdentityIS4_ES1_IS4_ESaIS4_EE11lower_boundERKS4_", scope: !12, file: !4, line: 1186, type: !1445, scopeLine: 1186, flags: DIFlagPublic | DIFlagPrototyped, spFlags: DISPFlagOptimized)
!1454 = !DISubprogram(name: "lower_bound", linkageName: "_ZNKSt8_Rb_treeISt3setIjSt4lessIjESaIjEES4_St9_IdentityIS4_ES1_IS4_ESaIS4_EE11lower_boundERKS4_", scope: !12, file: !4, line: 1190, type: !1448, scopeLine: 1190, flags: DIFlagPublic | DIFlagPrototyped, spFlags: DISPFlagOptimized)
!1455 = !DISubprogram(name: "upper_bound", linkageName: "_ZNSt8_Rb_treeISt3setIjSt4lessIjESaIjEES4_St9_IdentityIS4_ES1_IS4_ESaIS4_EE11upper_boundERKS4_", scope: !12, file: !4, line: 1194, type: !1445, scopeLine: 1194, flags: DIFlagPublic | DIFlagPrototyped, spFlags: DISPFlagOptimized)
!1456 = !DISubprogram(name: "upper_bound", linkageName: "_ZNKSt8_Rb_treeISt3setIjSt4lessIjESaIjEES4_St9_IdentityIS4_ES1_IS4_ESaIS4_EE11upper_boundERKS4_", scope: !12, file: !4, line: 1198, type: !1448, scopeLine: 1198, flags: DIFlagPublic | DIFlagPrototyped, spFlags: DISPFlagOptimized)
!1457 = !DISubprogram(name: "equal_range", linkageName: "_ZNSt8_Rb_treeISt3setIjSt4lessIjESaIjEES4_St9_IdentityIS4_ES1_IS4_ESaIS4_EE11equal_rangeERKS4_", scope: !12, file: !4, line: 1202, type: !1458, scopeLine: 1202, flags: DIFlagPublic | DIFlagPrototyped, spFlags: DISPFlagOptimized)
!1458 = !DISubroutineType(types: !1459)
!1459 = !{!1460, !1166, !1242}
!1460 = distinct !DICompositeType(tag: DW_TAG_structure_type, name: "pair<std::_Rb_tree_iterator<std::set<unsigned int, std::less<unsigned int>, std::allocator<unsigned int> > >, std::_Rb_tree_iterator<std::set<unsigned int, std::less<unsigned int>, std::allocator<unsigned int> > > >", scope: !5, file: !390, line: 208, flags: DIFlagFwdDecl, identifier: "_ZTSSt4pairISt17_Rb_tree_iteratorISt3setIjSt4lessIjESaIjEEES6_E")
!1461 = !DISubprogram(name: "equal_range", linkageName: "_ZNKSt8_Rb_treeISt3setIjSt4lessIjESaIjEES4_St9_IdentityIS4_ES1_IS4_ESaIS4_EE11equal_rangeERKS4_", scope: !12, file: !4, line: 1205, type: !1462, scopeLine: 1205, flags: DIFlagPublic | DIFlagPrototyped, spFlags: DISPFlagOptimized)
!1462 = !DISubroutineType(types: !1463)
!1463 = !{!1464, !1172, !1242}
!1464 = distinct !DICompositeType(tag: DW_TAG_structure_type, name: "pair<std::_Rb_tree_const_iterator<std::set<unsigned int, std::less<unsigned int>, std::allocator<unsigned int> > >, std::_Rb_tree_const_iterator<std::set<unsigned int, std::less<unsigned int>, std::allocator<unsigned int> > > >", scope: !5, file: !390, line: 208, flags: DIFlagFwdDecl, identifier: "_ZTSSt4pairISt23_Rb_tree_const_iteratorISt3setIjSt4lessIjESaIjEEES6_E")
!1465 = !DISubprogram(name: "__rb_verify", linkageName: "_ZNKSt8_Rb_treeISt3setIjSt4lessIjESaIjEES4_St9_IdentityIS4_ES1_IS4_ESaIS4_EE11__rb_verifyEv", scope: !12, file: !4, line: 1326, type: !1411, scopeLine: 1326, flags: DIFlagPublic | DIFlagPrototyped, spFlags: DISPFlagOptimized)
!1466 = !DISubprogram(name: "operator=", linkageName: "_ZNSt8_Rb_treeISt3setIjSt4lessIjESaIjEES4_St9_IdentityIS4_ES1_IS4_ESaIS4_EEaSEOS9_", scope: !12, file: !4, line: 1330, type: !1467, scopeLine: 1330, flags: DIFlagPublic | DIFlagPrototyped, spFlags: DISPFlagOptimized)
!1467 = !DISubroutineType(types: !1468)
!1468 = !{!1386, !1166, !1375}
!1469 = !DISubprogram(name: "_M_move_data", linkageName: "_ZNSt8_Rb_treeISt3setIjSt4lessIjESaIjEES4_St9_IdentityIS4_ES1_IS4_ESaIS4_EE12_M_move_dataERS9_St17integral_constantIbLb1EE", scope: !12, file: !4, line: 1345, type: !1470, scopeLine: 1345, flags: DIFlagPrototyped, spFlags: DISPFlagOptimized)
!1470 = !DISubroutineType(types: !1471)
!1471 = !{null, !1166, !1386, !689}
!1472 = !DISubprogram(name: "_M_move_data", linkageName: "_ZNSt8_Rb_treeISt3setIjSt4lessIjESaIjEES4_St9_IdentityIS4_ES1_IS4_ESaIS4_EE12_M_move_dataERS9_St17integral_constantIbLb0EE", scope: !12, file: !4, line: 1351, type: !1473, scopeLine: 1351, flags: DIFlagPrototyped, spFlags: DISPFlagOptimized)
!1473 = !DISubroutineType(types: !1474)
!1474 = !{null, !1166, !1386, !707}
!1475 = !DISubprogram(name: "_M_move_assign", linkageName: "_ZNSt8_Rb_treeISt3setIjSt4lessIjESaIjEES4_St9_IdentityIS4_ES1_IS4_ESaIS4_EE14_M_move_assignERS9_St17integral_constantIbLb1EE", scope: !12, file: !4, line: 1355, type: !1470, scopeLine: 1355, flags: DIFlagPrototyped, spFlags: DISPFlagOptimized)
!1476 = !DISubprogram(name: "_M_move_assign", linkageName: "_ZNSt8_Rb_treeISt3setIjSt4lessIjESaIjEES4_St9_IdentityIS4_ES1_IS4_ESaIS4_EE14_M_move_assignERS9_St17integral_constantIbLb0EE", scope: !12, file: !4, line: 1360, type: !1473, scopeLine: 1360, flags: DIFlagPrototyped, spFlags: DISPFlagOptimized)
!1477 = !{!1478, !1056, !1479, !1495, !1000}
!1478 = !DITemplateTypeParameter(name: "_Key", type: !34)
!1479 = !DITemplateTypeParameter(name: "_KeyOfValue", type: !1480)
!1480 = distinct !DICompositeType(tag: DW_TAG_structure_type, name: "_Identity<std::set<unsigned int, std::less<unsigned int>, std::allocator<unsigned int> > >", scope: !5, file: !235, line: 869, size: 8, flags: DIFlagTypePassByValue, elements: !1481, templateParams: !972, identifier: "_ZTSSt9_IdentityISt3setIjSt4lessIjESaIjEEE")
!1481 = !{!1482, !1487, !1492}
!1482 = !DIDerivedType(tag: DW_TAG_inheritance, scope: !1480, baseType: !1483, extraData: i32 0)
!1483 = distinct !DICompositeType(tag: DW_TAG_structure_type, name: "unary_function<std::set<unsigned int, std::less<unsigned int>, std::allocator<unsigned int> >, std::set<unsigned int, std::less<unsigned int>, std::allocator<unsigned int> > >", scope: !5, file: !235, line: 105, size: 8, flags: DIFlagTypePassByValue, elements: !103, templateParams: !1484, identifier: "_ZTSSt14unary_functionISt3setIjSt4lessIjESaIjEES4_E")
!1484 = !{!1485, !1486}
!1485 = !DITemplateTypeParameter(name: "_Arg", type: !34)
!1486 = !DITemplateTypeParameter(name: "_Result", type: !34)
!1487 = !DISubprogram(name: "operator()", linkageName: "_ZNKSt9_IdentityISt3setIjSt4lessIjESaIjEEEclERS4_", scope: !1480, file: !235, line: 873, type: !1488, scopeLine: 873, flags: DIFlagPrototyped, spFlags: DISPFlagOptimized)
!1488 = !DISubroutineType(types: !1489)
!1489 = !{!781, !1490, !781}
!1490 = !DIDerivedType(tag: DW_TAG_pointer_type, baseType: !1491, size: 64, flags: DIFlagArtificial | DIFlagObjectPointer)
!1491 = !DIDerivedType(tag: DW_TAG_const_type, baseType: !1480)
!1492 = !DISubprogram(name: "operator()", linkageName: "_ZNKSt9_IdentityISt3setIjSt4lessIjESaIjEEEclERKS4_", scope: !1480, file: !235, line: 877, type: !1493, scopeLine: 877, flags: DIFlagPrototyped, spFlags: DISPFlagOptimized)
!1493 = !DISubroutineType(types: !1494)
!1494 = !{!754, !1490, !754}
!1495 = !DITemplateTypeParameter(name: "_Compare", type: !1112)
!1496 = !DIDerivedType(tag: DW_TAG_pointer_type, baseType: !18, size: 64)
!1497 = !DISubprogram(name: "operator delete", linkageName: "_ZdlPv", scope: !1498, file: !1498, line: 124, type: !1499, flags: DIFlagPrototyped, spFlags: DISPFlagOptimized, retainedNodes: !103)
!1498 = !DIFile(filename: "/usr/lib/gcc/x86_64-linux-gnu/7.5.0/../../../../include/c++/7.5.0/new", directory: "")
!1499 = !DISubroutineType(types: !1500)
!1500 = !{null, !149}
!1501 = !DIDerivedType(tag: DW_TAG_pointer_type, baseType: !45, size: 64)
!1502 = !DISubprogram(name: "operator new", linkageName: "_Znwm", scope: !1498, file: !1498, line: 120, type: !1503, flags: DIFlagPrototyped, spFlags: DISPFlagOptimized, retainedNodes: !103)
!1503 = !DISubroutineType(types: !1504)
!1504 = !{!149, !65}
!1505 = !DIDerivedType(tag: DW_TAG_typedef, name: "_Link_type", scope: !461, file: !4, line: 339, baseType: !207)
!1506 = !DIDerivedType(tag: DW_TAG_typedef, name: "size_type", file: !1507, line: 242, baseType: !63)
!1507 = !DIFile(filename: "/usr/lib/gcc/x86_64-linux-gnu/7.5.0/../../../../include/c++/7.5.0/bits/stl_vector.h", directory: "")
!1508 = !DIDerivedType(tag: DW_TAG_pointer_type, baseType: !1509, size: 64)
!1509 = !DIDerivedType(tag: DW_TAG_const_type, baseType: !1510)
!1510 = !DIDerivedType(tag: DW_TAG_typedef, name: "_Tp_alloc_type", scope: !1511, file: !1507, line: 77, baseType: !1585)
!1511 = distinct !DICompositeType(tag: DW_TAG_structure_type, name: "_Vector_base<std::set<unsigned int, std::less<unsigned int>, std::allocator<unsigned int> >, std::allocator<std::set<unsigned int, std::less<unsigned int>, std::allocator<unsigned int> > > >", scope: !5, file: !1507, line: 74, size: 192, flags: DIFlagTypePassByReference | DIFlagNonTrivial, elements: !1512, templateParams: !1584, identifier: "_ZTSSt12_Vector_baseISt3setIjSt4lessIjESaIjEESaIS4_EE")
!1512 = !{!1513, !1538, !1543, !1548, !1552, !1555, !1560, !1563, !1566, !1569, !1573, !1576, !1577, !1580, !1583}
!1513 = !DIDerivedType(tag: DW_TAG_member, name: "_M_impl", scope: !1511, file: !1507, line: 166, baseType: !1514, size: 192)
!1514 = distinct !DICompositeType(tag: DW_TAG_structure_type, name: "_Vector_impl", scope: !1511, file: !1507, line: 81, size: 192, flags: DIFlagTypePassByReference | DIFlagNonTrivial, elements: !1515, identifier: "_ZTSNSt12_Vector_baseISt3setIjSt4lessIjESaIjEESaIS4_EE12_Vector_implE")
!1515 = !{!1516, !1517, !1520, !1521, !1522, !1526, !1530, !1534}
!1516 = !DIDerivedType(tag: DW_TAG_inheritance, scope: !1514, baseType: !1510, extraData: i32 0)
!1517 = !DIDerivedType(tag: DW_TAG_member, name: "_M_start", scope: !1514, file: !1507, line: 84, baseType: !1518, size: 64)
!1518 = !DIDerivedType(tag: DW_TAG_typedef, name: "pointer", scope: !1511, file: !1507, line: 79, baseType: !1519)
!1519 = !DIDerivedType(tag: DW_TAG_typedef, name: "pointer", scope: !22, file: !20, line: 59, baseType: !32)
!1520 = !DIDerivedType(tag: DW_TAG_member, name: "_M_finish", scope: !1514, file: !1507, line: 85, baseType: !1518, size: 64, offset: 64)
!1521 = !DIDerivedType(tag: DW_TAG_member, name: "_M_end_of_storage", scope: !1514, file: !1507, line: 86, baseType: !1518, size: 64, offset: 128)
!1522 = !DISubprogram(name: "_Vector_impl", scope: !1514, file: !1507, line: 88, type: !1523, scopeLine: 88, flags: DIFlagPrototyped, spFlags: DISPFlagOptimized)
!1523 = !DISubroutineType(types: !1524)
!1524 = !{null, !1525}
!1525 = !DIDerivedType(tag: DW_TAG_pointer_type, baseType: !1514, size: 64, flags: DIFlagArtificial | DIFlagObjectPointer)
!1526 = !DISubprogram(name: "_Vector_impl", scope: !1514, file: !1507, line: 92, type: !1527, scopeLine: 92, flags: DIFlagPrototyped, spFlags: DISPFlagOptimized)
!1527 = !DISubroutineType(types: !1528)
!1528 = !{null, !1525, !1529}
!1529 = !DIDerivedType(tag: DW_TAG_reference_type, baseType: !1509, size: 64)
!1530 = !DISubprogram(name: "_Vector_impl", scope: !1514, file: !1507, line: 97, type: !1531, scopeLine: 97, flags: DIFlagPrototyped, spFlags: DISPFlagOptimized)
!1531 = !DISubroutineType(types: !1532)
!1532 = !{null, !1525, !1533}
!1533 = !DIDerivedType(tag: DW_TAG_rvalue_reference_type, baseType: !1510, size: 64)
!1534 = !DISubprogram(name: "_M_swap_data", linkageName: "_ZNSt12_Vector_baseISt3setIjSt4lessIjESaIjEESaIS4_EE12_Vector_impl12_M_swap_dataERS7_", scope: !1514, file: !1507, line: 103, type: !1535, scopeLine: 103, flags: DIFlagPrototyped, spFlags: DISPFlagOptimized)
!1535 = !DISubroutineType(types: !1536)
!1536 = !{null, !1525, !1537}
!1537 = !DIDerivedType(tag: DW_TAG_reference_type, baseType: !1514, size: 64)
!1538 = !DISubprogram(name: "_M_get_Tp_allocator", linkageName: "_ZNSt12_Vector_baseISt3setIjSt4lessIjESaIjEESaIS4_EE19_M_get_Tp_allocatorEv", scope: !1511, file: !1507, line: 115, type: !1539, scopeLine: 115, flags: DIFlagPrototyped, spFlags: DISPFlagOptimized)
!1539 = !DISubroutineType(types: !1540)
!1540 = !{!1541, !1542}
!1541 = !DIDerivedType(tag: DW_TAG_reference_type, baseType: !1510, size: 64)
!1542 = !DIDerivedType(tag: DW_TAG_pointer_type, baseType: !1511, size: 64, flags: DIFlagArtificial | DIFlagObjectPointer)
!1543 = !DISubprogram(name: "_M_get_Tp_allocator", linkageName: "_ZNKSt12_Vector_baseISt3setIjSt4lessIjESaIjEESaIS4_EE19_M_get_Tp_allocatorEv", scope: !1511, file: !1507, line: 119, type: !1544, scopeLine: 119, flags: DIFlagPrototyped, spFlags: DISPFlagOptimized)
!1544 = !DISubroutineType(types: !1545)
!1545 = !{!1529, !1546}
!1546 = !DIDerivedType(tag: DW_TAG_pointer_type, baseType: !1547, size: 64, flags: DIFlagArtificial | DIFlagObjectPointer)
!1547 = !DIDerivedType(tag: DW_TAG_const_type, baseType: !1511)
!1548 = !DISubprogram(name: "get_allocator", linkageName: "_ZNKSt12_Vector_baseISt3setIjSt4lessIjESaIjEESaIS4_EE13get_allocatorEv", scope: !1511, file: !1507, line: 123, type: !1549, scopeLine: 123, flags: DIFlagPrototyped, spFlags: DISPFlagOptimized)
!1549 = !DISubroutineType(types: !1550)
!1550 = !{!1551, !1546}
!1551 = !DIDerivedType(tag: DW_TAG_typedef, name: "allocator_type", scope: !1511, file: !1507, line: 112, baseType: !935)
!1552 = !DISubprogram(name: "_Vector_base", scope: !1511, file: !1507, line: 126, type: !1553, scopeLine: 126, flags: DIFlagPrototyped, spFlags: DISPFlagOptimized)
!1553 = !DISubroutineType(types: !1554)
!1554 = !{null, !1542}
!1555 = !DISubprogram(name: "_Vector_base", scope: !1511, file: !1507, line: 129, type: !1556, scopeLine: 129, flags: DIFlagPrototyped, spFlags: DISPFlagOptimized)
!1556 = !DISubroutineType(types: !1557)
!1557 = !{null, !1542, !1558}
!1558 = !DIDerivedType(tag: DW_TAG_reference_type, baseType: !1559, size: 64)
!1559 = !DIDerivedType(tag: DW_TAG_const_type, baseType: !1551)
!1560 = !DISubprogram(name: "_Vector_base", scope: !1511, file: !1507, line: 132, type: !1561, scopeLine: 132, flags: DIFlagPrototyped, spFlags: DISPFlagOptimized)
!1561 = !DISubroutineType(types: !1562)
!1562 = !{null, !1542, !63}
!1563 = !DISubprogram(name: "_Vector_base", scope: !1511, file: !1507, line: 136, type: !1564, scopeLine: 136, flags: DIFlagPrototyped, spFlags: DISPFlagOptimized)
!1564 = !DISubroutineType(types: !1565)
!1565 = !{null, !1542, !63, !1558}
!1566 = !DISubprogram(name: "_Vector_base", scope: !1511, file: !1507, line: 141, type: !1567, scopeLine: 141, flags: DIFlagPrototyped, spFlags: DISPFlagOptimized)
!1567 = !DISubroutineType(types: !1568)
!1568 = !{null, !1542, !1533}
!1569 = !DISubprogram(name: "_Vector_base", scope: !1511, file: !1507, line: 144, type: !1570, scopeLine: 144, flags: DIFlagPrototyped, spFlags: DISPFlagOptimized)
!1570 = !DISubroutineType(types: !1571)
!1571 = !{null, !1542, !1572}
!1572 = !DIDerivedType(tag: DW_TAG_rvalue_reference_type, baseType: !1511, size: 64)
!1573 = !DISubprogram(name: "_Vector_base", scope: !1511, file: !1507, line: 148, type: !1574, scopeLine: 148, flags: DIFlagPrototyped, spFlags: DISPFlagOptimized)
!1574 = !DISubroutineType(types: !1575)
!1575 = !{null, !1542, !1572, !1558}
!1576 = !DISubprogram(name: "~_Vector_base", scope: !1511, file: !1507, line: 161, type: !1553, scopeLine: 161, flags: DIFlagPrototyped, spFlags: DISPFlagOptimized)
!1577 = !DISubprogram(name: "_M_allocate", linkageName: "_ZNSt12_Vector_baseISt3setIjSt4lessIjESaIjEESaIS4_EE11_M_allocateEm", scope: !1511, file: !1507, line: 169, type: !1578, scopeLine: 169, flags: DIFlagPrototyped, spFlags: DISPFlagOptimized)
!1578 = !DISubroutineType(types: !1579)
!1579 = !{!1518, !1542, !63}
!1580 = !DISubprogram(name: "_M_deallocate", linkageName: "_ZNSt12_Vector_baseISt3setIjSt4lessIjESaIjEESaIS4_EE13_M_deallocateEPS4_m", scope: !1511, file: !1507, line: 176, type: !1581, scopeLine: 176, flags: DIFlagPrototyped, spFlags: DISPFlagOptimized)
!1581 = !DISubroutineType(types: !1582)
!1582 = !{null, !1542, !1518, !63}
!1583 = !DISubprogram(name: "_M_create_storage", linkageName: "_ZNSt12_Vector_baseISt3setIjSt4lessIjESaIjEESaIS4_EE17_M_create_storageEm", scope: !1511, file: !1507, line: 185, type: !1561, scopeLine: 185, flags: DIFlagPrivate | DIFlagPrototyped, spFlags: DISPFlagOptimized)
!1584 = !{!973, !1000}
!1585 = !DIDerivedType(tag: DW_TAG_typedef, name: "other", scope: !1586, file: !20, line: 117, baseType: !1587)
!1586 = distinct !DICompositeType(tag: DW_TAG_structure_type, name: "rebind<std::set<unsigned int, std::less<unsigned int>, std::allocator<unsigned int> > >", scope: !22, file: !20, line: 116, size: 8, flags: DIFlagTypePassByValue, elements: !103, templateParams: !972, identifier: "_ZTSN9__gnu_cxx14__alloc_traitsISaISt3setIjSt4lessIjESaIjEEEE6rebindIS5_EE")
!1587 = !DIDerivedType(tag: DW_TAG_typedef, name: "rebind_alloc<std::set<unsigned int, std::less<unsigned int>, std::allocator<unsigned int> > >", scope: !26, file: !27, line: 422, baseType: !935)
!1588 = !DIDerivedType(tag: DW_TAG_typedef, name: "iterator", scope: !1589, file: !1507, line: 237, baseType: !1843)
!1589 = distinct !DICompositeType(tag: DW_TAG_class_type, name: "vector<std::set<unsigned int, std::less<unsigned int>, std::allocator<unsigned int> >, std::allocator<std::set<unsigned int, std::less<unsigned int>, std::allocator<unsigned int> > > >", scope: !5, file: !1507, line: 216, size: 192, flags: DIFlagTypePassByReference | DIFlagNonTrivial, elements: !1590, templateParams: !1584, identifier: "_ZTSSt6vectorISt3setIjSt4lessIjESaIjEESaIS4_EE")
!1590 = !{!1591, !1592, !1596, !1602, !1605, !1611, !1616, !1620, !1623, !1626, !1630, !1631, !1635, !1638, !1641, !1644, !1647, !1650, !1712, !1713, !1714, !1719, !1724, !1725, !1726, !1727, !1728, !1729, !1730, !1733, !1734, !1737, !1738, !1739, !1740, !1743, !1744, !1752, !1759, !1762, !1763, !1764, !1767, !1770, !1771, !1772, !1775, !1778, !1781, !1785, !1786, !1789, !1792, !1795, !1798, !1801, !1804, !1807, !1808, !1809, !1810, !1811, !1814, !1815, !1818, !1819, !1820, !1827, !1831, !1834, !1837, !1840}
!1591 = !DIDerivedType(tag: DW_TAG_inheritance, scope: !1589, baseType: !1511, flags: DIFlagProtected, extraData: i32 0)
!1592 = !DISubprogram(name: "vector", scope: !1589, file: !1507, line: 259, type: !1593, scopeLine: 259, flags: DIFlagPublic | DIFlagPrototyped, spFlags: DISPFlagOptimized)
!1593 = !DISubroutineType(types: !1594)
!1594 = !{null, !1595}
!1595 = !DIDerivedType(tag: DW_TAG_pointer_type, baseType: !1589, size: 64, flags: DIFlagArtificial | DIFlagObjectPointer)
!1596 = !DISubprogram(name: "vector", scope: !1589, file: !1507, line: 270, type: !1597, scopeLine: 270, flags: DIFlagPublic | DIFlagExplicit | DIFlagPrototyped, spFlags: DISPFlagOptimized)
!1597 = !DISubroutineType(types: !1598)
!1598 = !{null, !1595, !1599}
!1599 = !DIDerivedType(tag: DW_TAG_reference_type, baseType: !1600, size: 64)
!1600 = !DIDerivedType(tag: DW_TAG_const_type, baseType: !1601)
!1601 = !DIDerivedType(tag: DW_TAG_typedef, name: "allocator_type", scope: !1589, file: !1507, line: 244, baseType: !935)
!1602 = !DISubprogram(name: "vector", scope: !1589, file: !1507, line: 283, type: !1603, scopeLine: 283, flags: DIFlagPublic | DIFlagExplicit | DIFlagPrototyped, spFlags: DISPFlagOptimized)
!1603 = !DISubroutineType(types: !1604)
!1604 = !{null, !1595, !1506, !1599}
!1605 = !DISubprogram(name: "vector", scope: !1589, file: !1507, line: 295, type: !1606, scopeLine: 295, flags: DIFlagPublic | DIFlagPrototyped, spFlags: DISPFlagOptimized)
!1606 = !DISubroutineType(types: !1607)
!1607 = !{null, !1595, !1506, !1608, !1599}
!1608 = !DIDerivedType(tag: DW_TAG_reference_type, baseType: !1609, size: 64)
!1609 = !DIDerivedType(tag: DW_TAG_const_type, baseType: !1610)
!1610 = !DIDerivedType(tag: DW_TAG_typedef, name: "value_type", scope: !1589, file: !1507, line: 232, baseType: !34)
!1611 = !DISubprogram(name: "vector", scope: !1589, file: !1507, line: 326, type: !1612, scopeLine: 326, flags: DIFlagPublic | DIFlagPrototyped, spFlags: DISPFlagOptimized)
!1612 = !DISubroutineType(types: !1613)
!1613 = !{null, !1595, !1614}
!1614 = !DIDerivedType(tag: DW_TAG_reference_type, baseType: !1615, size: 64)
!1615 = !DIDerivedType(tag: DW_TAG_const_type, baseType: !1589)
!1616 = !DISubprogram(name: "vector", scope: !1589, file: !1507, line: 344, type: !1617, scopeLine: 344, flags: DIFlagPublic | DIFlagPrototyped, spFlags: DISPFlagOptimized)
!1617 = !DISubroutineType(types: !1618)
!1618 = !{null, !1595, !1619}
!1619 = !DIDerivedType(tag: DW_TAG_rvalue_reference_type, baseType: !1589, size: 64)
!1620 = !DISubprogram(name: "vector", scope: !1589, file: !1507, line: 348, type: !1621, scopeLine: 348, flags: DIFlagPublic | DIFlagPrototyped, spFlags: DISPFlagOptimized)
!1621 = !DISubroutineType(types: !1622)
!1622 = !{null, !1595, !1614, !1599}
!1623 = !DISubprogram(name: "vector", scope: !1589, file: !1507, line: 358, type: !1624, scopeLine: 358, flags: DIFlagPublic | DIFlagPrototyped, spFlags: DISPFlagOptimized)
!1624 = !DISubroutineType(types: !1625)
!1625 = !{null, !1595, !1619, !1599}
!1626 = !DISubprogram(name: "vector", scope: !1589, file: !1507, line: 383, type: !1627, scopeLine: 383, flags: DIFlagPublic | DIFlagPrototyped, spFlags: DISPFlagOptimized)
!1627 = !DISubroutineType(types: !1628)
!1628 = !{null, !1595, !1629, !1599}
!1629 = distinct !DICompositeType(tag: DW_TAG_class_type, name: "initializer_list<std::set<unsigned int, std::less<unsigned int>, std::allocator<unsigned int> > >", scope: !5, file: !764, line: 47, flags: DIFlagFwdDecl, identifier: "_ZTSSt16initializer_listISt3setIjSt4lessIjESaIjEEE")
!1630 = !DISubprogram(name: "~vector", scope: !1589, file: !1507, line: 433, type: !1593, scopeLine: 433, flags: DIFlagPublic | DIFlagPrototyped, spFlags: DISPFlagOptimized)
!1631 = !DISubprogram(name: "operator=", linkageName: "_ZNSt6vectorISt3setIjSt4lessIjESaIjEESaIS4_EEaSERKS6_", scope: !1589, file: !1507, line: 447, type: !1632, scopeLine: 447, flags: DIFlagPublic | DIFlagPrototyped, spFlags: DISPFlagOptimized)
!1632 = !DISubroutineType(types: !1633)
!1633 = !{!1634, !1595, !1614}
!1634 = !DIDerivedType(tag: DW_TAG_reference_type, baseType: !1589, size: 64)
!1635 = !DISubprogram(name: "operator=", linkageName: "_ZNSt6vectorISt3setIjSt4lessIjESaIjEESaIS4_EEaSEOS6_", scope: !1589, file: !1507, line: 461, type: !1636, scopeLine: 461, flags: DIFlagPublic | DIFlagPrototyped, spFlags: DISPFlagOptimized)
!1636 = !DISubroutineType(types: !1637)
!1637 = !{!1634, !1595, !1619}
!1638 = !DISubprogram(name: "operator=", linkageName: "_ZNSt6vectorISt3setIjSt4lessIjESaIjEESaIS4_EEaSESt16initializer_listIS4_E", scope: !1589, file: !1507, line: 482, type: !1639, scopeLine: 482, flags: DIFlagPublic | DIFlagPrototyped, spFlags: DISPFlagOptimized)
!1639 = !DISubroutineType(types: !1640)
!1640 = !{!1634, !1595, !1629}
!1641 = !DISubprogram(name: "assign", linkageName: "_ZNSt6vectorISt3setIjSt4lessIjESaIjEESaIS4_EE6assignEmRKS4_", scope: !1589, file: !1507, line: 501, type: !1642, scopeLine: 501, flags: DIFlagPublic | DIFlagPrototyped, spFlags: DISPFlagOptimized)
!1642 = !DISubroutineType(types: !1643)
!1643 = !{null, !1595, !1506, !1608}
!1644 = !DISubprogram(name: "assign", linkageName: "_ZNSt6vectorISt3setIjSt4lessIjESaIjEESaIS4_EE6assignESt16initializer_listIS4_E", scope: !1589, file: !1507, line: 546, type: !1645, scopeLine: 546, flags: DIFlagPublic | DIFlagPrototyped, spFlags: DISPFlagOptimized)
!1645 = !DISubroutineType(types: !1646)
!1646 = !{null, !1595, !1629}
!1647 = !DISubprogram(name: "begin", linkageName: "_ZNSt6vectorISt3setIjSt4lessIjESaIjEESaIS4_EE5beginEv", scope: !1589, file: !1507, line: 563, type: !1648, scopeLine: 563, flags: DIFlagPublic | DIFlagPrototyped, spFlags: DISPFlagOptimized)
!1648 = !DISubroutineType(types: !1649)
!1649 = !{!1588, !1595}
!1650 = !DISubprogram(name: "begin", linkageName: "_ZNKSt6vectorISt3setIjSt4lessIjESaIjEESaIS4_EE5beginEv", scope: !1589, file: !1507, line: 572, type: !1651, scopeLine: 572, flags: DIFlagPublic | DIFlagPrototyped, spFlags: DISPFlagOptimized)
!1651 = !DISubroutineType(types: !1652)
!1652 = !{!1653, !1711}
!1653 = !DIDerivedType(tag: DW_TAG_typedef, name: "const_iterator", scope: !1589, file: !1507, line: 239, baseType: !1654)
!1654 = distinct !DICompositeType(tag: DW_TAG_class_type, name: "__normal_iterator<const std::set<unsigned int, std::less<unsigned int>, std::allocator<unsigned int> > *, std::vector<std::set<unsigned int, std::less<unsigned int>, std::allocator<unsigned int> >, std::allocator<std::set<unsigned int, std::less<unsigned int>, std::allocator<unsigned int> > > > >", scope: !23, file: !618, line: 763, size: 64, flags: DIFlagTypePassByValue | DIFlagNonTrivial, elements: !1655, templateParams: !1709, identifier: "_ZTSN9__gnu_cxx17__normal_iteratorIPKSt3setIjSt4lessIjESaIjEESt6vectorIS5_SaIS5_EEEE")
!1655 = !{!1656, !1657, !1661, !1666, !1677, !1682, !1686, !1689, !1690, !1691, !1698, !1701, !1704, !1705, !1706}
!1656 = !DIDerivedType(tag: DW_TAG_member, name: "_M_current", scope: !1654, file: !618, line: 766, baseType: !961, size: 64, flags: DIFlagProtected)
!1657 = !DISubprogram(name: "__normal_iterator", scope: !1654, file: !618, line: 778, type: !1658, scopeLine: 778, flags: DIFlagPublic | DIFlagPrototyped, spFlags: DISPFlagOptimized)
!1658 = !DISubroutineType(types: !1659)
!1659 = !{null, !1660}
!1660 = !DIDerivedType(tag: DW_TAG_pointer_type, baseType: !1654, size: 64, flags: DIFlagArtificial | DIFlagObjectPointer)
!1661 = !DISubprogram(name: "__normal_iterator", scope: !1654, file: !618, line: 782, type: !1662, scopeLine: 782, flags: DIFlagPublic | DIFlagExplicit | DIFlagPrototyped, spFlags: DISPFlagOptimized)
!1662 = !DISubroutineType(types: !1663)
!1663 = !{null, !1660, !1664}
!1664 = !DIDerivedType(tag: DW_TAG_reference_type, baseType: !1665, size: 64)
!1665 = !DIDerivedType(tag: DW_TAG_const_type, baseType: !961)
!1666 = !DISubprogram(name: "operator*", linkageName: "_ZNK9__gnu_cxx17__normal_iteratorIPKSt3setIjSt4lessIjESaIjEESt6vectorIS5_SaIS5_EEEdeEv", scope: !1654, file: !618, line: 795, type: !1667, scopeLine: 795, flags: DIFlagPublic | DIFlagPrototyped, spFlags: DISPFlagOptimized)
!1667 = !DISubroutineType(types: !1668)
!1668 = !{!1669, !1675}
!1669 = !DIDerivedType(tag: DW_TAG_typedef, name: "reference", scope: !1654, file: !618, line: 775, baseType: !1670)
!1670 = !DIDerivedType(tag: DW_TAG_typedef, name: "reference", scope: !1672, file: !1671, line: 195, baseType: !754)
!1671 = !DIFile(filename: "/usr/lib/gcc/x86_64-linux-gnu/7.5.0/../../../../include/c++/7.5.0/bits/stl_iterator_base_types.h", directory: "")
!1672 = distinct !DICompositeType(tag: DW_TAG_structure_type, name: "iterator_traits<const std::set<unsigned int, std::less<unsigned int>, std::allocator<unsigned int> > *>", scope: !5, file: !1671, line: 189, size: 8, flags: DIFlagTypePassByValue, elements: !103, templateParams: !1673, identifier: "_ZTSSt15iterator_traitsIPKSt3setIjSt4lessIjESaIjEEE")
!1673 = !{!1674}
!1674 = !DITemplateTypeParameter(name: "_Iterator", type: !961)
!1675 = !DIDerivedType(tag: DW_TAG_pointer_type, baseType: !1676, size: 64, flags: DIFlagArtificial | DIFlagObjectPointer)
!1676 = !DIDerivedType(tag: DW_TAG_const_type, baseType: !1654)
!1677 = !DISubprogram(name: "operator->", linkageName: "_ZNK9__gnu_cxx17__normal_iteratorIPKSt3setIjSt4lessIjESaIjEESt6vectorIS5_SaIS5_EEEptEv", scope: !1654, file: !618, line: 799, type: !1678, scopeLine: 799, flags: DIFlagPublic | DIFlagPrototyped, spFlags: DISPFlagOptimized)
!1678 = !DISubroutineType(types: !1679)
!1679 = !{!1680, !1675}
!1680 = !DIDerivedType(tag: DW_TAG_typedef, name: "pointer", scope: !1654, file: !618, line: 776, baseType: !1681)
!1681 = !DIDerivedType(tag: DW_TAG_typedef, name: "pointer", scope: !1672, file: !1671, line: 194, baseType: !961)
!1682 = !DISubprogram(name: "operator++", linkageName: "_ZN9__gnu_cxx17__normal_iteratorIPKSt3setIjSt4lessIjESaIjEESt6vectorIS5_SaIS5_EEEppEv", scope: !1654, file: !618, line: 803, type: !1683, scopeLine: 803, flags: DIFlagPublic | DIFlagPrototyped, spFlags: DISPFlagOptimized)
!1683 = !DISubroutineType(types: !1684)
!1684 = !{!1685, !1660}
!1685 = !DIDerivedType(tag: DW_TAG_reference_type, baseType: !1654, size: 64)
!1686 = !DISubprogram(name: "operator++", linkageName: "_ZN9__gnu_cxx17__normal_iteratorIPKSt3setIjSt4lessIjESaIjEESt6vectorIS5_SaIS5_EEEppEi", scope: !1654, file: !618, line: 810, type: !1687, scopeLine: 810, flags: DIFlagPublic | DIFlagPrototyped, spFlags: DISPFlagOptimized)
!1687 = !DISubroutineType(types: !1688)
!1688 = !{!1654, !1660, !508}
!1689 = !DISubprogram(name: "operator--", linkageName: "_ZN9__gnu_cxx17__normal_iteratorIPKSt3setIjSt4lessIjESaIjEESt6vectorIS5_SaIS5_EEEmmEv", scope: !1654, file: !618, line: 815, type: !1683, scopeLine: 815, flags: DIFlagPublic | DIFlagPrototyped, spFlags: DISPFlagOptimized)
!1690 = !DISubprogram(name: "operator--", linkageName: "_ZN9__gnu_cxx17__normal_iteratorIPKSt3setIjSt4lessIjESaIjEESt6vectorIS5_SaIS5_EEEmmEi", scope: !1654, file: !618, line: 822, type: !1687, scopeLine: 822, flags: DIFlagPublic | DIFlagPrototyped, spFlags: DISPFlagOptimized)
!1691 = !DISubprogram(name: "operator[]", linkageName: "_ZNK9__gnu_cxx17__normal_iteratorIPKSt3setIjSt4lessIjESaIjEESt6vectorIS5_SaIS5_EEEixEl", scope: !1654, file: !618, line: 827, type: !1692, scopeLine: 827, flags: DIFlagPublic | DIFlagPrototyped, spFlags: DISPFlagOptimized)
!1692 = !DISubroutineType(types: !1693)
!1693 = !{!1669, !1675, !1694}
!1694 = !DIDerivedType(tag: DW_TAG_typedef, name: "difference_type", scope: !1654, file: !618, line: 774, baseType: !1695)
!1695 = !DIDerivedType(tag: DW_TAG_typedef, name: "difference_type", scope: !1672, file: !1671, line: 193, baseType: !1696)
!1696 = !DIDerivedType(tag: DW_TAG_typedef, name: "ptrdiff_t", scope: !5, file: !64, line: 232, baseType: !1697)
!1697 = !DIBasicType(name: "long int", size: 64, encoding: DW_ATE_signed)
!1698 = !DISubprogram(name: "operator+=", linkageName: "_ZN9__gnu_cxx17__normal_iteratorIPKSt3setIjSt4lessIjESaIjEESt6vectorIS5_SaIS5_EEEpLEl", scope: !1654, file: !618, line: 831, type: !1699, scopeLine: 831, flags: DIFlagPublic | DIFlagPrototyped, spFlags: DISPFlagOptimized)
!1699 = !DISubroutineType(types: !1700)
!1700 = !{!1685, !1660, !1694}
!1701 = !DISubprogram(name: "operator+", linkageName: "_ZNK9__gnu_cxx17__normal_iteratorIPKSt3setIjSt4lessIjESaIjEESt6vectorIS5_SaIS5_EEEplEl", scope: !1654, file: !618, line: 835, type: !1702, scopeLine: 835, flags: DIFlagPublic | DIFlagPrototyped, spFlags: DISPFlagOptimized)
!1702 = !DISubroutineType(types: !1703)
!1703 = !{!1654, !1675, !1694}
!1704 = !DISubprogram(name: "operator-=", linkageName: "_ZN9__gnu_cxx17__normal_iteratorIPKSt3setIjSt4lessIjESaIjEESt6vectorIS5_SaIS5_EEEmIEl", scope: !1654, file: !618, line: 839, type: !1699, scopeLine: 839, flags: DIFlagPublic | DIFlagPrototyped, spFlags: DISPFlagOptimized)
!1705 = !DISubprogram(name: "operator-", linkageName: "_ZNK9__gnu_cxx17__normal_iteratorIPKSt3setIjSt4lessIjESaIjEESt6vectorIS5_SaIS5_EEEmiEl", scope: !1654, file: !618, line: 843, type: !1702, scopeLine: 843, flags: DIFlagPublic | DIFlagPrototyped, spFlags: DISPFlagOptimized)
!1706 = !DISubprogram(name: "base", linkageName: "_ZNK9__gnu_cxx17__normal_iteratorIPKSt3setIjSt4lessIjESaIjEESt6vectorIS5_SaIS5_EEE4baseEv", scope: !1654, file: !618, line: 847, type: !1707, scopeLine: 847, flags: DIFlagPublic | DIFlagPrototyped, spFlags: DISPFlagOptimized)
!1707 = !DISubroutineType(types: !1708)
!1708 = !{!1664, !1675}
!1709 = !{!1674, !1710}
!1710 = !DITemplateTypeParameter(name: "_Container", type: !1589)
!1711 = !DIDerivedType(tag: DW_TAG_pointer_type, baseType: !1615, size: 64, flags: DIFlagArtificial | DIFlagObjectPointer)
!1712 = !DISubprogram(name: "end", linkageName: "_ZNSt6vectorISt3setIjSt4lessIjESaIjEESaIS4_EE3endEv", scope: !1589, file: !1507, line: 581, type: !1648, scopeLine: 581, flags: DIFlagPublic | DIFlagPrototyped, spFlags: DISPFlagOptimized)
!1713 = !DISubprogram(name: "end", linkageName: "_ZNKSt6vectorISt3setIjSt4lessIjESaIjEESaIS4_EE3endEv", scope: !1589, file: !1507, line: 590, type: !1651, scopeLine: 590, flags: DIFlagPublic | DIFlagPrototyped, spFlags: DISPFlagOptimized)
!1714 = !DISubprogram(name: "rbegin", linkageName: "_ZNSt6vectorISt3setIjSt4lessIjESaIjEESaIS4_EE6rbeginEv", scope: !1589, file: !1507, line: 599, type: !1715, scopeLine: 599, flags: DIFlagPublic | DIFlagPrototyped, spFlags: DISPFlagOptimized)
!1715 = !DISubroutineType(types: !1716)
!1716 = !{!1717, !1595}
!1717 = !DIDerivedType(tag: DW_TAG_typedef, name: "reverse_iterator", scope: !1589, file: !1507, line: 241, baseType: !1718)
!1718 = distinct !DICompositeType(tag: DW_TAG_class_type, name: "reverse_iterator<__gnu_cxx::__normal_iterator<std::set<unsigned int, std::less<unsigned int>, std::allocator<unsigned int> > *, std::vector<std::set<unsigned int, std::less<unsigned int>, std::allocator<unsigned int> >, std::allocator<std::set<unsigned int, std::less<unsigned int>, std::allocator<unsigned int> > > > > >", scope: !5, file: !618, line: 101, flags: DIFlagFwdDecl, identifier: "_ZTSSt16reverse_iteratorIN9__gnu_cxx17__normal_iteratorIPSt3setIjSt4lessIjESaIjEESt6vectorIS6_SaIS6_EEEEE")
!1719 = !DISubprogram(name: "rbegin", linkageName: "_ZNKSt6vectorISt3setIjSt4lessIjESaIjEESaIS4_EE6rbeginEv", scope: !1589, file: !1507, line: 608, type: !1720, scopeLine: 608, flags: DIFlagPublic | DIFlagPrototyped, spFlags: DISPFlagOptimized)
!1720 = !DISubroutineType(types: !1721)
!1721 = !{!1722, !1711}
!1722 = !DIDerivedType(tag: DW_TAG_typedef, name: "const_reverse_iterator", scope: !1589, file: !1507, line: 240, baseType: !1723)
!1723 = distinct !DICompositeType(tag: DW_TAG_class_type, name: "reverse_iterator<__gnu_cxx::__normal_iterator<const std::set<unsigned int, std::less<unsigned int>, std::allocator<unsigned int> > *, std::vector<std::set<unsigned int, std::less<unsigned int>, std::allocator<unsigned int> >, std::allocator<std::set<unsigned int, std::less<unsigned int>, std::allocator<unsigned int> > > > > >", scope: !5, file: !618, line: 101, flags: DIFlagFwdDecl, identifier: "_ZTSSt16reverse_iteratorIN9__gnu_cxx17__normal_iteratorIPKSt3setIjSt4lessIjESaIjEESt6vectorIS6_SaIS6_EEEEE")
!1724 = !DISubprogram(name: "rend", linkageName: "_ZNSt6vectorISt3setIjSt4lessIjESaIjEESaIS4_EE4rendEv", scope: !1589, file: !1507, line: 617, type: !1715, scopeLine: 617, flags: DIFlagPublic | DIFlagPrototyped, spFlags: DISPFlagOptimized)
!1725 = !DISubprogram(name: "rend", linkageName: "_ZNKSt6vectorISt3setIjSt4lessIjESaIjEESaIS4_EE4rendEv", scope: !1589, file: !1507, line: 626, type: !1720, scopeLine: 626, flags: DIFlagPublic | DIFlagPrototyped, spFlags: DISPFlagOptimized)
!1726 = !DISubprogram(name: "cbegin", linkageName: "_ZNKSt6vectorISt3setIjSt4lessIjESaIjEESaIS4_EE6cbeginEv", scope: !1589, file: !1507, line: 636, type: !1651, scopeLine: 636, flags: DIFlagPublic | DIFlagPrototyped, spFlags: DISPFlagOptimized)
!1727 = !DISubprogram(name: "cend", linkageName: "_ZNKSt6vectorISt3setIjSt4lessIjESaIjEESaIS4_EE4cendEv", scope: !1589, file: !1507, line: 645, type: !1651, scopeLine: 645, flags: DIFlagPublic | DIFlagPrototyped, spFlags: DISPFlagOptimized)
!1728 = !DISubprogram(name: "crbegin", linkageName: "_ZNKSt6vectorISt3setIjSt4lessIjESaIjEESaIS4_EE7crbeginEv", scope: !1589, file: !1507, line: 654, type: !1720, scopeLine: 654, flags: DIFlagPublic | DIFlagPrototyped, spFlags: DISPFlagOptimized)
!1729 = !DISubprogram(name: "crend", linkageName: "_ZNKSt6vectorISt3setIjSt4lessIjESaIjEESaIS4_EE5crendEv", scope: !1589, file: !1507, line: 663, type: !1720, scopeLine: 663, flags: DIFlagPublic | DIFlagPrototyped, spFlags: DISPFlagOptimized)
!1730 = !DISubprogram(name: "size", linkageName: "_ZNKSt6vectorISt3setIjSt4lessIjESaIjEESaIS4_EE4sizeEv", scope: !1589, file: !1507, line: 670, type: !1731, scopeLine: 670, flags: DIFlagPublic | DIFlagPrototyped, spFlags: DISPFlagOptimized)
!1731 = !DISubroutineType(types: !1732)
!1732 = !{!1506, !1711}
!1733 = !DISubprogram(name: "max_size", linkageName: "_ZNKSt6vectorISt3setIjSt4lessIjESaIjEESaIS4_EE8max_sizeEv", scope: !1589, file: !1507, line: 675, type: !1731, scopeLine: 675, flags: DIFlagPublic | DIFlagPrototyped, spFlags: DISPFlagOptimized)
!1734 = !DISubprogram(name: "resize", linkageName: "_ZNSt6vectorISt3setIjSt4lessIjESaIjEESaIS4_EE6resizeEm", scope: !1589, file: !1507, line: 689, type: !1735, scopeLine: 689, flags: DIFlagPublic | DIFlagPrototyped, spFlags: DISPFlagOptimized)
!1735 = !DISubroutineType(types: !1736)
!1736 = !{null, !1595, !1506}
!1737 = !DISubprogram(name: "resize", linkageName: "_ZNSt6vectorISt3setIjSt4lessIjESaIjEESaIS4_EE6resizeEmRKS4_", scope: !1589, file: !1507, line: 709, type: !1642, scopeLine: 709, flags: DIFlagPublic | DIFlagPrototyped, spFlags: DISPFlagOptimized)
!1738 = !DISubprogram(name: "shrink_to_fit", linkageName: "_ZNSt6vectorISt3setIjSt4lessIjESaIjEESaIS4_EE13shrink_to_fitEv", scope: !1589, file: !1507, line: 741, type: !1593, scopeLine: 741, flags: DIFlagPublic | DIFlagPrototyped, spFlags: DISPFlagOptimized)
!1739 = !DISubprogram(name: "capacity", linkageName: "_ZNKSt6vectorISt3setIjSt4lessIjESaIjEESaIS4_EE8capacityEv", scope: !1589, file: !1507, line: 750, type: !1731, scopeLine: 750, flags: DIFlagPublic | DIFlagPrototyped, spFlags: DISPFlagOptimized)
!1740 = !DISubprogram(name: "empty", linkageName: "_ZNKSt6vectorISt3setIjSt4lessIjESaIjEESaIS4_EE5emptyEv", scope: !1589, file: !1507, line: 759, type: !1741, scopeLine: 759, flags: DIFlagPublic | DIFlagPrototyped, spFlags: DISPFlagOptimized)
!1741 = !DISubroutineType(types: !1742)
!1742 = !{!98, !1711}
!1743 = !DISubprogram(name: "reserve", linkageName: "_ZNSt6vectorISt3setIjSt4lessIjESaIjEESaIS4_EE7reserveEm", scope: !1589, file: !1507, line: 780, type: !1735, scopeLine: 780, flags: DIFlagPublic | DIFlagPrototyped, spFlags: DISPFlagOptimized)
!1744 = !DISubprogram(name: "operator[]", linkageName: "_ZNSt6vectorISt3setIjSt4lessIjESaIjEESaIS4_EEixEm", scope: !1589, file: !1507, line: 795, type: !1745, scopeLine: 795, flags: DIFlagPublic | DIFlagPrototyped, spFlags: DISPFlagOptimized)
!1745 = !DISubroutineType(types: !1746)
!1746 = !{!1747, !1595, !1506}
!1747 = !DIDerivedType(tag: DW_TAG_typedef, name: "reference", scope: !1589, file: !1507, line: 235, baseType: !1748)
!1748 = !DIDerivedType(tag: DW_TAG_typedef, name: "reference", scope: !22, file: !20, line: 64, baseType: !1749)
!1749 = !DIDerivedType(tag: DW_TAG_reference_type, baseType: !1750, size: 64)
!1750 = !DIDerivedType(tag: DW_TAG_typedef, name: "value_type", scope: !22, file: !20, line: 58, baseType: !1751)
!1751 = !DIDerivedType(tag: DW_TAG_typedef, name: "value_type", scope: !26, file: !27, line: 389, baseType: !34)
!1752 = !DISubprogram(name: "operator[]", linkageName: "_ZNKSt6vectorISt3setIjSt4lessIjESaIjEESaIS4_EEixEm", scope: !1589, file: !1507, line: 813, type: !1753, scopeLine: 813, flags: DIFlagPublic | DIFlagPrototyped, spFlags: DISPFlagOptimized)
!1753 = !DISubroutineType(types: !1754)
!1754 = !{!1755, !1711, !1506}
!1755 = !DIDerivedType(tag: DW_TAG_typedef, name: "const_reference", scope: !1589, file: !1507, line: 236, baseType: !1756)
!1756 = !DIDerivedType(tag: DW_TAG_typedef, name: "const_reference", scope: !22, file: !20, line: 65, baseType: !1757)
!1757 = !DIDerivedType(tag: DW_TAG_reference_type, baseType: !1758, size: 64)
!1758 = !DIDerivedType(tag: DW_TAG_const_type, baseType: !1750)
!1759 = !DISubprogram(name: "_M_range_check", linkageName: "_ZNKSt6vectorISt3setIjSt4lessIjESaIjEESaIS4_EE14_M_range_checkEm", scope: !1589, file: !1507, line: 822, type: !1760, scopeLine: 822, flags: DIFlagProtected | DIFlagPrototyped, spFlags: DISPFlagOptimized)
!1760 = !DISubroutineType(types: !1761)
!1761 = !{null, !1711, !1506}
!1762 = !DISubprogram(name: "at", linkageName: "_ZNSt6vectorISt3setIjSt4lessIjESaIjEESaIS4_EE2atEm", scope: !1589, file: !1507, line: 844, type: !1745, scopeLine: 844, flags: DIFlagPublic | DIFlagPrototyped, spFlags: DISPFlagOptimized)
!1763 = !DISubprogram(name: "at", linkageName: "_ZNKSt6vectorISt3setIjSt4lessIjESaIjEESaIS4_EE2atEm", scope: !1589, file: !1507, line: 862, type: !1753, scopeLine: 862, flags: DIFlagPublic | DIFlagPrototyped, spFlags: DISPFlagOptimized)
!1764 = !DISubprogram(name: "front", linkageName: "_ZNSt6vectorISt3setIjSt4lessIjESaIjEESaIS4_EE5frontEv", scope: !1589, file: !1507, line: 873, type: !1765, scopeLine: 873, flags: DIFlagPublic | DIFlagPrototyped, spFlags: DISPFlagOptimized)
!1765 = !DISubroutineType(types: !1766)
!1766 = !{!1747, !1595}
!1767 = !DISubprogram(name: "front", linkageName: "_ZNKSt6vectorISt3setIjSt4lessIjESaIjEESaIS4_EE5frontEv", scope: !1589, file: !1507, line: 884, type: !1768, scopeLine: 884, flags: DIFlagPublic | DIFlagPrototyped, spFlags: DISPFlagOptimized)
!1768 = !DISubroutineType(types: !1769)
!1769 = !{!1755, !1711}
!1770 = !DISubprogram(name: "back", linkageName: "_ZNSt6vectorISt3setIjSt4lessIjESaIjEESaIS4_EE4backEv", scope: !1589, file: !1507, line: 895, type: !1765, scopeLine: 895, flags: DIFlagPublic | DIFlagPrototyped, spFlags: DISPFlagOptimized)
!1771 = !DISubprogram(name: "back", linkageName: "_ZNKSt6vectorISt3setIjSt4lessIjESaIjEESaIS4_EE4backEv", scope: !1589, file: !1507, line: 906, type: !1768, scopeLine: 906, flags: DIFlagPublic | DIFlagPrototyped, spFlags: DISPFlagOptimized)
!1772 = !DISubprogram(name: "data", linkageName: "_ZNSt6vectorISt3setIjSt4lessIjESaIjEESaIS4_EE4dataEv", scope: !1589, file: !1507, line: 920, type: !1773, scopeLine: 920, flags: DIFlagPublic | DIFlagPrototyped, spFlags: DISPFlagOptimized)
!1773 = !DISubroutineType(types: !1774)
!1774 = !{!33, !1595}
!1775 = !DISubprogram(name: "data", linkageName: "_ZNKSt6vectorISt3setIjSt4lessIjESaIjEESaIS4_EE4dataEv", scope: !1589, file: !1507, line: 924, type: !1776, scopeLine: 924, flags: DIFlagPublic | DIFlagPrototyped, spFlags: DISPFlagOptimized)
!1776 = !DISubroutineType(types: !1777)
!1777 = !{!961, !1711}
!1778 = !DISubprogram(name: "push_back", linkageName: "_ZNSt6vectorISt3setIjSt4lessIjESaIjEESaIS4_EE9push_backERKS4_", scope: !1589, file: !1507, line: 939, type: !1779, scopeLine: 939, flags: DIFlagPublic | DIFlagPrototyped, spFlags: DISPFlagOptimized)
!1779 = !DISubroutineType(types: !1780)
!1780 = !{null, !1595, !1608}
!1781 = !DISubprogram(name: "push_back", linkageName: "_ZNSt6vectorISt3setIjSt4lessIjESaIjEESaIS4_EE9push_backEOS4_", scope: !1589, file: !1507, line: 953, type: !1782, scopeLine: 953, flags: DIFlagPublic | DIFlagPrototyped, spFlags: DISPFlagOptimized)
!1782 = !DISubroutineType(types: !1783)
!1783 = !{null, !1595, !1784}
!1784 = !DIDerivedType(tag: DW_TAG_rvalue_reference_type, baseType: !1610, size: 64)
!1785 = !DISubprogram(name: "pop_back", linkageName: "_ZNSt6vectorISt3setIjSt4lessIjESaIjEESaIS4_EE8pop_backEv", scope: !1589, file: !1507, line: 975, type: !1593, scopeLine: 975, flags: DIFlagPublic | DIFlagPrototyped, spFlags: DISPFlagOptimized)
!1786 = !DISubprogram(name: "insert", linkageName: "_ZNSt6vectorISt3setIjSt4lessIjESaIjEESaIS4_EE6insertEN9__gnu_cxx17__normal_iteratorIPKS4_S6_EERS9_", scope: !1589, file: !1507, line: 1012, type: !1787, scopeLine: 1012, flags: DIFlagPublic | DIFlagPrototyped, spFlags: DISPFlagOptimized)
!1787 = !DISubroutineType(types: !1788)
!1788 = !{!1588, !1595, !1653, !1608}
!1789 = !DISubprogram(name: "insert", linkageName: "_ZNSt6vectorISt3setIjSt4lessIjESaIjEESaIS4_EE6insertEN9__gnu_cxx17__normal_iteratorIPKS4_S6_EEOS4_", scope: !1589, file: !1507, line: 1042, type: !1790, scopeLine: 1042, flags: DIFlagPublic | DIFlagPrototyped, spFlags: DISPFlagOptimized)
!1790 = !DISubroutineType(types: !1791)
!1791 = !{!1588, !1595, !1653, !1784}
!1792 = !DISubprogram(name: "insert", linkageName: "_ZNSt6vectorISt3setIjSt4lessIjESaIjEESaIS4_EE6insertEN9__gnu_cxx17__normal_iteratorIPKS4_S6_EESt16initializer_listIS4_E", scope: !1589, file: !1507, line: 1059, type: !1793, scopeLine: 1059, flags: DIFlagPublic | DIFlagPrototyped, spFlags: DISPFlagOptimized)
!1793 = !DISubroutineType(types: !1794)
!1794 = !{!1588, !1595, !1653, !1629}
!1795 = !DISubprogram(name: "insert", linkageName: "_ZNSt6vectorISt3setIjSt4lessIjESaIjEESaIS4_EE6insertEN9__gnu_cxx17__normal_iteratorIPKS4_S6_EEmRS9_", scope: !1589, file: !1507, line: 1084, type: !1796, scopeLine: 1084, flags: DIFlagPublic | DIFlagPrototyped, spFlags: DISPFlagOptimized)
!1796 = !DISubroutineType(types: !1797)
!1797 = !{!1588, !1595, !1653, !1506, !1608}
!1798 = !DISubprogram(name: "erase", linkageName: "_ZNSt6vectorISt3setIjSt4lessIjESaIjEESaIS4_EE5eraseEN9__gnu_cxx17__normal_iteratorIPKS4_S6_EE", scope: !1589, file: !1507, line: 1179, type: !1799, scopeLine: 1179, flags: DIFlagPublic | DIFlagPrototyped, spFlags: DISPFlagOptimized)
!1799 = !DISubroutineType(types: !1800)
!1800 = !{!1588, !1595, !1653}
!1801 = !DISubprogram(name: "erase", linkageName: "_ZNSt6vectorISt3setIjSt4lessIjESaIjEESaIS4_EE5eraseEN9__gnu_cxx17__normal_iteratorIPKS4_S6_EESB_", scope: !1589, file: !1507, line: 1206, type: !1802, scopeLine: 1206, flags: DIFlagPublic | DIFlagPrototyped, spFlags: DISPFlagOptimized)
!1802 = !DISubroutineType(types: !1803)
!1803 = !{!1588, !1595, !1653, !1653}
!1804 = !DISubprogram(name: "swap", linkageName: "_ZNSt6vectorISt3setIjSt4lessIjESaIjEESaIS4_EE4swapERS6_", scope: !1589, file: !1507, line: 1229, type: !1805, scopeLine: 1229, flags: DIFlagPublic | DIFlagPrototyped, spFlags: DISPFlagOptimized)
!1805 = !DISubroutineType(types: !1806)
!1806 = !{null, !1595, !1634}
!1807 = !DISubprogram(name: "clear", linkageName: "_ZNSt6vectorISt3setIjSt4lessIjESaIjEESaIS4_EE5clearEv", scope: !1589, file: !1507, line: 1247, type: !1593, scopeLine: 1247, flags: DIFlagPublic | DIFlagPrototyped, spFlags: DISPFlagOptimized)
!1808 = !DISubprogram(name: "_M_fill_initialize", linkageName: "_ZNSt6vectorISt3setIjSt4lessIjESaIjEESaIS4_EE18_M_fill_initializeEmRKS4_", scope: !1589, file: !1507, line: 1339, type: !1642, scopeLine: 1339, flags: DIFlagProtected | DIFlagPrototyped, spFlags: DISPFlagOptimized)
!1809 = !DISubprogram(name: "_M_default_initialize", linkageName: "_ZNSt6vectorISt3setIjSt4lessIjESaIjEESaIS4_EE21_M_default_initializeEm", scope: !1589, file: !1507, line: 1349, type: !1735, scopeLine: 1349, flags: DIFlagProtected | DIFlagPrototyped, spFlags: DISPFlagOptimized)
!1810 = !DISubprogram(name: "_M_fill_assign", linkageName: "_ZNSt6vectorISt3setIjSt4lessIjESaIjEESaIS4_EE14_M_fill_assignEmRKS4_", scope: !1589, file: !1507, line: 1391, type: !1642, scopeLine: 1391, flags: DIFlagProtected | DIFlagPrototyped, spFlags: DISPFlagOptimized)
!1811 = !DISubprogram(name: "_M_fill_insert", linkageName: "_ZNSt6vectorISt3setIjSt4lessIjESaIjEESaIS4_EE14_M_fill_insertEN9__gnu_cxx17__normal_iteratorIPS4_S6_EEmRKS4_", scope: !1589, file: !1507, line: 1430, type: !1812, scopeLine: 1430, flags: DIFlagProtected | DIFlagPrototyped, spFlags: DISPFlagOptimized)
!1812 = !DISubroutineType(types: !1813)
!1813 = !{null, !1595, !1588, !1506, !1608}
!1814 = !DISubprogram(name: "_M_default_append", linkageName: "_ZNSt6vectorISt3setIjSt4lessIjESaIjEESaIS4_EE17_M_default_appendEm", scope: !1589, file: !1507, line: 1435, type: !1735, scopeLine: 1435, flags: DIFlagProtected | DIFlagPrototyped, spFlags: DISPFlagOptimized)
!1815 = !DISubprogram(name: "_M_shrink_to_fit", linkageName: "_ZNSt6vectorISt3setIjSt4lessIjESaIjEESaIS4_EE16_M_shrink_to_fitEv", scope: !1589, file: !1507, line: 1438, type: !1816, scopeLine: 1438, flags: DIFlagProtected | DIFlagPrototyped, spFlags: DISPFlagOptimized)
!1816 = !DISubroutineType(types: !1817)
!1817 = !{!98, !1595}
!1818 = !DISubprogram(name: "_M_insert_rval", linkageName: "_ZNSt6vectorISt3setIjSt4lessIjESaIjEESaIS4_EE14_M_insert_rvalEN9__gnu_cxx17__normal_iteratorIPKS4_S6_EEOS4_", scope: !1589, file: !1507, line: 1487, type: !1790, scopeLine: 1487, flags: DIFlagProtected | DIFlagPrototyped, spFlags: DISPFlagOptimized)
!1819 = !DISubprogram(name: "_M_emplace_aux", linkageName: "_ZNSt6vectorISt3setIjSt4lessIjESaIjEESaIS4_EE14_M_emplace_auxEN9__gnu_cxx17__normal_iteratorIPKS4_S6_EEOS4_", scope: !1589, file: !1507, line: 1496, type: !1790, scopeLine: 1496, flags: DIFlagProtected | DIFlagPrototyped, spFlags: DISPFlagOptimized)
!1820 = !DISubprogram(name: "_M_check_len", linkageName: "_ZNKSt6vectorISt3setIjSt4lessIjESaIjEESaIS4_EE12_M_check_lenEmPKc", scope: !1589, file: !1507, line: 1502, type: !1821, scopeLine: 1502, flags: DIFlagProtected | DIFlagPrototyped, spFlags: DISPFlagOptimized)
!1821 = !DISubroutineType(types: !1822)
!1822 = !{!1823, !1711, !1506, !1824}
!1823 = !DIDerivedType(tag: DW_TAG_typedef, name: "size_type", scope: !1589, file: !1507, line: 242, baseType: !63)
!1824 = !DIDerivedType(tag: DW_TAG_pointer_type, baseType: !1825, size: 64)
!1825 = !DIDerivedType(tag: DW_TAG_const_type, baseType: !1826)
!1826 = !DIBasicType(name: "char", size: 8, encoding: DW_ATE_signed_char)
!1827 = !DISubprogram(name: "_M_erase_at_end", linkageName: "_ZNSt6vectorISt3setIjSt4lessIjESaIjEESaIS4_EE15_M_erase_at_endEPS4_", scope: !1589, file: !1507, line: 1516, type: !1828, scopeLine: 1516, flags: DIFlagProtected | DIFlagPrototyped, spFlags: DISPFlagOptimized)
!1828 = !DISubroutineType(types: !1829)
!1829 = !{null, !1595, !1830}
!1830 = !DIDerivedType(tag: DW_TAG_typedef, name: "pointer", scope: !1589, file: !1507, line: 233, baseType: !1518)
!1831 = !DISubprogram(name: "_M_erase", linkageName: "_ZNSt6vectorISt3setIjSt4lessIjESaIjEESaIS4_EE8_M_eraseEN9__gnu_cxx17__normal_iteratorIPS4_S6_EE", scope: !1589, file: !1507, line: 1523, type: !1832, scopeLine: 1523, flags: DIFlagProtected | DIFlagPrototyped, spFlags: DISPFlagOptimized)
!1832 = !DISubroutineType(types: !1833)
!1833 = !{!1588, !1595, !1588}
!1834 = !DISubprogram(name: "_M_erase", linkageName: "_ZNSt6vectorISt3setIjSt4lessIjESaIjEESaIS4_EE8_M_eraseEN9__gnu_cxx17__normal_iteratorIPS4_S6_EESA_", scope: !1589, file: !1507, line: 1526, type: !1835, scopeLine: 1526, flags: DIFlagProtected | DIFlagPrototyped, spFlags: DISPFlagOptimized)
!1835 = !DISubroutineType(types: !1836)
!1836 = !{!1588, !1595, !1588, !1588}
!1837 = !DISubprogram(name: "_M_move_assign", linkageName: "_ZNSt6vectorISt3setIjSt4lessIjESaIjEESaIS4_EE14_M_move_assignEOS6_St17integral_constantIbLb1EE", scope: !1589, file: !1507, line: 1534, type: !1838, scopeLine: 1534, flags: DIFlagPrototyped, spFlags: DISPFlagOptimized)
!1838 = !DISubroutineType(types: !1839)
!1839 = !{null, !1595, !1619, !689}
!1840 = !DISubprogram(name: "_M_move_assign", linkageName: "_ZNSt6vectorISt3setIjSt4lessIjESaIjEESaIS4_EE14_M_move_assignEOS6_St17integral_constantIbLb0EE", scope: !1589, file: !1507, line: 1545, type: !1841, scopeLine: 1545, flags: DIFlagPrototyped, spFlags: DISPFlagOptimized)
!1841 = !DISubroutineType(types: !1842)
!1842 = !{null, !1595, !1619, !707}
!1843 = distinct !DICompositeType(tag: DW_TAG_class_type, name: "__normal_iterator<std::set<unsigned int, std::less<unsigned int>, std::allocator<unsigned int> > *, std::vector<std::set<unsigned int, std::less<unsigned int>, std::allocator<unsigned int> >, std::allocator<std::set<unsigned int, std::less<unsigned int>, std::allocator<unsigned int> > > > >", scope: !23, file: !618, line: 763, size: 64, flags: DIFlagTypePassByValue | DIFlagNonTrivial, elements: !1844, templateParams: !1895, identifier: "_ZTSN9__gnu_cxx17__normal_iteratorIPSt3setIjSt4lessIjESaIjEESt6vectorIS5_SaIS5_EEEE")
!1844 = !{!1845, !1846, !1850, !1855, !1865, !1870, !1874, !1877, !1878, !1879, !1884, !1887, !1890, !1891, !1892}
!1845 = !DIDerivedType(tag: DW_TAG_member, name: "_M_current", scope: !1843, file: !618, line: 766, baseType: !33, size: 64, flags: DIFlagProtected)
!1846 = !DISubprogram(name: "__normal_iterator", scope: !1843, file: !618, line: 778, type: !1847, scopeLine: 778, flags: DIFlagPublic | DIFlagPrototyped, spFlags: DISPFlagOptimized)
!1847 = !DISubroutineType(types: !1848)
!1848 = !{null, !1849}
!1849 = !DIDerivedType(tag: DW_TAG_pointer_type, baseType: !1843, size: 64, flags: DIFlagArtificial | DIFlagObjectPointer)
!1850 = !DISubprogram(name: "__normal_iterator", scope: !1843, file: !618, line: 782, type: !1851, scopeLine: 782, flags: DIFlagPublic | DIFlagExplicit | DIFlagPrototyped, spFlags: DISPFlagOptimized)
!1851 = !DISubroutineType(types: !1852)
!1852 = !{null, !1849, !1853}
!1853 = !DIDerivedType(tag: DW_TAG_reference_type, baseType: !1854, size: 64)
!1854 = !DIDerivedType(tag: DW_TAG_const_type, baseType: !33)
!1855 = !DISubprogram(name: "operator*", linkageName: "_ZNK9__gnu_cxx17__normal_iteratorIPSt3setIjSt4lessIjESaIjEESt6vectorIS5_SaIS5_EEEdeEv", scope: !1843, file: !618, line: 795, type: !1856, scopeLine: 795, flags: DIFlagPublic | DIFlagPrototyped, spFlags: DISPFlagOptimized)
!1856 = !DISubroutineType(types: !1857)
!1857 = !{!1858, !1863}
!1858 = !DIDerivedType(tag: DW_TAG_typedef, name: "reference", scope: !1843, file: !618, line: 775, baseType: !1859)
!1859 = !DIDerivedType(tag: DW_TAG_typedef, name: "reference", scope: !1860, file: !1671, line: 184, baseType: !781)
!1860 = distinct !DICompositeType(tag: DW_TAG_structure_type, name: "iterator_traits<std::set<unsigned int, std::less<unsigned int>, std::allocator<unsigned int> > *>", scope: !5, file: !1671, line: 178, size: 8, flags: DIFlagTypePassByValue, elements: !103, templateParams: !1861, identifier: "_ZTSSt15iterator_traitsIPSt3setIjSt4lessIjESaIjEEE")
!1861 = !{!1862}
!1862 = !DITemplateTypeParameter(name: "_Iterator", type: !33)
!1863 = !DIDerivedType(tag: DW_TAG_pointer_type, baseType: !1864, size: 64, flags: DIFlagArtificial | DIFlagObjectPointer)
!1864 = !DIDerivedType(tag: DW_TAG_const_type, baseType: !1843)
!1865 = !DISubprogram(name: "operator->", linkageName: "_ZNK9__gnu_cxx17__normal_iteratorIPSt3setIjSt4lessIjESaIjEESt6vectorIS5_SaIS5_EEEptEv", scope: !1843, file: !618, line: 799, type: !1866, scopeLine: 799, flags: DIFlagPublic | DIFlagPrototyped, spFlags: DISPFlagOptimized)
!1866 = !DISubroutineType(types: !1867)
!1867 = !{!1868, !1863}
!1868 = !DIDerivedType(tag: DW_TAG_typedef, name: "pointer", scope: !1843, file: !618, line: 776, baseType: !1869)
!1869 = !DIDerivedType(tag: DW_TAG_typedef, name: "pointer", scope: !1860, file: !1671, line: 183, baseType: !33)
!1870 = !DISubprogram(name: "operator++", linkageName: "_ZN9__gnu_cxx17__normal_iteratorIPSt3setIjSt4lessIjESaIjEESt6vectorIS5_SaIS5_EEEppEv", scope: !1843, file: !618, line: 803, type: !1871, scopeLine: 803, flags: DIFlagPublic | DIFlagPrototyped, spFlags: DISPFlagOptimized)
!1871 = !DISubroutineType(types: !1872)
!1872 = !{!1873, !1849}
!1873 = !DIDerivedType(tag: DW_TAG_reference_type, baseType: !1843, size: 64)
!1874 = !DISubprogram(name: "operator++", linkageName: "_ZN9__gnu_cxx17__normal_iteratorIPSt3setIjSt4lessIjESaIjEESt6vectorIS5_SaIS5_EEEppEi", scope: !1843, file: !618, line: 810, type: !1875, scopeLine: 810, flags: DIFlagPublic | DIFlagPrototyped, spFlags: DISPFlagOptimized)
!1875 = !DISubroutineType(types: !1876)
!1876 = !{!1843, !1849, !508}
!1877 = !DISubprogram(name: "operator--", linkageName: "_ZN9__gnu_cxx17__normal_iteratorIPSt3setIjSt4lessIjESaIjEESt6vectorIS5_SaIS5_EEEmmEv", scope: !1843, file: !618, line: 815, type: !1871, scopeLine: 815, flags: DIFlagPublic | DIFlagPrototyped, spFlags: DISPFlagOptimized)
!1878 = !DISubprogram(name: "operator--", linkageName: "_ZN9__gnu_cxx17__normal_iteratorIPSt3setIjSt4lessIjESaIjEESt6vectorIS5_SaIS5_EEEmmEi", scope: !1843, file: !618, line: 822, type: !1875, scopeLine: 822, flags: DIFlagPublic | DIFlagPrototyped, spFlags: DISPFlagOptimized)
!1879 = !DISubprogram(name: "operator[]", linkageName: "_ZNK9__gnu_cxx17__normal_iteratorIPSt3setIjSt4lessIjESaIjEESt6vectorIS5_SaIS5_EEEixEl", scope: !1843, file: !618, line: 827, type: !1880, scopeLine: 827, flags: DIFlagPublic | DIFlagPrototyped, spFlags: DISPFlagOptimized)
!1880 = !DISubroutineType(types: !1881)
!1881 = !{!1858, !1863, !1882}
!1882 = !DIDerivedType(tag: DW_TAG_typedef, name: "difference_type", scope: !1843, file: !618, line: 774, baseType: !1883)
!1883 = !DIDerivedType(tag: DW_TAG_typedef, name: "difference_type", scope: !1860, file: !1671, line: 182, baseType: !1696)
!1884 = !DISubprogram(name: "operator+=", linkageName: "_ZN9__gnu_cxx17__normal_iteratorIPSt3setIjSt4lessIjESaIjEESt6vectorIS5_SaIS5_EEEpLEl", scope: !1843, file: !618, line: 831, type: !1885, scopeLine: 831, flags: DIFlagPublic | DIFlagPrototyped, spFlags: DISPFlagOptimized)
!1885 = !DISubroutineType(types: !1886)
!1886 = !{!1873, !1849, !1882}
!1887 = !DISubprogram(name: "operator+", linkageName: "_ZNK9__gnu_cxx17__normal_iteratorIPSt3setIjSt4lessIjESaIjEESt6vectorIS5_SaIS5_EEEplEl", scope: !1843, file: !618, line: 835, type: !1888, scopeLine: 835, flags: DIFlagPublic | DIFlagPrototyped, spFlags: DISPFlagOptimized)
!1888 = !DISubroutineType(types: !1889)
!1889 = !{!1843, !1863, !1882}
!1890 = !DISubprogram(name: "operator-=", linkageName: "_ZN9__gnu_cxx17__normal_iteratorIPSt3setIjSt4lessIjESaIjEESt6vectorIS5_SaIS5_EEEmIEl", scope: !1843, file: !618, line: 839, type: !1885, scopeLine: 839, flags: DIFlagPublic | DIFlagPrototyped, spFlags: DISPFlagOptimized)
!1891 = !DISubprogram(name: "operator-", linkageName: "_ZNK9__gnu_cxx17__normal_iteratorIPSt3setIjSt4lessIjESaIjEESt6vectorIS5_SaIS5_EEEmiEl", scope: !1843, file: !618, line: 843, type: !1888, scopeLine: 843, flags: DIFlagPublic | DIFlagPrototyped, spFlags: DISPFlagOptimized)
!1892 = !DISubprogram(name: "base", linkageName: "_ZNK9__gnu_cxx17__normal_iteratorIPSt3setIjSt4lessIjESaIjEESt6vectorIS5_SaIS5_EEE4baseEv", scope: !1843, file: !618, line: 847, type: !1893, scopeLine: 847, flags: DIFlagPublic | DIFlagPrototyped, spFlags: DISPFlagOptimized)
!1893 = !DISubroutineType(types: !1894)
!1894 = !{!1853, !1863}
!1895 = !{!1862, !1710}
!1896 = distinct !DICompositeType(tag: DW_TAG_class_type, name: "move_iterator<std::set<unsigned int, std::less<unsigned int>, std::allocator<unsigned int> > *>", scope: !5, file: !618, line: 1013, size: 64, flags: DIFlagTypePassByValue | DIFlagNonTrivial, elements: !1897, templateParams: !1861, identifier: "_ZTSSt13move_iteratorIPSt3setIjSt4lessIjESaIjEEE")
!1897 = !{!1898, !1899, !1903, !1907, !1912, !1921, !1925, !1929, !1932, !1933, !1934, !1938, !1941, !1942, !1943}
!1898 = !DIDerivedType(tag: DW_TAG_member, name: "_M_current", scope: !1896, file: !618, line: 1016, baseType: !33, size: 64, flags: DIFlagProtected)
!1899 = !DISubprogram(name: "move_iterator", scope: !1896, file: !618, line: 1035, type: !1900, scopeLine: 1035, flags: DIFlagPublic | DIFlagPrototyped, spFlags: DISPFlagOptimized)
!1900 = !DISubroutineType(types: !1901)
!1901 = !{null, !1902}
!1902 = !DIDerivedType(tag: DW_TAG_pointer_type, baseType: !1896, size: 64, flags: DIFlagArtificial | DIFlagObjectPointer)
!1903 = !DISubprogram(name: "move_iterator", scope: !1896, file: !618, line: 1039, type: !1904, scopeLine: 1039, flags: DIFlagPublic | DIFlagExplicit | DIFlagPrototyped, spFlags: DISPFlagOptimized)
!1904 = !DISubroutineType(types: !1905)
!1905 = !{null, !1902, !1906}
!1906 = !DIDerivedType(tag: DW_TAG_typedef, name: "iterator_type", scope: !1896, file: !618, line: 1022, baseType: !33)
!1907 = !DISubprogram(name: "base", linkageName: "_ZNKSt13move_iteratorIPSt3setIjSt4lessIjESaIjEEE4baseEv", scope: !1896, file: !618, line: 1048, type: !1908, scopeLine: 1048, flags: DIFlagPublic | DIFlagPrototyped, spFlags: DISPFlagOptimized)
!1908 = !DISubroutineType(types: !1909)
!1909 = !{!1906, !1910}
!1910 = !DIDerivedType(tag: DW_TAG_pointer_type, baseType: !1911, size: 64, flags: DIFlagArtificial | DIFlagObjectPointer)
!1911 = !DIDerivedType(tag: DW_TAG_const_type, baseType: !1896)
!1912 = !DISubprogram(name: "operator*", linkageName: "_ZNKSt13move_iteratorIPSt3setIjSt4lessIjESaIjEEEdeEv", scope: !1896, file: !618, line: 1052, type: !1913, scopeLine: 1052, flags: DIFlagPublic | DIFlagPrototyped, spFlags: DISPFlagOptimized)
!1913 = !DISubroutineType(types: !1914)
!1914 = !{!1915, !1910}
!1915 = !DIDerivedType(tag: DW_TAG_typedef, name: "reference", scope: !1896, file: !618, line: 1032, baseType: !1916)
!1916 = !DIDerivedType(tag: DW_TAG_typedef, name: "type", scope: !1917, file: !429, line: 2166, baseType: !759)
!1917 = distinct !DICompositeType(tag: DW_TAG_structure_type, name: "conditional<true, std::set<unsigned int, std::less<unsigned int>, std::allocator<unsigned int> > &&, std::set<unsigned int, std::less<unsigned int>, std::allocator<unsigned int> > &>", scope: !5, file: !429, line: 2165, size: 8, flags: DIFlagTypePassByValue, elements: !103, templateParams: !1918, identifier: "_ZTSSt11conditionalILb1EOSt3setIjSt4lessIjESaIjEERS4_E")
!1918 = !{!432, !1919, !1920}
!1919 = !DITemplateTypeParameter(name: "_Iftrue", type: !759)
!1920 = !DITemplateTypeParameter(name: "_Iffalse", type: !781)
!1921 = !DISubprogram(name: "operator->", linkageName: "_ZNKSt13move_iteratorIPSt3setIjSt4lessIjESaIjEEEptEv", scope: !1896, file: !618, line: 1056, type: !1922, scopeLine: 1056, flags: DIFlagPublic | DIFlagPrototyped, spFlags: DISPFlagOptimized)
!1922 = !DISubroutineType(types: !1923)
!1923 = !{!1924, !1910}
