; ModuleID = './extracted.ll'
source_filename = "/faster/fs/llvm34/projects/clang/lib/AST/CommentBriefParser.cpp"
target datalayout = "e-m:e-p270:32:32-p271:32:32-p272:64:64-i64:64-f80:128-n8:16:32:64-S128"
target triple = "x86_64-unknown-linux-gnu"

%"class.clang::comments::BriefParser" = type { %"class.clang::comments::Lexer"*, %"class.clang::comments::CommandTraits"*, %"class.clang::comments::Token" }
%"class.clang::comments::Lexer" = type { %"class.llvm::BumpPtrAllocator"*, %"class.clang::DiagnosticsEngine"*, %"class.clang::comments::CommandTraits"*, i8*, i8*, %"class.clang::SourceLocation", i8*, i8*, i32, i32, %"class.llvm::SmallString" }
%"class.llvm::BumpPtrAllocator" = type { i64, i64, %"class.llvm::MallocSlabAllocator", %"class.llvm::SlabAllocator"*, %"class.llvm::MemSlab"*, i8*, i8*, i64 }
%"class.llvm::MallocSlabAllocator" = type <{ %"class.llvm::SlabAllocator", %"class.llvm::MallocAllocator", [7 x i8] }>
%"class.llvm::SlabAllocator" = type { i32 (...)** }
%"class.llvm::MallocAllocator" = type { i8 }
%"class.llvm::MemSlab" = type { i64, %"class.llvm::MemSlab"* }
%"class.clang::DiagnosticsEngine" = type { %"class.llvm::RefCountedBase", i8, i8, i8, i8, i8, i8, i8, i8, i8, i8, i32, i32, i32, i32, i32, %"class.llvm::IntrusiveRefCntPtr", %"class.llvm::IntrusiveRefCntPtr.1", %"class.clang::DiagnosticConsumer"*, i8, %"class.clang::SourceManager"*, %"class.std::__cxx11::list", %"class.std::vector.72", %"class.std::vector.82", i8, i8, i8, i8, i32, i32, i32, i32, i32, i32, i8*, void (i32, i64, i8*, i32, i8*, i32, %"struct.std::pair.87"*, i32, %"class.llvm::SmallVectorImpl.88"*, i8*, %"class.llvm::ArrayRef"*)*, i32, %"class.std::__cxx11::basic_string", %"class.std::__cxx11::basic_string", %"class.clang::SourceLocation", i32, i8, i8, i8, [10 x i8], [10 x %"class.std::__cxx11::basic_string"], [10 x i64], [10 x %"class.clang::CharSourceRange"], [10 x %"class.clang::FixItHint"] }
%"class.llvm::RefCountedBase" = type { i32 }
%"class.llvm::IntrusiveRefCntPtr" = type { %"class.clang::DiagnosticIDs"* }
%"class.clang::DiagnosticIDs" = type { %"class.llvm::RefCountedBase.0", %"class.clang::diag::CustomDiagInfo"* }
%"class.llvm::RefCountedBase.0" = type { i32 }
%"class.clang::diag::CustomDiagInfo" = type opaque
%"class.llvm::IntrusiveRefCntPtr.1" = type { %"class.clang::DiagnosticOptions"* }
%"class.clang::DiagnosticOptions" = type { %"class.llvm::RefCountedBase.2", i24, i200, %"class.std::__cxx11::basic_string", %"class.std::__cxx11::basic_string", %"class.std::vector" }
%"class.llvm::RefCountedBase.2" = type { i32 }
%"class.std::vector" = type { %"struct.std::_Vector_base" }
%"struct.std::_Vector_base" = type { %"struct.std::_Vector_base<std::__cxx11::basic_string<char>, std::allocator<std::__cxx11::basic_string<char> > >::_Vector_impl" }
%"struct.std::_Vector_base<std::__cxx11::basic_string<char>, std::allocator<std::__cxx11::basic_string<char> > >::_Vector_impl" = type { %"class.std::__cxx11::basic_string"*, %"class.std::__cxx11::basic_string"*, %"class.std::__cxx11::basic_string"* }
%"class.clang::DiagnosticConsumer" = type { i32 (...)**, i32, i32 }
%"class.clang::SourceManager" = type { %"class.llvm::RefCountedBase.6", %"class.clang::DiagnosticsEngine"*, %"class.clang::FileManager"*, %"class.llvm::BumpPtrAllocator", %"class.llvm::DenseMap.15", i8, i8, %"class.llvm::OwningPtr.20", %"class.std::vector.31", %"class.llvm::SmallVector.36", %"class.llvm::SmallVector.36", i32, i32, %"class.std::vector.43", %"class.clang::ExternalSLocEntrySource"*, %"class.clang::FileID", %"class.clang::LineTableInfo"*, %"class.clang::FileID", %"class.clang::SrcMgr::ContentCache"*, i32, i32, %"class.clang::FileID", %"class.clang::FileID", i32, i32, %"class.llvm::DenseMap.47", %"class.llvm::DenseMap.52", %"class.clang::InBeforeInTUCacheEntry", %"class.llvm::MemoryBuffer"*, %"class.clang::SrcMgr::ContentCache"*, %"class.llvm::DenseMap.57", %"class.llvm::SmallVector.62" }
%"class.llvm::RefCountedBase.6" = type { i32 }
%"class.clang::FileManager" = type { %"class.llvm::RefCountedBase.7", %"class.clang::FileSystemOptions", %"class.clang::FileManager::UniqueDirContainer"*, %"class.clang::FileManager::UniqueFileContainer"*, %"class.llvm::SmallVector", %"class.llvm::SmallVector.8", %"class.llvm::StringMap", %"class.llvm::StringMap.14", %"class.llvm::DenseMap", %"class.llvm::BumpPtrAllocator", i32, i32, i32, i32, i32, %"class.llvm::OwningPtr" }
%"class.llvm::RefCountedBase.7" = type { i32 }
%"class.clang::FileSystemOptions" = type { %"class.std::__cxx11::basic_string" }
%"class.clang::FileManager::UniqueDirContainer" = type opaque
%"class.clang::FileManager::UniqueFileContainer" = type opaque
%"class.llvm::SmallVector" = type { %"class.llvm::SmallVectorImpl", %"struct.llvm::SmallVectorStorage" }
%"class.llvm::SmallVectorImpl" = type { %"class.llvm::SmallVectorTemplateBase" }
%"class.llvm::SmallVectorTemplateBase" = type { %"class.llvm::SmallVectorTemplateCommon" }
%"class.llvm::SmallVectorTemplateCommon" = type { %"class.llvm::SmallVectorBase", %"struct.llvm::AlignedCharArrayUnion" }
%"class.llvm::SmallVectorBase" = type { i8*, i8*, i8* }
%"struct.llvm::AlignedCharArrayUnion" = type { %"struct.llvm::AlignedCharArray" }
%"struct.llvm::AlignedCharArray" = type { [8 x i8] }
%"struct.llvm::SmallVectorStorage" = type { [3 x %"struct.llvm::AlignedCharArrayUnion"] }
%"class.llvm::SmallVector.8" = type { %"class.llvm::SmallVectorImpl.9", %"struct.llvm::SmallVectorStorage.13" }
%"class.llvm::SmallVectorImpl.9" = type { %"class.llvm::SmallVectorTemplateBase.10" }
%"class.llvm::SmallVectorTemplateBase.10" = type { %"class.llvm::SmallVectorTemplateCommon.11" }
%"class.llvm::SmallVectorTemplateCommon.11" = type { %"class.llvm::SmallVectorBase", %"struct.llvm::AlignedCharArrayUnion.12" }
%"struct.llvm::AlignedCharArrayUnion.12" = type { %"struct.llvm::AlignedCharArray" }
%"struct.llvm::SmallVectorStorage.13" = type { [3 x %"struct.llvm::AlignedCharArrayUnion.12"] }
%"class.llvm::StringMap" = type { %"class.llvm::StringMapImpl", %"class.llvm::BumpPtrAllocator" }
%"class.llvm::StringMapImpl" = type { %"class.llvm::StringMapEntryBase"**, i32, i32, i32, i32 }
%"class.llvm::StringMapEntryBase" = type { i32 }
%"class.llvm::StringMap.14" = type { %"class.llvm::StringMapImpl", %"class.llvm::BumpPtrAllocator" }
%"class.llvm::DenseMap" = type <{ %"struct.std::pair"*, i32, i32, i32, [4 x i8] }>
%"struct.std::pair" = type opaque
%"class.llvm::OwningPtr" = type { %"class.clang::FileSystemStatCache"* }
%"class.clang::FileSystemStatCache" = type opaque
%"class.llvm::DenseMap.15" = type <{ %"struct.std::pair.18"*, i32, i32, i32, [4 x i8] }>
%"struct.std::pair.18" = type { %"class.clang::FileEntry"*, %"class.clang::SrcMgr::ContentCache"* }
%"class.clang::FileEntry" = type { i8*, i64, i64, %"class.clang::DirectoryEntry"*, i32, %"class.llvm::sys::fs::UniqueID", i8, i8, i32 }
%"class.clang::DirectoryEntry" = type { i8* }
%"class.llvm::sys::fs::UniqueID" = type { i64, i64 }
%"class.llvm::OwningPtr.20" = type { %"struct.clang::SourceManager::OverriddenFilesInfoTy"* }
%"struct.clang::SourceManager::OverriddenFilesInfoTy" = type { %"class.llvm::DenseMap.21", %"class.llvm::DenseSet" }
%"class.llvm::DenseMap.21" = type <{ %"struct.std::pair.24"*, i32, i32, i32, [4 x i8] }>
%"struct.std::pair.24" = type { %"class.clang::FileEntry"*, %"class.clang::FileEntry"* }
%"class.llvm::DenseSet" = type { %"class.llvm::DenseMap.26" }
%"class.llvm::DenseMap.26" = type <{ %"struct.std::pair.29"*, i32, i32, i32, [4 x i8] }>
%"struct.std::pair.29" = type <{ %"class.clang::FileEntry"*, i8, [7 x i8] }>
%"class.std::vector.31" = type { %"struct.std::_Vector_base.32" }
%"struct.std::_Vector_base.32" = type { %"struct.std::_Vector_base<clang::SrcMgr::ContentCache *, std::allocator<clang::SrcMgr::ContentCache *> >::_Vector_impl" }
%"struct.std::_Vector_base<clang::SrcMgr::ContentCache *, std::allocator<clang::SrcMgr::ContentCache *> >::_Vector_impl" = type { %"class.clang::SrcMgr::ContentCache"**, %"class.clang::SrcMgr::ContentCache"**, %"class.clang::SrcMgr::ContentCache"** }
%"class.llvm::SmallVector.36" = type <{ %"class.llvm::SmallVectorImpl.37", %"struct.llvm::SmallVectorStorage.42", [7 x i8] }>
%"class.llvm::SmallVectorImpl.37" = type { %"class.llvm::SmallVectorTemplateBase.38" }
%"class.llvm::SmallVectorTemplateBase.38" = type { %"class.llvm::SmallVectorTemplateCommon.39" }
%"class.llvm::SmallVectorTemplateCommon.39" = type { %"class.llvm::SmallVectorBase", %"struct.llvm::AlignedCharArrayUnion.40" }
%"struct.llvm::AlignedCharArrayUnion.40" = type { %"struct.llvm::AlignedCharArray.41" }
%"struct.llvm::AlignedCharArray.41" = type { [24 x i8] }
%"struct.llvm::SmallVectorStorage.42" = type { i8 }
%"class.std::vector.43" = type { %"struct.std::_Bvector_base" }
%"struct.std::_Bvector_base" = type { %"struct.std::_Bvector_base<std::allocator<bool> >::_Bvector_impl" }
%"struct.std::_Bvector_base<std::allocator<bool> >::_Bvector_impl" = type { %"struct.std::_Bit_iterator", %"struct.std::_Bit_iterator", i64* }
%"struct.std::_Bit_iterator" = type { %"struct.std::_Bit_iterator_base.base", [4 x i8] }
%"struct.std::_Bit_iterator_base.base" = type <{ i64*, i32 }>
%"class.clang::ExternalSLocEntrySource" = type { i32 (...)** }
%"class.clang::LineTableInfo" = type opaque
%"class.clang::FileID" = type { i32 }
%"class.llvm::DenseMap.47" = type <{ %"struct.std::pair.50"*, i32, i32, i32, [4 x i8] }>
%"struct.std::pair.50" = type opaque
%"class.llvm::DenseMap.52" = type <{ %"struct.std::pair.55"*, i32, i32, i32, [4 x i8] }>
%"struct.std::pair.55" = type opaque
%"class.clang::InBeforeInTUCacheEntry" = type { %"class.clang::FileID", %"class.clang::FileID", i8, %"class.clang::FileID", i32, i32 }
%"class.llvm::MemoryBuffer" = type { i32 (...)**, i8*, i8* }
%"class.clang::SrcMgr::ContentCache" = type <{ %"class.llvm::PointerIntPair", %"class.clang::FileEntry"*, %"class.clang::FileEntry"*, i32*, [5 x i8], [3 x i8] }>
%"class.llvm::PointerIntPair" = type { i64 }
%"class.llvm::DenseMap.57" = type <{ %"struct.std::pair.60"*, i32, i32, i32, [4 x i8] }>
%"struct.std::pair.60" = type opaque
%"class.llvm::SmallVector.62" = type { %"class.llvm::SmallVectorImpl.63", %"struct.llvm::SmallVectorStorage.68" }
%"class.llvm::SmallVectorImpl.63" = type { %"class.llvm::SmallVectorTemplateBase.64" }
%"class.llvm::SmallVectorTemplateBase.64" = type { %"class.llvm::SmallVectorTemplateCommon.65" }
%"class.llvm::SmallVectorTemplateCommon.65" = type { %"class.llvm::SmallVectorBase", %"struct.llvm::AlignedCharArrayUnion.66" }
%"struct.llvm::AlignedCharArrayUnion.66" = type { %"struct.llvm::AlignedCharArray.67" }
%"struct.llvm::AlignedCharArray.67" = type { [48 x i8] }
%"struct.llvm::SmallVectorStorage.68" = type { [1 x %"struct.llvm::AlignedCharArrayUnion.66"] }
%"class.std::__cxx11::list" = type { %"class.std::__cxx11::_List_base" }
%"class.std::__cxx11::_List_base" = type { %"struct.std::__cxx11::_List_base<clang::DiagnosticsEngine::DiagState, std::allocator<clang::DiagnosticsEngine::DiagState> >::_List_impl" }
%"struct.std::__cxx11::_List_base<clang::DiagnosticsEngine::DiagState, std::allocator<clang::DiagnosticsEngine::DiagState> >::_List_impl" = type { %"struct.std::_List_node" }
%"struct.std::_List_node" = type { %"struct.std::__detail::_List_node_base", %"struct.__gnu_cxx::__aligned_membuf" }
%"struct.std::__detail::_List_node_base" = type { %"struct.std::__detail::_List_node_base"*, %"struct.std::__detail::_List_node_base"* }
%"struct.__gnu_cxx::__aligned_membuf" = type { [8 x i8] }
%"class.std::vector.72" = type { %"struct.std::_Vector_base.73" }
%"struct.std::_Vector_base.73" = type { %"struct.std::_Vector_base<clang::DiagnosticsEngine::DiagStatePoint, std::allocator<clang::DiagnosticsEngine::DiagStatePoint> >::_Vector_impl" }
%"struct.std::_Vector_base<clang::DiagnosticsEngine::DiagStatePoint, std::allocator<clang::DiagnosticsEngine::DiagStatePoint> >::_Vector_impl" = type { %"struct.clang::DiagnosticsEngine::DiagStatePoint"*, %"struct.clang::DiagnosticsEngine::DiagStatePoint"*, %"struct.clang::DiagnosticsEngine::DiagStatePoint"* }
%"struct.clang::DiagnosticsEngine::DiagStatePoint" = type { %"class.clang::DiagnosticsEngine::DiagState"*, %"class.clang::FullSourceLoc" }
%"class.clang::DiagnosticsEngine::DiagState" = type { %"class.llvm::DenseMap.77" }
%"class.llvm::DenseMap.77" = type <{ %"struct.std::pair.80"*, i32, i32, i32, [4 x i8] }>
%"struct.std::pair.80" = type { i32, %"class.clang::DiagnosticMappingInfo" }
%"class.clang::DiagnosticMappingInfo" = type { i8, [3 x i8] }
%"class.clang::FullSourceLoc" = type { %"class.clang::SourceLocation", %"class.clang::SourceManager"* }
%"class.std::vector.82" = type { %"struct.std::_Vector_base.83" }
%"struct.std::_Vector_base.83" = type { %"struct.std::_Vector_base<clang::DiagnosticsEngine::DiagState *, std::allocator<clang::DiagnosticsEngine::DiagState *> >::_Vector_impl" }
%"struct.std::_Vector_base<clang::DiagnosticsEngine::DiagState *, std::allocator<clang::DiagnosticsEngine::DiagState *> >::_Vector_impl" = type { %"class.clang::DiagnosticsEngine::DiagState"**, %"class.clang::DiagnosticsEngine::DiagState"**, %"class.clang::DiagnosticsEngine::DiagState"** }
%"struct.std::pair.87" = type opaque
%"class.llvm::SmallVectorImpl.88" = type { %"class.llvm::SmallVectorTemplateBase.base", [7 x i8] }
%"class.llvm::SmallVectorTemplateBase.base" = type { %"class.llvm::SmallVectorTemplateCommon.base" }
%"class.llvm::SmallVectorTemplateCommon.base" = type <{ %"class.llvm::SmallVectorBase", %"struct.llvm::AlignedCharArrayUnion.91" }>
%"struct.llvm::AlignedCharArrayUnion.91" = type { %"struct.llvm::AlignedCharArray.92" }
%"struct.llvm::AlignedCharArray.92" = type { [1 x i8] }
%"class.llvm::ArrayRef" = type { i64*, i64 }
%"class.std::__cxx11::basic_string" = type { %"struct.std::__cxx11::basic_string<char, std::char_traits<char>, std::allocator<char> >::_Alloc_hider", i64, %union.anon }
%"struct.std::__cxx11::basic_string<char, std::char_traits<char>, std::allocator<char> >::_Alloc_hider" = type { i8* }
%union.anon = type { i64, [8 x i8] }
%"class.clang::CharSourceRange" = type <{ %"class.clang::SourceRange", i8, [3 x i8] }>
%"class.clang::SourceRange" = type { %"class.clang::SourceLocation", %"class.clang::SourceLocation" }
%"class.clang::FixItHint" = type <{ %"class.clang::CharSourceRange", %"class.clang::CharSourceRange", %"class.std::__cxx11::basic_string", i8, [7 x i8] }>
%"class.clang::SourceLocation" = type { i32 }
%"class.llvm::SmallString" = type { %"class.llvm::SmallVector.99" }
%"class.llvm::SmallVector.99" = type { %"class.llvm::SmallVectorImpl.base", %"struct.llvm::SmallVectorStorage.100" }
%"class.llvm::SmallVectorImpl.base" = type { %"class.llvm::SmallVectorTemplateBase.base" }
%"struct.llvm::SmallVectorStorage.100" = type { [15 x %"struct.llvm::AlignedCharArrayUnion.91"] }
%"class.clang::comments::CommandTraits" = type { i32, %"class.llvm::BumpPtrAllocator"*, %"class.llvm::SmallVector.93" }
%"class.llvm::SmallVector.93" = type { %"class.llvm::SmallVectorImpl.94", %"struct.llvm::SmallVectorStorage.98" }
%"class.llvm::SmallVectorImpl.94" = type { %"class.llvm::SmallVectorTemplateBase.95" }
%"class.llvm::SmallVectorTemplateBase.95" = type { %"class.llvm::SmallVectorTemplateCommon.96" }
%"class.llvm::SmallVectorTemplateCommon.96" = type { %"class.llvm::SmallVectorBase", %"struct.llvm::AlignedCharArrayUnion.97" }
%"struct.llvm::AlignedCharArrayUnion.97" = type { %"struct.llvm::AlignedCharArray" }
%"struct.llvm::SmallVectorStorage.98" = type { [3 x %"struct.llvm::AlignedCharArrayUnion.97"] }
%"class.clang::comments::Token" = type <{ %"class.clang::SourceLocation", i32, i32, [4 x i8], i8*, i32, [4 x i8] }>

@.str = external hidden unnamed_addr constant [9 x i8], align 1
@.str.1 = external hidden unnamed_addr constant [21 x i8], align 1

; Function Attrs: nounwind uwtable
define void @_ZN5clang8comments11BriefParser5ParseB5cxx11Ev(%"class.clang::comments::BriefParser"* %this) local_unnamed_addr #0 align 2 !dbg !10587 {
entry:
  %FirstParagraphOrBrief = alloca %"class.std::__cxx11::basic_string", align 8
  %ReturnsParagraph = alloca %"class.std::__cxx11::basic_string", align 8
  %0 = getelementptr inbounds %"class.std::__cxx11::basic_string", %"class.std::__cxx11::basic_string"* %ReturnsParagraph, i64 0, i32 2, !dbg !19002
  store %union.anon* %0, %union.anon** undef, align 8, !dbg !19020
  %_M_string_length.i.i.i122 = getelementptr inbounds %"class.std::__cxx11::basic_string", %"class.std::__cxx11::basic_string"* %ReturnsParagraph, i64 0, i32 1, !dbg !19047
  %.cast.i123 = bitcast %union.anon* %0 to i8*, !dbg !19063
  %Kind.i = getelementptr %"class.clang::comments::BriefParser", %"class.clang::comments::BriefParser"* %this, i64 0, i32 2, i32 1, !dbg !19072
  br label %while.cond.outer.outer, !dbg !19079

while.cond.outer.outer:                           ; preds = %cleanup, %entry
  %InReturns.0.ph.ph = phi i8 [ 0, %entry ], [ %InReturns.1, %cleanup ]
  %InBrief.0.ph.ph = phi i8 [ 0, %entry ], [ %InBrief.1, %cleanup ]
  %InFirstParagraph.0.ph.ph = phi i8 [ 1, %entry ], [ %InFirstParagraph.2, %cleanup ]
  %tobool48 = icmp eq i8 %InBrief.0.ph.ph, 0, !dbg !19080
  br label %while.cond.outer.outer372, !dbg !19079

while.cond.outer.outer372:                        ; preds = %while.cond.outer.outer
  %1 = and i8 %InReturns.0.ph.ph, 1, !dbg !19087
  %tobool9 = icmp eq i8 %1, 0, !dbg !19087
  br label %while.cond.outer, !dbg !19079

while.cond.outer:                                 ; preds = %while.cond.outer.backedge, %while.cond.outer.outer372
  %InFirstParagraph.0.ph = phi i8 [ %InFirstParagraph.0.ph.ph, %while.cond.outer.outer372 ], [ %InFirstParagraph.3, %while.cond.outer.backedge ]
  br label %while.cond.outer283, !dbg !19079

while.cond.outer283:                              ; preds = %while.cond.outer
  %2 = or i8 %InFirstParagraph.0.ph, %InBrief.0.ph.ph
  %3 = and i8 %2, 1
  %4 = icmp eq i8 %3, 0
  br label %while.cond, !dbg !19079

while.cond:                                       ; preds = %if.end15, %while.cond.outer283
  call void @llvm.dbg.value(metadata i8 %InFirstParagraph.0.ph, metadata !18995, metadata !DIExpression()), !dbg !19092
  %5 = load i32, i32* %Kind.i, align 4
  switch i32 %5, label %if.end52 [
    i32 0, label %while.end
    i32 2, label %if.then
    i32 4, label %if.then23
    i32 5, label %if.then23
  ], !dbg !19079

if.then:                                          ; preds = %while.cond
  br i1 %4, label %if.else, label %if.then5

if.then5:                                         ; preds = %if.then
  %6 = load i64, i64* undef, align 8, !dbg !19093
  %sub3.i.i.i = sub i64 9223372036854775807, %6
  %cmp.i.i.i181 = icmp ult i64 %sub3.i.i.i, undef
  br i1 %cmp.i.i.i181, label %if.then.i.i.i, label %_ZN4llvmpLERNSt7__cxx1112basic_stringIcSt11char_traitsIcESaIcEEENS_9StringRefE.exit

if.then.i.i.i:                                    ; preds = %if.then5
  unreachable

_ZN4llvmpLERNSt7__cxx1112basic_stringIcSt11char_traitsIcESaIcEEENS_9StringRefE.exit: ; preds = %if.then5
  %call.i.i = call dereferenceable(32) %"class.std::__cxx11::basic_string"* @_ZNSt7__cxx1112basic_stringIcSt11char_traitsIcESaIcEE9_M_appendEPKcm(%"class.std::__cxx11::basic_string"* nonnull %FirstParagraphOrBrief, i8* undef, i64 undef) #3, !dbg !19129
  br label %if.end15, !dbg !19130

if.else:                                          ; preds = %if.then
  br i1 %tobool9, label %if.end15, label %if.then10, !dbg !19131

if.then10:                                        ; preds = %if.else
  %sub3.i.i.i188 = sub i64 9223372036854775807, undef
  br label %_ZN4llvmpLERNSt7__cxx1112basic_stringIcSt11char_traitsIcESaIcEEENS_9StringRefE.exit192

_ZN4llvmpLERNSt7__cxx1112basic_stringIcSt11char_traitsIcESaIcEEENS_9StringRefE.exit192: ; preds = %if.then10
  %call.i.i191 = call dereferenceable(32) %"class.std::__cxx11::basic_string"* @_ZNSt7__cxx1112basic_stringIcSt11char_traitsIcESaIcEE9_M_appendEPKcm(%"class.std::__cxx11::basic_string"* nonnull %ReturnsParagraph, i8* undef, i64 undef) #3
  br label %if.end15

if.end15:                                         ; preds = %_ZN4llvmpLERNSt7__cxx1112basic_stringIcSt11char_traitsIcESaIcEEENS_9StringRefE.exit192, %if.else, %_ZN4llvmpLERNSt7__cxx1112basic_stringIcSt11char_traitsIcESaIcEEENS_9StringRefE.exit
  br label %while.cond, !llvm.loop !19132

if.then23:                                        ; preds = %while.cond, %while.cond
  %bf.load = load i32, i32* undef, align 8, !dbg !19134
  %7 = and i32 %bf.load, 16384, !dbg !19136
  %tobool27 = icmp eq i32 %7, 0, !dbg !19136
  br i1 %tobool27, label %if.end32, label %if.then28, !dbg !19137

if.then28:                                        ; preds = %if.then23
  br label %cleanup, !dbg !19138, !llvm.loop !19132

if.end32:                                         ; preds = %if.then23
  %tobool36 = icmp slt i16 undef, 0, !dbg !19140
  br i1 %tobool36, label %if.then37, label %if.end42, !dbg !19142

if.then37:                                        ; preds = %if.end32
  br label %_ZNSt7__cxx1112basic_stringIcSt11char_traitsIcESaIcEEpLEPKc.exit

_ZNSt7__cxx1112basic_stringIcSt11char_traitsIcESaIcEEpLEPKc.exit: ; preds = %if.then37
  br label %cleanup, !dbg !19143, !llvm.loop !19132

if.end42:                                         ; preds = %if.end32
  %8 = and i32 %bf.load, 8192
  %tobool46 = icmp eq i32 %8, 0
  %brmerge = or i1 %tobool46, %tobool48
  br i1 %brmerge, label %if.end42.if.end52_crit_edge, label %while.end

if.end42.if.end52_crit_edge:                      ; preds = %if.end42
  %InFirstParagraph.0.ph284.mux = select i1 %tobool46, i8 %InFirstParagraph.0.ph, i8 0
  br label %if.end52

cleanup:                                          ; preds = %_ZNSt7__cxx1112basic_stringIcSt11char_traitsIcESaIcEEpLEPKc.exit, %if.then28
  %InReturns.1 = phi i8 [ %InReturns.0.ph.ph, %if.then28 ], [ 1, %_ZNSt7__cxx1112basic_stringIcSt11char_traitsIcESaIcEEpLEPKc.exit ], !dbg !19092
  %InBrief.1 = phi i8 [ 1, %if.then28 ], [ 0, %_ZNSt7__cxx1112basic_stringIcSt11char_traitsIcESaIcEEpLEPKc.exit ], !dbg !19092
  %InFirstParagraph.2 = phi i8 [ %InFirstParagraph.0.ph, %if.then28 ], [ 0, %_ZNSt7__cxx1112basic_stringIcSt11char_traitsIcESaIcEEpLEPKc.exit ], !dbg !19092
  br label %while.cond.outer.outer

if.end52:                                         ; preds = %if.end42.if.end52_crit_edge, %while.cond
  %InFirstParagraph.3 = phi i8 [ %InFirstParagraph.0.ph284.mux, %if.end42.if.end52_crit_edge ], [ %InFirstParagraph.0.ph, %while.cond ]
  br label %if.then55

if.then55:                                        ; preds = %if.end52
  br label %if.else61

if.else61:                                        ; preds = %if.then55
  br i1 %tobool9, label %if.end66, label %if.then63, !dbg !19145

if.then63:                                        ; preds = %if.else61
  %9 = load i64, i64* %_M_string_length.i.i.i122, align 8, !dbg !19149
  %add.i.i258 = add i64 %9, 1, !dbg !19170
  %10 = load i8*, i8** undef, align 8
  %cmp.i.i.i.i261 = icmp eq i8* %10, %.cast.i123
  %11 = load i64, i64* undef, align 8
  %cond.i.i.i264 = select i1 %cmp.i.i.i.i261, i64 15, i64 %11
  %cmp.i.i265 = icmp ugt i64 %add.i.i258, %cond.i.i.i264
  br i1 %cmp.i.i265, label %if.then.i.i268, label %_ZNSt7__cxx1112basic_stringIcSt11char_traitsIcESaIcEEpLEc.exit271

if.then.i.i268:                                   ; preds = %if.then63
  br label %_ZNSt7__cxx1112basic_stringIcSt11char_traitsIcESaIcEEpLEc.exit271, !dbg !19172

_ZNSt7__cxx1112basic_stringIcSt11char_traitsIcESaIcEEpLEc.exit271: ; preds = %if.then.i.i268, %if.then63
  %12 = phi i8* [ undef, %if.then.i.i268 ], [ %10, %if.then63 ], !dbg !19173
  %arrayidx.i.i269 = getelementptr inbounds i8, i8* %12, i64 %9, !dbg !19175
  store i8 32, i8* %arrayidx.i.i269, align 1, !dbg !19176
  br label %if.end66.sink.split, !dbg !19182

if.end66.sink.split:                              ; preds = %_ZNSt7__cxx1112basic_stringIcSt11char_traitsIcESaIcEEpLEc.exit271
  br label %if.end66, !dbg !19183

if.end66:                                         ; preds = %if.end66.sink.split, %if.else61
  br label %if.end82

if.end82:                                         ; preds = %if.end66
  br label %while.cond.outer.backedge

while.cond.outer.backedge:                        ; preds = %if.end82
  br label %while.cond.outer, !dbg !19087, !llvm.loop !19132

while.end:                                        ; preds = %if.end42, %while.cond
  ret void
}

declare dereferenceable(32) %"class.std::__cxx11::basic_string"* @_ZNSt7__cxx1112basic_stringIcSt11char_traitsIcESaIcEE9_M_appendEPKcm(%"class.std::__cxx11::basic_string"*, i8*, i64) local_unnamed_addr #1

; Function Attrs: nounwind readnone speculatable willreturn
declare void @llvm.dbg.value(metadata, metadata, metadata) #2

attributes #0 = { nounwind uwtable "correctly-rounded-divide-sqrt-fp-math"="false" "denormal-fp-math"="ieee,ieee" "denormal-fp-math-f32"="ieee,ieee" "disable-tail-calls"="false" "frame-pointer"="none" "less-precise-fpmad"="false" "min-legal-vector-width"="0" "no-infs-fp-math"="false" "no-jump-tables"="false" "no-nans-fp-math"="false" "no-signed-zeros-fp-math"="false" "no-trapping-math"="false" "stack-protector-buffer-size"="8" "target-cpu"="x86-64" "target-features"="+cx8,+fxsr,+mmx,+sse,+sse2,+x87" "unsafe-fp-math"="false" "use-soft-float"="false" }
attributes #1 = { "correctly-rounded-divide-sqrt-fp-math"="false" "denormal-fp-math"="ieee,ieee" "denormal-fp-math-f32"="ieee,ieee" "disable-tail-calls"="false" "frame-pointer"="none" "less-precise-fpmad"="false" "no-infs-fp-math"="false" "no-nans-fp-math"="false" "no-signed-zeros-fp-math"="false" "no-trapping-math"="false" "stack-protector-buffer-size"="8" "target-cpu"="x86-64" "target-features"="+cx8,+fxsr,+mmx,+sse,+sse2,+x87" "unsafe-fp-math"="false" "use-soft-float"="false" }
attributes #2 = { nounwind readnone speculatable willreturn }
attributes #3 = { nounwind }

!llvm.dbg.cu = !{!0}
!llvm.module.flags = !{!10582, !10583, !10584, !10585}
!llvm.ident = !{!10586}

!0 = distinct !DICompileUnit(language: DW_LANG_C_plus_plus_14, file: !1, producer: "clang version 11.0.0 (git@github.com:llvm/llvm-project 4458e56173313cb2a691463b939828f1f0093e45)", isOptimized: true, runtimeVersion: 0, emissionKind: FullDebug, enums: !2, retainedTypes: !9060, imports: !9225, splitDebugInlining: false, nameTableKind: None)
!1 = !DIFile(filename: "/faster/fs/llvm34/projects/clang/lib/AST/CommentBriefParser.cpp", directory: "/fast/fs/build34reldebinfo")
!2 = !{!3, !11, !606, !612, !692, !728, !1137, !2580, !4696, !5586, !6962, !7276, !7305, !8481, !8790, !8935, !9056}
!3 = !DICompositeType(tag: DW_TAG_enumeration_type, name: "_Lock_policy", scope: !5, file: !4, line: 49, baseType: !6, size: 32, elements: !7, identifier: "_ZTSN9__gnu_cxx12_Lock_policyE")
!4 = !DIFile(filename: "/usr/lib/gcc/x86_64-linux-gnu/7.5.0/../../../../include/c++/7.5.0/ext/concurrence.h", directory: "")
!5 = !DINamespace(name: "__gnu_cxx", scope: null)
!6 = !DIBasicType(name: "unsigned int", size: 32, encoding: DW_ATE_unsigned)
!7 = !{!8, !9, !10}
!8 = !DIEnumerator(name: "_S_single", value: 0, isUnsigned: true)
!9 = !DIEnumerator(name: "_S_mutex", value: 1, isUnsigned: true)
!10 = !DIEnumerator(name: "_S_atomic", value: 2, isUnsigned: true)
!11 = !DICompositeType(tag: DW_TAG_enumeration_type, name: "NodeKind", scope: !13, file: !12, line: 83, baseType: !6, size: 32, elements: !591, identifier: "_ZTSN4llvm5Twine8NodeKindE")
!12 = !DIFile(filename: "/faster/fs/llvm34/include/llvm/ADT/Twine.h", directory: "")
!13 = distinct !DICompositeType(tag: DW_TAG_class_type, name: "Twine", scope: !14, file: !12, line: 81, size: 192, flags: DIFlagTypePassByValue | DIFlagNonTrivial, elements: !15, identifier: "_ZTSN4llvm5TwineE")
!14 = !DINamespace(name: "llvm", scope: null)
!15 = !{!16, !257, !258, !260, !261, !265, !269, !272, !276, !277, !278, !279, !280, !281, !284, !285, !291, !292, !295, !298, !301, !305, !308, !312, !315, !318, !321, !325, !329, !333, !337, !340, !343, !346, !350, !351, !352, !355, !358, !576, !579, !582, !583, !586, !589, !590}
!16 = !DIDerivedType(tag: DW_TAG_member, name: "LHS", scope: !13, file: !12, line: 152, baseType: !17, size: 64)
!17 = distinct !DICompositeType(tag: DW_TAG_union_type, name: "Child", scope: !13, file: !12, line: 133, size: 64, flags: DIFlagTypePassByValue, elements: !18, identifier: "_ZTSN4llvm5Twine5ChildE")
!18 = !{!19, !22, !26, !35, !232, !233, !234, !235, !238, !242, !246, !250}
!19 = !DIDerivedType(tag: DW_TAG_member, name: "twine", scope: !17, file: !12, line: 135, baseType: !20, size: 64)
!20 = !DIDerivedType(tag: DW_TAG_pointer_type, baseType: !21, size: 64)
!21 = !DIDerivedType(tag: DW_TAG_const_type, baseType: !13)
!22 = !DIDerivedType(tag: DW_TAG_member, name: "cString", scope: !17, file: !12, line: 136, baseType: !23, size: 64)
!23 = !DIDerivedType(tag: DW_TAG_pointer_type, baseType: !24, size: 64)
!24 = !DIDerivedType(tag: DW_TAG_const_type, baseType: !25)
!25 = !DIBasicType(name: "char", size: 8, encoding: DW_ATE_signed_char)
!26 = !DIDerivedType(tag: DW_TAG_member, name: "stdString", scope: !17, file: !12, line: 137, baseType: !27, size: 64)
!27 = !DIDerivedType(tag: DW_TAG_pointer_type, baseType: !28, size: 64)
!28 = !DIDerivedType(tag: DW_TAG_const_type, baseType: !29)
!29 = !DIDerivedType(tag: DW_TAG_typedef, name: "string", scope: !31, file: !30, line: 74, baseType: !33)
!30 = !DIFile(filename: "/usr/lib/gcc/x86_64-linux-gnu/7.5.0/../../../../include/c++/7.5.0/bits/stringfwd.h", directory: "")
!31 = !DINamespace(name: "__cxx11", scope: !32, exportSymbols: true)
!32 = !DINamespace(name: "std", scope: null)
!33 = !DICompositeType(tag: DW_TAG_class_type, name: "basic_string<char, std::char_traits<char>, std::allocator<char> >", scope: !31, file: !34, line: 1607, flags: DIFlagFwdDecl, identifier: "_ZTSNSt7__cxx1112basic_stringIcSt11char_traitsIcESaIcEEE")
!34 = !DIFile(filename: "/usr/lib/gcc/x86_64-linux-gnu/7.5.0/../../../../include/c++/7.5.0/bits/basic_string.tcc", directory: "")
!35 = !DIDerivedType(tag: DW_TAG_member, name: "stringRef", scope: !17, file: !12, line: 138, baseType: !36, size: 64)
!36 = !DIDerivedType(tag: DW_TAG_pointer_type, baseType: !37, size: 64)
!37 = !DIDerivedType(tag: DW_TAG_const_type, baseType: !38)
!38 = distinct !DICompositeType(tag: DW_TAG_class_type, name: "StringRef", scope: !14, file: !39, line: 41, size: 128, flags: DIFlagTypePassByValue | DIFlagNonTrivial, elements: !40, identifier: "_ZTSN4llvm9StringRefE")
!39 = !DIFile(filename: "/faster/fs/llvm34/include/llvm/ADT/StringRef.h", directory: "")
!40 = !{!41, !46, !47, !48, !51, !52, !56, !60, !63, !66, !70, !75, !76, !79, !83, !86, !89, !90, !93, !94, !97, !98, !99, !102, !105, !108, !109, !110, !111, !112, !113, !116, !119, !120, !123, !124, !125, !126, !127, !128, !129, !130, !131, !134, !135, !140, !141, !142, !145, !148, !149, !150, !218, !221, !226, !227, !230, !231}
!41 = !DIDerivedType(tag: DW_TAG_member, name: "npos", scope: !38, file: !39, line: 45, baseType: !42, flags: DIFlagPublic | DIFlagStaticMember, extraData: i64 -1)
!42 = !DIDerivedType(tag: DW_TAG_const_type, baseType: !43)
!43 = !DIDerivedType(tag: DW_TAG_typedef, name: "size_t", file: !44, line: 46, baseType: !45)
!44 = !DIFile(filename: "llvm-project/build/lib/clang/11.0.0/include/stddef.h", directory: "/fast/fs")
!45 = !DIBasicType(name: "long unsigned int", size: 64, encoding: DW_ATE_unsigned)
!46 = !DIDerivedType(tag: DW_TAG_member, name: "Data", scope: !38, file: !39, line: 50, baseType: !23, size: 64)
!47 = !DIDerivedType(tag: DW_TAG_member, name: "Length", scope: !38, file: !39, line: 53, baseType: !43, size: 64, offset: 64)
!48 = !DISubprogram(name: "min", linkageName: "_ZN4llvm9StringRef3minEmm", scope: !38, file: !39, line: 58, type: !49, scopeLine: 58, flags: DIFlagPrototyped | DIFlagStaticMember, spFlags: DISPFlagOptimized)
!49 = !DISubroutineType(types: !50)
!50 = !{!43, !43, !43}
!51 = !DISubprogram(name: "max", linkageName: "_ZN4llvm9StringRef3maxEmm", scope: !38, file: !39, line: 59, type: !49, scopeLine: 59, flags: DIFlagPrototyped | DIFlagStaticMember, spFlags: DISPFlagOptimized)
!52 = !DISubprogram(name: "compareMemory", linkageName: "_ZN4llvm9StringRef13compareMemoryEPKcS2_m", scope: !38, file: !39, line: 63, type: !53, scopeLine: 63, flags: DIFlagPrototyped | DIFlagStaticMember, spFlags: DISPFlagOptimized)
!53 = !DISubroutineType(types: !54)
!54 = !{!55, !23, !23, !43}
!55 = !DIBasicType(name: "int", size: 32, encoding: DW_ATE_signed)
!56 = !DISubprogram(name: "StringRef", scope: !38, file: !39, line: 73, type: !57, scopeLine: 73, flags: DIFlagPublic | DIFlagPrototyped, spFlags: DISPFlagOptimized)
!57 = !DISubroutineType(types: !58)
!58 = !{null, !59}
!59 = !DIDerivedType(tag: DW_TAG_pointer_type, baseType: !38, size: 64, flags: DIFlagArtificial | DIFlagObjectPointer)
!60 = !DISubprogram(name: "StringRef", scope: !38, file: !39, line: 76, type: !61, scopeLine: 76, flags: DIFlagPublic | DIFlagPrototyped, spFlags: DISPFlagOptimized)
!61 = !DISubroutineType(types: !62)
!62 = !{null, !59, !23}
!63 = !DISubprogram(name: "StringRef", scope: !38, file: !39, line: 83, type: !64, scopeLine: 83, flags: DIFlagPublic | DIFlagPrototyped, spFlags: DISPFlagOptimized)
!64 = !DISubroutineType(types: !65)
!65 = !{null, !59, !23, !43}
!66 = !DISubprogram(name: "StringRef", scope: !38, file: !39, line: 90, type: !67, scopeLine: 90, flags: DIFlagPublic | DIFlagPrototyped, spFlags: DISPFlagOptimized)
!67 = !DISubroutineType(types: !68)
!68 = !{null, !59, !69}
!69 = !DIDerivedType(tag: DW_TAG_reference_type, baseType: !28, size: 64)
!70 = !DISubprogram(name: "begin", linkageName: "_ZNK4llvm9StringRef5beginEv", scope: !38, file: !39, line: 97, type: !71, scopeLine: 97, flags: DIFlagPublic | DIFlagPrototyped, spFlags: DISPFlagOptimized)
!71 = !DISubroutineType(types: !72)
!72 = !{!73, !74}
!73 = !DIDerivedType(tag: DW_TAG_typedef, name: "iterator", scope: !38, file: !39, line: 43, baseType: !23)
!74 = !DIDerivedType(tag: DW_TAG_pointer_type, baseType: !37, size: 64, flags: DIFlagArtificial | DIFlagObjectPointer)
!75 = !DISubprogram(name: "end", linkageName: "_ZNK4llvm9StringRef3endEv", scope: !38, file: !39, line: 99, type: !71, scopeLine: 99, flags: DIFlagPublic | DIFlagPrototyped, spFlags: DISPFlagOptimized)
!76 = !DISubprogram(name: "data", linkageName: "_ZNK4llvm9StringRef4dataEv", scope: !38, file: !39, line: 107, type: !77, scopeLine: 107, flags: DIFlagPublic | DIFlagPrototyped, spFlags: DISPFlagOptimized)
!77 = !DISubroutineType(types: !78)
!78 = !{!23, !74}
!79 = !DISubprogram(name: "empty", linkageName: "_ZNK4llvm9StringRef5emptyEv", scope: !38, file: !39, line: 110, type: !80, scopeLine: 110, flags: DIFlagPublic | DIFlagPrototyped, spFlags: DISPFlagOptimized)
!80 = !DISubroutineType(types: !81)
!81 = !{!82, !74}
!82 = !DIBasicType(name: "bool", size: 8, encoding: DW_ATE_boolean)
!83 = !DISubprogram(name: "size", linkageName: "_ZNK4llvm9StringRef4sizeEv", scope: !38, file: !39, line: 113, type: !84, scopeLine: 113, flags: DIFlagPublic | DIFlagPrototyped, spFlags: DISPFlagOptimized)
!84 = !DISubroutineType(types: !85)
!85 = !{!43, !74}
!86 = !DISubprogram(name: "front", linkageName: "_ZNK4llvm9StringRef5frontEv", scope: !38, file: !39, line: 116, type: !87, scopeLine: 116, flags: DIFlagPublic | DIFlagPrototyped, spFlags: DISPFlagOptimized)
!87 = !DISubroutineType(types: !88)
!88 = !{!25, !74}
!89 = !DISubprogram(name: "back", linkageName: "_ZNK4llvm9StringRef4backEv", scope: !38, file: !39, line: 122, type: !87, scopeLine: 122, flags: DIFlagPublic | DIFlagPrototyped, spFlags: DISPFlagOptimized)
!90 = !DISubprogram(name: "equals", linkageName: "_ZNK4llvm9StringRef6equalsES0_", scope: !38, file: !39, line: 129, type: !91, scopeLine: 129, flags: DIFlagPublic | DIFlagPrototyped, spFlags: DISPFlagOptimized)
!91 = !DISubroutineType(types: !92)
!92 = !{!82, !74, !38}
!93 = !DISubprogram(name: "equals_lower", linkageName: "_ZNK4llvm9StringRef12equals_lowerES0_", scope: !38, file: !39, line: 135, type: !91, scopeLine: 135, flags: DIFlagPublic | DIFlagPrototyped, spFlags: DISPFlagOptimized)
!94 = !DISubprogram(name: "compare", linkageName: "_ZNK4llvm9StringRef7compareES0_", scope: !38, file: !39, line: 141, type: !95, scopeLine: 141, flags: DIFlagPublic | DIFlagPrototyped, spFlags: DISPFlagOptimized)
!95 = !DISubroutineType(types: !96)
!96 = !{!55, !74, !38}
!97 = !DISubprogram(name: "compare_lower", linkageName: "_ZNK4llvm9StringRef13compare_lowerES0_", scope: !38, file: !39, line: 153, type: !95, scopeLine: 153, flags: DIFlagPublic | DIFlagPrototyped, spFlags: DISPFlagOptimized)
!98 = !DISubprogram(name: "compare_numeric", linkageName: "_ZNK4llvm9StringRef15compare_numericES0_", scope: !38, file: !39, line: 157, type: !95, scopeLine: 157, flags: DIFlagPublic | DIFlagPrototyped, spFlags: DISPFlagOptimized)
!99 = !DISubprogram(name: "edit_distance", linkageName: "_ZNK4llvm9StringRef13edit_distanceES0_bj", scope: !38, file: !39, line: 177, type: !100, scopeLine: 177, flags: DIFlagPublic | DIFlagPrototyped, spFlags: DISPFlagOptimized)
!100 = !DISubroutineType(types: !101)
!101 = !{!6, !74, !38, !82, !6}
!102 = !DISubprogram(name: "str", linkageName: "_ZNK4llvm9StringRef3strB5cxx11Ev", scope: !38, file: !39, line: 181, type: !103, scopeLine: 181, flags: DIFlagPublic | DIFlagPrototyped, spFlags: DISPFlagOptimized)
!103 = !DISubroutineType(types: !104)
!104 = !{!29, !74}
!105 = !DISubprogram(name: "operator[]", linkageName: "_ZNK4llvm9StringRefixEm", scope: !38, file: !39, line: 190, type: !106, scopeLine: 190, flags: DIFlagPublic | DIFlagPrototyped, spFlags: DISPFlagOptimized)
!106 = !DISubroutineType(types: !107)
!107 = !{!25, !74, !43}
!108 = !DISubprogram(name: "operator basic_string", linkageName: "_ZNK4llvm9StringRefcvNSt7__cxx1112basic_stringIcSt11char_traitsIcESaIcEEEEv", scope: !38, file: !39, line: 199, type: !103, scopeLine: 199, flags: DIFlagPublic | DIFlagPrototyped, spFlags: DISPFlagOptimized)
!109 = !DISubprogram(name: "startswith", linkageName: "_ZNK4llvm9StringRef10startswithES0_", scope: !38, file: !39, line: 208, type: !91, scopeLine: 208, flags: DIFlagPublic | DIFlagPrototyped, spFlags: DISPFlagOptimized)
!110 = !DISubprogram(name: "startswith_lower", linkageName: "_ZNK4llvm9StringRef16startswith_lowerES0_", scope: !38, file: !39, line: 214, type: !91, scopeLine: 214, flags: DIFlagPublic | DIFlagPrototyped, spFlags: DISPFlagOptimized)
!111 = !DISubprogram(name: "endswith", linkageName: "_ZNK4llvm9StringRef8endswithES0_", scope: !38, file: !39, line: 217, type: !91, scopeLine: 217, flags: DIFlagPublic | DIFlagPrototyped, spFlags: DISPFlagOptimized)
!112 = !DISubprogram(name: "endswith_lower", linkageName: "_ZNK4llvm9StringRef14endswith_lowerES0_", scope: !38, file: !39, line: 223, type: !91, scopeLine: 223, flags: DIFlagPublic | DIFlagPrototyped, spFlags: DISPFlagOptimized)
!113 = !DISubprogram(name: "find", linkageName: "_ZNK4llvm9StringRef4findEcm", scope: !38, file: !39, line: 233, type: !114, scopeLine: 233, flags: DIFlagPublic | DIFlagPrototyped, spFlags: DISPFlagOptimized)
!114 = !DISubroutineType(types: !115)
!115 = !{!43, !74, !25, !43}
!116 = !DISubprogram(name: "find", linkageName: "_ZNK4llvm9StringRef4findES0_m", scope: !38, file: !39, line: 244, type: !117, scopeLine: 244, flags: DIFlagPublic | DIFlagPrototyped, spFlags: DISPFlagOptimized)
!117 = !DISubroutineType(types: !118)
!118 = !{!43, !74, !38, !43}
!119 = !DISubprogram(name: "rfind", linkageName: "_ZNK4llvm9StringRef5rfindEcm", scope: !38, file: !39, line: 250, type: !114, scopeLine: 250, flags: DIFlagPublic | DIFlagPrototyped, spFlags: DISPFlagOptimized)
!120 = !DISubprogram(name: "rfind", linkageName: "_ZNK4llvm9StringRef5rfindES0_", scope: !38, file: !39, line: 265, type: !121, scopeLine: 265, flags: DIFlagPublic | DIFlagPrototyped, spFlags: DISPFlagOptimized)
!121 = !DISubroutineType(types: !122)
!122 = !{!43, !74, !38}
!123 = !DISubprogram(name: "find_first_of", linkageName: "_ZNK4llvm9StringRef13find_first_ofEcm", scope: !38, file: !39, line: 269, type: !114, scopeLine: 269, flags: DIFlagPublic | DIFlagPrototyped, spFlags: DISPFlagOptimized)
!124 = !DISubprogram(name: "find_first_of", linkageName: "_ZNK4llvm9StringRef13find_first_ofES0_m", scope: !38, file: !39, line: 277, type: !117, scopeLine: 277, flags: DIFlagPublic | DIFlagPrototyped, spFlags: DISPFlagOptimized)
!125 = !DISubprogram(name: "find_first_not_of", linkageName: "_ZNK4llvm9StringRef17find_first_not_ofEcm", scope: !38, file: !39, line: 281, type: !114, scopeLine: 281, flags: DIFlagPublic | DIFlagPrototyped, spFlags: DISPFlagOptimized)
!126 = !DISubprogram(name: "find_first_not_of", linkageName: "_ZNK4llvm9StringRef17find_first_not_ofES0_m", scope: !38, file: !39, line: 287, type: !117, scopeLine: 287, flags: DIFlagPublic | DIFlagPrototyped, spFlags: DISPFlagOptimized)
!127 = !DISubprogram(name: "find_last_of", linkageName: "_ZNK4llvm9StringRef12find_last_ofEcm", scope: !38, file: !39, line: 291, type: !114, scopeLine: 291, flags: DIFlagPublic | DIFlagPrototyped, spFlags: DISPFlagOptimized)
!128 = !DISubprogram(name: "find_last_of", linkageName: "_ZNK4llvm9StringRef12find_last_ofES0_m", scope: !38, file: !39, line: 299, type: !117, scopeLine: 299, flags: DIFlagPublic | DIFlagPrototyped, spFlags: DISPFlagOptimized)
!129 = !DISubprogram(name: "find_last_not_of", linkageName: "_ZNK4llvm9StringRef16find_last_not_ofEcm", scope: !38, file: !39, line: 303, type: !114, scopeLine: 303, flags: DIFlagPublic | DIFlagPrototyped, spFlags: DISPFlagOptimized)
!130 = !DISubprogram(name: "find_last_not_of", linkageName: "_ZNK4llvm9StringRef16find_last_not_ofES0_m", scope: !38, file: !39, line: 309, type: !117, scopeLine: 309, flags: DIFlagPublic | DIFlagPrototyped, spFlags: DISPFlagOptimized)
!131 = !DISubprogram(name: "count", linkageName: "_ZNK4llvm9StringRef5countEc", scope: !38, file: !39, line: 316, type: !132, scopeLine: 316, flags: DIFlagPublic | DIFlagPrototyped, spFlags: DISPFlagOptimized)
!132 = !DISubroutineType(types: !133)
!133 = !{!43, !74, !25}
!134 = !DISubprogram(name: "count", linkageName: "_ZNK4llvm9StringRef5countES0_", scope: !38, file: !39, line: 326, type: !121, scopeLine: 326, flags: DIFlagPublic | DIFlagPrototyped, spFlags: DISPFlagOptimized)
!135 = !DISubprogram(name: "getAsInteger", linkageName: "_ZNK4llvm9StringRef12getAsIntegerEjRNS_5APIntE", scope: !38, file: !39, line: 367, type: !136, scopeLine: 367, flags: DIFlagPublic | DIFlagPrototyped, spFlags: DISPFlagOptimized)
!136 = !DISubroutineType(types: !137)
!137 = !{!82, !74, !6, !138}
!138 = !DIDerivedType(tag: DW_TAG_reference_type, baseType: !139, size: 64)
!139 = !DICompositeType(tag: DW_TAG_class_type, name: "APInt", scope: !14, file: !39, line: 24, flags: DIFlagFwdDecl, identifier: "_ZTSN4llvm5APIntE")
!140 = !DISubprogram(name: "lower", linkageName: "_ZNK4llvm9StringRef5lowerB5cxx11Ev", scope: !38, file: !39, line: 374, type: !103, scopeLine: 374, flags: DIFlagPublic | DIFlagPrototyped, spFlags: DISPFlagOptimized)
!141 = !DISubprogram(name: "upper", linkageName: "_ZNK4llvm9StringRef5upperB5cxx11Ev", scope: !38, file: !39, line: 377, type: !103, scopeLine: 377, flags: DIFlagPublic | DIFlagPrototyped, spFlags: DISPFlagOptimized)
!142 = !DISubprogram(name: "substr", linkageName: "_ZNK4llvm9StringRef6substrEmm", scope: !38, file: !39, line: 392, type: !143, scopeLine: 392, flags: DIFlagPublic | DIFlagPrototyped, spFlags: DISPFlagOptimized)
!143 = !DISubroutineType(types: !144)
!144 = !{!38, !74, !43, !43}
!145 = !DISubprogram(name: "drop_front", linkageName: "_ZNK4llvm9StringRef10drop_frontEm", scope: !38, file: !39, line: 399, type: !146, scopeLine: 399, flags: DIFlagPublic | DIFlagPrototyped, spFlags: DISPFlagOptimized)
!146 = !DISubroutineType(types: !147)
!147 = !{!38, !74, !43}
!148 = !DISubprogram(name: "drop_back", linkageName: "_ZNK4llvm9StringRef9drop_backEm", scope: !38, file: !39, line: 406, type: !146, scopeLine: 406, flags: DIFlagPublic | DIFlagPrototyped, spFlags: DISPFlagOptimized)
!149 = !DISubprogram(name: "slice", linkageName: "_ZNK4llvm9StringRef5sliceEmm", scope: !38, file: !39, line: 421, type: !143, scopeLine: 421, flags: DIFlagPublic | DIFlagPrototyped, spFlags: DISPFlagOptimized)
!150 = !DISubprogram(name: "split", linkageName: "_ZNK4llvm9StringRef5splitEc", scope: !38, file: !39, line: 437, type: !151, scopeLine: 437, flags: DIFlagPublic | DIFlagPrototyped, spFlags: DISPFlagOptimized)
!151 = !DISubroutineType(types: !152)
!152 = !{!153, !74, !25}
!153 = distinct !DICompositeType(tag: DW_TAG_structure_type, name: "pair<llvm::StringRef, llvm::StringRef>", scope: !32, file: !154, line: 208, size: 256, flags: DIFlagTypePassByValue | DIFlagNonTrivial, elements: !155, templateParams: !215, identifier: "_ZTSSt4pairIN4llvm9StringRefES1_E")
!154 = !DIFile(filename: "/usr/lib/gcc/x86_64-linux-gnu/7.5.0/../../../../include/c++/7.5.0/bits/stl_pair.h", directory: "")
!155 = !{!156, !176, !177, !178, !184, !188, !203, !212}
!156 = !DIDerivedType(tag: DW_TAG_inheritance, scope: !153, baseType: !157, flags: DIFlagPrivate, extraData: i32 0)
!157 = distinct !DICompositeType(tag: DW_TAG_class_type, name: "__pair_base<llvm::StringRef, llvm::StringRef>", scope: !32, file: !154, line: 190, size: 8, flags: DIFlagTypePassByValue, elements: !158, templateParams: !173, identifier: "_ZTSSt11__pair_baseIN4llvm9StringRefES1_E")
!158 = !{!159, !163, !164, !169}
!159 = !DISubprogram(name: "__pair_base", scope: !157, file: !154, line: 194, type: !160, scopeLine: 194, flags: DIFlagPrototyped, spFlags: DISPFlagOptimized)
!160 = !DISubroutineType(types: !161)
!161 = !{null, !162}
!162 = !DIDerivedType(tag: DW_TAG_pointer_type, baseType: !157, size: 64, flags: DIFlagArtificial | DIFlagObjectPointer)
!163 = !DISubprogram(name: "~__pair_base", scope: !157, file: !154, line: 195, type: !160, scopeLine: 195, flags: DIFlagPrototyped, spFlags: DISPFlagOptimized)
!164 = !DISubprogram(name: "__pair_base", scope: !157, file: !154, line: 196, type: !165, scopeLine: 196, flags: DIFlagPrototyped, spFlags: DISPFlagOptimized)
!165 = !DISubroutineType(types: !166)
!166 = !{null, !162, !167}
!167 = !DIDerivedType(tag: DW_TAG_reference_type, baseType: !168, size: 64)
!168 = !DIDerivedType(tag: DW_TAG_const_type, baseType: !157)
!169 = !DISubprogram(name: "operator=", linkageName: "_ZNSt11__pair_baseIN4llvm9StringRefES1_EaSERKS2_", scope: !157, file: !154, line: 197, type: !170, scopeLine: 197, flags: DIFlagPrototyped, spFlags: DISPFlagOptimized | DISPFlagDeleted)
!170 = !DISubroutineType(types: !171)
!171 = !{!172, !162, !167}
!172 = !DIDerivedType(tag: DW_TAG_reference_type, baseType: !157, size: 64)
!173 = !{!174, !175}
!174 = !DITemplateTypeParameter(name: "_U1", type: !38)
!175 = !DITemplateTypeParameter(name: "_U2", type: !38)
!176 = !DIDerivedType(tag: DW_TAG_member, name: "first", scope: !153, file: !154, line: 214, baseType: !38, size: 128)
!177 = !DIDerivedType(tag: DW_TAG_member, name: "second", scope: !153, file: !154, line: 215, baseType: !38, size: 128, offset: 128)
!178 = !DISubprogram(name: "pair", scope: !153, file: !154, line: 303, type: !179, scopeLine: 303, flags: DIFlagPrototyped, spFlags: DISPFlagOptimized)
!179 = !DISubroutineType(types: !180)
!180 = !{null, !181, !182}
!181 = !DIDerivedType(tag: DW_TAG_pointer_type, baseType: !153, size: 64, flags: DIFlagArtificial | DIFlagObjectPointer)
!182 = !DIDerivedType(tag: DW_TAG_reference_type, baseType: !183, size: 64)
!183 = !DIDerivedType(tag: DW_TAG_const_type, baseType: !153)
!184 = !DISubprogram(name: "pair", scope: !153, file: !154, line: 304, type: !185, scopeLine: 304, flags: DIFlagPrototyped, spFlags: DISPFlagOptimized)
!185 = !DISubroutineType(types: !186)
!186 = !{null, !181, !187}
!187 = !DIDerivedType(tag: DW_TAG_rvalue_reference_type, baseType: !153, size: 64)
!188 = !DISubprogram(name: "operator=", linkageName: "_ZNSt4pairIN4llvm9StringRefES1_EaSERKS2_", scope: !153, file: !154, line: 378, type: !189, scopeLine: 378, flags: DIFlagPrototyped, spFlags: DISPFlagOptimized)
!189 = !DISubroutineType(types: !190)
!190 = !{!191, !181, !192}
!191 = !DIDerivedType(tag: DW_TAG_reference_type, baseType: !153, size: 64)
!192 = !DIDerivedType(tag: DW_TAG_typedef, name: "type", scope: !194, file: !193, line: 2166, baseType: !182)
!193 = !DIFile(filename: "/usr/lib/gcc/x86_64-linux-gnu/7.5.0/../../../../include/c++/7.5.0/type_traits", directory: "")
!194 = distinct !DICompositeType(tag: DW_TAG_structure_type, name: "conditional<true, const std::pair<llvm::StringRef, llvm::StringRef> &, const std::__nonesuch_no_braces &>", scope: !32, file: !193, line: 2165, size: 8, flags: DIFlagTypePassByValue, elements: !195, templateParams: !196, identifier: "_ZTSSt11conditionalILb1ERKSt4pairIN4llvm9StringRefES2_ERKSt20__nonesuch_no_bracesE")
!195 = !{}
!196 = !{!197, !198, !199}
!197 = !DITemplateValueParameter(name: "_Cond", type: !82, value: i8 1)
!198 = !DITemplateTypeParameter(name: "_Iftrue", type: !182)
!199 = !DITemplateTypeParameter(name: "_Iffalse", type: !200)
!200 = !DIDerivedType(tag: DW_TAG_reference_type, baseType: !201, size: 64)
!201 = !DIDerivedType(tag: DW_TAG_const_type, baseType: !202)
!202 = !DICompositeType(tag: DW_TAG_structure_type, name: "__nonesuch_no_braces", scope: !32, file: !154, line: 185, flags: DIFlagFwdDecl, identifier: "_ZTSSt20__nonesuch_no_braces")
!203 = !DISubprogram(name: "operator=", linkageName: "_ZNSt4pairIN4llvm9StringRefES1_EaSEOS2_", scope: !153, file: !154, line: 389, type: !204, scopeLine: 389, flags: DIFlagPrototyped, spFlags: DISPFlagOptimized)
!204 = !DISubroutineType(types: !205)
!205 = !{!191, !181, !206}
!206 = !DIDerivedType(tag: DW_TAG_typedef, name: "type", scope: !207, file: !193, line: 2166, baseType: !187)
!207 = distinct !DICompositeType(tag: DW_TAG_structure_type, name: "conditional<true, std::pair<llvm::StringRef, llvm::StringRef> &&, std::__nonesuch_no_braces &&>", scope: !32, file: !193, line: 2165, size: 8, flags: DIFlagTypePassByValue, elements: !195, templateParams: !208, identifier: "_ZTSSt11conditionalILb1EOSt4pairIN4llvm9StringRefES2_EOSt20__nonesuch_no_bracesE")
!208 = !{!197, !209, !210}
!209 = !DITemplateTypeParameter(name: "_Iftrue", type: !187)
!210 = !DITemplateTypeParameter(name: "_Iffalse", type: !211)
!211 = !DIDerivedType(tag: DW_TAG_rvalue_reference_type, baseType: !202, size: 64)
!212 = !DISubprogram(name: "swap", linkageName: "_ZNSt4pairIN4llvm9StringRefES1_E4swapERS2_", scope: !153, file: !154, line: 424, type: !213, scopeLine: 424, flags: DIFlagPrototyped, spFlags: DISPFlagOptimized)
!213 = !DISubroutineType(types: !214)
!214 = !{null, !181, !191}
!215 = !{!216, !217}
!216 = !DITemplateTypeParameter(name: "_T1", type: !38)
!217 = !DITemplateTypeParameter(name: "_T2", type: !38)
!218 = !DISubprogram(name: "split", linkageName: "_ZNK4llvm9StringRef5splitES0_", scope: !38, file: !39, line: 454, type: !219, scopeLine: 454, flags: DIFlagPublic | DIFlagPrototyped, spFlags: DISPFlagOptimized)
!219 = !DISubroutineType(types: !220)
!220 = !{!153, !74, !38}
!221 = !DISubprogram(name: "split", linkageName: "_ZNK4llvm9StringRef5splitERNS_15SmallVectorImplIS0_EES0_ib", scope: !38, file: !39, line: 475, type: !222, scopeLine: 475, flags: DIFlagPublic | DIFlagPrototyped, spFlags: DISPFlagOptimized)
!222 = !DISubroutineType(types: !223)
!223 = !{null, !74, !224, !38, !55, !82}
!224 = !DIDerivedType(tag: DW_TAG_reference_type, baseType: !225, size: 64)
!225 = !DICompositeType(tag: DW_TAG_class_type, name: "SmallVectorImpl<llvm::StringRef>", scope: !14, file: !39, line: 23, flags: DIFlagFwdDecl, identifier: "_ZTSN4llvm15SmallVectorImplINS_9StringRefEEE")
!226 = !DISubprogram(name: "rsplit", linkageName: "_ZNK4llvm9StringRef6rsplitEc", scope: !38, file: !39, line: 489, type: !151, scopeLine: 489, flags: DIFlagPublic | DIFlagPrototyped, spFlags: DISPFlagOptimized)
!227 = !DISubprogram(name: "ltrim", linkageName: "_ZNK4llvm9StringRef5ltrimES0_", scope: !38, file: !39, line: 498, type: !228, scopeLine: 498, flags: DIFlagPublic | DIFlagPrototyped, spFlags: DISPFlagOptimized)
!228 = !DISubroutineType(types: !229)
!229 = !{!38, !74, !38}
!230 = !DISubprogram(name: "rtrim", linkageName: "_ZNK4llvm9StringRef5rtrimES0_", scope: !38, file: !39, line: 504, type: !228, scopeLine: 504, flags: DIFlagPublic | DIFlagPrototyped, spFlags: DISPFlagOptimized)
!231 = !DISubprogram(name: "trim", linkageName: "_ZNK4llvm9StringRef4trimES0_", scope: !38, file: !39, line: 510, type: !228, scopeLine: 510, flags: DIFlagPublic | DIFlagPrototyped, spFlags: DISPFlagOptimized)
!232 = !DIDerivedType(tag: DW_TAG_member, name: "character", scope: !17, file: !12, line: 139, baseType: !25, size: 8)
!233 = !DIDerivedType(tag: DW_TAG_member, name: "decUI", scope: !17, file: !12, line: 140, baseType: !6, size: 32)
!234 = !DIDerivedType(tag: DW_TAG_member, name: "decI", scope: !17, file: !12, line: 141, baseType: !55, size: 32)
!235 = !DIDerivedType(tag: DW_TAG_member, name: "decUL", scope: !17, file: !12, line: 142, baseType: !236, size: 64)
!236 = !DIDerivedType(tag: DW_TAG_pointer_type, baseType: !237, size: 64)
!237 = !DIDerivedType(tag: DW_TAG_const_type, baseType: !45)
!238 = !DIDerivedType(tag: DW_TAG_member, name: "decL", scope: !17, file: !12, line: 143, baseType: !239, size: 64)
!239 = !DIDerivedType(tag: DW_TAG_pointer_type, baseType: !240, size: 64)
!240 = !DIDerivedType(tag: DW_TAG_const_type, baseType: !241)
!241 = !DIBasicType(name: "long int", size: 64, encoding: DW_ATE_signed)
!242 = !DIDerivedType(tag: DW_TAG_member, name: "decULL", scope: !17, file: !12, line: 144, baseType: !243, size: 64)
!243 = !DIDerivedType(tag: DW_TAG_pointer_type, baseType: !244, size: 64)
!244 = !DIDerivedType(tag: DW_TAG_const_type, baseType: !245)
!245 = !DIBasicType(name: "long long unsigned int", size: 64, encoding: DW_ATE_unsigned)
!246 = !DIDerivedType(tag: DW_TAG_member, name: "decLL", scope: !17, file: !12, line: 145, baseType: !247, size: 64)
!247 = !DIDerivedType(tag: DW_TAG_pointer_type, baseType: !248, size: 64)
!248 = !DIDerivedType(tag: DW_TAG_const_type, baseType: !249)
!249 = !DIBasicType(name: "long long int", size: 64, encoding: DW_ATE_signed)
!250 = !DIDerivedType(tag: DW_TAG_member, name: "uHex", scope: !17, file: !12, line: 146, baseType: !251, size: 64)
!251 = !DIDerivedType(tag: DW_TAG_pointer_type, baseType: !252, size: 64)
!252 = !DIDerivedType(tag: DW_TAG_const_type, baseType: !253)
!253 = !DIDerivedType(tag: DW_TAG_typedef, name: "uint64_t", file: !254, line: 27, baseType: !255)
!254 = !DIFile(filename: "/usr/include/x86_64-linux-gnu/bits/stdint-uintn.h", directory: "")
!255 = !DIDerivedType(tag: DW_TAG_typedef, name: "__uint64_t", file: !256, line: 44, baseType: !45)
!256 = !DIFile(filename: "/usr/include/x86_64-linux-gnu/bits/types.h", directory: "")
!257 = !DIDerivedType(tag: DW_TAG_member, name: "RHS", scope: !13, file: !12, line: 155, baseType: !17, size: 64, offset: 64)
!258 = !DIDerivedType(tag: DW_TAG_member, name: "LHSKind", scope: !13, file: !12, line: 159, baseType: !259, size: 8, offset: 128)
!259 = !DIBasicType(name: "unsigned char", size: 8, encoding: DW_ATE_unsigned_char)
!260 = !DIDerivedType(tag: DW_TAG_member, name: "RHSKind", scope: !13, file: !12, line: 161, baseType: !259, size: 8, offset: 136)
!261 = !DISubprogram(name: "Twine", scope: !13, file: !12, line: 165, type: !262, scopeLine: 165, flags: DIFlagExplicit | DIFlagPrototyped, spFlags: DISPFlagOptimized)
!262 = !DISubroutineType(types: !263)
!263 = !{null, !264, !11}
!264 = !DIDerivedType(tag: DW_TAG_pointer_type, baseType: !13, size: 64, flags: DIFlagArtificial | DIFlagObjectPointer)
!265 = !DISubprogram(name: "Twine", scope: !13, file: !12, line: 171, type: !266, scopeLine: 171, flags: DIFlagExplicit | DIFlagPrototyped, spFlags: DISPFlagOptimized)
!266 = !DISubroutineType(types: !267)
!267 = !{null, !264, !268, !268}
!268 = !DIDerivedType(tag: DW_TAG_reference_type, baseType: !21, size: 64)
!269 = !DISubprogram(name: "Twine", scope: !13, file: !12, line: 179, type: !270, scopeLine: 179, flags: DIFlagExplicit | DIFlagPrototyped, spFlags: DISPFlagOptimized)
!270 = !DISubroutineType(types: !271)
!271 = !{null, !264, !17, !11, !17, !11}
!272 = !DISubprogram(name: "isNull", linkageName: "_ZNK4llvm5Twine6isNullEv", scope: !13, file: !12, line: 186, type: !273, scopeLine: 186, flags: DIFlagPrototyped, spFlags: DISPFlagOptimized)
!273 = !DISubroutineType(types: !274)
!274 = !{!82, !275}
!275 = !DIDerivedType(tag: DW_TAG_pointer_type, baseType: !21, size: 64, flags: DIFlagArtificial | DIFlagObjectPointer)
!276 = !DISubprogram(name: "isEmpty", linkageName: "_ZNK4llvm5Twine7isEmptyEv", scope: !13, file: !12, line: 191, type: !273, scopeLine: 191, flags: DIFlagPrototyped, spFlags: DISPFlagOptimized)
!277 = !DISubprogram(name: "isNullary", linkageName: "_ZNK4llvm5Twine9isNullaryEv", scope: !13, file: !12, line: 196, type: !273, scopeLine: 196, flags: DIFlagPrototyped, spFlags: DISPFlagOptimized)
!278 = !DISubprogram(name: "isUnary", linkageName: "_ZNK4llvm5Twine7isUnaryEv", scope: !13, file: !12, line: 201, type: !273, scopeLine: 201, flags: DIFlagPrototyped, spFlags: DISPFlagOptimized)
!279 = !DISubprogram(name: "isBinary", linkageName: "_ZNK4llvm5Twine8isBinaryEv", scope: !13, file: !12, line: 206, type: !273, scopeLine: 206, flags: DIFlagPrototyped, spFlags: DISPFlagOptimized)
!280 = !DISubprogram(name: "isValid", linkageName: "_ZNK4llvm5Twine7isValidEv", scope: !13, file: !12, line: 212, type: !273, scopeLine: 212, flags: DIFlagPrototyped, spFlags: DISPFlagOptimized)
!281 = !DISubprogram(name: "getLHSKind", linkageName: "_ZNK4llvm5Twine10getLHSKindEv", scope: !13, file: !12, line: 237, type: !282, scopeLine: 237, flags: DIFlagPrototyped, spFlags: DISPFlagOptimized)
!282 = !DISubroutineType(types: !283)
!283 = !{!11, !275}
!284 = !DISubprogram(name: "getRHSKind", linkageName: "_ZNK4llvm5Twine10getRHSKindEv", scope: !13, file: !12, line: 240, type: !282, scopeLine: 240, flags: DIFlagPrototyped, spFlags: DISPFlagOptimized)
!285 = !DISubprogram(name: "printOneChild", linkageName: "_ZNK4llvm5Twine13printOneChildERNS_11raw_ostreamENS0_5ChildENS0_8NodeKindE", scope: !13, file: !12, line: 243, type: !286, scopeLine: 243, flags: DIFlagPrototyped, spFlags: DISPFlagOptimized)
!286 = !DISubroutineType(types: !287)
!287 = !{null, !275, !288, !17, !11}
!288 = !DIDerivedType(tag: DW_TAG_reference_type, baseType: !289, size: 64)
!289 = !DICompositeType(tag: DW_TAG_class_type, name: "raw_ostream", scope: !14, file: !290, line: 47, flags: DIFlagFwdDecl, identifier: "_ZTSN4llvm11raw_ostreamE")
!290 = !DIFile(filename: "/faster/fs/llvm34/projects/clang/include/clang/Basic/LLVM.h", directory: "")
!291 = !DISubprogram(name: "printOneChildRepr", linkageName: "_ZNK4llvm5Twine17printOneChildReprERNS_11raw_ostreamENS0_5ChildENS0_8NodeKindE", scope: !13, file: !12, line: 246, type: !286, scopeLine: 246, flags: DIFlagPrototyped, spFlags: DISPFlagOptimized)
!292 = !DISubprogram(name: "Twine", scope: !13, file: !12, line: 254, type: !293, scopeLine: 254, flags: DIFlagPublic | DIFlagPrototyped, spFlags: DISPFlagOptimized)
!293 = !DISubroutineType(types: !294)
!294 = !{null, !264}
!295 = !DISubprogram(name: "Twine", scope: !13, file: !12, line: 263, type: !296, scopeLine: 263, flags: DIFlagPublic | DIFlagPrototyped, spFlags: DISPFlagOptimized)
!296 = !DISubroutineType(types: !297)
!297 = !{null, !264, !23}
!298 = !DISubprogram(name: "Twine", scope: !13, file: !12, line: 275, type: !299, scopeLine: 275, flags: DIFlagPublic | DIFlagPrototyped, spFlags: DISPFlagOptimized)
!299 = !DISubroutineType(types: !300)
!300 = !{null, !264, !69}
!301 = !DISubprogram(name: "Twine", scope: !13, file: !12, line: 282, type: !302, scopeLine: 282, flags: DIFlagPublic | DIFlagPrototyped, spFlags: DISPFlagOptimized)
!302 = !DISubroutineType(types: !303)
!303 = !{null, !264, !304}
!304 = !DIDerivedType(tag: DW_TAG_reference_type, baseType: !37, size: 64)
!305 = !DISubprogram(name: "Twine", scope: !13, file: !12, line: 289, type: !306, scopeLine: 289, flags: DIFlagPublic | DIFlagExplicit | DIFlagPrototyped, spFlags: DISPFlagOptimized)
!306 = !DISubroutineType(types: !307)
!307 = !{null, !264, !25}
!308 = !DISubprogram(name: "Twine", scope: !13, file: !12, line: 295, type: !309, scopeLine: 295, flags: DIFlagPublic | DIFlagExplicit | DIFlagPrototyped, spFlags: DISPFlagOptimized)
!309 = !DISubroutineType(types: !310)
!310 = !{null, !264, !311}
!311 = !DIBasicType(name: "signed char", size: 8, encoding: DW_ATE_signed_char)
!312 = !DISubprogram(name: "Twine", scope: !13, file: !12, line: 301, type: !313, scopeLine: 301, flags: DIFlagPublic | DIFlagExplicit | DIFlagPrototyped, spFlags: DISPFlagOptimized)
!313 = !DISubroutineType(types: !314)
!314 = !{null, !264, !259}
!315 = !DISubprogram(name: "Twine", scope: !13, file: !12, line: 307, type: !316, scopeLine: 307, flags: DIFlagPublic | DIFlagExplicit | DIFlagPrototyped, spFlags: DISPFlagOptimized)
!316 = !DISubroutineType(types: !317)
!317 = !{null, !264, !6}
!318 = !DISubprogram(name: "Twine", scope: !13, file: !12, line: 313, type: !319, scopeLine: 313, flags: DIFlagPublic | DIFlagExplicit | DIFlagPrototyped, spFlags: DISPFlagOptimized)
!319 = !DISubroutineType(types: !320)
!320 = !{null, !264, !55}
!321 = !DISubprogram(name: "Twine", scope: !13, file: !12, line: 319, type: !322, scopeLine: 319, flags: DIFlagPublic | DIFlagExplicit | DIFlagPrototyped, spFlags: DISPFlagOptimized)
!322 = !DISubroutineType(types: !323)
!323 = !{null, !264, !324}
!324 = !DIDerivedType(tag: DW_TAG_reference_type, baseType: !237, size: 64)
!325 = !DISubprogram(name: "Twine", scope: !13, file: !12, line: 325, type: !326, scopeLine: 325, flags: DIFlagPublic | DIFlagExplicit | DIFlagPrototyped, spFlags: DISPFlagOptimized)
!326 = !DISubroutineType(types: !327)
!327 = !{null, !264, !328}
!328 = !DIDerivedType(tag: DW_TAG_reference_type, baseType: !240, size: 64)
!329 = !DISubprogram(name: "Twine", scope: !13, file: !12, line: 331, type: !330, scopeLine: 331, flags: DIFlagPublic | DIFlagExplicit | DIFlagPrototyped, spFlags: DISPFlagOptimized)
!330 = !DISubroutineType(types: !331)
!331 = !{null, !264, !332}
!332 = !DIDerivedType(tag: DW_TAG_reference_type, baseType: !244, size: 64)
!333 = !DISubprogram(name: "Twine", scope: !13, file: !12, line: 337, type: !334, scopeLine: 337, flags: DIFlagPublic | DIFlagExplicit | DIFlagPrototyped, spFlags: DISPFlagOptimized)
!334 = !DISubroutineType(types: !335)
!335 = !{null, !264, !336}
!336 = !DIDerivedType(tag: DW_TAG_reference_type, baseType: !248, size: 64)
!337 = !DISubprogram(name: "Twine", scope: !13, file: !12, line: 348, type: !338, scopeLine: 348, flags: DIFlagPublic | DIFlagPrototyped, spFlags: DISPFlagOptimized)
!338 = !DISubroutineType(types: !339)
!339 = !{null, !264, !23, !304}
!340 = !DISubprogram(name: "Twine", scope: !13, file: !12, line: 356, type: !341, scopeLine: 356, flags: DIFlagPublic | DIFlagPrototyped, spFlags: DISPFlagOptimized)
!341 = !DISubroutineType(types: !342)
!342 = !{null, !264, !304, !23}
!343 = !DISubprogram(name: "createNull", linkageName: "_ZN4llvm5Twine10createNullEv", scope: !13, file: !12, line: 365, type: !344, scopeLine: 365, flags: DIFlagPublic | DIFlagPrototyped | DIFlagStaticMember, spFlags: DISPFlagOptimized)
!344 = !DISubroutineType(types: !345)
!345 = !{!13}
!346 = !DISubprogram(name: "utohexstr", linkageName: "_ZN4llvm5Twine9utohexstrERKm", scope: !13, file: !12, line: 374, type: !347, scopeLine: 374, flags: DIFlagPublic | DIFlagPrototyped | DIFlagStaticMember, spFlags: DISPFlagOptimized)
!347 = !DISubroutineType(types: !348)
!348 = !{!13, !349}
!349 = !DIDerivedType(tag: DW_TAG_reference_type, baseType: !252, size: 64)
!350 = !DISubprogram(name: "isTriviallyEmpty", linkageName: "_ZNK4llvm5Twine16isTriviallyEmptyEv", scope: !13, file: !12, line: 387, type: !273, scopeLine: 387, flags: DIFlagPublic | DIFlagPrototyped, spFlags: DISPFlagOptimized)
!351 = !DISubprogram(name: "isSingleStringRef", linkageName: "_ZNK4llvm5Twine17isSingleStringRefEv", scope: !13, file: !12, line: 393, type: !273, scopeLine: 393, flags: DIFlagPublic | DIFlagPrototyped, spFlags: DISPFlagOptimized)
!352 = !DISubprogram(name: "concat", linkageName: "_ZNK4llvm5Twine6concatERKS0_", scope: !13, file: !12, line: 411, type: !353, scopeLine: 411, flags: DIFlagPublic | DIFlagPrototyped, spFlags: DISPFlagOptimized)
!353 = !DISubroutineType(types: !354)
!354 = !{!13, !275, !268}
!355 = !DISubprogram(name: "str", linkageName: "_ZNK4llvm5Twine3strB5cxx11Ev", scope: !13, file: !12, line: 418, type: !356, scopeLine: 418, flags: DIFlagPublic | DIFlagPrototyped, spFlags: DISPFlagOptimized)
!356 = !DISubroutineType(types: !357)
!357 = !{!29, !275}
!358 = !DISubprogram(name: "toVector", linkageName: "_ZNK4llvm5Twine8toVectorERNS_15SmallVectorImplIcEE", scope: !13, file: !12, line: 422, type: !359, scopeLine: 422, flags: DIFlagPublic | DIFlagPrototyped, spFlags: DISPFlagOptimized)
!359 = !DISubroutineType(types: !360)
!360 = !{null, !275, !361}
!361 = !DIDerivedType(tag: DW_TAG_reference_type, baseType: !362, size: 64)
!362 = distinct !DICompositeType(tag: DW_TAG_class_type, name: "SmallVectorImpl<char>", scope: !14, file: !363, line: 371, size: 256, flags: DIFlagTypePassByReference | DIFlagNonTrivial, elements: !364, templateParams: !575, identifier: "_ZTSN4llvm15SmallVectorImplIcEE")
!363 = !DIFile(filename: "/faster/fs/llvm34/include/llvm/ADT/SmallVector.h", directory: "")
!364 = !{!365, !514, !520, !523, !526, !527, !528, !531, !532, !535, !538, !543, !544, !548, !551, !555, !558, !561, !564, !568, !572, !573, !574}
!365 = !DIDerivedType(tag: DW_TAG_inheritance, scope: !362, baseType: !366, flags: DIFlagPublic, extraData: i32 0)
!366 = distinct !DICompositeType(tag: DW_TAG_class_type, name: "SmallVectorTemplateBase<char, true>", scope: !14, file: !363, line: 296, size: 256, flags: DIFlagTypePassByValue | DIFlagNonTrivial, elements: !367, templateParams: !512, identifier: "_ZTSN4llvm23SmallVectorTemplateBaseIcLb1EEE")
!367 = !{!368, !498, !502, !505, !506, !509}
!368 = !DIDerivedType(tag: DW_TAG_inheritance, scope: !366, baseType: !369, flags: DIFlagPublic, extraData: i32 0)
!369 = distinct !DICompositeType(tag: DW_TAG_class_type, name: "SmallVectorTemplateCommon<char, void>", scope: !14, file: !363, line: 66, size: 256, flags: DIFlagTypePassByValue | DIFlagNonTrivial, elements: !370, templateParams: !495, identifier: "_ZTSN4llvm25SmallVectorTemplateCommonIcvEE")
!370 = !{!371, !394, !417, !421, !424, !429, !432, !436, !440, !444, !445, !446, !447, !448, !454, !459, !460, !461, !465, !466, !469, !473, !477, !482, !487, !490, !493, !494}
!371 = !DIDerivedType(tag: DW_TAG_inheritance, scope: !369, baseType: !372, flags: DIFlagPublic, extraData: i32 0)
!372 = distinct !DICompositeType(tag: DW_TAG_class_type, name: "SmallVectorBase", scope: !14, file: !363, line: 33, size: 192, flags: DIFlagTypePassByValue | DIFlagNonTrivial, elements: !373, identifier: "_ZTSN4llvm15SmallVectorBaseE")
!373 = !{!374, !376, !377, !378, !382, !385, !390, !391}
!374 = !DIDerivedType(tag: DW_TAG_member, name: "BeginX", scope: !372, file: !363, line: 35, baseType: !375, size: 64, flags: DIFlagProtected)
!375 = !DIDerivedType(tag: DW_TAG_pointer_type, baseType: null, size: 64)
!376 = !DIDerivedType(tag: DW_TAG_member, name: "EndX", scope: !372, file: !363, line: 35, baseType: !375, size: 64, offset: 64, flags: DIFlagProtected)
!377 = !DIDerivedType(tag: DW_TAG_member, name: "CapacityX", scope: !372, file: !363, line: 35, baseType: !375, size: 64, offset: 128, flags: DIFlagProtected)
!378 = !DISubprogram(name: "SmallVectorBase", scope: !372, file: !363, line: 38, type: !379, scopeLine: 38, flags: DIFlagProtected | DIFlagPrototyped, spFlags: DISPFlagOptimized)
!379 = !DISubroutineType(types: !380)
!380 = !{null, !381, !375, !43}
!381 = !DIDerivedType(tag: DW_TAG_pointer_type, baseType: !372, size: 64, flags: DIFlagArtificial | DIFlagObjectPointer)
!382 = !DISubprogram(name: "grow_pod", linkageName: "_ZN4llvm15SmallVectorBase8grow_podEPvmm", scope: !372, file: !363, line: 43, type: !383, scopeLine: 43, flags: DIFlagProtected | DIFlagPrototyped, spFlags: DISPFlagOptimized)
!383 = !DISubroutineType(types: !384)
!384 = !{null, !381, !375, !43, !43}
!385 = !DISubprogram(name: "size_in_bytes", linkageName: "_ZNK4llvm15SmallVectorBase13size_in_bytesEv", scope: !372, file: !363, line: 47, type: !386, scopeLine: 47, flags: DIFlagPublic | DIFlagPrototyped, spFlags: DISPFlagOptimized)
!386 = !DISubroutineType(types: !387)
!387 = !{!43, !388}
!388 = !DIDerivedType(tag: DW_TAG_pointer_type, baseType: !389, size: 64, flags: DIFlagArtificial | DIFlagObjectPointer)
!389 = !DIDerivedType(tag: DW_TAG_const_type, baseType: !372)
!390 = !DISubprogram(name: "capacity_in_bytes", linkageName: "_ZNK4llvm15SmallVectorBase17capacity_in_bytesEv", scope: !372, file: !363, line: 52, type: !386, scopeLine: 52, flags: DIFlagPublic | DIFlagPrototyped, spFlags: DISPFlagOptimized)
!391 = !DISubprogram(name: "empty", linkageName: "_ZNK4llvm15SmallVectorBase5emptyEv", scope: !372, file: !363, line: 56, type: !392, scopeLine: 56, flags: DIFlagPublic | DIFlagPrototyped, spFlags: DISPFlagOptimized)
!392 = !DISubroutineType(types: !393)
!393 = !{!82, !388}
!394 = !DIDerivedType(tag: DW_TAG_member, name: "FirstEl", scope: !369, file: !363, line: 74, baseType: !395, size: 8, offset: 192)
!395 = !DIDerivedType(tag: DW_TAG_typedef, name: "U", scope: !369, file: !363, line: 73, baseType: !396)
!396 = distinct !DICompositeType(tag: DW_TAG_structure_type, name: "AlignedCharArrayUnion<char, char, char, char, char, char, char>", scope: !14, file: !397, line: 199, size: 8, flags: DIFlagTypePassByValue, elements: !398, templateParams: !409, identifier: "_ZTSN4llvm21AlignedCharArrayUnionIcccccccEE")
!397 = !DIFile(filename: "/faster/fs/llvm34/include/llvm/Support/AlignOf.h", directory: "")
!398 = !{!399}
!399 = !DIDerivedType(tag: DW_TAG_inheritance, scope: !396, baseType: !400, extraData: i32 0)
!400 = distinct !DICompositeType(tag: DW_TAG_structure_type, name: "AlignedCharArray<1, 1>", scope: !14, file: !397, line: 75, size: 8, flags: DIFlagTypePassByValue, elements: !401, templateParams: !406, identifier: "_ZTSN4llvm16AlignedCharArrayILm1ELm1EEE")
!401 = !{!402}
!402 = !DIDerivedType(tag: DW_TAG_member, name: "buffer", scope: !400, file: !397, line: 76, baseType: !403, size: 8, align: 8)
!403 = !DICompositeType(tag: DW_TAG_array_type, baseType: !25, size: 8, elements: !404)
!404 = !{!405}
!405 = !DISubrange(count: 1)
!406 = !{!407, !408}
!407 = !DITemplateValueParameter(name: "Alignment", type: !45, value: i64 1)
!408 = !DITemplateValueParameter(name: "Size", type: !45, value: i64 1)
!409 = !{!410, !411, !412, !413, !414, !415, !416}
!410 = !DITemplateTypeParameter(name: "T1", type: !25)
!411 = !DITemplateTypeParameter(name: "T2", type: !25, defaulted: true)
!412 = !DITemplateTypeParameter(name: "T3", type: !25, defaulted: true)
!413 = !DITemplateTypeParameter(name: "T4", type: !25, defaulted: true)
!414 = !DITemplateTypeParameter(name: "T5", type: !25, defaulted: true)
!415 = !DITemplateTypeParameter(name: "T6", type: !25, defaulted: true)
!416 = !DITemplateTypeParameter(name: "T7", type: !25, defaulted: true)
!417 = !DISubprogram(name: "SmallVectorTemplateCommon", scope: !369, file: !363, line: 78, type: !418, scopeLine: 78, flags: DIFlagProtected | DIFlagPrototyped, spFlags: DISPFlagOptimized)
!418 = !DISubroutineType(types: !419)
!419 = !{null, !420, !43}
!420 = !DIDerivedType(tag: DW_TAG_pointer_type, baseType: !369, size: 64, flags: DIFlagArtificial | DIFlagObjectPointer)
!421 = !DISubprogram(name: "grow_pod", linkageName: "_ZN4llvm25SmallVectorTemplateCommonIcvE8grow_podEmm", scope: !369, file: !363, line: 80, type: !422, scopeLine: 80, flags: DIFlagProtected | DIFlagPrototyped, spFlags: DISPFlagOptimized)
!422 = !DISubroutineType(types: !423)
!423 = !{null, !420, !43, !43}
!424 = !DISubprogram(name: "isSmall", linkageName: "_ZNK4llvm25SmallVectorTemplateCommonIcvE7isSmallEv", scope: !369, file: !363, line: 86, type: !425, scopeLine: 86, flags: DIFlagProtected | DIFlagPrototyped, spFlags: DISPFlagOptimized)
!425 = !DISubroutineType(types: !426)
!426 = !{!82, !427}
!427 = !DIDerivedType(tag: DW_TAG_pointer_type, baseType: !428, size: 64, flags: DIFlagArtificial | DIFlagObjectPointer)
!428 = !DIDerivedType(tag: DW_TAG_const_type, baseType: !369)
!429 = !DISubprogram(name: "resetToSmall", linkageName: "_ZN4llvm25SmallVectorTemplateCommonIcvE12resetToSmallEv", scope: !369, file: !363, line: 91, type: !430, scopeLine: 91, flags: DIFlagProtected | DIFlagPrototyped, spFlags: DISPFlagOptimized)
!430 = !DISubroutineType(types: !431)
!431 = !{null, !420}
!432 = !DISubprogram(name: "setEnd", linkageName: "_ZN4llvm25SmallVectorTemplateCommonIcvE6setEndEPc", scope: !369, file: !363, line: 95, type: !433, scopeLine: 95, flags: DIFlagProtected | DIFlagPrototyped, spFlags: DISPFlagOptimized)
!433 = !DISubroutineType(types: !434)
!434 = !{null, !420, !435}
!435 = !DIDerivedType(tag: DW_TAG_pointer_type, baseType: !25, size: 64)
!436 = !DISubprogram(name: "begin", linkageName: "_ZN4llvm25SmallVectorTemplateCommonIcvE5beginEv", scope: !369, file: !363, line: 112, type: !437, scopeLine: 112, flags: DIFlagPublic | DIFlagPrototyped, spFlags: DISPFlagOptimized)
!437 = !DISubroutineType(types: !438)
!438 = !{!439, !420}
!439 = !DIDerivedType(tag: DW_TAG_typedef, name: "iterator", scope: !369, file: !363, line: 100, baseType: !435)
!440 = !DISubprogram(name: "begin", linkageName: "_ZNK4llvm25SmallVectorTemplateCommonIcvE5beginEv", scope: !369, file: !363, line: 113, type: !441, scopeLine: 113, flags: DIFlagPublic | DIFlagPrototyped, spFlags: DISPFlagOptimized)
!441 = !DISubroutineType(types: !442)
!442 = !{!443, !427}
!443 = !DIDerivedType(tag: DW_TAG_typedef, name: "const_iterator", scope: !369, file: !363, line: 101, baseType: !23)
!444 = !DISubprogram(name: "end", linkageName: "_ZN4llvm25SmallVectorTemplateCommonIcvE3endEv", scope: !369, file: !363, line: 114, type: !437, scopeLine: 114, flags: DIFlagPublic | DIFlagPrototyped, spFlags: DISPFlagOptimized)
!445 = !DISubprogram(name: "end", linkageName: "_ZNK4llvm25SmallVectorTemplateCommonIcvE3endEv", scope: !369, file: !363, line: 115, type: !441, scopeLine: 115, flags: DIFlagPublic | DIFlagPrototyped, spFlags: DISPFlagOptimized)
!446 = !DISubprogram(name: "capacity_ptr", linkageName: "_ZN4llvm25SmallVectorTemplateCommonIcvE12capacity_ptrEv", scope: !369, file: !363, line: 117, type: !437, scopeLine: 117, flags: DIFlagProtected | DIFlagPrototyped, spFlags: DISPFlagOptimized)
!447 = !DISubprogram(name: "capacity_ptr", linkageName: "_ZNK4llvm25SmallVectorTemplateCommonIcvE12capacity_ptrEv", scope: !369, file: !363, line: 118, type: !441, scopeLine: 118, flags: DIFlagProtected | DIFlagPrototyped, spFlags: DISPFlagOptimized)
!448 = !DISubprogram(name: "rbegin", linkageName: "_ZN4llvm25SmallVectorTemplateCommonIcvE6rbeginEv", scope: !369, file: !363, line: 122, type: !449, scopeLine: 122, flags: DIFlagPublic | DIFlagPrototyped, spFlags: DISPFlagOptimized)
!449 = !DISubroutineType(types: !450)
!450 = !{!451, !420}
!451 = !DIDerivedType(tag: DW_TAG_typedef, name: "reverse_iterator", scope: !369, file: !363, line: 104, baseType: !452)
!452 = !DICompositeType(tag: DW_TAG_class_type, name: "reverse_iterator<char *>", scope: !32, file: !453, line: 101, flags: DIFlagFwdDecl, identifier: "_ZTSSt16reverse_iteratorIPcE")
!453 = !DIFile(filename: "/usr/lib/gcc/x86_64-linux-gnu/7.5.0/../../../../include/c++/7.5.0/bits/stl_iterator.h", directory: "")
!454 = !DISubprogram(name: "rbegin", linkageName: "_ZNK4llvm25SmallVectorTemplateCommonIcvE6rbeginEv", scope: !369, file: !363, line: 123, type: !455, scopeLine: 123, flags: DIFlagPublic | DIFlagPrototyped, spFlags: DISPFlagOptimized)
!455 = !DISubroutineType(types: !456)
!456 = !{!457, !427}
!457 = !DIDerivedType(tag: DW_TAG_typedef, name: "const_reverse_iterator", scope: !369, file: !363, line: 103, baseType: !458)
!458 = !DICompositeType(tag: DW_TAG_class_type, name: "reverse_iterator<const char *>", scope: !32, file: !453, line: 101, flags: DIFlagFwdDecl, identifier: "_ZTSSt16reverse_iteratorIPKcE")
!459 = !DISubprogram(name: "rend", linkageName: "_ZN4llvm25SmallVectorTemplateCommonIcvE4rendEv", scope: !369, file: !363, line: 124, type: !449, scopeLine: 124, flags: DIFlagPublic | DIFlagPrototyped, spFlags: DISPFlagOptimized)
!460 = !DISubprogram(name: "rend", linkageName: "_ZNK4llvm25SmallVectorTemplateCommonIcvE4rendEv", scope: !369, file: !363, line: 125, type: !455, scopeLine: 125, flags: DIFlagPublic | DIFlagPrototyped, spFlags: DISPFlagOptimized)
!461 = !DISubprogram(name: "size", linkageName: "_ZNK4llvm25SmallVectorTemplateCommonIcvE4sizeEv", scope: !369, file: !363, line: 127, type: !462, scopeLine: 127, flags: DIFlagPublic | DIFlagPrototyped, spFlags: DISPFlagOptimized)
!462 = !DISubroutineType(types: !463)
!463 = !{!464, !427}
!464 = !DIDerivedType(tag: DW_TAG_typedef, name: "size_type", file: !363, line: 97, baseType: !43)
!465 = !DISubprogram(name: "max_size", linkageName: "_ZNK4llvm25SmallVectorTemplateCommonIcvE8max_sizeEv", scope: !369, file: !363, line: 128, type: !462, scopeLine: 128, flags: DIFlagPublic | DIFlagPrototyped, spFlags: DISPFlagOptimized)
!466 = !DISubprogram(name: "capacity", linkageName: "_ZNK4llvm25SmallVectorTemplateCommonIcvE8capacityEv", scope: !369, file: !363, line: 132, type: !467, scopeLine: 132, flags: DIFlagPublic | DIFlagPrototyped, spFlags: DISPFlagOptimized)
!467 = !DISubroutineType(types: !468)
!468 = !{!43, !427}
!469 = !DISubprogram(name: "data", linkageName: "_ZN4llvm25SmallVectorTemplateCommonIcvE4dataEv", scope: !369, file: !363, line: 135, type: !470, scopeLine: 135, flags: DIFlagPublic | DIFlagPrototyped, spFlags: DISPFlagOptimized)
!470 = !DISubroutineType(types: !471)
!471 = !{!472, !420}
!472 = !DIDerivedType(tag: DW_TAG_typedef, name: "pointer", scope: !369, file: !363, line: 108, baseType: !435)
!473 = !DISubprogram(name: "data", linkageName: "_ZNK4llvm25SmallVectorTemplateCommonIcvE4dataEv", scope: !369, file: !363, line: 137, type: !474, scopeLine: 137, flags: DIFlagPublic | DIFlagPrototyped, spFlags: DISPFlagOptimized)
!474 = !DISubroutineType(types: !475)
!475 = !{!476, !427}
!476 = !DIDerivedType(tag: DW_TAG_typedef, name: "const_pointer", scope: !369, file: !363, line: 109, baseType: !23)
!477 = !DISubprogram(name: "operator[]", linkageName: "_ZN4llvm25SmallVectorTemplateCommonIcvEixEj", scope: !369, file: !363, line: 139, type: !478, scopeLine: 139, flags: DIFlagPublic | DIFlagPrototyped, spFlags: DISPFlagOptimized)
!478 = !DISubroutineType(types: !479)
!479 = !{!480, !420, !6}
!480 = !DIDerivedType(tag: DW_TAG_typedef, name: "reference", scope: !369, file: !363, line: 106, baseType: !481)
!481 = !DIDerivedType(tag: DW_TAG_reference_type, baseType: !25, size: 64)
!482 = !DISubprogram(name: "operator[]", linkageName: "_ZNK4llvm25SmallVectorTemplateCommonIcvEixEj", scope: !369, file: !363, line: 143, type: !483, scopeLine: 143, flags: DIFlagPublic | DIFlagPrototyped, spFlags: DISPFlagOptimized)
!483 = !DISubroutineType(types: !484)
!484 = !{!485, !427, !6}
!485 = !DIDerivedType(tag: DW_TAG_typedef, name: "const_reference", scope: !369, file: !363, line: 107, baseType: !486)
!486 = !DIDerivedType(tag: DW_TAG_reference_type, baseType: !24, size: 64)
!487 = !DISubprogram(name: "front", linkageName: "_ZN4llvm25SmallVectorTemplateCommonIcvE5frontEv", scope: !369, file: !363, line: 148, type: !488, scopeLine: 148, flags: DIFlagPublic | DIFlagPrototyped, spFlags: DISPFlagOptimized)
!488 = !DISubroutineType(types: !489)
!489 = !{!480, !420}
!490 = !DISubprogram(name: "front", linkageName: "_ZNK4llvm25SmallVectorTemplateCommonIcvE5frontEv", scope: !369, file: !363, line: 152, type: !491, scopeLine: 152, flags: DIFlagPublic | DIFlagPrototyped, spFlags: DISPFlagOptimized)
!491 = !DISubroutineType(types: !492)
!492 = !{!485, !427}
!493 = !DISubprogram(name: "back", linkageName: "_ZN4llvm25SmallVectorTemplateCommonIcvE4backEv", scope: !369, file: !363, line: 157, type: !488, scopeLine: 157, flags: DIFlagPublic | DIFlagPrototyped, spFlags: DISPFlagOptimized)
!494 = !DISubprogram(name: "back", linkageName: "_ZNK4llvm25SmallVectorTemplateCommonIcvE4backEv", scope: !369, file: !363, line: 161, type: !491, scopeLine: 161, flags: DIFlagPublic | DIFlagPrototyped, spFlags: DISPFlagOptimized)
!495 = !{!496, !497}
!496 = !DITemplateTypeParameter(name: "T", type: !25)
!497 = !DITemplateTypeParameter(type: null, defaulted: true)
!498 = !DISubprogram(name: "SmallVectorTemplateBase", scope: !366, file: !363, line: 298, type: !499, scopeLine: 298, flags: DIFlagProtected | DIFlagPrototyped, spFlags: DISPFlagOptimized)
!499 = !DISubroutineType(types: !500)
!500 = !{null, !501, !43}
!501 = !DIDerivedType(tag: DW_TAG_pointer_type, baseType: !366, size: 64, flags: DIFlagArtificial | DIFlagObjectPointer)
!502 = !DISubprogram(name: "destroy_range", linkageName: "_ZN4llvm23SmallVectorTemplateBaseIcLb1EE13destroy_rangeEPcS2_", scope: !366, file: !363, line: 301, type: !503, scopeLine: 301, flags: DIFlagProtected | DIFlagPrototyped | DIFlagStaticMember, spFlags: DISPFlagOptimized)
!503 = !DISubroutineType(types: !504)
!504 = !{null, !435, !435}
!505 = !DISubprogram(name: "grow", linkageName: "_ZN4llvm23SmallVectorTemplateBaseIcLb1EE4growEm", scope: !366, file: !363, line: 346, type: !499, scopeLine: 346, flags: DIFlagProtected | DIFlagPrototyped, spFlags: DISPFlagOptimized)
!506 = !DISubprogram(name: "push_back", linkageName: "_ZN4llvm23SmallVectorTemplateBaseIcLb1EE9push_backERKc", scope: !366, file: !363, line: 350, type: !507, scopeLine: 350, flags: DIFlagPublic | DIFlagPrototyped, spFlags: DISPFlagOptimized)
!507 = !DISubroutineType(types: !508)
!508 = !{null, !501, !486}
!509 = !DISubprogram(name: "pop_back", linkageName: "_ZN4llvm23SmallVectorTemplateBaseIcLb1EE8pop_backEv", scope: !366, file: !363, line: 361, type: !510, scopeLine: 361, flags: DIFlagPublic | DIFlagPrototyped, spFlags: DISPFlagOptimized)
!510 = !DISubroutineType(types: !511)
!511 = !{null, !501}
!512 = !{!496, !513}
!513 = !DITemplateValueParameter(name: "isPodLike", type: !82, value: i8 1)
!514 = !DISubprogram(name: "SmallVectorImpl", scope: !362, file: !363, line: 374, type: !515, scopeLine: 374, flags: DIFlagPrototyped, spFlags: DISPFlagOptimized | DISPFlagDeleted)
!515 = !DISubroutineType(types: !516)
!516 = !{null, !517, !518}
!517 = !DIDerivedType(tag: DW_TAG_pointer_type, baseType: !362, size: 64, flags: DIFlagArtificial | DIFlagObjectPointer)
!518 = !DIDerivedType(tag: DW_TAG_reference_type, baseType: !519, size: 64)
!519 = !DIDerivedType(tag: DW_TAG_const_type, baseType: !362)
!520 = !DISubprogram(name: "SmallVectorImpl", scope: !362, file: !363, line: 381, type: !521, scopeLine: 381, flags: DIFlagProtected | DIFlagExplicit | DIFlagPrototyped, spFlags: DISPFlagOptimized)
!521 = !DISubroutineType(types: !522)
!522 = !{null, !517, !6}
!523 = !DISubprogram(name: "~SmallVectorImpl", scope: !362, file: !363, line: 386, type: !524, scopeLine: 386, flags: DIFlagPublic | DIFlagPrototyped, spFlags: DISPFlagOptimized)
!524 = !DISubroutineType(types: !525)
!525 = !{null, !517}
!526 = !DISubprogram(name: "clear", linkageName: "_ZN4llvm15SmallVectorImplIcE5clearEv", scope: !362, file: !363, line: 396, type: !524, scopeLine: 396, flags: DIFlagPublic | DIFlagPrototyped, spFlags: DISPFlagOptimized)
!527 = !DISubprogram(name: "resize", linkageName: "_ZN4llvm15SmallVectorImplIcE6resizeEj", scope: !362, file: !363, line: 401, type: !521, scopeLine: 401, flags: DIFlagPublic | DIFlagPrototyped, spFlags: DISPFlagOptimized)
!528 = !DISubprogram(name: "resize", linkageName: "_ZN4llvm15SmallVectorImplIcE6resizeEjRKc", scope: !362, file: !363, line: 413, type: !529, scopeLine: 413, flags: DIFlagPublic | DIFlagPrototyped, spFlags: DISPFlagOptimized)
!529 = !DISubroutineType(types: !530)
!530 = !{null, !517, !6, !486}
!531 = !DISubprogram(name: "reserve", linkageName: "_ZN4llvm15SmallVectorImplIcE7reserveEj", scope: !362, file: !363, line: 425, type: !521, scopeLine: 425, flags: DIFlagPublic | DIFlagPrototyped, spFlags: DISPFlagOptimized)
!532 = !DISubprogram(name: "pop_back_val", linkageName: "_ZN4llvm15SmallVectorImplIcE12pop_back_valEv", scope: !362, file: !363, line: 430, type: !533, scopeLine: 430, flags: DIFlagPublic | DIFlagPrototyped, spFlags: DISPFlagOptimized)
!533 = !DISubroutineType(types: !534)
!534 = !{!25, !517}
!535 = !DISubprogram(name: "swap", linkageName: "_ZN4llvm15SmallVectorImplIcE4swapERS1_", scope: !362, file: !363, line: 440, type: !536, scopeLine: 440, flags: DIFlagPublic | DIFlagPrototyped, spFlags: DISPFlagOptimized)
!536 = !DISubroutineType(types: !537)
!537 = !{null, !517, !361}
!538 = !DISubprogram(name: "append", linkageName: "_ZN4llvm15SmallVectorImplIcE6appendEmRKc", scope: !362, file: !363, line: 460, type: !539, scopeLine: 460, flags: DIFlagPublic | DIFlagPrototyped, spFlags: DISPFlagOptimized)
!539 = !DISubroutineType(types: !540)
!540 = !{null, !517, !541, !486}
!541 = !DIDerivedType(tag: DW_TAG_typedef, name: "size_type", scope: !362, file: !363, line: 377, baseType: !542)
!542 = !DIDerivedType(tag: DW_TAG_typedef, name: "size_type", scope: !369, file: !363, line: 97, baseType: !43)
!543 = !DISubprogram(name: "assign", linkageName: "_ZN4llvm15SmallVectorImplIcE6assignEjRKc", scope: !362, file: !363, line: 470, type: !529, scopeLine: 470, flags: DIFlagPublic | DIFlagPrototyped, spFlags: DISPFlagOptimized)
!544 = !DISubprogram(name: "erase", linkageName: "_ZN4llvm15SmallVectorImplIcE5eraseEPc", scope: !362, file: !363, line: 478, type: !545, scopeLine: 478, flags: DIFlagPublic | DIFlagPrototyped, spFlags: DISPFlagOptimized)
!545 = !DISubroutineType(types: !546)
!546 = !{!547, !517, !547}
!547 = !DIDerivedType(tag: DW_TAG_typedef, name: "iterator", scope: !362, file: !363, line: 376, baseType: !439)
!548 = !DISubprogram(name: "erase", linkageName: "_ZN4llvm15SmallVectorImplIcE5eraseEPcS2_", scope: !362, file: !363, line: 490, type: !549, scopeLine: 490, flags: DIFlagPublic | DIFlagPrototyped, spFlags: DISPFlagOptimized)
!549 = !DISubroutineType(types: !550)
!550 = !{!547, !517, !547, !547}
!551 = !DISubprogram(name: "insert", linkageName: "_ZN4llvm15SmallVectorImplIcE6insertEPcOc", scope: !362, file: !363, line: 505, type: !552, scopeLine: 505, flags: DIFlagPublic | DIFlagPrototyped, spFlags: DISPFlagOptimized)
!552 = !DISubroutineType(types: !553)
!553 = !{!547, !517, !547, !554}
!554 = !DIDerivedType(tag: DW_TAG_rvalue_reference_type, baseType: !25, size: 64)
!555 = !DISubprogram(name: "insert", linkageName: "_ZN4llvm15SmallVectorImplIcE6insertEPcRKc", scope: !362, file: !363, line: 537, type: !556, scopeLine: 537, flags: DIFlagPublic | DIFlagPrototyped, spFlags: DISPFlagOptimized)
!556 = !DISubroutineType(types: !557)
!557 = !{!547, !517, !547, !486}
!558 = !DISubprogram(name: "insert", linkageName: "_ZN4llvm15SmallVectorImplIcE6insertEPcmRKc", scope: !362, file: !363, line: 568, type: !559, scopeLine: 568, flags: DIFlagPublic | DIFlagPrototyped, spFlags: DISPFlagOptimized)
!559 = !DISubroutineType(types: !560)
!560 = !{!547, !517, !547, !541, !486}
!561 = !DISubprogram(name: "operator=", linkageName: "_ZN4llvm15SmallVectorImplIcEaSERKS1_", scope: !362, file: !363, line: 674, type: !562, scopeLine: 674, flags: DIFlagPublic | DIFlagPrototyped, spFlags: DISPFlagOptimized)
!562 = !DISubroutineType(types: !563)
!563 = !{!361, !517, !518}
!564 = !DISubprogram(name: "operator=", linkageName: "_ZN4llvm15SmallVectorImplIcEaSEOS1_", scope: !362, file: !363, line: 677, type: !565, scopeLine: 677, flags: DIFlagPublic | DIFlagPrototyped, spFlags: DISPFlagOptimized)
!565 = !DISubroutineType(types: !566)
!566 = !{!361, !517, !567}
!567 = !DIDerivedType(tag: DW_TAG_rvalue_reference_type, baseType: !362, size: 64)
!568 = !DISubprogram(name: "operator==", linkageName: "_ZNK4llvm15SmallVectorImplIcEeqERKS1_", scope: !362, file: !363, line: 680, type: !569, scopeLine: 680, flags: DIFlagPublic | DIFlagPrototyped, spFlags: DISPFlagOptimized)
!569 = !DISubroutineType(types: !570)
!570 = !{!82, !571, !518}
!571 = !DIDerivedType(tag: DW_TAG_pointer_type, baseType: !519, size: 64, flags: DIFlagArtificial | DIFlagObjectPointer)
!572 = !DISubprogram(name: "operator!=", linkageName: "_ZNK4llvm15SmallVectorImplIcEneERKS1_", scope: !362, file: !363, line: 684, type: !569, scopeLine: 684, flags: DIFlagPublic | DIFlagPrototyped, spFlags: DISPFlagOptimized)
!573 = !DISubprogram(name: "operator<", linkageName: "_ZNK4llvm15SmallVectorImplIcEltERKS1_", scope: !362, file: !363, line: 688, type: !569, scopeLine: 688, flags: DIFlagPublic | DIFlagPrototyped, spFlags: DISPFlagOptimized)
!574 = !DISubprogram(name: "set_size", linkageName: "_ZN4llvm15SmallVectorImplIcE8set_sizeEj", scope: !362, file: !363, line: 702, type: !521, scopeLine: 702, flags: DIFlagPublic | DIFlagPrototyped, spFlags: DISPFlagOptimized)
!575 = !{!496}
!576 = !DISubprogram(name: "getSingleStringRef", linkageName: "_ZNK4llvm5Twine18getSingleStringRefEv", scope: !13, file: !12, line: 426, type: !577, scopeLine: 426, flags: DIFlagPublic | DIFlagPrototyped, spFlags: DISPFlagOptimized)
!577 = !DISubroutineType(types: !578)
!578 = !{!38, !275}
!579 = !DISubprogram(name: "toStringRef", linkageName: "_ZNK4llvm5Twine11toStringRefERNS_15SmallVectorImplIcEE", scope: !13, file: !12, line: 440, type: !580, scopeLine: 440, flags: DIFlagPublic | DIFlagPrototyped, spFlags: DISPFlagOptimized)
!580 = !DISubroutineType(types: !581)
!581 = !{!38, !275, !361}
!582 = !DISubprogram(name: "toNullTerminatedStringRef", linkageName: "_ZNK4llvm5Twine25toNullTerminatedStringRefERNS_15SmallVectorImplIcEE", scope: !13, file: !12, line: 448, type: !580, scopeLine: 448, flags: DIFlagPublic | DIFlagPrototyped, spFlags: DISPFlagOptimized)
!583 = !DISubprogram(name: "print", linkageName: "_ZNK4llvm5Twine5printERNS_11raw_ostreamE", scope: !13, file: !12, line: 452, type: !584, scopeLine: 452, flags: DIFlagPublic | DIFlagPrototyped, spFlags: DISPFlagOptimized)
!584 = !DISubroutineType(types: !585)
!585 = !{null, !275, !288}
!586 = !DISubprogram(name: "dump", linkageName: "_ZNK4llvm5Twine4dumpEv", scope: !13, file: !12, line: 455, type: !587, scopeLine: 455, flags: DIFlagPublic | DIFlagPrototyped, spFlags: DISPFlagOptimized)
!587 = !DISubroutineType(types: !588)
!588 = !{null, !275}
!589 = !DISubprogram(name: "printRepr", linkageName: "_ZNK4llvm5Twine9printReprERNS_11raw_ostreamE", scope: !13, file: !12, line: 458, type: !584, scopeLine: 458, flags: DIFlagPublic | DIFlagPrototyped, spFlags: DISPFlagOptimized)
!590 = !DISubprogram(name: "dumpRepr", linkageName: "_ZNK4llvm5Twine8dumpReprEv", scope: !13, file: !12, line: 461, type: !587, scopeLine: 461, flags: DIFlagPublic | DIFlagPrototyped, spFlags: DISPFlagOptimized)
!591 = !{!592, !593, !594, !595, !596, !597, !598, !599, !600, !601, !602, !603, !604, !605}
!592 = !DIEnumerator(name: "NullKind", value: 0, isUnsigned: true)
!593 = !DIEnumerator(name: "EmptyKind", value: 1, isUnsigned: true)
!594 = !DIEnumerator(name: "TwineKind", value: 2, isUnsigned: true)
!595 = !DIEnumerator(name: "CStringKind", value: 3, isUnsigned: true)
!596 = !DIEnumerator(name: "StdStringKind", value: 4, isUnsigned: true)
!597 = !DIEnumerator(name: "StringRefKind", value: 5, isUnsigned: true)
!598 = !DIEnumerator(name: "CharKind", value: 6, isUnsigned: true)
!599 = !DIEnumerator(name: "DecUIKind", value: 7, isUnsigned: true)
!600 = !DIEnumerator(name: "DecIKind", value: 8, isUnsigned: true)
!601 = !DIEnumerator(name: "DecULKind", value: 9, isUnsigned: true)
!602 = !DIEnumerator(name: "DecLKind", value: 10, isUnsigned: true)
!603 = !DIEnumerator(name: "DecULLKind", value: 11, isUnsigned: true)
!604 = !DIEnumerator(name: "DecLLKind", value: 12, isUnsigned: true)
!605 = !DIEnumerator(name: "UHexKind", value: 13, isUnsigned: true)
!606 = !DICompositeType(tag: DW_TAG_enumeration_type, name: "OverloadsShown", scope: !608, file: !607, line: 22, baseType: !6, size: 32, elements: !609, identifier: "_ZTSN5clang14OverloadsShownE")
!607 = !DIFile(filename: "/faster/fs/llvm34/projects/clang/include/clang/Basic/DiagnosticOptions.h", directory: "")
!608 = !DINamespace(name: "clang", scope: null)
!609 = !{!610, !611}
!610 = !DIEnumerator(name: "Ovl_All", value: 0, isUnsigned: true)
!611 = !DIEnumerator(name: "Ovl_Best", value: 1, isUnsigned: true)
!612 = !DICompositeType(tag: DW_TAG_enumeration_type, name: "ExtensionHandling", scope: !614, file: !613, line: 145, baseType: !6, size: 32, elements: !8477, identifier: "_ZTSN5clang17DiagnosticsEngine17ExtensionHandlingE")
!613 = !DIFile(filename: "/faster/fs/llvm34/projects/clang/include/clang/Basic/Diagnostic.h", directory: "")
!614 = distinct !DICompositeType(tag: DW_TAG_class_type, name: "DiagnosticsEngine", scope: !608, file: !613, line: 131, size: 11648, flags: DIFlagTypePassByReference | DIFlagNonTrivial, elements: !615, identifier: "_ZTSN5clang17DiagnosticsEngineE")
!615 = !{!616, !637, !638, !639, !640, !641, !642, !643, !644, !645, !646, !647, !648, !649, !650, !651, !652, !5156, !5650, !5653, !5654, !5656, !6140, !6576, !6946, !6947, !6948, !6949, !6950, !6951, !6952, !6953, !6954, !6955, !6956, !6957, !7050, !7051, !7052, !7053, !7054, !7055, !7056, !7057, !7058, !7062, !7064, !7066, !7137, !7172, !7176, !7180, !7183, !7186, !7189, !7192, !7195, !7198, !7203, !7206, !7207, !7208, !7212, !7215, !7218, !7221, !7224, !7227, !7228, !7231, !7232, !7233, !7236, !7237, !7238, !7239, !7240, !7241, !7242, !7243, !7244, !7245, !7246, !7247, !7248, !7251, !7252, !7253, !7254, !7255, !7258, !7261, !7262, !7263, !7266, !7269, !7270, !7271, !7272, !7282, !7285, !7288, !7291, !7292, !7293, !7296, !7297, !7298, !7299, !7300, !7301, !7302, !7306, !7309, !7312, !7315, !7316, !7319, !7379, !7382, !8428, !8429, !8432, !8433, !8434, !8469, !8470, !8473, !8474}
!616 = !DIDerivedType(tag: DW_TAG_inheritance, scope: !614, baseType: !617, flags: DIFlagPublic, extraData: i32 0)
!617 = distinct !DICompositeType(tag: DW_TAG_class_type, name: "RefCountedBase<clang::DiagnosticsEngine>", scope: !14, file: !618, line: 44, size: 32, flags: DIFlagTypePassByReference | DIFlagNonTrivial, elements: !619, templateParams: !635, identifier: "_ZTSN4llvm14RefCountedBaseIN5clang17DiagnosticsEngineEEE")
!618 = !DIFile(filename: "/faster/fs/llvm34/include/llvm/ADT/IntrusiveRefCntPtr.h", directory: "")
!619 = !{!620, !621, !625, !630, !634}
!620 = !DIDerivedType(tag: DW_TAG_member, name: "ref_cnt", scope: !617, file: !618, line: 45, baseType: !6, size: 32)
!621 = !DISubprogram(name: "RefCountedBase", scope: !617, file: !618, line: 48, type: !622, scopeLine: 48, flags: DIFlagPublic | DIFlagPrototyped, spFlags: DISPFlagOptimized)
!622 = !DISubroutineType(types: !623)
!623 = !{null, !624}
!624 = !DIDerivedType(tag: DW_TAG_pointer_type, baseType: !617, size: 64, flags: DIFlagArtificial | DIFlagObjectPointer)
!625 = !DISubprogram(name: "RefCountedBase", scope: !617, file: !618, line: 49, type: !626, scopeLine: 49, flags: DIFlagPublic | DIFlagPrototyped, spFlags: DISPFlagOptimized)
!626 = !DISubroutineType(types: !627)
!627 = !{null, !624, !628}
!628 = !DIDerivedType(tag: DW_TAG_reference_type, baseType: !629, size: 64)
!629 = !DIDerivedType(tag: DW_TAG_const_type, baseType: !617)
!630 = !DISubprogram(name: "Retain", linkageName: "_ZNK4llvm14RefCountedBaseIN5clang17DiagnosticsEngineEE6RetainEv", scope: !617, file: !618, line: 51, type: !631, scopeLine: 51, flags: DIFlagPublic | DIFlagPrototyped, spFlags: DISPFlagOptimized)
!631 = !DISubroutineType(types: !632)
!632 = !{null, !633}
!633 = !DIDerivedType(tag: DW_TAG_pointer_type, baseType: !629, size: 64, flags: DIFlagArtificial | DIFlagObjectPointer)
!634 = !DISubprogram(name: "Release", linkageName: "_ZNK4llvm14RefCountedBaseIN5clang17DiagnosticsEngineEE7ReleaseEv", scope: !617, file: !618, line: 52, type: !631, scopeLine: 52, flags: DIFlagPublic | DIFlagPrototyped, spFlags: DISPFlagOptimized)
!635 = !{!636}
!636 = !DITemplateTypeParameter(name: "Derived", type: !614)
!637 = !DIDerivedType(tag: DW_TAG_member, name: "AllExtensionsSilenced", scope: !614, file: !613, line: 168, baseType: !259, size: 8, offset: 32)
!638 = !DIDerivedType(tag: DW_TAG_member, name: "IgnoreAllWarnings", scope: !614, file: !613, line: 169, baseType: !82, size: 8, offset: 40)
!639 = !DIDerivedType(tag: DW_TAG_member, name: "WarningsAsErrors", scope: !614, file: !613, line: 170, baseType: !82, size: 8, offset: 48)
!640 = !DIDerivedType(tag: DW_TAG_member, name: "EnableAllWarnings", scope: !614, file: !613, line: 171, baseType: !82, size: 8, offset: 56)
!641 = !DIDerivedType(tag: DW_TAG_member, name: "ErrorsAsFatal", scope: !614, file: !613, line: 172, baseType: !82, size: 8, offset: 64)
!642 = !DIDerivedType(tag: DW_TAG_member, name: "SuppressSystemWarnings", scope: !614, file: !613, line: 173, baseType: !82, size: 8, offset: 72)
!643 = !DIDerivedType(tag: DW_TAG_member, name: "SuppressAllDiagnostics", scope: !614, file: !613, line: 174, baseType: !82, size: 8, offset: 80)
!644 = !DIDerivedType(tag: DW_TAG_member, name: "ElideType", scope: !614, file: !613, line: 175, baseType: !82, size: 8, offset: 88)
!645 = !DIDerivedType(tag: DW_TAG_member, name: "PrintTemplateTree", scope: !614, file: !613, line: 176, baseType: !82, size: 8, offset: 96)
!646 = !DIDerivedType(tag: DW_TAG_member, name: "ShowColors", scope: !614, file: !613, line: 177, baseType: !82, size: 8, offset: 104)
!647 = !DIDerivedType(tag: DW_TAG_member, name: "ShowOverloads", scope: !614, file: !613, line: 178, baseType: !606, size: 32, offset: 128)
!648 = !DIDerivedType(tag: DW_TAG_member, name: "ErrorLimit", scope: !614, file: !613, line: 179, baseType: !6, size: 32, offset: 160)
!649 = !DIDerivedType(tag: DW_TAG_member, name: "TemplateBacktraceLimit", scope: !614, file: !613, line: 180, baseType: !6, size: 32, offset: 192)
!650 = !DIDerivedType(tag: DW_TAG_member, name: "ConstexprBacktraceLimit", scope: !614, file: !613, line: 182, baseType: !6, size: 32, offset: 224)
!651 = !DIDerivedType(tag: DW_TAG_member, name: "ExtBehavior", scope: !614, file: !613, line: 184, baseType: !612, size: 32, offset: 256)
!652 = !DIDerivedType(tag: DW_TAG_member, name: "Diags", scope: !614, file: !613, line: 185, baseType: !653, size: 64, offset: 320)
!653 = distinct !DICompositeType(tag: DW_TAG_class_type, name: "IntrusiveRefCntPtr<clang::DiagnosticIDs>", scope: !14, file: !618, line: 110, size: 64, flags: DIFlagTypePassByReference | DIFlagNonTrivial, elements: !654, templateParams: !5154, identifier: "_ZTSN4llvm18IntrusiveRefCntPtrIN5clang13DiagnosticIDsEEE")
!654 = !{!655, !5112, !5116, !5119, !5124, !5128, !5132, !5133, !5138, !5141, !5142, !5147, !5150, !5151, !5152, !5153}
!655 = !DIDerivedType(tag: DW_TAG_member, name: "Obj", scope: !653, file: !618, line: 111, baseType: !656, size: 64)
!656 = !DIDerivedType(tag: DW_TAG_pointer_type, baseType: !657, size: 64)
!657 = distinct !DICompositeType(tag: DW_TAG_class_type, name: "DiagnosticIDs", scope: !608, file: !658, line: 112, size: 128, flags: DIFlagTypePassByReference | DIFlagNonTrivial, elements: !659, identifier: "_ZTSN5clang13DiagnosticIDsE")
!658 = !DIFile(filename: "/faster/fs/llvm34/projects/clang/include/clang/Basic/DiagnosticIDs.h", directory: "")
!659 = !{!660, !680, !684, !688, !689, !699, !704, !707, !708, !709, !710, !714, !717, !720, !723, !724, !725, !734, !739, !742, !745, !5100, !5103, !5106, !5109}
!660 = !DIDerivedType(tag: DW_TAG_inheritance, scope: !657, baseType: !661, flags: DIFlagPublic, extraData: i32 0)
!661 = distinct !DICompositeType(tag: DW_TAG_class_type, name: "RefCountedBase<clang::DiagnosticIDs>", scope: !14, file: !618, line: 44, size: 32, flags: DIFlagTypePassByReference | DIFlagNonTrivial, elements: !662, templateParams: !678, identifier: "_ZTSN4llvm14RefCountedBaseIN5clang13DiagnosticIDsEEE")
!662 = !{!663, !664, !668, !673, !677}
!663 = !DIDerivedType(tag: DW_TAG_member, name: "ref_cnt", scope: !661, file: !618, line: 45, baseType: !6, size: 32)
!664 = !DISubprogram(name: "RefCountedBase", scope: !661, file: !618, line: 48, type: !665, scopeLine: 48, flags: DIFlagPublic | DIFlagPrototyped, spFlags: DISPFlagOptimized)
!665 = !DISubroutineType(types: !666)
!666 = !{null, !667}
!667 = !DIDerivedType(tag: DW_TAG_pointer_type, baseType: !661, size: 64, flags: DIFlagArtificial | DIFlagObjectPointer)
!668 = !DISubprogram(name: "RefCountedBase", scope: !661, file: !618, line: 49, type: !669, scopeLine: 49, flags: DIFlagPublic | DIFlagPrototyped, spFlags: DISPFlagOptimized)
!669 = !DISubroutineType(types: !670)
!670 = !{null, !667, !671}
!671 = !DIDerivedType(tag: DW_TAG_reference_type, baseType: !672, size: 64)
!672 = !DIDerivedType(tag: DW_TAG_const_type, baseType: !661)
!673 = !DISubprogram(name: "Retain", linkageName: "_ZNK4llvm14RefCountedBaseIN5clang13DiagnosticIDsEE6RetainEv", scope: !661, file: !618, line: 51, type: !674, scopeLine: 51, flags: DIFlagPublic | DIFlagPrototyped, spFlags: DISPFlagOptimized)
!674 = !DISubroutineType(types: !675)
!675 = !{null, !676}
!676 = !DIDerivedType(tag: DW_TAG_pointer_type, baseType: !672, size: 64, flags: DIFlagArtificial | DIFlagObjectPointer)
!677 = !DISubprogram(name: "Release", linkageName: "_ZNK4llvm14RefCountedBaseIN5clang13DiagnosticIDsEE7ReleaseEv", scope: !661, file: !618, line: 52, type: !674, scopeLine: 52, flags: DIFlagPublic | DIFlagPrototyped, spFlags: DISPFlagOptimized)
!678 = !{!679}
!679 = !DITemplateTypeParameter(name: "Derived", type: !657)
!680 = !DIDerivedType(tag: DW_TAG_member, name: "CustomDiagInfo", scope: !657, file: !658, line: 121, baseType: !681, size: 64, offset: 64)
!681 = !DIDerivedType(tag: DW_TAG_pointer_type, baseType: !682, size: 64)
!682 = !DICompositeType(tag: DW_TAG_class_type, name: "CustomDiagInfo", scope: !683, file: !658, line: 43, flags: DIFlagFwdDecl, identifier: "_ZTSN5clang4diag14CustomDiagInfoE")
!683 = !DINamespace(name: "diag", scope: !608)
!684 = !DISubprogram(name: "DiagnosticIDs", scope: !657, file: !658, line: 124, type: !685, scopeLine: 124, flags: DIFlagPublic | DIFlagPrototyped, spFlags: DISPFlagOptimized)
!685 = !DISubroutineType(types: !686)
!686 = !{null, !687}
!687 = !DIDerivedType(tag: DW_TAG_pointer_type, baseType: !657, size: 64, flags: DIFlagArtificial | DIFlagObjectPointer)
!688 = !DISubprogram(name: "~DiagnosticIDs", scope: !657, file: !658, line: 125, type: !685, scopeLine: 125, flags: DIFlagPublic | DIFlagPrototyped, spFlags: DISPFlagOptimized)
!689 = !DISubprogram(name: "getCustomDiagID", linkageName: "_ZN5clang13DiagnosticIDs15getCustomDiagIDENS0_5LevelEN4llvm9StringRefE", scope: !657, file: !658, line: 131, type: !690, scopeLine: 131, flags: DIFlagPublic | DIFlagPrototyped, spFlags: DISPFlagOptimized)
!690 = !DISubroutineType(types: !691)
!691 = !{!6, !687, !692, !38}
!692 = !DICompositeType(tag: DW_TAG_enumeration_type, name: "Level", scope: !657, file: !658, line: 115, baseType: !6, size: 32, elements: !693, identifier: "_ZTSN5clang13DiagnosticIDs5LevelE")
!693 = !{!694, !695, !696, !697, !698}
!694 = !DIEnumerator(name: "Ignored", value: 0, isUnsigned: true)
!695 = !DIEnumerator(name: "Note", value: 1, isUnsigned: true)
!696 = !DIEnumerator(name: "Warning", value: 2, isUnsigned: true)
!697 = !DIEnumerator(name: "Error", value: 3, isUnsigned: true)
!698 = !DIEnumerator(name: "Fatal", value: 4, isUnsigned: true)
!699 = !DISubprogram(name: "getDescription", linkageName: "_ZNK5clang13DiagnosticIDs14getDescriptionEj", scope: !657, file: !658, line: 138, type: !700, scopeLine: 138, flags: DIFlagPublic | DIFlagPrototyped, spFlags: DISPFlagOptimized)
!700 = !DISubroutineType(types: !701)
!701 = !{!38, !702, !6}
!702 = !DIDerivedType(tag: DW_TAG_pointer_type, baseType: !703, size: 64, flags: DIFlagArtificial | DIFlagObjectPointer)
!703 = !DIDerivedType(tag: DW_TAG_const_type, baseType: !657)
!704 = !DISubprogram(name: "isBuiltinWarningOrExtension", linkageName: "_ZN5clang13DiagnosticIDs27isBuiltinWarningOrExtensionEj", scope: !657, file: !658, line: 145, type: !705, scopeLine: 145, flags: DIFlagPublic | DIFlagPrototyped | DIFlagStaticMember, spFlags: DISPFlagOptimized)
!705 = !DISubroutineType(types: !706)
!706 = !{!82, !6}
!707 = !DISubprogram(name: "isDefaultMappingAsError", linkageName: "_ZN5clang13DiagnosticIDs23isDefaultMappingAsErrorEj", scope: !657, file: !658, line: 149, type: !705, scopeLine: 149, flags: DIFlagPublic | DIFlagPrototyped | DIFlagStaticMember, spFlags: DISPFlagOptimized)
!708 = !DISubprogram(name: "isBuiltinNote", linkageName: "_ZN5clang13DiagnosticIDs13isBuiltinNoteEj", scope: !657, file: !658, line: 152, type: !705, scopeLine: 152, flags: DIFlagPublic | DIFlagPrototyped | DIFlagStaticMember, spFlags: DISPFlagOptimized)
!709 = !DISubprogram(name: "isBuiltinExtensionDiag", linkageName: "_ZN5clang13DiagnosticIDs22isBuiltinExtensionDiagEj", scope: !657, file: !658, line: 156, type: !705, scopeLine: 156, flags: DIFlagPublic | DIFlagPrototyped | DIFlagStaticMember, spFlags: DISPFlagOptimized)
!710 = !DISubprogram(name: "isBuiltinExtensionDiag", linkageName: "_ZN5clang13DiagnosticIDs22isBuiltinExtensionDiagEjRb", scope: !657, file: !658, line: 168, type: !711, scopeLine: 168, flags: DIFlagPublic | DIFlagPrototyped | DIFlagStaticMember, spFlags: DISPFlagOptimized)
!711 = !DISubroutineType(types: !712)
!712 = !{!82, !6, !713}
!713 = !DIDerivedType(tag: DW_TAG_reference_type, baseType: !82, size: 64)
!714 = !DISubprogram(name: "getWarningOptionForDiag", linkageName: "_ZN5clang13DiagnosticIDs23getWarningOptionForDiagEj", scope: !657, file: !658, line: 175, type: !715, scopeLine: 175, flags: DIFlagPublic | DIFlagPrototyped | DIFlagStaticMember, spFlags: DISPFlagOptimized)
!715 = !DISubroutineType(types: !716)
!716 = !{!38, !6}
!717 = !DISubprogram(name: "getCategoryNumberForDiag", linkageName: "_ZN5clang13DiagnosticIDs24getCategoryNumberForDiagEj", scope: !657, file: !658, line: 179, type: !718, scopeLine: 179, flags: DIFlagPublic | DIFlagPrototyped | DIFlagStaticMember, spFlags: DISPFlagOptimized)
!718 = !DISubroutineType(types: !719)
!719 = !{!6, !6}
!720 = !DISubprogram(name: "getNumberOfCategories", linkageName: "_ZN5clang13DiagnosticIDs21getNumberOfCategoriesEv", scope: !657, file: !658, line: 182, type: !721, scopeLine: 182, flags: DIFlagPublic | DIFlagPrototyped | DIFlagStaticMember, spFlags: DISPFlagOptimized)
!721 = !DISubroutineType(types: !722)
!722 = !{!6}
!723 = !DISubprogram(name: "getCategoryNameFromID", linkageName: "_ZN5clang13DiagnosticIDs21getCategoryNameFromIDEj", scope: !657, file: !658, line: 185, type: !715, scopeLine: 185, flags: DIFlagPublic | DIFlagPrototyped | DIFlagStaticMember, spFlags: DISPFlagOptimized)
!724 = !DISubprogram(name: "isARCDiagnostic", linkageName: "_ZN5clang13DiagnosticIDs15isARCDiagnosticEj", scope: !657, file: !658, line: 189, type: !705, scopeLine: 189, flags: DIFlagPublic | DIFlagPrototyped | DIFlagStaticMember, spFlags: DISPFlagOptimized)
!725 = !DISubprogram(name: "getDiagnosticSFINAEResponse", linkageName: "_ZN5clang13DiagnosticIDs27getDiagnosticSFINAEResponseEj", scope: !657, file: !658, line: 225, type: !726, scopeLine: 225, flags: DIFlagPublic | DIFlagPrototyped | DIFlagStaticMember, spFlags: DISPFlagOptimized)
!726 = !DISubroutineType(types: !727)
!727 = !{!728, !6}
!728 = !DICompositeType(tag: DW_TAG_enumeration_type, name: "SFINAEResponse", scope: !657, file: !658, line: 193, baseType: !6, size: 32, elements: !729, identifier: "_ZTSN5clang13DiagnosticIDs14SFINAEResponseE")
!729 = !{!730, !731, !732, !733}
!730 = !DIEnumerator(name: "SFINAE_SubstitutionFailure", value: 0, isUnsigned: true)
!731 = !DIEnumerator(name: "SFINAE_Suppress", value: 1, isUnsigned: true)
!732 = !DIEnumerator(name: "SFINAE_Report", value: 2, isUnsigned: true)
!733 = !DIEnumerator(name: "SFINAE_AccessControl", value: 3, isUnsigned: true)
!734 = !DISubprogram(name: "getDiagnosticsInGroup", linkageName: "_ZNK5clang13DiagnosticIDs21getDiagnosticsInGroupEN4llvm9StringRefERNS1_15SmallVectorImplIjEE", scope: !657, file: !658, line: 231, type: !735, scopeLine: 231, flags: DIFlagPublic | DIFlagPrototyped, spFlags: DISPFlagOptimized)
!735 = !DISubroutineType(types: !736)
!736 = !{!82, !702, !38, !737}
!737 = !DIDerivedType(tag: DW_TAG_reference_type, baseType: !738, size: 64)
!738 = !DICompositeType(tag: DW_TAG_class_type, name: "SmallVectorImpl<unsigned int>", scope: !14, file: !290, line: 35, flags: DIFlagFwdDecl, identifier: "_ZTSN4llvm15SmallVectorImplIjEE")
!739 = !DISubprogram(name: "getAllDiagnostics", linkageName: "_ZNK5clang13DiagnosticIDs17getAllDiagnosticsERN4llvm15SmallVectorImplIjEE", scope: !657, file: !658, line: 235, type: !740, scopeLine: 235, flags: DIFlagPublic | DIFlagPrototyped, spFlags: DISPFlagOptimized)
!740 = !DISubroutineType(types: !741)
!741 = !{null, !702, !737}
!742 = !DISubprogram(name: "getNearestWarningOption", linkageName: "_ZN5clang13DiagnosticIDs23getNearestWarningOptionEN4llvm9StringRefE", scope: !657, file: !658, line: 239, type: !743, scopeLine: 239, flags: DIFlagPublic | DIFlagPrototyped | DIFlagStaticMember, spFlags: DISPFlagOptimized)
!743 = !DISubroutineType(types: !744)
!744 = !{!38, !38}
!745 = !DISubprogram(name: "getDiagnosticLevel", linkageName: "_ZNK5clang13DiagnosticIDs18getDiagnosticLevelEjNS_14SourceLocationERKNS_17DiagnosticsEngineE", scope: !657, file: !658, line: 250, type: !746, scopeLine: 250, flags: DIFlagPrototyped, spFlags: DISPFlagOptimized)
!746 = !DISubroutineType(types: !747)
!747 = !{!692, !702, !6, !748, !5098}
!748 = distinct !DICompositeType(tag: DW_TAG_class_type, name: "SourceLocation", scope: !608, file: !749, line: 87, size: 32, flags: DIFlagTypePassByValue | DIFlagNonTrivial, elements: !750, identifier: "_ZTSN5clang14SourceLocationE")
!749 = !DIFile(filename: "/faster/fs/llvm34/projects/clang/include/clang/Basic/SourceLocation.h", directory: "")
!750 = !{!751, !752, !756, !761, !762, !763, !764, !767, !770, !771, !774, !775, !776, !779, !784, !5092, !5095}
!751 = !DIDerivedType(tag: DW_TAG_member, name: "ID", scope: !748, file: !749, line: 88, baseType: !6, size: 32)
!752 = !DISubprogram(name: "SourceLocation", scope: !748, file: !749, line: 97, type: !753, scopeLine: 97, flags: DIFlagPublic | DIFlagPrototyped, spFlags: DISPFlagOptimized)
!753 = !DISubroutineType(types: !754)
!754 = !{null, !755}
!755 = !DIDerivedType(tag: DW_TAG_pointer_type, baseType: !748, size: 64, flags: DIFlagArtificial | DIFlagObjectPointer)
!756 = !DISubprogram(name: "isFileID", linkageName: "_ZNK5clang14SourceLocation8isFileIDEv", scope: !748, file: !749, line: 99, type: !757, scopeLine: 99, flags: DIFlagPublic | DIFlagPrototyped, spFlags: DISPFlagOptimized)
!757 = !DISubroutineType(types: !758)
!758 = !{!82, !759}
!759 = !DIDerivedType(tag: DW_TAG_pointer_type, baseType: !760, size: 64, flags: DIFlagArtificial | DIFlagObjectPointer)
!760 = !DIDerivedType(tag: DW_TAG_const_type, baseType: !748)
!761 = !DISubprogram(name: "isMacroID", linkageName: "_ZNK5clang14SourceLocation9isMacroIDEv", scope: !748, file: !749, line: 100, type: !757, scopeLine: 100, flags: DIFlagPublic | DIFlagPrototyped, spFlags: DISPFlagOptimized)
!762 = !DISubprogram(name: "isValid", linkageName: "_ZNK5clang14SourceLocation7isValidEv", scope: !748, file: !749, line: 107, type: !757, scopeLine: 107, flags: DIFlagPublic | DIFlagPrototyped, spFlags: DISPFlagOptimized)
!763 = !DISubprogram(name: "isInvalid", linkageName: "_ZNK5clang14SourceLocation9isInvalidEv", scope: !748, file: !749, line: 108, type: !757, scopeLine: 108, flags: DIFlagPublic | DIFlagPrototyped, spFlags: DISPFlagOptimized)
!764 = !DISubprogram(name: "getOffset", linkageName: "_ZNK5clang14SourceLocation9getOffsetEv", scope: !748, file: !749, line: 112, type: !765, scopeLine: 112, flags: DIFlagPrototyped, spFlags: DISPFlagOptimized)
!765 = !DISubroutineType(types: !766)
!766 = !{!6, !759}
!767 = !DISubprogram(name: "getFileLoc", linkageName: "_ZN5clang14SourceLocation10getFileLocEj", scope: !748, file: !749, line: 116, type: !768, scopeLine: 116, flags: DIFlagPrototyped | DIFlagStaticMember, spFlags: DISPFlagOptimized)
!768 = !DISubroutineType(types: !769)
!769 = !{!748, !6}
!770 = !DISubprogram(name: "getMacroLoc", linkageName: "_ZN5clang14SourceLocation11getMacroLocEj", scope: !748, file: !749, line: 123, type: !768, scopeLine: 123, flags: DIFlagPrototyped | DIFlagStaticMember, spFlags: DISPFlagOptimized)
!771 = !DISubprogram(name: "getLocWithOffset", linkageName: "_ZNK5clang14SourceLocation16getLocWithOffsetEi", scope: !748, file: !749, line: 133, type: !772, scopeLine: 133, flags: DIFlagPublic | DIFlagPrototyped, spFlags: DISPFlagOptimized)
!772 = !DISubroutineType(types: !773)
!773 = !{!748, !759, !55}
!774 = !DISubprogram(name: "getRawEncoding", linkageName: "_ZNK5clang14SourceLocation14getRawEncodingEv", scope: !748, file: !749, line: 145, type: !765, scopeLine: 145, flags: DIFlagPublic | DIFlagPrototyped, spFlags: DISPFlagOptimized)
!775 = !DISubprogram(name: "getFromRawEncoding", linkageName: "_ZN5clang14SourceLocation18getFromRawEncodingEj", scope: !748, file: !749, line: 151, type: !768, scopeLine: 151, flags: DIFlagPublic | DIFlagPrototyped | DIFlagStaticMember, spFlags: DISPFlagOptimized)
!776 = !DISubprogram(name: "getPtrEncoding", linkageName: "_ZNK5clang14SourceLocation14getPtrEncodingEv", scope: !748, file: !749, line: 162, type: !777, scopeLine: 162, flags: DIFlagPublic | DIFlagPrototyped, spFlags: DISPFlagOptimized)
!777 = !DISubroutineType(types: !778)
!778 = !{!375, !759}
!779 = !DISubprogram(name: "getFromPtrEncoding", linkageName: "_ZN5clang14SourceLocation18getFromPtrEncodingEPKv", scope: !748, file: !749, line: 170, type: !780, scopeLine: 170, flags: DIFlagPublic | DIFlagPrototyped | DIFlagStaticMember, spFlags: DISPFlagOptimized)
!780 = !DISubroutineType(types: !781)
!781 = !{!748, !782}
!782 = !DIDerivedType(tag: DW_TAG_pointer_type, baseType: !783, size: 64)
!783 = !DIDerivedType(tag: DW_TAG_const_type, baseType: null)
!784 = !DISubprogram(name: "print", linkageName: "_ZNK5clang14SourceLocation5printERN4llvm11raw_ostreamERKNS_13SourceManagerE", scope: !748, file: !749, line: 174, type: !785, scopeLine: 174, flags: DIFlagPublic | DIFlagPrototyped, spFlags: DISPFlagOptimized)
!785 = !DISubroutineType(types: !786)
!786 = !{null, !759, !288, !787}
!787 = !DIDerivedType(tag: DW_TAG_reference_type, baseType: !788, size: 64)
!788 = !DIDerivedType(tag: DW_TAG_const_type, baseType: !789)
!789 = distinct !DICompositeType(tag: DW_TAG_class_type, name: "SourceManager", scope: !608, file: !790, line: 538, size: 4928, flags: DIFlagTypePassByReference | DIFlagNonTrivial, elements: !791, identifier: "_ZTSN5clang13SourceManagerE")
!790 = !DIFile(filename: "/faster/fs/llvm34/projects/clang/include/clang/Basic/SourceManager.h", directory: "")
!791 = !{!792, !812, !814, !818, !878, !1426, !1427, !1428, !2124, !2534, !2891, !2892, !2893, !2894, !2896, !3594, !3597, !3631, !3634, !3635, !3636, !3637, !3638, !3639, !3640, !3641, !3642, !3894, !4124, !4125, !4127, !4128, !4324, !4648, !4652, !4656, !4659, !4660, !4663, !4666, !4667, !4670, !4673, !4676, !4679, !4757, !4760, !4763, !4766, !4769, !4772, !4775, !4776, !4777, !4780, !4783, !4786, !4789, !4792, !4795, !4798, !4801, !4804, !4807, !4810, !4813, !4816, !4819, !4822, !4825, !4828, !4831, !4834, !4835, !4836, !4890, !4893, !4894, !4897, !4898, !4899, !4900, !4903, !4904, !4905, !4908, !4911, !4914, !4915, !4919, !4920, !4923, !4927, !4930, !4933, !4936, !4937, !4938, !4939, !4940, !4941, !4942, !4943, !4946, !4950, !4951, !4954, !4955, !4956, !4957, !4960, !4961, !4964, !4967, !4970, !4973, !4974, !4978, !4981, !4985, !4986, !4989, !4992, !4995, !4996, !4997, !4998, !5001, !5005, !5006, !5009, !5012, !5015, !5018, !5019, !5020, !5023, !5024, !5027, !5031, !5032, !5033, !5036, !5037, !5038, !5041, !5044, !5045, !5048, !5049, !5052, !5055, !5058, !5059, !5062, !5065, !5068, !5071, !5072, !5073, !5074, !5075, !5076, !5079, !5082, !5088}
!792 = !DIDerivedType(tag: DW_TAG_inheritance, scope: !789, baseType: !793, flags: DIFlagPublic, extraData: i32 0)
!793 = distinct !DICompositeType(tag: DW_TAG_class_type, name: "RefCountedBase<clang::SourceManager>", scope: !14, file: !618, line: 44, size: 32, flags: DIFlagTypePassByReference | DIFlagNonTrivial, elements: !794, templateParams: !810, identifier: "_ZTSN4llvm14RefCountedBaseIN5clang13SourceManagerEEE")
!794 = !{!795, !796, !800, !805, !809}
!795 = !DIDerivedType(tag: DW_TAG_member, name: "ref_cnt", scope: !793, file: !618, line: 45, baseType: !6, size: 32)
!796 = !DISubprogram(name: "RefCountedBase", scope: !793, file: !618, line: 48, type: !797, scopeLine: 48, flags: DIFlagPublic | DIFlagPrototyped, spFlags: DISPFlagOptimized)
!797 = !DISubroutineType(types: !798)
!798 = !{null, !799}
!799 = !DIDerivedType(tag: DW_TAG_pointer_type, baseType: !793, size: 64, flags: DIFlagArtificial | DIFlagObjectPointer)
!800 = !DISubprogram(name: "RefCountedBase", scope: !793, file: !618, line: 49, type: !801, scopeLine: 49, flags: DIFlagPublic | DIFlagPrototyped, spFlags: DISPFlagOptimized)
!801 = !DISubroutineType(types: !802)
!802 = !{null, !799, !803}
!803 = !DIDerivedType(tag: DW_TAG_reference_type, baseType: !804, size: 64)
!804 = !DIDerivedType(tag: DW_TAG_const_type, baseType: !793)
!805 = !DISubprogram(name: "Retain", linkageName: "_ZNK4llvm14RefCountedBaseIN5clang13SourceManagerEE6RetainEv", scope: !793, file: !618, line: 51, type: !806, scopeLine: 51, flags: DIFlagPublic | DIFlagPrototyped, spFlags: DISPFlagOptimized)
!806 = !DISubroutineType(types: !807)
!807 = !{null, !808}
!808 = !DIDerivedType(tag: DW_TAG_pointer_type, baseType: !804, size: 64, flags: DIFlagArtificial | DIFlagObjectPointer)
!809 = !DISubprogram(name: "Release", linkageName: "_ZNK4llvm14RefCountedBaseIN5clang13SourceManagerEE7ReleaseEv", scope: !793, file: !618, line: 52, type: !806, scopeLine: 52, flags: DIFlagPublic | DIFlagPrototyped, spFlags: DISPFlagOptimized)
!810 = !{!811}
!811 = !DITemplateTypeParameter(name: "Derived", type: !789)
!812 = !DIDerivedType(tag: DW_TAG_member, name: "Diag", scope: !789, file: !790, line: 540, baseType: !813, size: 64, offset: 64)
!813 = !DIDerivedType(tag: DW_TAG_reference_type, baseType: !614, size: 64)
!814 = !DIDerivedType(tag: DW_TAG_member, name: "FileMgr", scope: !789, file: !790, line: 542, baseType: !815, size: 64, offset: 128)
!815 = !DIDerivedType(tag: DW_TAG_reference_type, baseType: !816, size: 64)
!816 = !DICompositeType(tag: DW_TAG_class_type, name: "FileManager", scope: !608, file: !817, line: 121, flags: DIFlagFwdDecl, identifier: "_ZTSN5clang11FileManagerE")
!817 = !DIFile(filename: "/faster/fs/llvm34/projects/clang/include/clang/Basic/FileManager.h", directory: "")
!818 = !DIDerivedType(tag: DW_TAG_member, name: "ContentCacheAlloc", scope: !789, file: !790, line: 544, baseType: !819, size: 576, offset: 192)
!819 = distinct !DICompositeType(tag: DW_TAG_class_type, name: "BumpPtrAllocator", scope: !14, file: !820, line: 90, size: 576, flags: DIFlagTypePassByReference | DIFlagNonTrivial, elements: !821, identifier: "_ZTSN4llvm16BumpPtrAllocatorE")
!820 = !DIFile(filename: "/faster/fs/llvm34/include/llvm/Support/Allocator.h", directory: "")
!821 = !{!822, !823, !824, !826, !829, !835, !836, !837, !838, !844, !845, !848, !851, !854, !857, !860, !861, !862, !865, !868, !872, !875}
!822 = !DIDerivedType(tag: DW_TAG_member, name: "SlabSize", scope: !819, file: !820, line: 96, baseType: !43, size: 64)
!823 = !DIDerivedType(tag: DW_TAG_member, name: "SizeThreshold", scope: !819, file: !820, line: 100, baseType: !43, size: 64, offset: 64)
!824 = !DIDerivedType(tag: DW_TAG_member, name: "DefaultSlabAllocator", scope: !819, file: !820, line: 103, baseType: !825, size: 128, offset: 128)
!825 = !DICompositeType(tag: DW_TAG_class_type, name: "MallocSlabAllocator", scope: !14, file: !820, line: 74, flags: DIFlagFwdDecl, identifier: "_ZTSN4llvm19MallocSlabAllocatorE")
!826 = !DIDerivedType(tag: DW_TAG_member, name: "Allocator", scope: !819, file: !820, line: 108, baseType: !827, size: 64, offset: 256)
!827 = !DIDerivedType(tag: DW_TAG_reference_type, baseType: !828, size: 64)
!828 = !DICompositeType(tag: DW_TAG_class_type, name: "SlabAllocator", scope: !14, file: !820, line: 64, flags: DIFlagFwdDecl, identifier: "_ZTSN4llvm13SlabAllocatorE")
!829 = !DIDerivedType(tag: DW_TAG_member, name: "CurSlab", scope: !819, file: !820, line: 112, baseType: !830, size: 64, offset: 320)
!830 = !DIDerivedType(tag: DW_TAG_pointer_type, baseType: !831, size: 64)
!831 = distinct !DICompositeType(tag: DW_TAG_class_type, name: "MemSlab", scope: !14, file: !820, line: 53, size: 128, flags: DIFlagTypePassByValue, elements: !832, identifier: "_ZTSN4llvm7MemSlabE")
!832 = !{!833, !834}
!833 = !DIDerivedType(tag: DW_TAG_member, name: "Size", scope: !831, file: !820, line: 55, baseType: !43, size: 64, flags: DIFlagPublic)
!834 = !DIDerivedType(tag: DW_TAG_member, name: "NextPtr", scope: !831, file: !820, line: 56, baseType: !830, size: 64, offset: 64, flags: DIFlagPublic)
!835 = !DIDerivedType(tag: DW_TAG_member, name: "CurPtr", scope: !819, file: !820, line: 116, baseType: !435, size: 64, offset: 384)
!836 = !DIDerivedType(tag: DW_TAG_member, name: "End", scope: !819, file: !820, line: 120, baseType: !435, size: 64, offset: 448)
!837 = !DIDerivedType(tag: DW_TAG_member, name: "BytesAllocated", scope: !819, file: !820, line: 124, baseType: !43, size: 64, offset: 512)
!838 = !DISubprogram(name: "BumpPtrAllocator", scope: !819, file: !820, line: 91, type: !839, scopeLine: 91, flags: DIFlagPrototyped, spFlags: DISPFlagOptimized | DISPFlagDeleted)
!839 = !DISubroutineType(types: !840)
!840 = !{null, !841, !842}
!841 = !DIDerivedType(tag: DW_TAG_pointer_type, baseType: !819, size: 64, flags: DIFlagArtificial | DIFlagObjectPointer)
!842 = !DIDerivedType(tag: DW_TAG_reference_type, baseType: !843, size: 64)
!843 = !DIDerivedType(tag: DW_TAG_const_type, baseType: !819)
!844 = !DISubprogram(name: "operator=", linkageName: "_ZN4llvm16BumpPtrAllocatoraSERKS0_", scope: !819, file: !820, line: 92, type: !839, scopeLine: 92, flags: DIFlagPrototyped, spFlags: DISPFlagOptimized | DISPFlagDeleted)
!845 = !DISubprogram(name: "AlignPtr", linkageName: "_ZN4llvm16BumpPtrAllocator8AlignPtrEPcm", scope: !819, file: !820, line: 129, type: !846, scopeLine: 129, flags: DIFlagPrototyped | DIFlagStaticMember, spFlags: DISPFlagOptimized)
!846 = !DISubroutineType(types: !847)
!847 = !{!435, !435, !43}
!848 = !DISubprogram(name: "StartNewSlab", linkageName: "_ZN4llvm16BumpPtrAllocator12StartNewSlabEv", scope: !819, file: !820, line: 133, type: !849, scopeLine: 133, flags: DIFlagPrototyped, spFlags: DISPFlagOptimized)
!849 = !DISubroutineType(types: !850)
!850 = !{null, !841}
!851 = !DISubprogram(name: "DeallocateSlabs", linkageName: "_ZN4llvm16BumpPtrAllocator15DeallocateSlabsEPNS_7MemSlabE", scope: !819, file: !820, line: 137, type: !852, scopeLine: 137, flags: DIFlagPrototyped, spFlags: DISPFlagOptimized)
!852 = !DISubroutineType(types: !853)
!853 = !{null, !841, !830}
!854 = !DISubprogram(name: "BumpPtrAllocator", scope: !819, file: !820, line: 141, type: !855, scopeLine: 141, flags: DIFlagPublic | DIFlagPrototyped, spFlags: DISPFlagOptimized)
!855 = !DISubroutineType(types: !856)
!856 = !{null, !841, !43, !43}
!857 = !DISubprogram(name: "BumpPtrAllocator", scope: !819, file: !820, line: 142, type: !858, scopeLine: 142, flags: DIFlagPublic | DIFlagPrototyped, spFlags: DISPFlagOptimized)
!858 = !DISubroutineType(types: !859)
!859 = !{null, !841, !43, !43, !827}
!860 = !DISubprogram(name: "~BumpPtrAllocator", scope: !819, file: !820, line: 143, type: !849, scopeLine: 143, flags: DIFlagPublic | DIFlagPrototyped, spFlags: DISPFlagOptimized)
!861 = !DISubprogram(name: "Reset", linkageName: "_ZN4llvm16BumpPtrAllocator5ResetEv", scope: !819, file: !820, line: 147, type: !849, scopeLine: 147, flags: DIFlagPublic | DIFlagPrototyped, spFlags: DISPFlagOptimized)
!862 = !DISubprogram(name: "Allocate", linkageName: "_ZN4llvm16BumpPtrAllocator8AllocateEmm", scope: !819, file: !820, line: 151, type: !863, scopeLine: 151, flags: DIFlagPublic | DIFlagPrototyped, spFlags: DISPFlagOptimized)
!863 = !DISubroutineType(types: !864)
!864 = !{!375, !841, !43, !43}
!865 = !DISubprogram(name: "Deallocate", linkageName: "_ZN4llvm16BumpPtrAllocator10DeallocateEPKv", scope: !819, file: !820, line: 176, type: !866, scopeLine: 176, flags: DIFlagPublic | DIFlagPrototyped, spFlags: DISPFlagOptimized)
!866 = !DISubroutineType(types: !867)
!867 = !{null, !841, !782}
!868 = !DISubprogram(name: "GetNumSlabs", linkageName: "_ZNK4llvm16BumpPtrAllocator11GetNumSlabsEv", scope: !819, file: !820, line: 178, type: !869, scopeLine: 178, flags: DIFlagPublic | DIFlagPrototyped, spFlags: DISPFlagOptimized)
!869 = !DISubroutineType(types: !870)
!870 = !{!6, !871}
!871 = !DIDerivedType(tag: DW_TAG_pointer_type, baseType: !843, size: 64, flags: DIFlagArtificial | DIFlagObjectPointer)
!872 = !DISubprogram(name: "PrintStats", linkageName: "_ZNK4llvm16BumpPtrAllocator10PrintStatsEv", scope: !819, file: !820, line: 180, type: !873, scopeLine: 180, flags: DIFlagPublic | DIFlagPrototyped, spFlags: DISPFlagOptimized)
!873 = !DISubroutineType(types: !874)
!874 = !{null, !871}
!875 = !DISubprogram(name: "getTotalMemory", linkageName: "_ZNK4llvm16BumpPtrAllocator14getTotalMemoryEv", scope: !819, file: !820, line: 183, type: !876, scopeLine: 183, flags: DIFlagPublic | DIFlagPrototyped, spFlags: DISPFlagOptimized)
!876 = !DISubroutineType(types: !877)
!877 = !{!43, !871}
!878 = !DIDerivedType(tag: DW_TAG_member, name: "FileInfos", scope: !789, file: !790, line: 552, baseType: !879, size: 192, offset: 768)
!879 = distinct !DICompositeType(tag: DW_TAG_class_type, name: "DenseMap<const clang::FileEntry *, clang::SrcMgr::ContentCache *, llvm::DenseMapInfo<const clang::FileEntry *> >", scope: !14, file: !880, line: 534, size: 192, flags: DIFlagTypePassByReference | DIFlagNonTrivial, elements: !881, templateParams: !1425, identifier: "_ZTSN4llvm8DenseMapIPKN5clang9FileEntryEPNS1_6SrcMgr12ContentCacheENS_12DenseMapInfoIS4_EEEE")
!880 = !DIFile(filename: "/faster/fs/llvm34/include/llvm/ADT/DenseMap.h", directory: "")
!881 = !{!882, !1375, !1378, !1379, !1380, !1381, !1385, !1390, !1394, !1397, !1401, !1404, !1407, !1408, !1409, !1410, !1411, !1415, !1416, !1417, !1418, !1421, !1422}
!882 = !DIDerivedType(tag: DW_TAG_inheritance, scope: !879, baseType: !883, flags: DIFlagPublic, extraData: i32 0)
!883 = distinct !DICompositeType(tag: DW_TAG_class_type, name: "DenseMapBase<llvm::DenseMap<const clang::FileEntry *, clang::SrcMgr::ContentCache *, llvm::DenseMapInfo<const clang::FileEntry *> >, const clang::FileEntry *, clang::SrcMgr::ContentCache *, llvm::DenseMapInfo<const clang::FileEntry *> >", scope: !14, file: !880, line: 41, size: 8, flags: DIFlagTypePassByValue | DIFlagNonTrivial, elements: !884, templateParams: !1373, identifier: "_ZTSN4llvm12DenseMapBaseINS_8DenseMapIPKN5clang9FileEntryEPNS2_6SrcMgr12ContentCacheENS_12DenseMapInfoIS5_EEEES5_S8_SA_EE")
!884 = !{!885, !891, !892, !1251, !1252, !1255, !1258, !1261, !1264, !1269, !1272, !1275, !1278, !1282, !1285, !1288, !1291, !1297, !1301, !1305, !1308, !1311, !1314, !1315, !1316, !1317, !1321, !1325, !1328, !1331, !1332, !1333, !1336, !1337, !1338, !1339, !1340, !1341, !1342, !1347, !1350, !1351, !1352, !1353, !1354, !1355, !1360, !1364, !1367, !1370}
!885 = !DISubprogram(name: "begin", linkageName: "_ZN4llvm12DenseMapBaseINS_8DenseMapIPKN5clang9FileEntryEPNS2_6SrcMgr12ContentCacheENS_12DenseMapInfoIS5_EEEES5_S8_SA_E5beginEv", scope: !883, file: !880, line: 53, type: !886, scopeLine: 53, flags: DIFlagPublic | DIFlagPrototyped, spFlags: DISPFlagOptimized)
!886 = !DISubroutineType(types: !887)
!887 = !{!888, !890}
!888 = !DIDerivedType(tag: DW_TAG_typedef, name: "iterator", scope: !883, file: !880, line: 50, baseType: !889)
!889 = !DICompositeType(tag: DW_TAG_class_type, name: "DenseMapIterator<const clang::FileEntry *, clang::SrcMgr::ContentCache *, llvm::DenseMapInfo<const clang::FileEntry *>, false>", scope: !14, file: !880, line: 987, flags: DIFlagFwdDecl, identifier: "_ZTSN4llvm16DenseMapIteratorIPKN5clang9FileEntryEPNS1_6SrcMgr12ContentCacheENS_12DenseMapInfoIS4_EELb0EEE")
!890 = !DIDerivedType(tag: DW_TAG_pointer_type, baseType: !883, size: 64, flags: DIFlagArtificial | DIFlagObjectPointer)
!891 = !DISubprogram(name: "end", linkageName: "_ZN4llvm12DenseMapBaseINS_8DenseMapIPKN5clang9FileEntryEPNS2_6SrcMgr12ContentCacheENS_12DenseMapInfoIS5_EEEES5_S8_SA_E3endEv", scope: !883, file: !880, line: 57, type: !886, scopeLine: 57, flags: DIFlagPublic | DIFlagPrototyped, spFlags: DISPFlagOptimized)
!892 = !DISubprogram(name: "begin", linkageName: "_ZNK4llvm12DenseMapBaseINS_8DenseMapIPKN5clang9FileEntryEPNS2_6SrcMgr12ContentCacheENS_12DenseMapInfoIS5_EEEES5_S8_SA_E5beginEv", scope: !883, file: !880, line: 60, type: !893, scopeLine: 60, flags: DIFlagPublic | DIFlagPrototyped, spFlags: DISPFlagOptimized)
!893 = !DISubroutineType(types: !894)
!894 = !{!895, !1249}
!895 = !DIDerivedType(tag: DW_TAG_typedef, name: "const_iterator", scope: !883, file: !880, line: 52, baseType: !896)
!896 = distinct !DICompositeType(tag: DW_TAG_class_type, name: "DenseMapIterator<const clang::FileEntry *, clang::SrcMgr::ContentCache *, llvm::DenseMapInfo<const clang::FileEntry *>, true>", scope: !14, file: !880, line: 987, size: 128, flags: DIFlagTypePassByValue | DIFlagNonTrivial, elements: !897, templateParams: !1229, identifier: "_ZTSN4llvm16DenseMapIteratorIPKN5clang9FileEntryEPNS1_6SrcMgr12ContentCacheENS_12DenseMapInfoIS4_EELb1EEE")
!897 = !{!898, !1191, !1192, !1196, !1199, !1204, !1211, !1214, !1220, !1221, !1225, !1228}
!898 = !DIDerivedType(tag: DW_TAG_member, name: "Ptr", scope: !896, file: !880, line: 999, baseType: !899, size: 64)
!899 = !DIDerivedType(tag: DW_TAG_typedef, name: "pointer", scope: !896, file: !880, line: 995, baseType: !900)
!900 = !DIDerivedType(tag: DW_TAG_pointer_type, baseType: !901, size: 64)
!901 = !DIDerivedType(tag: DW_TAG_typedef, name: "value_type", scope: !896, file: !880, line: 994, baseType: !902)
!902 = !DIDerivedType(tag: DW_TAG_typedef, name: "type", scope: !904, file: !903, line: 233, baseType: !908)
!903 = !DIFile(filename: "/faster/fs/llvm34/include/llvm/Support/type_traits.h", directory: "")
!904 = distinct !DICompositeType(tag: DW_TAG_structure_type, name: "conditional<true, const std::pair<const clang::FileEntry *, clang::SrcMgr::ContentCache *>, std::pair<const clang::FileEntry *, clang::SrcMgr::ContentCache *> >", scope: !14, file: !903, line: 233, size: 8, flags: DIFlagTypePassByValue, elements: !195, templateParams: !905, identifier: "_ZTSN4llvm11conditionalILb1EKSt4pairIPKN5clang9FileEntryEPNS2_6SrcMgr12ContentCacheEES9_EE")
!905 = !{!906, !907, !1190}
!906 = !DITemplateValueParameter(type: !82, value: i8 1)
!907 = !DITemplateTypeParameter(name: "T", type: !908)
!908 = !DIDerivedType(tag: DW_TAG_const_type, baseType: !909)
!909 = distinct !DICompositeType(tag: DW_TAG_structure_type, name: "pair<const clang::FileEntry *, clang::SrcMgr::ContentCache *>", scope: !32, file: !154, line: 208, size: 128, flags: DIFlagTypePassByValue | DIFlagNonTrivial, elements: !910, templateParams: !1187, identifier: "_ZTSSt4pairIPKN5clang9FileEntryEPNS0_6SrcMgr12ContentCacheEE")
!910 = !{!911, !1158, !1159, !1160, !1165, !1169, !1177, !1184}
!911 = !DIDerivedType(tag: DW_TAG_inheritance, scope: !909, baseType: !912, flags: DIFlagPrivate, extraData: i32 0)
!912 = distinct !DICompositeType(tag: DW_TAG_class_type, name: "__pair_base<const clang::FileEntry *, clang::SrcMgr::ContentCache *>", scope: !32, file: !154, line: 190, size: 8, flags: DIFlagTypePassByValue, elements: !913, templateParams: !928, identifier: "_ZTSSt11__pair_baseIPKN5clang9FileEntryEPNS0_6SrcMgr12ContentCacheEE")
!913 = !{!914, !918, !919, !924}
!914 = !DISubprogram(name: "__pair_base", scope: !912, file: !154, line: 194, type: !915, scopeLine: 194, flags: DIFlagPrototyped, spFlags: DISPFlagOptimized)
!915 = !DISubroutineType(types: !916)
!916 = !{null, !917}
!917 = !DIDerivedType(tag: DW_TAG_pointer_type, baseType: !912, size: 64, flags: DIFlagArtificial | DIFlagObjectPointer)
!918 = !DISubprogram(name: "~__pair_base", scope: !912, file: !154, line: 195, type: !915, scopeLine: 195, flags: DIFlagPrototyped, spFlags: DISPFlagOptimized)
!919 = !DISubprogram(name: "__pair_base", scope: !912, file: !154, line: 196, type: !920, scopeLine: 196, flags: DIFlagPrototyped, spFlags: DISPFlagOptimized)
!920 = !DISubroutineType(types: !921)
!921 = !{null, !917, !922}
!922 = !DIDerivedType(tag: DW_TAG_reference_type, baseType: !923, size: 64)
!923 = !DIDerivedType(tag: DW_TAG_const_type, baseType: !912)
!924 = !DISubprogram(name: "operator=", linkageName: "_ZNSt11__pair_baseIPKN5clang9FileEntryEPNS0_6SrcMgr12ContentCacheEEaSERKS7_", scope: !912, file: !154, line: 197, type: !925, scopeLine: 197, flags: DIFlagPrototyped, spFlags: DISPFlagOptimized | DISPFlagDeleted)
!925 = !DISubroutineType(types: !926)
!926 = !{!927, !917, !922}
!927 = !DIDerivedType(tag: DW_TAG_reference_type, baseType: !912, size: 64)
!928 = !{!929, !1017}
!929 = !DITemplateTypeParameter(name: "_U1", type: !930)
!930 = !DIDerivedType(tag: DW_TAG_pointer_type, baseType: !931, size: 64)
!931 = !DIDerivedType(tag: DW_TAG_const_type, baseType: !932)
!932 = distinct !DICompositeType(tag: DW_TAG_class_type, name: "FileEntry", scope: !608, file: !817, line: 60, size: 512, flags: DIFlagTypePassByReference | DIFlagNonTrivial, elements: !933, identifier: "_ZTSN5clang9FileEntryE")
!933 = !{!934, !935, !939, !943, !947, !948, !975, !976, !977, !978, !982, !985, !989, !990, !991, !995, !998, !1001, !1004, !1007, !1010, !1013, !1016}
!934 = !DIDerivedType(tag: DW_TAG_member, name: "Name", scope: !932, file: !817, line: 61, baseType: !23, size: 64)
!935 = !DIDerivedType(tag: DW_TAG_member, name: "Size", scope: !932, file: !817, line: 62, baseType: !936, size: 64, offset: 64)
!936 = !DIDerivedType(tag: DW_TAG_typedef, name: "off_t", file: !937, line: 86, baseType: !938)
!937 = !DIFile(filename: "/usr/include/x86_64-linux-gnu/sys/types.h", directory: "")
!938 = !DIDerivedType(tag: DW_TAG_typedef, name: "__off_t", file: !256, line: 140, baseType: !241)
!939 = !DIDerivedType(tag: DW_TAG_member, name: "ModTime", scope: !932, file: !817, line: 63, baseType: !940, size: 64, offset: 128)
!940 = !DIDerivedType(tag: DW_TAG_typedef, name: "time_t", file: !941, line: 7, baseType: !942)
!941 = !DIFile(filename: "/usr/include/x86_64-linux-gnu/bits/types/time_t.h", directory: "")
!942 = !DIDerivedType(tag: DW_TAG_typedef, name: "__time_t", file: !256, line: 148, baseType: !241)
!943 = !DIDerivedType(tag: DW_TAG_member, name: "Dir", scope: !932, file: !817, line: 64, baseType: !944, size: 64, offset: 192)
!944 = !DIDerivedType(tag: DW_TAG_pointer_type, baseType: !945, size: 64)
!945 = !DIDerivedType(tag: DW_TAG_const_type, baseType: !946)
!946 = !DICompositeType(tag: DW_TAG_class_type, name: "DirectoryEntry", scope: !608, file: !817, line: 47, flags: DIFlagFwdDecl, identifier: "_ZTSN5clang14DirectoryEntryE")
!947 = !DIDerivedType(tag: DW_TAG_member, name: "UID", scope: !932, file: !817, line: 65, baseType: !6, size: 32, offset: 256)
!948 = !DIDerivedType(tag: DW_TAG_member, name: "UniqueID", scope: !932, file: !817, line: 66, baseType: !949, size: 128, offset: 320)
!949 = distinct !DICompositeType(tag: DW_TAG_class_type, name: "UniqueID", scope: !951, file: !950, line: 128, size: 128, flags: DIFlagTypePassByValue | DIFlagNonTrivial, elements: !953, identifier: "_ZTSN4llvm3sys2fs8UniqueIDE")
!950 = !DIFile(filename: "/faster/fs/llvm34/include/llvm/Support/FileSystem.h", directory: "")
!951 = !DINamespace(name: "fs", scope: !952)
!952 = !DINamespace(name: "sys", scope: !14)
!953 = !{!954, !955, !956, !960, !963, !969, !970, !971, !974}
!954 = !DIDerivedType(tag: DW_TAG_member, name: "Device", scope: !949, file: !950, line: 129, baseType: !253, size: 64)
!955 = !DIDerivedType(tag: DW_TAG_member, name: "File", scope: !949, file: !950, line: 130, baseType: !253, size: 64, offset: 64)
!956 = !DISubprogram(name: "UniqueID", scope: !949, file: !950, line: 133, type: !957, scopeLine: 133, flags: DIFlagPublic | DIFlagPrototyped, spFlags: DISPFlagOptimized)
!957 = !DISubroutineType(types: !958)
!958 = !{null, !959}
!959 = !DIDerivedType(tag: DW_TAG_pointer_type, baseType: !949, size: 64, flags: DIFlagArtificial | DIFlagObjectPointer)
!960 = !DISubprogram(name: "UniqueID", scope: !949, file: !950, line: 134, type: !961, scopeLine: 134, flags: DIFlagPublic | DIFlagPrototyped, spFlags: DISPFlagOptimized)
!961 = !DISubroutineType(types: !962)
!962 = !{null, !959, !253, !253}
!963 = !DISubprogram(name: "operator==", linkageName: "_ZNK4llvm3sys2fs8UniqueIDeqERKS2_", scope: !949, file: !950, line: 135, type: !964, scopeLine: 135, flags: DIFlagPublic | DIFlagPrototyped, spFlags: DISPFlagOptimized)
!964 = !DISubroutineType(types: !965)
!965 = !{!82, !966, !968}
!966 = !DIDerivedType(tag: DW_TAG_pointer_type, baseType: !967, size: 64, flags: DIFlagArtificial | DIFlagObjectPointer)
!967 = !DIDerivedType(tag: DW_TAG_const_type, baseType: !949)
!968 = !DIDerivedType(tag: DW_TAG_reference_type, baseType: !967, size: 64)
!969 = !DISubprogram(name: "operator!=", linkageName: "_ZNK4llvm3sys2fs8UniqueIDneERKS2_", scope: !949, file: !950, line: 138, type: !964, scopeLine: 138, flags: DIFlagPublic | DIFlagPrototyped, spFlags: DISPFlagOptimized)
!970 = !DISubprogram(name: "operator<", linkageName: "_ZNK4llvm3sys2fs8UniqueIDltERKS2_", scope: !949, file: !950, line: 139, type: !964, scopeLine: 139, flags: DIFlagPublic | DIFlagPrototyped, spFlags: DISPFlagOptimized)
!971 = !DISubprogram(name: "getDevice", linkageName: "_ZNK4llvm3sys2fs8UniqueID9getDeviceEv", scope: !949, file: !950, line: 143, type: !972, scopeLine: 143, flags: DIFlagPublic | DIFlagPrototyped, spFlags: DISPFlagOptimized)
!972 = !DISubroutineType(types: !973)
!973 = !{!253, !966}
!974 = !DISubprogram(name: "getFile", linkageName: "_ZNK4llvm3sys2fs8UniqueID7getFileEv", scope: !949, file: !950, line: 144, type: !972, scopeLine: 144, flags: DIFlagPublic | DIFlagPrototyped, spFlags: DISPFlagOptimized)
!975 = !DIDerivedType(tag: DW_TAG_member, name: "IsNamedPipe", scope: !932, file: !817, line: 67, baseType: !82, size: 8, offset: 448)
!976 = !DIDerivedType(tag: DW_TAG_member, name: "InPCH", scope: !932, file: !817, line: 68, baseType: !82, size: 8, offset: 456)
!977 = !DIDerivedType(tag: DW_TAG_member, name: "FD", scope: !932, file: !817, line: 72, baseType: !55, size: 32, offset: 480)
!978 = !DISubprogram(name: "FileEntry", scope: !932, file: !817, line: 76, type: !979, scopeLine: 76, flags: DIFlagPublic | DIFlagPrototyped, spFlags: DISPFlagOptimized)
!979 = !DISubroutineType(types: !980)
!980 = !{null, !981, !949, !82, !82}
!981 = !DIDerivedType(tag: DW_TAG_pointer_type, baseType: !932, size: 64, flags: DIFlagArtificial | DIFlagObjectPointer)
!982 = !DISubprogram(name: "FileEntry", scope: !932, file: !817, line: 80, type: !983, scopeLine: 80, flags: DIFlagPublic | DIFlagPrototyped, spFlags: DISPFlagOptimized)
!983 = !DISubroutineType(types: !984)
!984 = !{null, !981}
!985 = !DISubprogram(name: "FileEntry", scope: !932, file: !817, line: 83, type: !986, scopeLine: 83, flags: DIFlagPublic | DIFlagPrototyped, spFlags: DISPFlagOptimized)
!986 = !DISubroutineType(types: !987)
!987 = !{null, !981, !988}
!988 = !DIDerivedType(tag: DW_TAG_reference_type, baseType: !931, size: 64)
!989 = !DISubprogram(name: "operator=", linkageName: "_ZN5clang9FileEntryaSERKS0_", scope: !932, file: !817, line: 88, type: !986, scopeLine: 88, flags: DIFlagPublic | DIFlagPrototyped, spFlags: DISPFlagOptimized)
!990 = !DISubprogram(name: "~FileEntry", scope: !932, file: !817, line: 93, type: !983, scopeLine: 93, flags: DIFlagPublic | DIFlagPrototyped, spFlags: DISPFlagOptimized)
!991 = !DISubprogram(name: "getName", linkageName: "_ZNK5clang9FileEntry7getNameEv", scope: !932, file: !817, line: 95, type: !992, scopeLine: 95, flags: DIFlagPublic | DIFlagPrototyped, spFlags: DISPFlagOptimized)
!992 = !DISubroutineType(types: !993)
!993 = !{!23, !994}
!994 = !DIDerivedType(tag: DW_TAG_pointer_type, baseType: !931, size: 64, flags: DIFlagArtificial | DIFlagObjectPointer)
!995 = !DISubprogram(name: "getSize", linkageName: "_ZNK5clang9FileEntry7getSizeEv", scope: !932, file: !817, line: 96, type: !996, scopeLine: 96, flags: DIFlagPublic | DIFlagPrototyped, spFlags: DISPFlagOptimized)
!996 = !DISubroutineType(types: !997)
!997 = !{!936, !994}
!998 = !DISubprogram(name: "getUID", linkageName: "_ZNK5clang9FileEntry6getUIDEv", scope: !932, file: !817, line: 97, type: !999, scopeLine: 97, flags: DIFlagPublic | DIFlagPrototyped, spFlags: DISPFlagOptimized)
!999 = !DISubroutineType(types: !1000)
!1000 = !{!6, !994}
!1001 = !DISubprogram(name: "getUniqueID", linkageName: "_ZNK5clang9FileEntry11getUniqueIDEv", scope: !932, file: !817, line: 98, type: !1002, scopeLine: 98, flags: DIFlagPublic | DIFlagPrototyped, spFlags: DISPFlagOptimized)
!1002 = !DISubroutineType(types: !1003)
!1003 = !{!968, !994}
!1004 = !DISubprogram(name: "isInPCH", linkageName: "_ZNK5clang9FileEntry7isInPCHEv", scope: !932, file: !817, line: 99, type: !1005, scopeLine: 99, flags: DIFlagPublic | DIFlagPrototyped, spFlags: DISPFlagOptimized)
!1005 = !DISubroutineType(types: !1006)
!1006 = !{!82, !994}
!1007 = !DISubprogram(name: "getModificationTime", linkageName: "_ZNK5clang9FileEntry19getModificationTimeEv", scope: !932, file: !817, line: 100, type: !1008, scopeLine: 100, flags: DIFlagPublic | DIFlagPrototyped, spFlags: DISPFlagOptimized)
!1008 = !DISubroutineType(types: !1009)
!1009 = !{!940, !994}
!1010 = !DISubprogram(name: "getDir", linkageName: "_ZNK5clang9FileEntry6getDirEv", scope: !932, file: !817, line: 103, type: !1011, scopeLine: 103, flags: DIFlagPublic | DIFlagPrototyped, spFlags: DISPFlagOptimized)
!1011 = !DISubroutineType(types: !1012)
!1012 = !{!944, !994}
!1013 = !DISubprogram(name: "operator<", linkageName: "_ZNK5clang9FileEntryltERKS0_", scope: !932, file: !817, line: 105, type: !1014, scopeLine: 105, flags: DIFlagPublic | DIFlagPrototyped, spFlags: DISPFlagOptimized)
!1014 = !DISubroutineType(types: !1015)
!1015 = !{!82, !994, !988}
!1016 = !DISubprogram(name: "isNamedPipe", linkageName: "_ZNK5clang9FileEntry11isNamedPipeEv", scope: !932, file: !817, line: 109, type: !1005, scopeLine: 109, flags: DIFlagPublic | DIFlagPrototyped, spFlags: DISPFlagOptimized)
!1017 = !DITemplateTypeParameter(name: "_U2", type: !1018)
!1018 = !DIDerivedType(tag: DW_TAG_pointer_type, baseType: !1019, size: 64)
!1019 = distinct !DICompositeType(tag: DW_TAG_class_type, name: "ContentCache", scope: !1020, file: !790, line: 84, size: 320, flags: DIFlagTypePassByReference | DIFlagNonTrivial, elements: !1021, identifier: "_ZTSN5clang6SrcMgr12ContentCacheE")
!1020 = !DINamespace(name: "SrcMgr", scope: !608)
!1021 = !{!1022, !1103, !1104, !1105, !1107, !1108, !1109, !1110, !1114, !1117, !1120, !1125, !1130, !1133, !1134, !1141, !1144, !1147, !1150, !1153, !1154}
!1022 = !DIDerivedType(tag: DW_TAG_member, name: "Buffer", scope: !1019, file: !790, line: 97, baseType: !1023, size: 64)
!1023 = distinct !DICompositeType(tag: DW_TAG_class_type, name: "PointerIntPair<const llvm::MemoryBuffer *, 2, unsigned int, llvm::PointerLikeTypeTraits<const llvm::MemoryBuffer *> >", scope: !14, file: !1024, line: 42, size: 64, flags: DIFlagTypePassByValue | DIFlagNonTrivial, elements: !1025, templateParams: !1087, identifier: "_ZTSN4llvm14PointerIntPairIPKNS_12MemoryBufferELj2EjNS_21PointerLikeTypeTraitsIS3_EEEE")
!1024 = !DIFile(filename: "/faster/fs/llvm34/include/llvm/ADT/PointerIntPair.h", directory: "")
!1025 = !{!1026, !1029, !1033, !1040, !1043, !1048, !1051, !1052, !1055, !1056, !1057, !1062, !1066, !1069, !1072, !1075, !1078, !1082, !1083, !1084, !1085, !1086}
!1026 = !DIDerivedType(tag: DW_TAG_member, name: "Value", scope: !1023, file: !1024, line: 43, baseType: !1027, size: 64)
!1027 = !DIDerivedType(tag: DW_TAG_typedef, name: "intptr_t", file: !1028, line: 97, baseType: !241)
!1028 = !DIFile(filename: "/usr/include/stdint.h", directory: "")
!1029 = !DISubprogram(name: "PointerIntPair", scope: !1023, file: !1024, line: 60, type: !1030, scopeLine: 60, flags: DIFlagPublic | DIFlagPrototyped, spFlags: DISPFlagOptimized)
!1030 = !DISubroutineType(types: !1031)
!1031 = !{null, !1032}
!1032 = !DIDerivedType(tag: DW_TAG_pointer_type, baseType: !1023, size: 64, flags: DIFlagArtificial | DIFlagObjectPointer)
!1033 = !DISubprogram(name: "PointerIntPair", scope: !1023, file: !1024, line: 61, type: !1034, scopeLine: 61, flags: DIFlagPublic | DIFlagPrototyped, spFlags: DISPFlagOptimized)
!1034 = !DISubroutineType(types: !1035)
!1035 = !{null, !1032, !1036, !6}
!1036 = !DIDerivedType(tag: DW_TAG_pointer_type, baseType: !1037, size: 64)
!1037 = !DIDerivedType(tag: DW_TAG_const_type, baseType: !1038)
!1038 = !DICompositeType(tag: DW_TAG_class_type, name: "MemoryBuffer", scope: !14, file: !1039, line: 38, flags: DIFlagFwdDecl, identifier: "_ZTSN4llvm12MemoryBufferE")
!1039 = !DIFile(filename: "/faster/fs/llvm34/include/llvm/Support/MemoryBuffer.h", directory: "")
!1040 = !DISubprogram(name: "PointerIntPair", scope: !1023, file: !1024, line: 66, type: !1041, scopeLine: 66, flags: DIFlagPublic | DIFlagExplicit | DIFlagPrototyped, spFlags: DISPFlagOptimized)
!1041 = !DISubroutineType(types: !1042)
!1042 = !{null, !1032, !1036}
!1043 = !DISubprogram(name: "getPointer", linkageName: "_ZNK4llvm14PointerIntPairIPKNS_12MemoryBufferELj2EjNS_21PointerLikeTypeTraitsIS3_EEE10getPointerEv", scope: !1023, file: !1024, line: 70, type: !1044, scopeLine: 70, flags: DIFlagPublic | DIFlagPrototyped, spFlags: DISPFlagOptimized)
!1044 = !DISubroutineType(types: !1045)
!1045 = !{!1036, !1046}
!1046 = !DIDerivedType(tag: DW_TAG_pointer_type, baseType: !1047, size: 64, flags: DIFlagArtificial | DIFlagObjectPointer)
!1047 = !DIDerivedType(tag: DW_TAG_const_type, baseType: !1023)
!1048 = !DISubprogram(name: "getInt", linkageName: "_ZNK4llvm14PointerIntPairIPKNS_12MemoryBufferELj2EjNS_21PointerLikeTypeTraitsIS3_EEE6getIntEv", scope: !1023, file: !1024, line: 75, type: !1049, scopeLine: 75, flags: DIFlagPublic | DIFlagPrototyped, spFlags: DISPFlagOptimized)
!1049 = !DISubroutineType(types: !1050)
!1050 = !{!6, !1046}
!1051 = !DISubprogram(name: "setPointer", linkageName: "_ZN4llvm14PointerIntPairIPKNS_12MemoryBufferELj2EjNS_21PointerLikeTypeTraitsIS3_EEE10setPointerES3_", scope: !1023, file: !1024, line: 79, type: !1041, scopeLine: 79, flags: DIFlagPublic | DIFlagPrototyped, spFlags: DISPFlagOptimized)
!1052 = !DISubprogram(name: "setInt", linkageName: "_ZN4llvm14PointerIntPairIPKNS_12MemoryBufferELj2EjNS_21PointerLikeTypeTraitsIS3_EEE6setIntEj", scope: !1023, file: !1024, line: 88, type: !1053, scopeLine: 88, flags: DIFlagPublic | DIFlagPrototyped, spFlags: DISPFlagOptimized)
!1053 = !DISubroutineType(types: !1054)
!1054 = !{null, !1032, !6}
!1055 = !DISubprogram(name: "initWithPointer", linkageName: "_ZN4llvm14PointerIntPairIPKNS_12MemoryBufferELj2EjNS_21PointerLikeTypeTraitsIS3_EEE15initWithPointerES3_", scope: !1023, file: !1024, line: 97, type: !1041, scopeLine: 97, flags: DIFlagPublic | DIFlagPrototyped, spFlags: DISPFlagOptimized)
!1056 = !DISubprogram(name: "setPointerAndInt", linkageName: "_ZN4llvm14PointerIntPairIPKNS_12MemoryBufferELj2EjNS_21PointerLikeTypeTraitsIS3_EEE16setPointerAndIntES3_j", scope: !1023, file: !1024, line: 105, type: !1034, scopeLine: 105, flags: DIFlagPublic | DIFlagPrototyped, spFlags: DISPFlagOptimized)
!1057 = !DISubprogram(name: "getAddrOfPointer", linkageName: "_ZNK4llvm14PointerIntPairIPKNS_12MemoryBufferELj2EjNS_21PointerLikeTypeTraitsIS3_EEE16getAddrOfPointerEv", scope: !1023, file: !1024, line: 116, type: !1058, scopeLine: 116, flags: DIFlagPublic | DIFlagPrototyped, spFlags: DISPFlagOptimized)
!1058 = !DISubroutineType(types: !1059)
!1059 = !{!1060, !1046}
!1060 = !DIDerivedType(tag: DW_TAG_pointer_type, baseType: !1061, size: 64)
!1061 = !DIDerivedType(tag: DW_TAG_const_type, baseType: !1036)
!1062 = !DISubprogram(name: "getAddrOfPointer", linkageName: "_ZN4llvm14PointerIntPairIPKNS_12MemoryBufferELj2EjNS_21PointerLikeTypeTraitsIS3_EEE16getAddrOfPointerEv", scope: !1023, file: !1024, line: 120, type: !1063, scopeLine: 120, flags: DIFlagPublic | DIFlagPrototyped, spFlags: DISPFlagOptimized)
!1063 = !DISubroutineType(types: !1064)
!1064 = !{!1065, !1032}
!1065 = !DIDerivedType(tag: DW_TAG_pointer_type, baseType: !1036, size: 64)
!1066 = !DISubprogram(name: "getOpaqueValue", linkageName: "_ZNK4llvm14PointerIntPairIPKNS_12MemoryBufferELj2EjNS_21PointerLikeTypeTraitsIS3_EEE14getOpaqueValueEv", scope: !1023, file: !1024, line: 127, type: !1067, scopeLine: 127, flags: DIFlagPublic | DIFlagPrototyped, spFlags: DISPFlagOptimized)
!1067 = !DISubroutineType(types: !1068)
!1068 = !{!375, !1046}
!1069 = !DISubprogram(name: "setFromOpaqueValue", linkageName: "_ZN4llvm14PointerIntPairIPKNS_12MemoryBufferELj2EjNS_21PointerLikeTypeTraitsIS3_EEE18setFromOpaqueValueEPv", scope: !1023, file: !1024, line: 128, type: !1070, scopeLine: 128, flags: DIFlagPublic | DIFlagPrototyped, spFlags: DISPFlagOptimized)
!1070 = !DISubroutineType(types: !1071)
!1071 = !{null, !1032, !375}
!1072 = !DISubprogram(name: "getFromOpaqueValue", linkageName: "_ZN4llvm14PointerIntPairIPKNS_12MemoryBufferELj2EjNS_21PointerLikeTypeTraitsIS3_EEE18getFromOpaqueValueEPv", scope: !1023, file: !1024, line: 130, type: !1073, scopeLine: 130, flags: DIFlagPublic | DIFlagPrototyped | DIFlagStaticMember, spFlags: DISPFlagOptimized)
!1073 = !DISubroutineType(types: !1074)
!1074 = !{!1023, !375}
!1075 = !DISubprogram(name: "getFromOpaqueValue", linkageName: "_ZN4llvm14PointerIntPairIPKNS_12MemoryBufferELj2EjNS_21PointerLikeTypeTraitsIS3_EEE18getFromOpaqueValueEPKv", scope: !1023, file: !1024, line: 136, type: !1076, scopeLine: 136, flags: DIFlagPublic | DIFlagPrototyped | DIFlagStaticMember, spFlags: DISPFlagOptimized)
!1076 = !DISubroutineType(types: !1077)
!1077 = !{!1023, !782}
!1078 = !DISubprogram(name: "operator==", linkageName: "_ZNK4llvm14PointerIntPairIPKNS_12MemoryBufferELj2EjNS_21PointerLikeTypeTraitsIS3_EEEeqERKS6_", scope: !1023, file: !1024, line: 141, type: !1079, scopeLine: 141, flags: DIFlagPublic | DIFlagPrototyped, spFlags: DISPFlagOptimized)
!1079 = !DISubroutineType(types: !1080)
!1080 = !{!82, !1046, !1081}
!1081 = !DIDerivedType(tag: DW_TAG_reference_type, baseType: !1047, size: 64)
!1082 = !DISubprogram(name: "operator!=", linkageName: "_ZNK4llvm14PointerIntPairIPKNS_12MemoryBufferELj2EjNS_21PointerLikeTypeTraitsIS3_EEEneERKS6_", scope: !1023, file: !1024, line: 142, type: !1079, scopeLine: 142, flags: DIFlagPublic | DIFlagPrototyped, spFlags: DISPFlagOptimized)
!1083 = !DISubprogram(name: "operator<", linkageName: "_ZNK4llvm14PointerIntPairIPKNS_12MemoryBufferELj2EjNS_21PointerLikeTypeTraitsIS3_EEEltERKS6_", scope: !1023, file: !1024, line: 143, type: !1079, scopeLine: 143, flags: DIFlagPublic | DIFlagPrototyped, spFlags: DISPFlagOptimized)
!1084 = !DISubprogram(name: "operator>", linkageName: "_ZNK4llvm14PointerIntPairIPKNS_12MemoryBufferELj2EjNS_21PointerLikeTypeTraitsIS3_EEEgtERKS6_", scope: !1023, file: !1024, line: 144, type: !1079, scopeLine: 144, flags: DIFlagPublic | DIFlagPrototyped, spFlags: DISPFlagOptimized)
!1085 = !DISubprogram(name: "operator<=", linkageName: "_ZNK4llvm14PointerIntPairIPKNS_12MemoryBufferELj2EjNS_21PointerLikeTypeTraitsIS3_EEEleERKS6_", scope: !1023, file: !1024, line: 145, type: !1079, scopeLine: 145, flags: DIFlagPublic | DIFlagPrototyped, spFlags: DISPFlagOptimized)
!1086 = !DISubprogram(name: "operator>=", linkageName: "_ZNK4llvm14PointerIntPairIPKNS_12MemoryBufferELj2EjNS_21PointerLikeTypeTraitsIS3_EEEgeERKS6_", scope: !1023, file: !1024, line: 146, type: !1079, scopeLine: 146, flags: DIFlagPublic | DIFlagPrototyped, spFlags: DISPFlagOptimized)
!1087 = !{!1088, !1089, !1090, !1091}
!1088 = !DITemplateTypeParameter(name: "PointerTy", type: !1036)
!1089 = !DITemplateValueParameter(name: "IntBits", type: !6, value: i32 2)
!1090 = !DITemplateTypeParameter(name: "IntType", type: !6, defaulted: true)
!1091 = !DITemplateTypeParameter(name: "PtrTraits", type: !1092)
!1092 = distinct !DICompositeType(tag: DW_TAG_class_type, name: "PointerLikeTypeTraits<const llvm::MemoryBuffer *>", scope: !14, file: !1093, line: 52, size: 8, flags: DIFlagTypePassByValue, elements: !1094, templateParams: !1101, identifier: "_ZTSN4llvm21PointerLikeTypeTraitsIPKNS_12MemoryBufferEEE")
!1093 = !DIFile(filename: "/faster/fs/llvm34/include/llvm/Support/PointerLikeTypeTraits.h", directory: "")
!1094 = !{!1095, !1098}
!1095 = !DISubprogram(name: "getAsVoidPointer", linkageName: "_ZN4llvm21PointerLikeTypeTraitsIPKNS_12MemoryBufferEE16getAsVoidPointerES3_", scope: !1092, file: !1093, line: 56, type: !1096, scopeLine: 56, flags: DIFlagPublic | DIFlagPrototyped | DIFlagStaticMember, spFlags: DISPFlagOptimized)
!1096 = !DISubroutineType(types: !1097)
!1097 = !{!782, !1036}
!1098 = !DISubprogram(name: "getFromVoidPointer", linkageName: "_ZN4llvm21PointerLikeTypeTraitsIPKNS_12MemoryBufferEE18getFromVoidPointerEPKv", scope: !1092, file: !1093, line: 59, type: !1099, scopeLine: 59, flags: DIFlagPublic | DIFlagPrototyped | DIFlagStaticMember, spFlags: DISPFlagOptimized)
!1099 = !DISubroutineType(types: !1100)
!1100 = !{!1036, !782}
!1101 = !{!1102}
!1102 = !DITemplateTypeParameter(name: "T", type: !1036)
!1103 = !DIDerivedType(tag: DW_TAG_member, name: "OrigEntry", scope: !1019, file: !790, line: 106, baseType: !930, size: 64, offset: 64, flags: DIFlagPublic)
!1104 = !DIDerivedType(tag: DW_TAG_member, name: "ContentsEntry", scope: !1019, file: !790, line: 112, baseType: !930, size: 64, offset: 128, flags: DIFlagPublic)
!1105 = !DIDerivedType(tag: DW_TAG_member, name: "SourceLineCache", scope: !1019, file: !790, line: 118, baseType: !1106, size: 64, offset: 192, flags: DIFlagPublic)
!1106 = !DIDerivedType(tag: DW_TAG_pointer_type, baseType: !6, size: 64)
!1107 = !DIDerivedType(tag: DW_TAG_member, name: "NumLines", scope: !1019, file: !790, line: 123, baseType: !6, size: 31, offset: 256, flags: DIFlagPublic | DIFlagBitField, extraData: i64 256)
!1108 = !DIDerivedType(tag: DW_TAG_member, name: "BufferOverridden", scope: !1019, file: !790, line: 130, baseType: !6, size: 1, offset: 287, flags: DIFlagPublic | DIFlagBitField, extraData: i64 256)
!1109 = !DIDerivedType(tag: DW_TAG_member, name: "IsSystemFile", scope: !1019, file: !790, line: 134, baseType: !6, size: 1, offset: 288, flags: DIFlagPublic | DIFlagBitField, extraData: i64 256)
!1110 = !DISubprogram(name: "ContentCache", scope: !1019, file: !790, line: 136, type: !1111, scopeLine: 136, flags: DIFlagPublic | DIFlagPrototyped, spFlags: DISPFlagOptimized)
!1111 = !DISubroutineType(types: !1112)
!1112 = !{null, !1113, !930}
!1113 = !DIDerivedType(tag: DW_TAG_pointer_type, baseType: !1019, size: 64, flags: DIFlagArtificial | DIFlagObjectPointer)
!1114 = !DISubprogram(name: "ContentCache", scope: !1019, file: !790, line: 141, type: !1115, scopeLine: 141, flags: DIFlagPublic | DIFlagPrototyped, spFlags: DISPFlagOptimized)
!1115 = !DISubroutineType(types: !1116)
!1116 = !{null, !1113, !930, !930}
!1117 = !DISubprogram(name: "~ContentCache", scope: !1019, file: !790, line: 146, type: !1118, scopeLine: 146, flags: DIFlagPublic | DIFlagPrototyped, spFlags: DISPFlagOptimized)
!1118 = !DISubroutineType(types: !1119)
!1119 = !{null, !1113}
!1120 = !DISubprogram(name: "ContentCache", scope: !1019, file: !790, line: 151, type: !1121, scopeLine: 151, flags: DIFlagPublic | DIFlagPrototyped, spFlags: DISPFlagOptimized)
!1121 = !DISubroutineType(types: !1122)
!1122 = !{null, !1113, !1123}
!1123 = !DIDerivedType(tag: DW_TAG_reference_type, baseType: !1124, size: 64)
!1124 = !DIDerivedType(tag: DW_TAG_const_type, baseType: !1019)
!1125 = !DISubprogram(name: "getBuffer", linkageName: "_ZNK5clang6SrcMgr12ContentCache9getBufferERNS_17DiagnosticsEngineERKNS_13SourceManagerENS_14SourceLocationEPb", scope: !1019, file: !790, line: 173, type: !1126, scopeLine: 173, flags: DIFlagPublic | DIFlagPrototyped, spFlags: DISPFlagOptimized)
!1126 = !DISubroutineType(types: !1127)
!1127 = !{!1036, !1128, !813, !787, !748, !1129}
!1128 = !DIDerivedType(tag: DW_TAG_pointer_type, baseType: !1124, size: 64, flags: DIFlagArtificial | DIFlagObjectPointer)
!1129 = !DIDerivedType(tag: DW_TAG_pointer_type, baseType: !82, size: 64)
!1130 = !DISubprogram(name: "getSize", linkageName: "_ZNK5clang6SrcMgr12ContentCache7getSizeEv", scope: !1019, file: !790, line: 184, type: !1131, scopeLine: 184, flags: DIFlagPublic | DIFlagPrototyped, spFlags: DISPFlagOptimized)
!1131 = !DISubroutineType(types: !1132)
!1132 = !{!6, !1128}
!1133 = !DISubprogram(name: "getSizeBytesMapped", linkageName: "_ZNK5clang6SrcMgr12ContentCache18getSizeBytesMappedEv", scope: !1019, file: !790, line: 190, type: !1131, scopeLine: 190, flags: DIFlagPublic | DIFlagPrototyped, spFlags: DISPFlagOptimized)
!1134 = !DISubprogram(name: "getMemoryBufferKind", linkageName: "_ZNK5clang6SrcMgr12ContentCache19getMemoryBufferKindEv", scope: !1019, file: !790, line: 194, type: !1135, scopeLine: 194, flags: DIFlagPublic | DIFlagPrototyped, spFlags: DISPFlagOptimized)
!1135 = !DISubroutineType(types: !1136)
!1136 = !{!1137, !1128}
!1137 = !DICompositeType(tag: DW_TAG_enumeration_type, name: "BufferKind", scope: !1038, file: !1039, line: 129, baseType: !6, size: 32, elements: !1138, identifier: "_ZTSN4llvm12MemoryBuffer10BufferKindE")
!1138 = !{!1139, !1140}
!1139 = !DIEnumerator(name: "MemoryBuffer_Malloc", value: 0, isUnsigned: true)
!1140 = !DIEnumerator(name: "MemoryBuffer_MMap", value: 1, isUnsigned: true)
!1141 = !DISubprogram(name: "setBuffer", linkageName: "_ZN5clang6SrcMgr12ContentCache9setBufferEPKN4llvm12MemoryBufferE", scope: !1019, file: !790, line: 196, type: !1142, scopeLine: 196, flags: DIFlagPublic | DIFlagPrototyped, spFlags: DISPFlagOptimized)
!1142 = !DISubroutineType(types: !1143)
!1143 = !{null, !1113, !1036}
!1144 = !DISubprogram(name: "getRawBuffer", linkageName: "_ZNK5clang6SrcMgr12ContentCache12getRawBufferEv", scope: !1019, file: !790, line: 204, type: !1145, scopeLine: 204, flags: DIFlagPublic | DIFlagPrototyped, spFlags: DISPFlagOptimized)
!1145 = !DISubroutineType(types: !1146)
!1146 = !{!1036, !1128}
!1147 = !DISubprogram(name: "replaceBuffer", linkageName: "_ZN5clang6SrcMgr12ContentCache13replaceBufferEPKN4llvm12MemoryBufferEb", scope: !1019, file: !790, line: 210, type: !1148, scopeLine: 210, flags: DIFlagPublic | DIFlagPrototyped, spFlags: DISPFlagOptimized)
!1148 = !DISubroutineType(types: !1149)
!1149 = !{null, !1113, !1036, !82}
!1150 = !DISubprogram(name: "isBufferInvalid", linkageName: "_ZNK5clang6SrcMgr12ContentCache15isBufferInvalidEv", scope: !1019, file: !790, line: 213, type: !1151, scopeLine: 213, flags: DIFlagPublic | DIFlagPrototyped, spFlags: DISPFlagOptimized)
!1151 = !DISubroutineType(types: !1152)
!1152 = !{!82, !1128}
!1153 = !DISubprogram(name: "shouldFreeBuffer", linkageName: "_ZNK5clang6SrcMgr12ContentCache16shouldFreeBufferEv", scope: !1019, file: !790, line: 218, type: !1151, scopeLine: 218, flags: DIFlagPublic | DIFlagPrototyped, spFlags: DISPFlagOptimized)
!1154 = !DISubprogram(name: "operator=", linkageName: "_ZN5clang6SrcMgr12ContentCacheaSERKS1_", scope: !1019, file: !790, line: 224, type: !1155, scopeLine: 224, flags: DIFlagPrototyped, spFlags: DISPFlagOptimized | DISPFlagDeleted)
!1155 = !DISubroutineType(types: !1156)
!1156 = !{!1157, !1113, !1123}
!1157 = !DIDerivedType(tag: DW_TAG_reference_type, baseType: !1019, size: 64)
!1158 = !DIDerivedType(tag: DW_TAG_member, name: "first", scope: !909, file: !154, line: 214, baseType: !930, size: 64)
!1159 = !DIDerivedType(tag: DW_TAG_member, name: "second", scope: !909, file: !154, line: 215, baseType: !1018, size: 64, offset: 64)
!1160 = !DISubprogram(name: "pair", scope: !909, file: !154, line: 303, type: !1161, scopeLine: 303, flags: DIFlagPrototyped, spFlags: DISPFlagOptimized)
!1161 = !DISubroutineType(types: !1162)
!1162 = !{null, !1163, !1164}
!1163 = !DIDerivedType(tag: DW_TAG_pointer_type, baseType: !909, size: 64, flags: DIFlagArtificial | DIFlagObjectPointer)
!1164 = !DIDerivedType(tag: DW_TAG_reference_type, baseType: !908, size: 64)
!1165 = !DISubprogram(name: "pair", scope: !909, file: !154, line: 304, type: !1166, scopeLine: 304, flags: DIFlagPrototyped, spFlags: DISPFlagOptimized)
!1166 = !DISubroutineType(types: !1167)
!1167 = !{null, !1163, !1168}
!1168 = !DIDerivedType(tag: DW_TAG_rvalue_reference_type, baseType: !909, size: 64)
!1169 = !DISubprogram(name: "operator=", linkageName: "_ZNSt4pairIPKN5clang9FileEntryEPNS0_6SrcMgr12ContentCacheEEaSERKS7_", scope: !909, file: !154, line: 378, type: !1170, scopeLine: 378, flags: DIFlagPrototyped, spFlags: DISPFlagOptimized)
!1170 = !DISubroutineType(types: !1171)
!1171 = !{!1172, !1163, !1173}
!1172 = !DIDerivedType(tag: DW_TAG_reference_type, baseType: !909, size: 64)
!1173 = !DIDerivedType(tag: DW_TAG_typedef, name: "type", scope: !1174, file: !193, line: 2166, baseType: !1164)
!1174 = distinct !DICompositeType(tag: DW_TAG_structure_type, name: "conditional<true, const std::pair<const clang::FileEntry *, clang::SrcMgr::ContentCache *> &, const std::__nonesuch_no_braces &>", scope: !32, file: !193, line: 2165, size: 8, flags: DIFlagTypePassByValue, elements: !195, templateParams: !1175, identifier: "_ZTSSt11conditionalILb1ERKSt4pairIPKN5clang9FileEntryEPNS1_6SrcMgr12ContentCacheEERKSt20__nonesuch_no_bracesE")
!1175 = !{!197, !1176, !199}
!1176 = !DITemplateTypeParameter(name: "_Iftrue", type: !1164)
!1177 = !DISubprogram(name: "operator=", linkageName: "_ZNSt4pairIPKN5clang9FileEntryEPNS0_6SrcMgr12ContentCacheEEaSEOS7_", scope: !909, file: !154, line: 389, type: !1178, scopeLine: 389, flags: DIFlagPrototyped, spFlags: DISPFlagOptimized)
!1178 = !DISubroutineType(types: !1179)
!1179 = !{!1172, !1163, !1180}
!1180 = !DIDerivedType(tag: DW_TAG_typedef, name: "type", scope: !1181, file: !193, line: 2166, baseType: !1168)
!1181 = distinct !DICompositeType(tag: DW_TAG_structure_type, name: "conditional<true, std::pair<const clang::FileEntry *, clang::SrcMgr::ContentCache *> &&, std::__nonesuch_no_braces &&>", scope: !32, file: !193, line: 2165, size: 8, flags: DIFlagTypePassByValue, elements: !195, templateParams: !1182, identifier: "_ZTSSt11conditionalILb1EOSt4pairIPKN5clang9FileEntryEPNS1_6SrcMgr12ContentCacheEEOSt20__nonesuch_no_bracesE")
!1182 = !{!197, !1183, !210}
!1183 = !DITemplateTypeParameter(name: "_Iftrue", type: !1168)
!1184 = !DISubprogram(name: "swap", linkageName: "_ZNSt4pairIPKN5clang9FileEntryEPNS0_6SrcMgr12ContentCacheEE4swapERS7_", scope: !909, file: !154, line: 424, type: !1185, scopeLine: 424, flags: DIFlagPrototyped, spFlags: DISPFlagOptimized)
!1185 = !DISubroutineType(types: !1186)
!1186 = !{null, !1163, !1172}
!1187 = !{!1188, !1189}
!1188 = !DITemplateTypeParameter(name: "_T1", type: !930)
!1189 = !DITemplateTypeParameter(name: "_T2", type: !1018)
!1190 = !DITemplateTypeParameter(name: "F", type: !909)
!1191 = !DIDerivedType(tag: DW_TAG_member, name: "End", scope: !896, file: !880, line: 999, baseType: !899, size: 64, offset: 64)
!1192 = !DISubprogram(name: "DenseMapIterator", scope: !896, file: !880, line: 1001, type: !1193, scopeLine: 1001, flags: DIFlagPublic | DIFlagPrototyped, spFlags: DISPFlagOptimized)
!1193 = !DISubroutineType(types: !1194)
!1194 = !{null, !1195}
!1195 = !DIDerivedType(tag: DW_TAG_pointer_type, baseType: !896, size: 64, flags: DIFlagArtificial | DIFlagObjectPointer)
!1196 = !DISubprogram(name: "DenseMapIterator", scope: !896, file: !880, line: 1003, type: !1197, scopeLine: 1003, flags: DIFlagPublic | DIFlagPrototyped, spFlags: DISPFlagOptimized)
!1197 = !DISubroutineType(types: !1198)
!1198 = !{null, !1195, !899, !899, !82}
!1199 = !DISubprogram(name: "DenseMapIterator", scope: !896, file: !880, line: 1011, type: !1200, scopeLine: 1011, flags: DIFlagPublic | DIFlagPrototyped, spFlags: DISPFlagOptimized)
!1200 = !DISubroutineType(types: !1201)
!1201 = !{null, !1195, !1202}
!1202 = !DIDerivedType(tag: DW_TAG_reference_type, baseType: !1203, size: 64)
!1203 = !DIDerivedType(tag: DW_TAG_const_type, baseType: !889)
!1204 = !DISubprogram(name: "operator*", linkageName: "_ZNK4llvm16DenseMapIteratorIPKN5clang9FileEntryEPNS1_6SrcMgr12ContentCacheENS_12DenseMapInfoIS4_EELb1EEdeEv", scope: !896, file: !880, line: 1015, type: !1205, scopeLine: 1015, flags: DIFlagPublic | DIFlagPrototyped, spFlags: DISPFlagOptimized)
!1205 = !DISubroutineType(types: !1206)
!1206 = !{!1207, !1209}
!1207 = !DIDerivedType(tag: DW_TAG_typedef, name: "reference", scope: !896, file: !880, line: 996, baseType: !1208)
!1208 = !DIDerivedType(tag: DW_TAG_reference_type, baseType: !901, size: 64)
!1209 = !DIDerivedType(tag: DW_TAG_pointer_type, baseType: !1210, size: 64, flags: DIFlagArtificial | DIFlagObjectPointer)
!1210 = !DIDerivedType(tag: DW_TAG_const_type, baseType: !896)
!1211 = !DISubprogram(name: "operator->", linkageName: "_ZNK4llvm16DenseMapIteratorIPKN5clang9FileEntryEPNS1_6SrcMgr12ContentCacheENS_12DenseMapInfoIS4_EELb1EEptEv", scope: !896, file: !880, line: 1018, type: !1212, scopeLine: 1018, flags: DIFlagPublic | DIFlagPrototyped, spFlags: DISPFlagOptimized)
!1212 = !DISubroutineType(types: !1213)
!1213 = !{!899, !1209}
!1214 = !DISubprogram(name: "operator==", linkageName: "_ZNK4llvm16DenseMapIteratorIPKN5clang9FileEntryEPNS1_6SrcMgr12ContentCacheENS_12DenseMapInfoIS4_EELb1EEeqERKSA_", scope: !896, file: !880, line: 1022, type: !1215, scopeLine: 1022, flags: DIFlagPublic | DIFlagPrototyped, spFlags: DISPFlagOptimized)
!1215 = !DISubroutineType(types: !1216)
!1216 = !{!82, !1209, !1217}
!1217 = !DIDerivedType(tag: DW_TAG_reference_type, baseType: !1218, size: 64)
!1218 = !DIDerivedType(tag: DW_TAG_const_type, baseType: !1219)
!1219 = !DIDerivedType(tag: DW_TAG_typedef, name: "ConstIterator", scope: !896, file: !880, line: 990, baseType: !896)
!1220 = !DISubprogram(name: "operator!=", linkageName: "_ZNK4llvm16DenseMapIteratorIPKN5clang9FileEntryEPNS1_6SrcMgr12ContentCacheENS_12DenseMapInfoIS4_EELb1EEneERKSA_", scope: !896, file: !880, line: 1025, type: !1215, scopeLine: 1025, flags: DIFlagPublic | DIFlagPrototyped, spFlags: DISPFlagOptimized)
!1221 = !DISubprogram(name: "operator++", linkageName: "_ZN4llvm16DenseMapIteratorIPKN5clang9FileEntryEPNS1_6SrcMgr12ContentCacheENS_12DenseMapInfoIS4_EELb1EEppEv", scope: !896, file: !880, line: 1029, type: !1222, scopeLine: 1029, flags: DIFlagPublic | DIFlagPrototyped, spFlags: DISPFlagOptimized)
!1222 = !DISubroutineType(types: !1223)
!1223 = !{!1224, !1195}
!1224 = !DIDerivedType(tag: DW_TAG_reference_type, baseType: !896, size: 64)
!1225 = !DISubprogram(name: "operator++", linkageName: "_ZN4llvm16DenseMapIteratorIPKN5clang9FileEntryEPNS1_6SrcMgr12ContentCacheENS_12DenseMapInfoIS4_EELb1EEppEi", scope: !896, file: !880, line: 1034, type: !1226, scopeLine: 1034, flags: DIFlagPublic | DIFlagPrototyped, spFlags: DISPFlagOptimized)
!1226 = !DISubroutineType(types: !1227)
!1227 = !{!896, !1195, !55}
!1228 = !DISubprogram(name: "AdvancePastEmptyBuckets", linkageName: "_ZN4llvm16DenseMapIteratorIPKN5clang9FileEntryEPNS1_6SrcMgr12ContentCacheENS_12DenseMapInfoIS4_EELb1EE23AdvancePastEmptyBucketsEv", scope: !896, file: !880, line: 1039, type: !1193, scopeLine: 1039, flags: DIFlagPrototyped, spFlags: DISPFlagOptimized)
!1229 = !{!1230, !1231, !1232, !1248}
!1230 = !DITemplateTypeParameter(name: "KeyT", type: !930)
!1231 = !DITemplateTypeParameter(name: "ValueT", type: !1018)
!1232 = !DITemplateTypeParameter(name: "KeyInfoT", type: !1233)
!1233 = distinct !DICompositeType(tag: DW_TAG_structure_type, name: "DenseMapInfo<const clang::FileEntry *>", scope: !14, file: !1234, line: 32, size: 8, flags: DIFlagTypePassByValue, elements: !1235, templateParams: !1246, identifier: "_ZTSN4llvm12DenseMapInfoIPKN5clang9FileEntryEEE")
!1234 = !DIFile(filename: "/faster/fs/llvm34/include/llvm/ADT/DenseMapInfo.h", directory: "")
!1235 = !{!1236, !1239, !1240, !1243}
!1236 = !DISubprogram(name: "getEmptyKey", linkageName: "_ZN4llvm12DenseMapInfoIPKN5clang9FileEntryEE11getEmptyKeyEv", scope: !1233, file: !1234, line: 33, type: !1237, scopeLine: 33, flags: DIFlagPrototyped | DIFlagStaticMember, spFlags: DISPFlagOptimized)
!1237 = !DISubroutineType(types: !1238)
!1238 = !{!930}
!1239 = !DISubprogram(name: "getTombstoneKey", linkageName: "_ZN4llvm12DenseMapInfoIPKN5clang9FileEntryEE15getTombstoneKeyEv", scope: !1233, file: !1234, line: 38, type: !1237, scopeLine: 38, flags: DIFlagPrototyped | DIFlagStaticMember, spFlags: DISPFlagOptimized)
!1240 = !DISubprogram(name: "getHashValue", linkageName: "_ZN4llvm12DenseMapInfoIPKN5clang9FileEntryEE12getHashValueES4_", scope: !1233, file: !1234, line: 43, type: !1241, scopeLine: 43, flags: DIFlagPrototyped | DIFlagStaticMember, spFlags: DISPFlagOptimized)
!1241 = !DISubroutineType(types: !1242)
!1242 = !{!6, !930}
!1243 = !DISubprogram(name: "isEqual", linkageName: "_ZN4llvm12DenseMapInfoIPKN5clang9FileEntryEE7isEqualES4_S4_", scope: !1233, file: !1234, line: 47, type: !1244, scopeLine: 47, flags: DIFlagPrototyped | DIFlagStaticMember, spFlags: DISPFlagOptimized)
!1244 = !DISubroutineType(types: !1245)
!1245 = !{!82, !930, !930}
!1246 = !{!1247}
!1247 = !DITemplateTypeParameter(name: "T", type: !930)
!1248 = !DITemplateValueParameter(name: "IsConst", type: !82, value: i8 1)
!1249 = !DIDerivedType(tag: DW_TAG_pointer_type, baseType: !1250, size: 64, flags: DIFlagArtificial | DIFlagObjectPointer)
!1250 = !DIDerivedType(tag: DW_TAG_const_type, baseType: !883)
!1251 = !DISubprogram(name: "end", linkageName: "_ZNK4llvm12DenseMapBaseINS_8DenseMapIPKN5clang9FileEntryEPNS2_6SrcMgr12ContentCacheENS_12DenseMapInfoIS5_EEEES5_S8_SA_E3endEv", scope: !883, file: !880, line: 63, type: !893, scopeLine: 63, flags: DIFlagPublic | DIFlagPrototyped, spFlags: DISPFlagOptimized)
!1252 = !DISubprogram(name: "empty", linkageName: "_ZNK4llvm12DenseMapBaseINS_8DenseMapIPKN5clang9FileEntryEPNS2_6SrcMgr12ContentCacheENS_12DenseMapInfoIS5_EEEES5_S8_SA_E5emptyEv", scope: !883, file: !880, line: 67, type: !1253, scopeLine: 67, flags: DIFlagPublic | DIFlagPrototyped, spFlags: DISPFlagOptimized)
!1253 = !DISubroutineType(types: !1254)
!1254 = !{!82, !1249}
!1255 = !DISubprogram(name: "size", linkageName: "_ZNK4llvm12DenseMapBaseINS_8DenseMapIPKN5clang9FileEntryEPNS2_6SrcMgr12ContentCacheENS_12DenseMapInfoIS5_EEEES5_S8_SA_E4sizeEv", scope: !883, file: !880, line: 70, type: !1256, scopeLine: 70, flags: DIFlagPublic | DIFlagPrototyped, spFlags: DISPFlagOptimized)
!1256 = !DISubroutineType(types: !1257)
!1257 = !{!6, !1249}
!1258 = !DISubprogram(name: "resize", linkageName: "_ZN4llvm12DenseMapBaseINS_8DenseMapIPKN5clang9FileEntryEPNS2_6SrcMgr12ContentCacheENS_12DenseMapInfoIS5_EEEES5_S8_SA_E6resizeEm", scope: !883, file: !880, line: 73, type: !1259, scopeLine: 73, flags: DIFlagPublic | DIFlagPrototyped, spFlags: DISPFlagOptimized)
!1259 = !DISubroutineType(types: !1260)
!1260 = !{null, !890, !43}
!1261 = !DISubprogram(name: "clear", linkageName: "_ZN4llvm12DenseMapBaseINS_8DenseMapIPKN5clang9FileEntryEPNS2_6SrcMgr12ContentCacheENS_12DenseMapInfoIS5_EEEES5_S8_SA_E5clearEv", scope: !883, file: !880, line: 78, type: !1262, scopeLine: 78, flags: DIFlagPublic | DIFlagPrototyped, spFlags: DISPFlagOptimized)
!1262 = !DISubroutineType(types: !1263)
!1263 = !{null, !890}
!1264 = !DISubprogram(name: "count", linkageName: "_ZNK4llvm12DenseMapBaseINS_8DenseMapIPKN5clang9FileEntryEPNS2_6SrcMgr12ContentCacheENS_12DenseMapInfoIS5_EEEES5_S8_SA_E5countERKS5_", scope: !883, file: !880, line: 103, type: !1265, scopeLine: 103, flags: DIFlagPublic | DIFlagPrototyped, spFlags: DISPFlagOptimized)
!1265 = !DISubroutineType(types: !1266)
!1266 = !{!82, !1249, !1267}
!1267 = !DIDerivedType(tag: DW_TAG_reference_type, baseType: !1268, size: 64)
!1268 = !DIDerivedType(tag: DW_TAG_const_type, baseType: !930)
!1269 = !DISubprogram(name: "find", linkageName: "_ZN4llvm12DenseMapBaseINS_8DenseMapIPKN5clang9FileEntryEPNS2_6SrcMgr12ContentCacheENS_12DenseMapInfoIS5_EEEES5_S8_SA_E4findERKS5_", scope: !883, file: !880, line: 108, type: !1270, scopeLine: 108, flags: DIFlagPublic | DIFlagPrototyped, spFlags: DISPFlagOptimized)
!1270 = !DISubroutineType(types: !1271)
!1271 = !{!888, !890, !1267}
!1272 = !DISubprogram(name: "find", linkageName: "_ZNK4llvm12DenseMapBaseINS_8DenseMapIPKN5clang9FileEntryEPNS2_6SrcMgr12ContentCacheENS_12DenseMapInfoIS5_EEEES5_S8_SA_E4findERKS5_", scope: !883, file: !880, line: 114, type: !1273, scopeLine: 114, flags: DIFlagPublic | DIFlagPrototyped, spFlags: DISPFlagOptimized)
!1273 = !DISubroutineType(types: !1274)
!1274 = !{!895, !1249, !1267}
!1275 = !DISubprogram(name: "lookup", linkageName: "_ZNK4llvm12DenseMapBaseINS_8DenseMapIPKN5clang9FileEntryEPNS2_6SrcMgr12ContentCacheENS_12DenseMapInfoIS5_EEEES5_S8_SA_E6lookupERKS5_", scope: !883, file: !880, line: 143, type: !1276, scopeLine: 143, flags: DIFlagPublic | DIFlagPrototyped, spFlags: DISPFlagOptimized)
!1276 = !DISubroutineType(types: !1277)
!1277 = !{!1018, !1249, !1267}
!1278 = !DISubprogram(name: "insert", linkageName: "_ZN4llvm12DenseMapBaseINS_8DenseMapIPKN5clang9FileEntryEPNS2_6SrcMgr12ContentCacheENS_12DenseMapInfoIS5_EEEES5_S8_SA_E6insertERKSt4pairIS5_S8_E", scope: !883, file: !880, line: 153, type: !1279, scopeLine: 153, flags: DIFlagPublic | DIFlagPrototyped, spFlags: DISPFlagOptimized)
!1279 = !DISubroutineType(types: !1280)
!1280 = !{!1281, !890, !1164}
!1281 = !DICompositeType(tag: DW_TAG_structure_type, name: "pair<llvm::DenseMapIterator<const clang::FileEntry *, clang::SrcMgr::ContentCache *, llvm::DenseMapInfo<const clang::FileEntry *>, false>, bool>", scope: !32, file: !154, line: 208, flags: DIFlagFwdDecl, identifier: "_ZTSSt4pairIN4llvm16DenseMapIteratorIPKN5clang9FileEntryEPNS2_6SrcMgr12ContentCacheENS0_12DenseMapInfoIS5_EELb0EEEbE")
!1282 = !DISubprogram(name: "insert", linkageName: "_ZN4llvm12DenseMapBaseINS_8DenseMapIPKN5clang9FileEntryEPNS2_6SrcMgr12ContentCacheENS_12DenseMapInfoIS5_EEEES5_S8_SA_E6insertEOSt4pairIS5_S8_E", scope: !883, file: !880, line: 168, type: !1283, scopeLine: 168, flags: DIFlagPublic | DIFlagPrototyped, spFlags: DISPFlagOptimized)
!1283 = !DISubroutineType(types: !1284)
!1284 = !{!1281, !890, !1168}
!1285 = !DISubprogram(name: "erase", linkageName: "_ZN4llvm12DenseMapBaseINS_8DenseMapIPKN5clang9FileEntryEPNS2_6SrcMgr12ContentCacheENS_12DenseMapInfoIS5_EEEES5_S8_SA_E5eraseERKS5_", scope: !883, file: !880, line: 190, type: !1286, scopeLine: 190, flags: DIFlagPublic | DIFlagPrototyped, spFlags: DISPFlagOptimized)
!1286 = !DISubroutineType(types: !1287)
!1287 = !{!82, !890, !1267}
!1288 = !DISubprogram(name: "erase", linkageName: "_ZN4llvm12DenseMapBaseINS_8DenseMapIPKN5clang9FileEntryEPNS2_6SrcMgr12ContentCacheENS_12DenseMapInfoIS5_EEEES5_S8_SA_E5eraseENS_16DenseMapIteratorIS5_S8_SA_Lb0EEE", scope: !883, file: !880, line: 201, type: !1289, scopeLine: 201, flags: DIFlagPublic | DIFlagPrototyped, spFlags: DISPFlagOptimized)
!1289 = !DISubroutineType(types: !1290)
!1290 = !{null, !890, !888}
!1291 = !DISubprogram(name: "FindAndConstruct", linkageName: "_ZN4llvm12DenseMapBaseINS_8DenseMapIPKN5clang9FileEntryEPNS2_6SrcMgr12ContentCacheENS_12DenseMapInfoIS5_EEEES5_S8_SA_E16FindAndConstructERKS5_", scope: !883, file: !880, line: 209, type: !1292, scopeLine: 209, flags: DIFlagPublic | DIFlagPrototyped, spFlags: DISPFlagOptimized)
!1292 = !DISubroutineType(types: !1293)
!1293 = !{!1294, !890, !1267}
!1294 = !DIDerivedType(tag: DW_TAG_reference_type, baseType: !1295, size: 64)
!1295 = !DIDerivedType(tag: DW_TAG_typedef, name: "value_type", scope: !883, file: !880, line: 48, baseType: !1296)
!1296 = !DIDerivedType(tag: DW_TAG_typedef, name: "BucketT", scope: !883, file: !880, line: 43, baseType: !909)
!1297 = !DISubprogram(name: "operator[]", linkageName: "_ZN4llvm12DenseMapBaseINS_8DenseMapIPKN5clang9FileEntryEPNS2_6SrcMgr12ContentCacheENS_12DenseMapInfoIS5_EEEES5_S8_SA_EixERKS5_", scope: !883, file: !880, line: 217, type: !1298, scopeLine: 217, flags: DIFlagPublic | DIFlagPrototyped, spFlags: DISPFlagOptimized)
!1298 = !DISubroutineType(types: !1299)
!1299 = !{!1300, !890, !1267}
!1300 = !DIDerivedType(tag: DW_TAG_reference_type, baseType: !1018, size: 64)
!1301 = !DISubprogram(name: "FindAndConstruct", linkageName: "_ZN4llvm12DenseMapBaseINS_8DenseMapIPKN5clang9FileEntryEPNS2_6SrcMgr12ContentCacheENS_12DenseMapInfoIS5_EEEES5_S8_SA_E16FindAndConstructEOS5_", scope: !883, file: !880, line: 222, type: !1302, scopeLine: 222, flags: DIFlagPublic | DIFlagPrototyped, spFlags: DISPFlagOptimized)
!1302 = !DISubroutineType(types: !1303)
!1303 = !{!1294, !890, !1304}
!1304 = !DIDerivedType(tag: DW_TAG_rvalue_reference_type, baseType: !930, size: 64)
!1305 = !DISubprogram(name: "operator[]", linkageName: "_ZN4llvm12DenseMapBaseINS_8DenseMapIPKN5clang9FileEntryEPNS2_6SrcMgr12ContentCacheENS_12DenseMapInfoIS5_EEEES5_S8_SA_EixEOS5_", scope: !883, file: !880, line: 230, type: !1306, scopeLine: 230, flags: DIFlagPublic | DIFlagPrototyped, spFlags: DISPFlagOptimized)
!1306 = !DISubroutineType(types: !1307)
!1307 = !{!1300, !890, !1304}
!1308 = !DISubprogram(name: "isPointerIntoBucketsArray", linkageName: "_ZNK4llvm12DenseMapBaseINS_8DenseMapIPKN5clang9FileEntryEPNS2_6SrcMgr12ContentCacheENS_12DenseMapInfoIS5_EEEES5_S8_SA_E25isPointerIntoBucketsArrayEPKv", scope: !883, file: !880, line: 238, type: !1309, scopeLine: 238, flags: DIFlagPublic | DIFlagPrototyped, spFlags: DISPFlagOptimized)
!1309 = !DISubroutineType(types: !1310)
!1310 = !{!82, !1249, !782}
!1311 = !DISubprogram(name: "getPointerIntoBucketsArray", linkageName: "_ZNK4llvm12DenseMapBaseINS_8DenseMapIPKN5clang9FileEntryEPNS2_6SrcMgr12ContentCacheENS_12DenseMapInfoIS5_EEEES5_S8_SA_E26getPointerIntoBucketsArrayEv", scope: !883, file: !880, line: 245, type: !1312, scopeLine: 245, flags: DIFlagPublic | DIFlagPrototyped, spFlags: DISPFlagOptimized)
!1312 = !DISubroutineType(types: !1313)
!1313 = !{!782, !1249}
!1314 = !DISubprogram(name: "DenseMapBase", scope: !883, file: !880, line: 248, type: !1262, scopeLine: 248, flags: DIFlagProtected | DIFlagPrototyped, spFlags: DISPFlagOptimized)
!1315 = !DISubprogram(name: "destroyAll", linkageName: "_ZN4llvm12DenseMapBaseINS_8DenseMapIPKN5clang9FileEntryEPNS2_6SrcMgr12ContentCacheENS_12DenseMapInfoIS5_EEEES5_S8_SA_E10destroyAllEv", scope: !883, file: !880, line: 250, type: !1262, scopeLine: 250, flags: DIFlagProtected | DIFlagPrototyped, spFlags: DISPFlagOptimized)
!1316 = !DISubprogram(name: "initEmpty", linkageName: "_ZN4llvm12DenseMapBaseINS_8DenseMapIPKN5clang9FileEntryEPNS2_6SrcMgr12ContentCacheENS_12DenseMapInfoIS5_EEEES5_S8_SA_E9initEmptyEv", scope: !883, file: !880, line: 267, type: !1262, scopeLine: 267, flags: DIFlagProtected | DIFlagPrototyped, spFlags: DISPFlagOptimized)
!1317 = !DISubprogram(name: "moveFromOldBuckets", linkageName: "_ZN4llvm12DenseMapBaseINS_8DenseMapIPKN5clang9FileEntryEPNS2_6SrcMgr12ContentCacheENS_12DenseMapInfoIS5_EEEES5_S8_SA_E18moveFromOldBucketsEPSt4pairIS5_S8_ESF_", scope: !883, file: !880, line: 278, type: !1318, scopeLine: 278, flags: DIFlagProtected | DIFlagPrototyped, spFlags: DISPFlagOptimized)
!1318 = !DISubroutineType(types: !1319)
!1319 = !{null, !890, !1320, !1320}
!1320 = !DIDerivedType(tag: DW_TAG_pointer_type, baseType: !1296, size: 64)
!1321 = !DISubprogram(name: "swap", linkageName: "_ZN4llvm12DenseMapBaseINS_8DenseMapIPKN5clang9FileEntryEPNS2_6SrcMgr12ContentCacheENS_12DenseMapInfoIS5_EEEES5_S8_SA_E4swapERSC_", scope: !883, file: !880, line: 328, type: !1322, scopeLine: 328, flags: DIFlagProtected | DIFlagPrototyped, spFlags: DISPFlagOptimized)
!1322 = !DISubroutineType(types: !1323)
!1323 = !{null, !890, !1324}
!1324 = !DIDerivedType(tag: DW_TAG_reference_type, baseType: !883, size: 64)
!1325 = !DISubprogram(name: "getHashValue", linkageName: "_ZN4llvm12DenseMapBaseINS_8DenseMapIPKN5clang9FileEntryEPNS2_6SrcMgr12ContentCacheENS_12DenseMapInfoIS5_EEEES5_S8_SA_E12getHashValueERKS5_", scope: !883, file: !880, line: 333, type: !1326, scopeLine: 333, flags: DIFlagProtected | DIFlagPrototyped | DIFlagStaticMember, spFlags: DISPFlagOptimized)
!1326 = !DISubroutineType(types: !1327)
!1327 = !{!6, !1267}
!1328 = !DISubprogram(name: "getEmptyKey", linkageName: "_ZN4llvm12DenseMapBaseINS_8DenseMapIPKN5clang9FileEntryEPNS2_6SrcMgr12ContentCacheENS_12DenseMapInfoIS5_EEEES5_S8_SA_E11getEmptyKeyEv", scope: !883, file: !880, line: 340, type: !1329, scopeLine: 340, flags: DIFlagProtected | DIFlagPrototyped | DIFlagStaticMember, spFlags: DISPFlagOptimized)
!1329 = !DISubroutineType(types: !1330)
!1330 = !{!1268}
!1331 = !DISubprogram(name: "getTombstoneKey", linkageName: "_ZN4llvm12DenseMapBaseINS_8DenseMapIPKN5clang9FileEntryEPNS2_6SrcMgr12ContentCacheENS_12DenseMapInfoIS5_EEEES5_S8_SA_E15getTombstoneKeyEv", scope: !883, file: !880, line: 343, type: !1329, scopeLine: 343, flags: DIFlagProtected | DIFlagPrototyped | DIFlagStaticMember, spFlags: DISPFlagOptimized)
!1332 = !DISubprogram(name: "getNumEntries", linkageName: "_ZNK4llvm12DenseMapBaseINS_8DenseMapIPKN5clang9FileEntryEPNS2_6SrcMgr12ContentCacheENS_12DenseMapInfoIS5_EEEES5_S8_SA_E13getNumEntriesEv", scope: !883, file: !880, line: 348, type: !1256, scopeLine: 348, flags: DIFlagPrototyped, spFlags: DISPFlagOptimized)
!1333 = !DISubprogram(name: "setNumEntries", linkageName: "_ZN4llvm12DenseMapBaseINS_8DenseMapIPKN5clang9FileEntryEPNS2_6SrcMgr12ContentCacheENS_12DenseMapInfoIS5_EEEES5_S8_SA_E13setNumEntriesEj", scope: !883, file: !880, line: 351, type: !1334, scopeLine: 351, flags: DIFlagPrototyped, spFlags: DISPFlagOptimized)
!1334 = !DISubroutineType(types: !1335)
!1335 = !{null, !890, !6}
!1336 = !DISubprogram(name: "incrementNumEntries", linkageName: "_ZN4llvm12DenseMapBaseINS_8DenseMapIPKN5clang9FileEntryEPNS2_6SrcMgr12ContentCacheENS_12DenseMapInfoIS5_EEEES5_S8_SA_E19incrementNumEntriesEv", scope: !883, file: !880, line: 354, type: !1262, scopeLine: 354, flags: DIFlagPrototyped, spFlags: DISPFlagOptimized)
!1337 = !DISubprogram(name: "decrementNumEntries", linkageName: "_ZN4llvm12DenseMapBaseINS_8DenseMapIPKN5clang9FileEntryEPNS2_6SrcMgr12ContentCacheENS_12DenseMapInfoIS5_EEEES5_S8_SA_E19decrementNumEntriesEv", scope: !883, file: !880, line: 357, type: !1262, scopeLine: 357, flags: DIFlagPrototyped, spFlags: DISPFlagOptimized)
!1338 = !DISubprogram(name: "getNumTombstones", linkageName: "_ZNK4llvm12DenseMapBaseINS_8DenseMapIPKN5clang9FileEntryEPNS2_6SrcMgr12ContentCacheENS_12DenseMapInfoIS5_EEEES5_S8_SA_E16getNumTombstonesEv", scope: !883, file: !880, line: 360, type: !1256, scopeLine: 360, flags: DIFlagPrototyped, spFlags: DISPFlagOptimized)
!1339 = !DISubprogram(name: "setNumTombstones", linkageName: "_ZN4llvm12DenseMapBaseINS_8DenseMapIPKN5clang9FileEntryEPNS2_6SrcMgr12ContentCacheENS_12DenseMapInfoIS5_EEEES5_S8_SA_E16setNumTombstonesEj", scope: !883, file: !880, line: 363, type: !1334, scopeLine: 363, flags: DIFlagPrototyped, spFlags: DISPFlagOptimized)
!1340 = !DISubprogram(name: "incrementNumTombstones", linkageName: "_ZN4llvm12DenseMapBaseINS_8DenseMapIPKN5clang9FileEntryEPNS2_6SrcMgr12ContentCacheENS_12DenseMapInfoIS5_EEEES5_S8_SA_E22incrementNumTombstonesEv", scope: !883, file: !880, line: 366, type: !1262, scopeLine: 366, flags: DIFlagPrototyped, spFlags: DISPFlagOptimized)
!1341 = !DISubprogram(name: "decrementNumTombstones", linkageName: "_ZN4llvm12DenseMapBaseINS_8DenseMapIPKN5clang9FileEntryEPNS2_6SrcMgr12ContentCacheENS_12DenseMapInfoIS5_EEEES5_S8_SA_E22decrementNumTombstonesEv", scope: !883, file: !880, line: 369, type: !1262, scopeLine: 369, flags: DIFlagPrototyped, spFlags: DISPFlagOptimized)
!1342 = !DISubprogram(name: "getBuckets", linkageName: "_ZNK4llvm12DenseMapBaseINS_8DenseMapIPKN5clang9FileEntryEPNS2_6SrcMgr12ContentCacheENS_12DenseMapInfoIS5_EEEES5_S8_SA_E10getBucketsEv", scope: !883, file: !880, line: 372, type: !1343, scopeLine: 372, flags: DIFlagPrototyped, spFlags: DISPFlagOptimized)
!1343 = !DISubroutineType(types: !1344)
!1344 = !{!1345, !1249}
!1345 = !DIDerivedType(tag: DW_TAG_pointer_type, baseType: !1346, size: 64)
!1346 = !DIDerivedType(tag: DW_TAG_const_type, baseType: !1296)
!1347 = !DISubprogram(name: "getBuckets", linkageName: "_ZN4llvm12DenseMapBaseINS_8DenseMapIPKN5clang9FileEntryEPNS2_6SrcMgr12ContentCacheENS_12DenseMapInfoIS5_EEEES5_S8_SA_E10getBucketsEv", scope: !883, file: !880, line: 375, type: !1348, scopeLine: 375, flags: DIFlagPrototyped, spFlags: DISPFlagOptimized)
!1348 = !DISubroutineType(types: !1349)
!1349 = !{!1320, !890}
!1350 = !DISubprogram(name: "getNumBuckets", linkageName: "_ZNK4llvm12DenseMapBaseINS_8DenseMapIPKN5clang9FileEntryEPNS2_6SrcMgr12ContentCacheENS_12DenseMapInfoIS5_EEEES5_S8_SA_E13getNumBucketsEv", scope: !883, file: !880, line: 378, type: !1256, scopeLine: 378, flags: DIFlagPrototyped, spFlags: DISPFlagOptimized)
!1351 = !DISubprogram(name: "getBucketsEnd", linkageName: "_ZN4llvm12DenseMapBaseINS_8DenseMapIPKN5clang9FileEntryEPNS2_6SrcMgr12ContentCacheENS_12DenseMapInfoIS5_EEEES5_S8_SA_E13getBucketsEndEv", scope: !883, file: !880, line: 381, type: !1348, scopeLine: 381, flags: DIFlagPrototyped, spFlags: DISPFlagOptimized)
!1352 = !DISubprogram(name: "getBucketsEnd", linkageName: "_ZNK4llvm12DenseMapBaseINS_8DenseMapIPKN5clang9FileEntryEPNS2_6SrcMgr12ContentCacheENS_12DenseMapInfoIS5_EEEES5_S8_SA_E13getBucketsEndEv", scope: !883, file: !880, line: 384, type: !1343, scopeLine: 384, flags: DIFlagPrototyped, spFlags: DISPFlagOptimized)
!1353 = !DISubprogram(name: "grow", linkageName: "_ZN4llvm12DenseMapBaseINS_8DenseMapIPKN5clang9FileEntryEPNS2_6SrcMgr12ContentCacheENS_12DenseMapInfoIS5_EEEES5_S8_SA_E4growEj", scope: !883, file: !880, line: 388, type: !1334, scopeLine: 388, flags: DIFlagPrototyped, spFlags: DISPFlagOptimized)
!1354 = !DISubprogram(name: "shrink_and_clear", linkageName: "_ZN4llvm12DenseMapBaseINS_8DenseMapIPKN5clang9FileEntryEPNS2_6SrcMgr12ContentCacheENS_12DenseMapInfoIS5_EEEES5_S8_SA_E16shrink_and_clearEv", scope: !883, file: !880, line: 392, type: !1262, scopeLine: 392, flags: DIFlagPrototyped, spFlags: DISPFlagOptimized)
!1355 = !DISubprogram(name: "InsertIntoBucket", linkageName: "_ZN4llvm12DenseMapBaseINS_8DenseMapIPKN5clang9FileEntryEPNS2_6SrcMgr12ContentCacheENS_12DenseMapInfoIS5_EEEES5_S8_SA_E16InsertIntoBucketERKS5_RKS8_PSt4pairIS5_S8_E", scope: !883, file: !880, line: 397, type: !1356, scopeLine: 397, flags: DIFlagPrototyped, spFlags: DISPFlagOptimized)
!1356 = !DISubroutineType(types: !1357)
!1357 = !{!1320, !890, !1267, !1358, !1320}
!1358 = !DIDerivedType(tag: DW_TAG_reference_type, baseType: !1359, size: 64)
!1359 = !DIDerivedType(tag: DW_TAG_const_type, baseType: !1018)
!1360 = !DISubprogram(name: "InsertIntoBucket", linkageName: "_ZN4llvm12DenseMapBaseINS_8DenseMapIPKN5clang9FileEntryEPNS2_6SrcMgr12ContentCacheENS_12DenseMapInfoIS5_EEEES5_S8_SA_E16InsertIntoBucketERKS5_OS8_PSt4pairIS5_S8_E", scope: !883, file: !880, line: 407, type: !1361, scopeLine: 407, flags: DIFlagPrototyped, spFlags: DISPFlagOptimized)
!1361 = !DISubroutineType(types: !1362)
!1362 = !{!1320, !890, !1267, !1363, !1320}
!1363 = !DIDerivedType(tag: DW_TAG_rvalue_reference_type, baseType: !1018, size: 64)
!1364 = !DISubprogram(name: "InsertIntoBucket", linkageName: "_ZN4llvm12DenseMapBaseINS_8DenseMapIPKN5clang9FileEntryEPNS2_6SrcMgr12ContentCacheENS_12DenseMapInfoIS5_EEEES5_S8_SA_E16InsertIntoBucketEOS5_OS8_PSt4pairIS5_S8_E", scope: !883, file: !880, line: 416, type: !1365, scopeLine: 416, flags: DIFlagPrototyped, spFlags: DISPFlagOptimized)
!1365 = !DISubroutineType(types: !1366)
!1366 = !{!1320, !890, !1304, !1363, !1320}
!1367 = !DISubprogram(name: "InsertIntoBucketImpl", linkageName: "_ZN4llvm12DenseMapBaseINS_8DenseMapIPKN5clang9FileEntryEPNS2_6SrcMgr12ContentCacheENS_12DenseMapInfoIS5_EEEES5_S8_SA_E20InsertIntoBucketImplERKS5_PSt4pairIS5_S8_E", scope: !883, file: !880, line: 425, type: !1368, scopeLine: 425, flags: DIFlagPrototyped, spFlags: DISPFlagOptimized)
!1368 = !DISubroutineType(types: !1369)
!1369 = !{!1320, !890, !1267, !1320}
!1370 = !DISubprogram(name: "getMemorySize", linkageName: "_ZNK4llvm12DenseMapBaseINS_8DenseMapIPKN5clang9FileEntryEPNS2_6SrcMgr12ContentCacheENS_12DenseMapInfoIS5_EEEES5_S8_SA_E13getMemorySizeEv", scope: !883, file: !880, line: 527, type: !1371, scopeLine: 527, flags: DIFlagPublic | DIFlagPrototyped, spFlags: DISPFlagOptimized)
!1371 = !DISubroutineType(types: !1372)
!1372 = !{!43, !1249}
!1373 = !{!1374, !1230, !1231, !1232}
!1374 = !DITemplateTypeParameter(name: "DerivedT", type: !879)
!1375 = !DIDerivedType(tag: DW_TAG_member, name: "Buckets", scope: !879, file: !880, line: 543, baseType: !1376, size: 64)
!1376 = !DIDerivedType(tag: DW_TAG_pointer_type, baseType: !1377, size: 64)
!1377 = !DIDerivedType(tag: DW_TAG_typedef, name: "BucketT", scope: !879, file: !880, line: 540, baseType: !1296)
!1378 = !DIDerivedType(tag: DW_TAG_member, name: "NumEntries", scope: !879, file: !880, line: 544, baseType: !6, size: 32, offset: 64)
!1379 = !DIDerivedType(tag: DW_TAG_member, name: "NumTombstones", scope: !879, file: !880, line: 545, baseType: !6, size: 32, offset: 96)
!1380 = !DIDerivedType(tag: DW_TAG_member, name: "NumBuckets", scope: !879, file: !880, line: 546, baseType: !6, size: 32, offset: 128)
!1381 = !DISubprogram(name: "DenseMap", scope: !879, file: !880, line: 549, type: !1382, scopeLine: 549, flags: DIFlagPublic | DIFlagExplicit | DIFlagPrototyped, spFlags: DISPFlagOptimized)
!1382 = !DISubroutineType(types: !1383)
!1383 = !{null, !1384, !6}
!1384 = !DIDerivedType(tag: DW_TAG_pointer_type, baseType: !879, size: 64, flags: DIFlagArtificial | DIFlagObjectPointer)
!1385 = !DISubprogram(name: "DenseMap", scope: !879, file: !880, line: 553, type: !1386, scopeLine: 553, flags: DIFlagPublic | DIFlagPrototyped, spFlags: DISPFlagOptimized)
!1386 = !DISubroutineType(types: !1387)
!1387 = !{null, !1384, !1388}
!1388 = !DIDerivedType(tag: DW_TAG_reference_type, baseType: !1389, size: 64)
!1389 = !DIDerivedType(tag: DW_TAG_const_type, baseType: !879)
!1390 = !DISubprogram(name: "DenseMap", scope: !879, file: !880, line: 559, type: !1391, scopeLine: 559, flags: DIFlagPublic | DIFlagPrototyped, spFlags: DISPFlagOptimized)
!1391 = !DISubroutineType(types: !1392)
!1392 = !{null, !1384, !1393}
!1393 = !DIDerivedType(tag: DW_TAG_rvalue_reference_type, baseType: !879, size: 64)
!1394 = !DISubprogram(name: "~DenseMap", scope: !879, file: !880, line: 571, type: !1395, scopeLine: 571, flags: DIFlagPublic | DIFlagPrototyped, spFlags: DISPFlagOptimized)
!1395 = !DISubroutineType(types: !1396)
!1396 = !{null, !1384}
!1397 = !DISubprogram(name: "swap", linkageName: "_ZN4llvm8DenseMapIPKN5clang9FileEntryEPNS1_6SrcMgr12ContentCacheENS_12DenseMapInfoIS4_EEE4swapERSA_", scope: !879, file: !880, line: 576, type: !1398, scopeLine: 576, flags: DIFlagPublic | DIFlagPrototyped, spFlags: DISPFlagOptimized)
!1398 = !DISubroutineType(types: !1399)
!1399 = !{null, !1384, !1400}
!1400 = !DIDerivedType(tag: DW_TAG_reference_type, baseType: !879, size: 64)
!1401 = !DISubprogram(name: "operator=", linkageName: "_ZN4llvm8DenseMapIPKN5clang9FileEntryEPNS1_6SrcMgr12ContentCacheENS_12DenseMapInfoIS4_EEEaSERKSA_", scope: !879, file: !880, line: 583, type: !1402, scopeLine: 583, flags: DIFlagPublic | DIFlagPrototyped, spFlags: DISPFlagOptimized)
!1402 = !DISubroutineType(types: !1403)
!1403 = !{!1400, !1384, !1388}
!1404 = !DISubprogram(name: "operator=", linkageName: "_ZN4llvm8DenseMapIPKN5clang9FileEntryEPNS1_6SrcMgr12ContentCacheENS_12DenseMapInfoIS4_EEEaSEOSA_", scope: !879, file: !880, line: 589, type: !1405, scopeLine: 589, flags: DIFlagPublic | DIFlagPrototyped, spFlags: DISPFlagOptimized)
!1405 = !DISubroutineType(types: !1406)
!1406 = !{!1400, !1384, !1393}
!1407 = !DISubprogram(name: "copyFrom", linkageName: "_ZN4llvm8DenseMapIPKN5clang9FileEntryEPNS1_6SrcMgr12ContentCacheENS_12DenseMapInfoIS4_EEE8copyFromERKSA_", scope: !879, file: !880, line: 598, type: !1386, scopeLine: 598, flags: DIFlagPublic | DIFlagPrototyped, spFlags: DISPFlagOptimized)
!1408 = !DISubprogram(name: "init", linkageName: "_ZN4llvm8DenseMapIPKN5clang9FileEntryEPNS1_6SrcMgr12ContentCacheENS_12DenseMapInfoIS4_EEE4initEj", scope: !879, file: !880, line: 609, type: !1382, scopeLine: 609, flags: DIFlagPublic | DIFlagPrototyped, spFlags: DISPFlagOptimized)
!1409 = !DISubprogram(name: "grow", linkageName: "_ZN4llvm8DenseMapIPKN5clang9FileEntryEPNS1_6SrcMgr12ContentCacheENS_12DenseMapInfoIS4_EEE4growEj", scope: !879, file: !880, line: 618, type: !1382, scopeLine: 618, flags: DIFlagPublic | DIFlagPrototyped, spFlags: DISPFlagOptimized)
!1410 = !DISubprogram(name: "shrink_and_clear", linkageName: "_ZN4llvm8DenseMapIPKN5clang9FileEntryEPNS1_6SrcMgr12ContentCacheENS_12DenseMapInfoIS4_EEE16shrink_and_clearEv", scope: !879, file: !880, line: 635, type: !1395, scopeLine: 635, flags: DIFlagPublic | DIFlagPrototyped, spFlags: DISPFlagOptimized)
!1411 = !DISubprogram(name: "getNumEntries", linkageName: "_ZNK4llvm8DenseMapIPKN5clang9FileEntryEPNS1_6SrcMgr12ContentCacheENS_12DenseMapInfoIS4_EEE13getNumEntriesEv", scope: !879, file: !880, line: 653, type: !1412, scopeLine: 653, flags: DIFlagPrototyped, spFlags: DISPFlagOptimized)
!1412 = !DISubroutineType(types: !1413)
!1413 = !{!6, !1414}
!1414 = !DIDerivedType(tag: DW_TAG_pointer_type, baseType: !1389, size: 64, flags: DIFlagArtificial | DIFlagObjectPointer)
!1415 = !DISubprogram(name: "setNumEntries", linkageName: "_ZN4llvm8DenseMapIPKN5clang9FileEntryEPNS1_6SrcMgr12ContentCacheENS_12DenseMapInfoIS4_EEE13setNumEntriesEj", scope: !879, file: !880, line: 656, type: !1382, scopeLine: 656, flags: DIFlagPrototyped, spFlags: DISPFlagOptimized)
!1416 = !DISubprogram(name: "getNumTombstones", linkageName: "_ZNK4llvm8DenseMapIPKN5clang9FileEntryEPNS1_6SrcMgr12ContentCacheENS_12DenseMapInfoIS4_EEE16getNumTombstonesEv", scope: !879, file: !880, line: 660, type: !1412, scopeLine: 660, flags: DIFlagPrototyped, spFlags: DISPFlagOptimized)
!1417 = !DISubprogram(name: "setNumTombstones", linkageName: "_ZN4llvm8DenseMapIPKN5clang9FileEntryEPNS1_6SrcMgr12ContentCacheENS_12DenseMapInfoIS4_EEE16setNumTombstonesEj", scope: !879, file: !880, line: 663, type: !1382, scopeLine: 663, flags: DIFlagPrototyped, spFlags: DISPFlagOptimized)
!1418 = !DISubprogram(name: "getBuckets", linkageName: "_ZNK4llvm8DenseMapIPKN5clang9FileEntryEPNS1_6SrcMgr12ContentCacheENS_12DenseMapInfoIS4_EEE10getBucketsEv", scope: !879, file: !880, line: 667, type: !1419, scopeLine: 667, flags: DIFlagPrototyped, spFlags: DISPFlagOptimized)
!1419 = !DISubroutineType(types: !1420)
!1420 = !{!1376, !1414}
!1421 = !DISubprogram(name: "getNumBuckets", linkageName: "_ZNK4llvm8DenseMapIPKN5clang9FileEntryEPNS1_6SrcMgr12ContentCacheENS_12DenseMapInfoIS4_EEE13getNumBucketsEv", scope: !879, file: !880, line: 671, type: !1412, scopeLine: 671, flags: DIFlagPrototyped, spFlags: DISPFlagOptimized)
!1422 = !DISubprogram(name: "allocateBuckets", linkageName: "_ZN4llvm8DenseMapIPKN5clang9FileEntryEPNS1_6SrcMgr12ContentCacheENS_12DenseMapInfoIS4_EEE15allocateBucketsEj", scope: !879, file: !880, line: 675, type: !1423, scopeLine: 675, flags: DIFlagPrototyped, spFlags: DISPFlagOptimized)
!1423 = !DISubroutineType(types: !1424)
!1424 = !{!82, !1384, !6}
!1425 = !{!1230, !1231, !1232}
!1426 = !DIDerivedType(tag: DW_TAG_member, name: "OverridenFilesKeepOriginalName", scope: !789, file: !790, line: 556, baseType: !82, size: 8, offset: 960)
!1427 = !DIDerivedType(tag: DW_TAG_member, name: "UserFilesAreVolatile", scope: !789, file: !790, line: 560, baseType: !82, size: 8, offset: 968)
!1428 = !DIDerivedType(tag: DW_TAG_member, name: "OverriddenFilesInfo", scope: !789, file: !790, line: 572, baseType: !1429, size: 64, offset: 1024)
!1429 = distinct !DICompositeType(tag: DW_TAG_class_type, name: "OwningPtr<clang::SourceManager::OverriddenFilesInfoTy>", scope: !14, file: !1430, line: 28, size: 64, flags: DIFlagTypePassByReference | DIFlagNonTrivial, elements: !1431, templateParams: !2122, identifier: "_ZTSN4llvm9OwningPtrIN5clang13SourceManager21OverriddenFilesInfoTyEEE")
!1430 = !DIFile(filename: "/faster/fs/llvm34/include/llvm/ADT/OwningPtr.h", directory: "")
!1431 = !{!1432, !2078, !2084, !2088, !2091, !2095, !2098, !2101, !2102, !2105, !2110, !2113, !2114, !2117, !2118, !2119}
!1432 = !DIDerivedType(tag: DW_TAG_member, name: "Ptr", scope: !1429, file: !1430, line: 31, baseType: !1433, size: 64)
!1433 = !DIDerivedType(tag: DW_TAG_pointer_type, baseType: !1434, size: 64)
!1434 = distinct !DICompositeType(tag: DW_TAG_structure_type, name: "OverriddenFilesInfoTy", scope: !789, file: !790, line: 562, size: 384, flags: DIFlagTypePassByReference | DIFlagNonTrivial, elements: !1435, identifier: "_ZTSN5clang13SourceManager21OverriddenFilesInfoTyE")
!1435 = !{!1436, !1770}
!1436 = !DIDerivedType(tag: DW_TAG_member, name: "OverriddenFiles", scope: !1434, file: !790, line: 565, baseType: !1437, size: 192)
!1437 = distinct !DICompositeType(tag: DW_TAG_class_type, name: "DenseMap<const clang::FileEntry *, const clang::FileEntry *, llvm::DenseMapInfo<const clang::FileEntry *> >", scope: !14, file: !880, line: 534, size: 192, flags: DIFlagTypePassByReference | DIFlagNonTrivial, elements: !1438, templateParams: !1769, identifier: "_ZTSN4llvm8DenseMapIPKN5clang9FileEntryES4_NS_12DenseMapInfoIS4_EEEE")
!1438 = !{!1439, !1719, !1722, !1723, !1724, !1725, !1729, !1734, !1738, !1741, !1745, !1748, !1751, !1752, !1753, !1754, !1755, !1759, !1760, !1761, !1762, !1765, !1766}
!1439 = !DIDerivedType(tag: DW_TAG_inheritance, scope: !1437, baseType: !1440, flags: DIFlagPublic, extraData: i32 0)
!1440 = distinct !DICompositeType(tag: DW_TAG_class_type, name: "DenseMapBase<llvm::DenseMap<const clang::FileEntry *, const clang::FileEntry *, llvm::DenseMapInfo<const clang::FileEntry *> >, const clang::FileEntry *, const clang::FileEntry *, llvm::DenseMapInfo<const clang::FileEntry *> >", scope: !14, file: !880, line: 41, size: 8, flags: DIFlagTypePassByValue | DIFlagNonTrivial, elements: !1441, templateParams: !1717, identifier: "_ZTSN4llvm12DenseMapBaseINS_8DenseMapIPKN5clang9FileEntryES5_NS_12DenseMapInfoIS5_EEEES5_S5_S7_EE")
!1441 = !{!1442, !1598, !1599, !1605, !1606, !1609, !1612, !1615, !1618, !1621, !1624, !1627, !1630, !1634, !1637, !1640, !1643, !1649, !1653, !1656, !1659, !1662, !1665, !1666, !1667, !1668, !1672, !1676, !1677, !1678, !1679, !1680, !1683, !1684, !1685, !1686, !1687, !1688, !1689, !1694, !1697, !1698, !1699, !1700, !1701, !1702, !1705, !1708, !1711, !1714}
!1442 = !DISubprogram(name: "begin", linkageName: "_ZN4llvm12DenseMapBaseINS_8DenseMapIPKN5clang9FileEntryES5_NS_12DenseMapInfoIS5_EEEES5_S5_S7_E5beginEv", scope: !1440, file: !880, line: 53, type: !1443, scopeLine: 53, flags: DIFlagPublic | DIFlagPrototyped, spFlags: DISPFlagOptimized)
!1443 = !DISubroutineType(types: !1444)
!1444 = !{!1445, !1597}
!1445 = !DIDerivedType(tag: DW_TAG_typedef, name: "iterator", scope: !1440, file: !880, line: 50, baseType: !1446)
!1446 = distinct !DICompositeType(tag: DW_TAG_class_type, name: "DenseMapIterator<const clang::FileEntry *, const clang::FileEntry *, llvm::DenseMapInfo<const clang::FileEntry *>, false>", scope: !14, file: !880, line: 987, size: 128, flags: DIFlagTypePassByReference | DIFlagNonTrivial, elements: !1447, templateParams: !1595, identifier: "_ZTSN4llvm16DenseMapIteratorIPKN5clang9FileEntryES4_NS_12DenseMapInfoIS4_EELb0EEE")
!1447 = !{!1448, !1511, !1512, !1516, !1519, !1524, !1530, !1533, !1586, !1587, !1591, !1594}
!1448 = !DIDerivedType(tag: DW_TAG_member, name: "Ptr", scope: !1446, file: !880, line: 999, baseType: !1449, size: 64)
!1449 = !DIDerivedType(tag: DW_TAG_typedef, name: "pointer", scope: !1446, file: !880, line: 995, baseType: !1450)
!1450 = !DIDerivedType(tag: DW_TAG_pointer_type, baseType: !1451, size: 64)
!1451 = !DIDerivedType(tag: DW_TAG_typedef, name: "value_type", scope: !1446, file: !880, line: 994, baseType: !1452)
!1452 = !DIDerivedType(tag: DW_TAG_typedef, name: "type", scope: !1453, file: !903, line: 236, baseType: !1458)
!1453 = distinct !DICompositeType(tag: DW_TAG_structure_type, name: "conditional<false, const std::pair<const clang::FileEntry *, const clang::FileEntry *>, std::pair<const clang::FileEntry *, const clang::FileEntry *> >", scope: !14, file: !903, line: 236, size: 8, flags: DIFlagTypePassByValue, elements: !195, templateParams: !1454, identifier: "_ZTSN4llvm11conditionalILb0EKSt4pairIPKN5clang9FileEntryES5_ES6_EE")
!1454 = !{!1455, !1456, !1510}
!1455 = !DITemplateValueParameter(type: !82, value: i8 0)
!1456 = !DITemplateTypeParameter(name: "T", type: !1457)
!1457 = !DIDerivedType(tag: DW_TAG_const_type, baseType: !1458)
!1458 = distinct !DICompositeType(tag: DW_TAG_structure_type, name: "pair<const clang::FileEntry *, const clang::FileEntry *>", scope: !32, file: !154, line: 208, size: 128, flags: DIFlagTypePassByValue | DIFlagNonTrivial, elements: !1459, templateParams: !1508, identifier: "_ZTSSt4pairIPKN5clang9FileEntryES3_E")
!1459 = !{!1460, !1479, !1480, !1481, !1486, !1490, !1498, !1505}
!1460 = !DIDerivedType(tag: DW_TAG_inheritance, scope: !1458, baseType: !1461, flags: DIFlagPrivate, extraData: i32 0)
!1461 = distinct !DICompositeType(tag: DW_TAG_class_type, name: "__pair_base<const clang::FileEntry *, const clang::FileEntry *>", scope: !32, file: !154, line: 190, size: 8, flags: DIFlagTypePassByValue, elements: !1462, templateParams: !1477, identifier: "_ZTSSt11__pair_baseIPKN5clang9FileEntryES3_E")
!1462 = !{!1463, !1467, !1468, !1473}
!1463 = !DISubprogram(name: "__pair_base", scope: !1461, file: !154, line: 194, type: !1464, scopeLine: 194, flags: DIFlagPrototyped, spFlags: DISPFlagOptimized)
!1464 = !DISubroutineType(types: !1465)
!1465 = !{null, !1466}
!1466 = !DIDerivedType(tag: DW_TAG_pointer_type, baseType: !1461, size: 64, flags: DIFlagArtificial | DIFlagObjectPointer)
!1467 = !DISubprogram(name: "~__pair_base", scope: !1461, file: !154, line: 195, type: !1464, scopeLine: 195, flags: DIFlagPrototyped, spFlags: DISPFlagOptimized)
!1468 = !DISubprogram(name: "__pair_base", scope: !1461, file: !154, line: 196, type: !1469, scopeLine: 196, flags: DIFlagPrototyped, spFlags: DISPFlagOptimized)
!1469 = !DISubroutineType(types: !1470)
!1470 = !{null, !1466, !1471}
!1471 = !DIDerivedType(tag: DW_TAG_reference_type, baseType: !1472, size: 64)
!1472 = !DIDerivedType(tag: DW_TAG_const_type, baseType: !1461)
!1473 = !DISubprogram(name: "operator=", linkageName: "_ZNSt11__pair_baseIPKN5clang9FileEntryES3_EaSERKS4_", scope: !1461, file: !154, line: 197, type: !1474, scopeLine: 197, flags: DIFlagPrototyped, spFlags: DISPFlagOptimized | DISPFlagDeleted)
!1474 = !DISubroutineType(types: !1475)
!1475 = !{!1476, !1466, !1471}
!1476 = !DIDerivedType(tag: DW_TAG_reference_type, baseType: !1461, size: 64)
!1477 = !{!929, !1478}
!1478 = !DITemplateTypeParameter(name: "_U2", type: !930)
!1479 = !DIDerivedType(tag: DW_TAG_member, name: "first", scope: !1458, file: !154, line: 214, baseType: !930, size: 64)
!1480 = !DIDerivedType(tag: DW_TAG_member, name: "second", scope: !1458, file: !154, line: 215, baseType: !930, size: 64, offset: 64)
!1481 = !DISubprogram(name: "pair", scope: !1458, file: !154, line: 303, type: !1482, scopeLine: 303, flags: DIFlagPrototyped, spFlags: DISPFlagOptimized)
!1482 = !DISubroutineType(types: !1483)
!1483 = !{null, !1484, !1485}
!1484 = !DIDerivedType(tag: DW_TAG_pointer_type, baseType: !1458, size: 64, flags: DIFlagArtificial | DIFlagObjectPointer)
!1485 = !DIDerivedType(tag: DW_TAG_reference_type, baseType: !1457, size: 64)
!1486 = !DISubprogram(name: "pair", scope: !1458, file: !154, line: 304, type: !1487, scopeLine: 304, flags: DIFlagPrototyped, spFlags: DISPFlagOptimized)
!1487 = !DISubroutineType(types: !1488)
!1488 = !{null, !1484, !1489}
!1489 = !DIDerivedType(tag: DW_TAG_rvalue_reference_type, baseType: !1458, size: 64)
!1490 = !DISubprogram(name: "operator=", linkageName: "_ZNSt4pairIPKN5clang9FileEntryES3_EaSERKS4_", scope: !1458, file: !154, line: 378, type: !1491, scopeLine: 378, flags: DIFlagPrototyped, spFlags: DISPFlagOptimized)
!1491 = !DISubroutineType(types: !1492)
!1492 = !{!1493, !1484, !1494}
!1493 = !DIDerivedType(tag: DW_TAG_reference_type, baseType: !1458, size: 64)
!1494 = !DIDerivedType(tag: DW_TAG_typedef, name: "type", scope: !1495, file: !193, line: 2166, baseType: !1485)
!1495 = distinct !DICompositeType(tag: DW_TAG_structure_type, name: "conditional<true, const std::pair<const clang::FileEntry *, const clang::FileEntry *> &, const std::__nonesuch_no_braces &>", scope: !32, file: !193, line: 2165, size: 8, flags: DIFlagTypePassByValue, elements: !195, templateParams: !1496, identifier: "_ZTSSt11conditionalILb1ERKSt4pairIPKN5clang9FileEntryES4_ERKSt20__nonesuch_no_bracesE")
!1496 = !{!197, !1497, !199}
!1497 = !DITemplateTypeParameter(name: "_Iftrue", type: !1485)
!1498 = !DISubprogram(name: "operator=", linkageName: "_ZNSt4pairIPKN5clang9FileEntryES3_EaSEOS4_", scope: !1458, file: !154, line: 389, type: !1499, scopeLine: 389, flags: DIFlagPrototyped, spFlags: DISPFlagOptimized)
!1499 = !DISubroutineType(types: !1500)
!1500 = !{!1493, !1484, !1501}
!1501 = !DIDerivedType(tag: DW_TAG_typedef, name: "type", scope: !1502, file: !193, line: 2166, baseType: !1489)
!1502 = distinct !DICompositeType(tag: DW_TAG_structure_type, name: "conditional<true, std::pair<const clang::FileEntry *, const clang::FileEntry *> &&, std::__nonesuch_no_braces &&>", scope: !32, file: !193, line: 2165, size: 8, flags: DIFlagTypePassByValue, elements: !195, templateParams: !1503, identifier: "_ZTSSt11conditionalILb1EOSt4pairIPKN5clang9FileEntryES4_EOSt20__nonesuch_no_bracesE")
!1503 = !{!197, !1504, !210}
!1504 = !DITemplateTypeParameter(name: "_Iftrue", type: !1489)
!1505 = !DISubprogram(name: "swap", linkageName: "_ZNSt4pairIPKN5clang9FileEntryES3_E4swapERS4_", scope: !1458, file: !154, line: 424, type: !1506, scopeLine: 424, flags: DIFlagPrototyped, spFlags: DISPFlagOptimized)
!1506 = !DISubroutineType(types: !1507)
!1507 = !{null, !1484, !1493}
!1508 = !{!1188, !1509}
!1509 = !DITemplateTypeParameter(name: "_T2", type: !930)
!1510 = !DITemplateTypeParameter(name: "F", type: !1458)
!1511 = !DIDerivedType(tag: DW_TAG_member, name: "End", scope: !1446, file: !880, line: 999, baseType: !1449, size: 64, offset: 64)
!1512 = !DISubprogram(name: "DenseMapIterator", scope: !1446, file: !880, line: 1001, type: !1513, scopeLine: 1001, flags: DIFlagPublic | DIFlagPrototyped, spFlags: DISPFlagOptimized)
!1513 = !DISubroutineType(types: !1514)
!1514 = !{null, !1515}
!1515 = !DIDerivedType(tag: DW_TAG_pointer_type, baseType: !1446, size: 64, flags: DIFlagArtificial | DIFlagObjectPointer)
!1516 = !DISubprogram(name: "DenseMapIterator", scope: !1446, file: !880, line: 1003, type: !1517, scopeLine: 1003, flags: DIFlagPublic | DIFlagPrototyped, spFlags: DISPFlagOptimized)
!1517 = !DISubroutineType(types: !1518)
!1518 = !{null, !1515, !1449, !1449, !82}
!1519 = !DISubprogram(name: "DenseMapIterator", scope: !1446, file: !880, line: 1011, type: !1520, scopeLine: 1011, flags: DIFlagPublic | DIFlagPrototyped, spFlags: DISPFlagOptimized)
!1520 = !DISubroutineType(types: !1521)
!1521 = !{null, !1515, !1522}
!1522 = !DIDerivedType(tag: DW_TAG_reference_type, baseType: !1523, size: 64)
!1523 = !DIDerivedType(tag: DW_TAG_const_type, baseType: !1446)
!1524 = !DISubprogram(name: "operator*", linkageName: "_ZNK4llvm16DenseMapIteratorIPKN5clang9FileEntryES4_NS_12DenseMapInfoIS4_EELb0EEdeEv", scope: !1446, file: !880, line: 1015, type: !1525, scopeLine: 1015, flags: DIFlagPublic | DIFlagPrototyped, spFlags: DISPFlagOptimized)
!1525 = !DISubroutineType(types: !1526)
!1526 = !{!1527, !1529}
!1527 = !DIDerivedType(tag: DW_TAG_typedef, name: "reference", scope: !1446, file: !880, line: 996, baseType: !1528)
!1528 = !DIDerivedType(tag: DW_TAG_reference_type, baseType: !1451, size: 64)
!1529 = !DIDerivedType(tag: DW_TAG_pointer_type, baseType: !1523, size: 64, flags: DIFlagArtificial | DIFlagObjectPointer)
!1530 = !DISubprogram(name: "operator->", linkageName: "_ZNK4llvm16DenseMapIteratorIPKN5clang9FileEntryES4_NS_12DenseMapInfoIS4_EELb0EEptEv", scope: !1446, file: !880, line: 1018, type: !1531, scopeLine: 1018, flags: DIFlagPublic | DIFlagPrototyped, spFlags: DISPFlagOptimized)
!1531 = !DISubroutineType(types: !1532)
!1532 = !{!1449, !1529}
!1533 = !DISubprogram(name: "operator==", linkageName: "_ZNK4llvm16DenseMapIteratorIPKN5clang9FileEntryES4_NS_12DenseMapInfoIS4_EELb0EEeqERKNS0_IS4_S4_S6_Lb1EEE", scope: !1446, file: !880, line: 1022, type: !1534, scopeLine: 1022, flags: DIFlagPublic | DIFlagPrototyped, spFlags: DISPFlagOptimized)
!1534 = !DISubroutineType(types: !1535)
!1535 = !{!82, !1529, !1536}
!1536 = !DIDerivedType(tag: DW_TAG_reference_type, baseType: !1537, size: 64)
!1537 = !DIDerivedType(tag: DW_TAG_const_type, baseType: !1538)
!1538 = !DIDerivedType(tag: DW_TAG_typedef, name: "ConstIterator", scope: !1446, file: !880, line: 990, baseType: !1539)
!1539 = distinct !DICompositeType(tag: DW_TAG_class_type, name: "DenseMapIterator<const clang::FileEntry *, const clang::FileEntry *, llvm::DenseMapInfo<const clang::FileEntry *>, true>", scope: !14, file: !880, line: 987, size: 128, flags: DIFlagTypePassByValue | DIFlagNonTrivial, elements: !1540, templateParams: !1584, identifier: "_ZTSN4llvm16DenseMapIteratorIPKN5clang9FileEntryES4_NS_12DenseMapInfoIS4_EELb1EEE")
!1540 = !{!1541, !1548, !1549, !1553, !1556, !1559, !1566, !1569, !1575, !1576, !1580, !1583}
!1541 = !DIDerivedType(tag: DW_TAG_member, name: "Ptr", scope: !1539, file: !880, line: 999, baseType: !1542, size: 64)
!1542 = !DIDerivedType(tag: DW_TAG_typedef, name: "pointer", scope: !1539, file: !880, line: 995, baseType: !1543)
!1543 = !DIDerivedType(tag: DW_TAG_pointer_type, baseType: !1544, size: 64)
!1544 = !DIDerivedType(tag: DW_TAG_typedef, name: "value_type", scope: !1539, file: !880, line: 994, baseType: !1545)
!1545 = !DIDerivedType(tag: DW_TAG_typedef, name: "type", scope: !1546, file: !903, line: 233, baseType: !1457)
!1546 = distinct !DICompositeType(tag: DW_TAG_structure_type, name: "conditional<true, const std::pair<const clang::FileEntry *, const clang::FileEntry *>, std::pair<const clang::FileEntry *, const clang::FileEntry *> >", scope: !14, file: !903, line: 233, size: 8, flags: DIFlagTypePassByValue, elements: !195, templateParams: !1547, identifier: "_ZTSN4llvm11conditionalILb1EKSt4pairIPKN5clang9FileEntryES5_ES6_EE")
!1547 = !{!906, !1456, !1510}
!1548 = !DIDerivedType(tag: DW_TAG_member, name: "End", scope: !1539, file: !880, line: 999, baseType: !1542, size: 64, offset: 64)
!1549 = !DISubprogram(name: "DenseMapIterator", scope: !1539, file: !880, line: 1001, type: !1550, scopeLine: 1001, flags: DIFlagPublic | DIFlagPrototyped, spFlags: DISPFlagOptimized)
!1550 = !DISubroutineType(types: !1551)
!1551 = !{null, !1552}
!1552 = !DIDerivedType(tag: DW_TAG_pointer_type, baseType: !1539, size: 64, flags: DIFlagArtificial | DIFlagObjectPointer)
!1553 = !DISubprogram(name: "DenseMapIterator", scope: !1539, file: !880, line: 1003, type: !1554, scopeLine: 1003, flags: DIFlagPublic | DIFlagPrototyped, spFlags: DISPFlagOptimized)
!1554 = !DISubroutineType(types: !1555)
!1555 = !{null, !1552, !1542, !1542, !82}
!1556 = !DISubprogram(name: "DenseMapIterator", scope: !1539, file: !880, line: 1011, type: !1557, scopeLine: 1011, flags: DIFlagPublic | DIFlagPrototyped, spFlags: DISPFlagOptimized)
!1557 = !DISubroutineType(types: !1558)
!1558 = !{null, !1552, !1522}
!1559 = !DISubprogram(name: "operator*", linkageName: "_ZNK4llvm16DenseMapIteratorIPKN5clang9FileEntryES4_NS_12DenseMapInfoIS4_EELb1EEdeEv", scope: !1539, file: !880, line: 1015, type: !1560, scopeLine: 1015, flags: DIFlagPublic | DIFlagPrototyped, spFlags: DISPFlagOptimized)
!1560 = !DISubroutineType(types: !1561)
!1561 = !{!1562, !1564}
!1562 = !DIDerivedType(tag: DW_TAG_typedef, name: "reference", scope: !1539, file: !880, line: 996, baseType: !1563)
!1563 = !DIDerivedType(tag: DW_TAG_reference_type, baseType: !1544, size: 64)
!1564 = !DIDerivedType(tag: DW_TAG_pointer_type, baseType: !1565, size: 64, flags: DIFlagArtificial | DIFlagObjectPointer)
!1565 = !DIDerivedType(tag: DW_TAG_const_type, baseType: !1539)
!1566 = !DISubprogram(name: "operator->", linkageName: "_ZNK4llvm16DenseMapIteratorIPKN5clang9FileEntryES4_NS_12DenseMapInfoIS4_EELb1EEptEv", scope: !1539, file: !880, line: 1018, type: !1567, scopeLine: 1018, flags: DIFlagPublic | DIFlagPrototyped, spFlags: DISPFlagOptimized)
!1567 = !DISubroutineType(types: !1568)
!1568 = !{!1542, !1564}
!1569 = !DISubprogram(name: "operator==", linkageName: "_ZNK4llvm16DenseMapIteratorIPKN5clang9FileEntryES4_NS_12DenseMapInfoIS4_EELb1EEeqERKS7_", scope: !1539, file: !880, line: 1022, type: !1570, scopeLine: 1022, flags: DIFlagPublic | DIFlagPrototyped, spFlags: DISPFlagOptimized)
!1570 = !DISubroutineType(types: !1571)
!1571 = !{!82, !1564, !1572}
!1572 = !DIDerivedType(tag: DW_TAG_reference_type, baseType: !1573, size: 64)
!1573 = !DIDerivedType(tag: DW_TAG_const_type, baseType: !1574)
!1574 = !DIDerivedType(tag: DW_TAG_typedef, name: "ConstIterator", scope: !1539, file: !880, line: 990, baseType: !1539)
!1575 = !DISubprogram(name: "operator!=", linkageName: "_ZNK4llvm16DenseMapIteratorIPKN5clang9FileEntryES4_NS_12DenseMapInfoIS4_EELb1EEneERKS7_", scope: !1539, file: !880, line: 1025, type: !1570, scopeLine: 1025, flags: DIFlagPublic | DIFlagPrototyped, spFlags: DISPFlagOptimized)
!1576 = !DISubprogram(name: "operator++", linkageName: "_ZN4llvm16DenseMapIteratorIPKN5clang9FileEntryES4_NS_12DenseMapInfoIS4_EELb1EEppEv", scope: !1539, file: !880, line: 1029, type: !1577, scopeLine: 1029, flags: DIFlagPublic | DIFlagPrototyped, spFlags: DISPFlagOptimized)
!1577 = !DISubroutineType(types: !1578)
!1578 = !{!1579, !1552}
!1579 = !DIDerivedType(tag: DW_TAG_reference_type, baseType: !1539, size: 64)
!1580 = !DISubprogram(name: "operator++", linkageName: "_ZN4llvm16DenseMapIteratorIPKN5clang9FileEntryES4_NS_12DenseMapInfoIS4_EELb1EEppEi", scope: !1539, file: !880, line: 1034, type: !1581, scopeLine: 1034, flags: DIFlagPublic | DIFlagPrototyped, spFlags: DISPFlagOptimized)
!1581 = !DISubroutineType(types: !1582)
!1582 = !{!1539, !1552, !55}
!1583 = !DISubprogram(name: "AdvancePastEmptyBuckets", linkageName: "_ZN4llvm16DenseMapIteratorIPKN5clang9FileEntryES4_NS_12DenseMapInfoIS4_EELb1EE23AdvancePastEmptyBucketsEv", scope: !1539, file: !880, line: 1039, type: !1550, scopeLine: 1039, flags: DIFlagPrototyped, spFlags: DISPFlagOptimized)
!1584 = !{!1230, !1585, !1232, !1248}
!1585 = !DITemplateTypeParameter(name: "ValueT", type: !930)
!1586 = !DISubprogram(name: "operator!=", linkageName: "_ZNK4llvm16DenseMapIteratorIPKN5clang9FileEntryES4_NS_12DenseMapInfoIS4_EELb0EEneERKNS0_IS4_S4_S6_Lb1EEE", scope: !1446, file: !880, line: 1025, type: !1534, scopeLine: 1025, flags: DIFlagPublic | DIFlagPrototyped, spFlags: DISPFlagOptimized)
!1587 = !DISubprogram(name: "operator++", linkageName: "_ZN4llvm16DenseMapIteratorIPKN5clang9FileEntryES4_NS_12DenseMapInfoIS4_EELb0EEppEv", scope: !1446, file: !880, line: 1029, type: !1588, scopeLine: 1029, flags: DIFlagPublic | DIFlagPrototyped, spFlags: DISPFlagOptimized)
!1588 = !DISubroutineType(types: !1589)
!1589 = !{!1590, !1515}
!1590 = !DIDerivedType(tag: DW_TAG_reference_type, baseType: !1446, size: 64)
!1591 = !DISubprogram(name: "operator++", linkageName: "_ZN4llvm16DenseMapIteratorIPKN5clang9FileEntryES4_NS_12DenseMapInfoIS4_EELb0EEppEi", scope: !1446, file: !880, line: 1034, type: !1592, scopeLine: 1034, flags: DIFlagPublic | DIFlagPrototyped, spFlags: DISPFlagOptimized)
!1592 = !DISubroutineType(types: !1593)
!1593 = !{!1446, !1515, !55}
!1594 = !DISubprogram(name: "AdvancePastEmptyBuckets", linkageName: "_ZN4llvm16DenseMapIteratorIPKN5clang9FileEntryES4_NS_12DenseMapInfoIS4_EELb0EE23AdvancePastEmptyBucketsEv", scope: !1446, file: !880, line: 1039, type: !1513, scopeLine: 1039, flags: DIFlagPrototyped, spFlags: DISPFlagOptimized)
!1595 = !{!1230, !1585, !1232, !1596}
!1596 = !DITemplateValueParameter(name: "IsConst", type: !82, value: i8 0)
!1597 = !DIDerivedType(tag: DW_TAG_pointer_type, baseType: !1440, size: 64, flags: DIFlagArtificial | DIFlagObjectPointer)
!1598 = !DISubprogram(name: "end", linkageName: "_ZN4llvm12DenseMapBaseINS_8DenseMapIPKN5clang9FileEntryES5_NS_12DenseMapInfoIS5_EEEES5_S5_S7_E3endEv", scope: !1440, file: !880, line: 57, type: !1443, scopeLine: 57, flags: DIFlagPublic | DIFlagPrototyped, spFlags: DISPFlagOptimized)
!1599 = !DISubprogram(name: "begin", linkageName: "_ZNK4llvm12DenseMapBaseINS_8DenseMapIPKN5clang9FileEntryES5_NS_12DenseMapInfoIS5_EEEES5_S5_S7_E5beginEv", scope: !1440, file: !880, line: 60, type: !1600, scopeLine: 60, flags: DIFlagPublic | DIFlagPrototyped, spFlags: DISPFlagOptimized)
!1600 = !DISubroutineType(types: !1601)
!1601 = !{!1602, !1603}
!1602 = !DIDerivedType(tag: DW_TAG_typedef, name: "const_iterator", scope: !1440, file: !880, line: 52, baseType: !1539)
!1603 = !DIDerivedType(tag: DW_TAG_pointer_type, baseType: !1604, size: 64, flags: DIFlagArtificial | DIFlagObjectPointer)
!1604 = !DIDerivedType(tag: DW_TAG_const_type, baseType: !1440)
!1605 = !DISubprogram(name: "end", linkageName: "_ZNK4llvm12DenseMapBaseINS_8DenseMapIPKN5clang9FileEntryES5_NS_12DenseMapInfoIS5_EEEES5_S5_S7_E3endEv", scope: !1440, file: !880, line: 63, type: !1600, scopeLine: 63, flags: DIFlagPublic | DIFlagPrototyped, spFlags: DISPFlagOptimized)
!1606 = !DISubprogram(name: "empty", linkageName: "_ZNK4llvm12DenseMapBaseINS_8DenseMapIPKN5clang9FileEntryES5_NS_12DenseMapInfoIS5_EEEES5_S5_S7_E5emptyEv", scope: !1440, file: !880, line: 67, type: !1607, scopeLine: 67, flags: DIFlagPublic | DIFlagPrototyped, spFlags: DISPFlagOptimized)
!1607 = !DISubroutineType(types: !1608)
!1608 = !{!82, !1603}
!1609 = !DISubprogram(name: "size", linkageName: "_ZNK4llvm12DenseMapBaseINS_8DenseMapIPKN5clang9FileEntryES5_NS_12DenseMapInfoIS5_EEEES5_S5_S7_E4sizeEv", scope: !1440, file: !880, line: 70, type: !1610, scopeLine: 70, flags: DIFlagPublic | DIFlagPrototyped, spFlags: DISPFlagOptimized)
!1610 = !DISubroutineType(types: !1611)
!1611 = !{!6, !1603}
!1612 = !DISubprogram(name: "resize", linkageName: "_ZN4llvm12DenseMapBaseINS_8DenseMapIPKN5clang9FileEntryES5_NS_12DenseMapInfoIS5_EEEES5_S5_S7_E6resizeEm", scope: !1440, file: !880, line: 73, type: !1613, scopeLine: 73, flags: DIFlagPublic | DIFlagPrototyped, spFlags: DISPFlagOptimized)
!1613 = !DISubroutineType(types: !1614)
!1614 = !{null, !1597, !43}
!1615 = !DISubprogram(name: "clear", linkageName: "_ZN4llvm12DenseMapBaseINS_8DenseMapIPKN5clang9FileEntryES5_NS_12DenseMapInfoIS5_EEEES5_S5_S7_E5clearEv", scope: !1440, file: !880, line: 78, type: !1616, scopeLine: 78, flags: DIFlagPublic | DIFlagPrototyped, spFlags: DISPFlagOptimized)
!1616 = !DISubroutineType(types: !1617)
!1617 = !{null, !1597}
!1618 = !DISubprogram(name: "count", linkageName: "_ZNK4llvm12DenseMapBaseINS_8DenseMapIPKN5clang9FileEntryES5_NS_12DenseMapInfoIS5_EEEES5_S5_S7_E5countERKS5_", scope: !1440, file: !880, line: 103, type: !1619, scopeLine: 103, flags: DIFlagPublic | DIFlagPrototyped, spFlags: DISPFlagOptimized)
!1619 = !DISubroutineType(types: !1620)
!1620 = !{!82, !1603, !1267}
!1621 = !DISubprogram(name: "find", linkageName: "_ZN4llvm12DenseMapBaseINS_8DenseMapIPKN5clang9FileEntryES5_NS_12DenseMapInfoIS5_EEEES5_S5_S7_E4findERKS5_", scope: !1440, file: !880, line: 108, type: !1622, scopeLine: 108, flags: DIFlagPublic | DIFlagPrototyped, spFlags: DISPFlagOptimized)
!1622 = !DISubroutineType(types: !1623)
!1623 = !{!1445, !1597, !1267}
!1624 = !DISubprogram(name: "find", linkageName: "_ZNK4llvm12DenseMapBaseINS_8DenseMapIPKN5clang9FileEntryES5_NS_12DenseMapInfoIS5_EEEES5_S5_S7_E4findERKS5_", scope: !1440, file: !880, line: 114, type: !1625, scopeLine: 114, flags: DIFlagPublic | DIFlagPrototyped, spFlags: DISPFlagOptimized)
!1625 = !DISubroutineType(types: !1626)
!1626 = !{!1602, !1603, !1267}
!1627 = !DISubprogram(name: "lookup", linkageName: "_ZNK4llvm12DenseMapBaseINS_8DenseMapIPKN5clang9FileEntryES5_NS_12DenseMapInfoIS5_EEEES5_S5_S7_E6lookupERKS5_", scope: !1440, file: !880, line: 143, type: !1628, scopeLine: 143, flags: DIFlagPublic | DIFlagPrototyped, spFlags: DISPFlagOptimized)
!1628 = !DISubroutineType(types: !1629)
!1629 = !{!930, !1603, !1267}
!1630 = !DISubprogram(name: "insert", linkageName: "_ZN4llvm12DenseMapBaseINS_8DenseMapIPKN5clang9FileEntryES5_NS_12DenseMapInfoIS5_EEEES5_S5_S7_E6insertERKSt4pairIS5_S5_E", scope: !1440, file: !880, line: 153, type: !1631, scopeLine: 153, flags: DIFlagPublic | DIFlagPrototyped, spFlags: DISPFlagOptimized)
!1631 = !DISubroutineType(types: !1632)
!1632 = !{!1633, !1597, !1485}
!1633 = !DICompositeType(tag: DW_TAG_structure_type, name: "pair<llvm::DenseMapIterator<const clang::FileEntry *, const clang::FileEntry *, llvm::DenseMapInfo<const clang::FileEntry *>, false>, bool>", scope: !32, file: !154, line: 208, flags: DIFlagFwdDecl, identifier: "_ZTSSt4pairIN4llvm16DenseMapIteratorIPKN5clang9FileEntryES5_NS0_12DenseMapInfoIS5_EELb0EEEbE")
!1634 = !DISubprogram(name: "insert", linkageName: "_ZN4llvm12DenseMapBaseINS_8DenseMapIPKN5clang9FileEntryES5_NS_12DenseMapInfoIS5_EEEES5_S5_S7_E6insertEOSt4pairIS5_S5_E", scope: !1440, file: !880, line: 168, type: !1635, scopeLine: 168, flags: DIFlagPublic | DIFlagPrototyped, spFlags: DISPFlagOptimized)
!1635 = !DISubroutineType(types: !1636)
!1636 = !{!1633, !1597, !1489}
!1637 = !DISubprogram(name: "erase", linkageName: "_ZN4llvm12DenseMapBaseINS_8DenseMapIPKN5clang9FileEntryES5_NS_12DenseMapInfoIS5_EEEES5_S5_S7_E5eraseERKS5_", scope: !1440, file: !880, line: 190, type: !1638, scopeLine: 190, flags: DIFlagPublic | DIFlagPrototyped, spFlags: DISPFlagOptimized)
!1638 = !DISubroutineType(types: !1639)
!1639 = !{!82, !1597, !1267}
!1640 = !DISubprogram(name: "erase", linkageName: "_ZN4llvm12DenseMapBaseINS_8DenseMapIPKN5clang9FileEntryES5_NS_12DenseMapInfoIS5_EEEES5_S5_S7_E5eraseENS_16DenseMapIteratorIS5_S5_S7_Lb0EEE", scope: !1440, file: !880, line: 201, type: !1641, scopeLine: 201, flags: DIFlagPublic | DIFlagPrototyped, spFlags: DISPFlagOptimized)
!1641 = !DISubroutineType(types: !1642)
!1642 = !{null, !1597, !1445}
!1643 = !DISubprogram(name: "FindAndConstruct", linkageName: "_ZN4llvm12DenseMapBaseINS_8DenseMapIPKN5clang9FileEntryES5_NS_12DenseMapInfoIS5_EEEES5_S5_S7_E16FindAndConstructERKS5_", scope: !1440, file: !880, line: 209, type: !1644, scopeLine: 209, flags: DIFlagPublic | DIFlagPrototyped, spFlags: DISPFlagOptimized)
!1644 = !DISubroutineType(types: !1645)
!1645 = !{!1646, !1597, !1267}
!1646 = !DIDerivedType(tag: DW_TAG_reference_type, baseType: !1647, size: 64)
!1647 = !DIDerivedType(tag: DW_TAG_typedef, name: "value_type", scope: !1440, file: !880, line: 48, baseType: !1648)
!1648 = !DIDerivedType(tag: DW_TAG_typedef, name: "BucketT", scope: !1440, file: !880, line: 43, baseType: !1458)
!1649 = !DISubprogram(name: "operator[]", linkageName: "_ZN4llvm12DenseMapBaseINS_8DenseMapIPKN5clang9FileEntryES5_NS_12DenseMapInfoIS5_EEEES5_S5_S7_EixERKS5_", scope: !1440, file: !880, line: 217, type: !1650, scopeLine: 217, flags: DIFlagPublic | DIFlagPrototyped, spFlags: DISPFlagOptimized)
!1650 = !DISubroutineType(types: !1651)
!1651 = !{!1652, !1597, !1267}
!1652 = !DIDerivedType(tag: DW_TAG_reference_type, baseType: !930, size: 64)
!1653 = !DISubprogram(name: "FindAndConstruct", linkageName: "_ZN4llvm12DenseMapBaseINS_8DenseMapIPKN5clang9FileEntryES5_NS_12DenseMapInfoIS5_EEEES5_S5_S7_E16FindAndConstructEOS5_", scope: !1440, file: !880, line: 222, type: !1654, scopeLine: 222, flags: DIFlagPublic | DIFlagPrototyped, spFlags: DISPFlagOptimized)
!1654 = !DISubroutineType(types: !1655)
!1655 = !{!1646, !1597, !1304}
!1656 = !DISubprogram(name: "operator[]", linkageName: "_ZN4llvm12DenseMapBaseINS_8DenseMapIPKN5clang9FileEntryES5_NS_12DenseMapInfoIS5_EEEES5_S5_S7_EixEOS5_", scope: !1440, file: !880, line: 230, type: !1657, scopeLine: 230, flags: DIFlagPublic | DIFlagPrototyped, spFlags: DISPFlagOptimized)
!1657 = !DISubroutineType(types: !1658)
!1658 = !{!1652, !1597, !1304}
!1659 = !DISubprogram(name: "isPointerIntoBucketsArray", linkageName: "_ZNK4llvm12DenseMapBaseINS_8DenseMapIPKN5clang9FileEntryES5_NS_12DenseMapInfoIS5_EEEES5_S5_S7_E25isPointerIntoBucketsArrayEPKv", scope: !1440, file: !880, line: 238, type: !1660, scopeLine: 238, flags: DIFlagPublic | DIFlagPrototyped, spFlags: DISPFlagOptimized)
!1660 = !DISubroutineType(types: !1661)
!1661 = !{!82, !1603, !782}
!1662 = !DISubprogram(name: "getPointerIntoBucketsArray", linkageName: "_ZNK4llvm12DenseMapBaseINS_8DenseMapIPKN5clang9FileEntryES5_NS_12DenseMapInfoIS5_EEEES5_S5_S7_E26getPointerIntoBucketsArrayEv", scope: !1440, file: !880, line: 245, type: !1663, scopeLine: 245, flags: DIFlagPublic | DIFlagPrototyped, spFlags: DISPFlagOptimized)
!1663 = !DISubroutineType(types: !1664)
!1664 = !{!782, !1603}
!1665 = !DISubprogram(name: "DenseMapBase", scope: !1440, file: !880, line: 248, type: !1616, scopeLine: 248, flags: DIFlagProtected | DIFlagPrototyped, spFlags: DISPFlagOptimized)
!1666 = !DISubprogram(name: "destroyAll", linkageName: "_ZN4llvm12DenseMapBaseINS_8DenseMapIPKN5clang9FileEntryES5_NS_12DenseMapInfoIS5_EEEES5_S5_S7_E10destroyAllEv", scope: !1440, file: !880, line: 250, type: !1616, scopeLine: 250, flags: DIFlagProtected | DIFlagPrototyped, spFlags: DISPFlagOptimized)
!1667 = !DISubprogram(name: "initEmpty", linkageName: "_ZN4llvm12DenseMapBaseINS_8DenseMapIPKN5clang9FileEntryES5_NS_12DenseMapInfoIS5_EEEES5_S5_S7_E9initEmptyEv", scope: !1440, file: !880, line: 267, type: !1616, scopeLine: 267, flags: DIFlagProtected | DIFlagPrototyped, spFlags: DISPFlagOptimized)
!1668 = !DISubprogram(name: "moveFromOldBuckets", linkageName: "_ZN4llvm12DenseMapBaseINS_8DenseMapIPKN5clang9FileEntryES5_NS_12DenseMapInfoIS5_EEEES5_S5_S7_E18moveFromOldBucketsEPSt4pairIS5_S5_ESC_", scope: !1440, file: !880, line: 278, type: !1669, scopeLine: 278, flags: DIFlagProtected | DIFlagPrototyped, spFlags: DISPFlagOptimized)
!1669 = !DISubroutineType(types: !1670)
!1670 = !{null, !1597, !1671, !1671}
!1671 = !DIDerivedType(tag: DW_TAG_pointer_type, baseType: !1648, size: 64)
!1672 = !DISubprogram(name: "swap", linkageName: "_ZN4llvm12DenseMapBaseINS_8DenseMapIPKN5clang9FileEntryES5_NS_12DenseMapInfoIS5_EEEES5_S5_S7_E4swapERS9_", scope: !1440, file: !880, line: 328, type: !1673, scopeLine: 328, flags: DIFlagProtected | DIFlagPrototyped, spFlags: DISPFlagOptimized)
!1673 = !DISubroutineType(types: !1674)
!1674 = !{null, !1597, !1675}
!1675 = !DIDerivedType(tag: DW_TAG_reference_type, baseType: !1440, size: 64)
!1676 = !DISubprogram(name: "getHashValue", linkageName: "_ZN4llvm12DenseMapBaseINS_8DenseMapIPKN5clang9FileEntryES5_NS_12DenseMapInfoIS5_EEEES5_S5_S7_E12getHashValueERKS5_", scope: !1440, file: !880, line: 333, type: !1326, scopeLine: 333, flags: DIFlagProtected | DIFlagPrototyped | DIFlagStaticMember, spFlags: DISPFlagOptimized)
!1677 = !DISubprogram(name: "getEmptyKey", linkageName: "_ZN4llvm12DenseMapBaseINS_8DenseMapIPKN5clang9FileEntryES5_NS_12DenseMapInfoIS5_EEEES5_S5_S7_E11getEmptyKeyEv", scope: !1440, file: !880, line: 340, type: !1329, scopeLine: 340, flags: DIFlagProtected | DIFlagPrototyped | DIFlagStaticMember, spFlags: DISPFlagOptimized)
!1678 = !DISubprogram(name: "getTombstoneKey", linkageName: "_ZN4llvm12DenseMapBaseINS_8DenseMapIPKN5clang9FileEntryES5_NS_12DenseMapInfoIS5_EEEES5_S5_S7_E15getTombstoneKeyEv", scope: !1440, file: !880, line: 343, type: !1329, scopeLine: 343, flags: DIFlagProtected | DIFlagPrototyped | DIFlagStaticMember, spFlags: DISPFlagOptimized)
!1679 = !DISubprogram(name: "getNumEntries", linkageName: "_ZNK4llvm12DenseMapBaseINS_8DenseMapIPKN5clang9FileEntryES5_NS_12DenseMapInfoIS5_EEEES5_S5_S7_E13getNumEntriesEv", scope: !1440, file: !880, line: 348, type: !1610, scopeLine: 348, flags: DIFlagPrototyped, spFlags: DISPFlagOptimized)
!1680 = !DISubprogram(name: "setNumEntries", linkageName: "_ZN4llvm12DenseMapBaseINS_8DenseMapIPKN5clang9FileEntryES5_NS_12DenseMapInfoIS5_EEEES5_S5_S7_E13setNumEntriesEj", scope: !1440, file: !880, line: 351, type: !1681, scopeLine: 351, flags: DIFlagPrototyped, spFlags: DISPFlagOptimized)
!1681 = !DISubroutineType(types: !1682)
!1682 = !{null, !1597, !6}
!1683 = !DISubprogram(name: "incrementNumEntries", linkageName: "_ZN4llvm12DenseMapBaseINS_8DenseMapIPKN5clang9FileEntryES5_NS_12DenseMapInfoIS5_EEEES5_S5_S7_E19incrementNumEntriesEv", scope: !1440, file: !880, line: 354, type: !1616, scopeLine: 354, flags: DIFlagPrototyped, spFlags: DISPFlagOptimized)
!1684 = !DISubprogram(name: "decrementNumEntries", linkageName: "_ZN4llvm12DenseMapBaseINS_8DenseMapIPKN5clang9FileEntryES5_NS_12DenseMapInfoIS5_EEEES5_S5_S7_E19decrementNumEntriesEv", scope: !1440, file: !880, line: 357, type: !1616, scopeLine: 357, flags: DIFlagPrototyped, spFlags: DISPFlagOptimized)
!1685 = !DISubprogram(name: "getNumTombstones", linkageName: "_ZNK4llvm12DenseMapBaseINS_8DenseMapIPKN5clang9FileEntryES5_NS_12DenseMapInfoIS5_EEEES5_S5_S7_E16getNumTombstonesEv", scope: !1440, file: !880, line: 360, type: !1610, scopeLine: 360, flags: DIFlagPrototyped, spFlags: DISPFlagOptimized)
!1686 = !DISubprogram(name: "setNumTombstones", linkageName: "_ZN4llvm12DenseMapBaseINS_8DenseMapIPKN5clang9FileEntryES5_NS_12DenseMapInfoIS5_EEEES5_S5_S7_E16setNumTombstonesEj", scope: !1440, file: !880, line: 363, type: !1681, scopeLine: 363, flags: DIFlagPrototyped, spFlags: DISPFlagOptimized)
!1687 = !DISubprogram(name: "incrementNumTombstones", linkageName: "_ZN4llvm12DenseMapBaseINS_8DenseMapIPKN5clang9FileEntryES5_NS_12DenseMapInfoIS5_EEEES5_S5_S7_E22incrementNumTombstonesEv", scope: !1440, file: !880, line: 366, type: !1616, scopeLine: 366, flags: DIFlagPrototyped, spFlags: DISPFlagOptimized)
!1688 = !DISubprogram(name: "decrementNumTombstones", linkageName: "_ZN4llvm12DenseMapBaseINS_8DenseMapIPKN5clang9FileEntryES5_NS_12DenseMapInfoIS5_EEEES5_S5_S7_E22decrementNumTombstonesEv", scope: !1440, file: !880, line: 369, type: !1616, scopeLine: 369, flags: DIFlagPrototyped, spFlags: DISPFlagOptimized)
!1689 = !DISubprogram(name: "getBuckets", linkageName: "_ZNK4llvm12DenseMapBaseINS_8DenseMapIPKN5clang9FileEntryES5_NS_12DenseMapInfoIS5_EEEES5_S5_S7_E10getBucketsEv", scope: !1440, file: !880, line: 372, type: !1690, scopeLine: 372, flags: DIFlagPrototyped, spFlags: DISPFlagOptimized)
!1690 = !DISubroutineType(types: !1691)
!1691 = !{!1692, !1603}
!1692 = !DIDerivedType(tag: DW_TAG_pointer_type, baseType: !1693, size: 64)
!1693 = !DIDerivedType(tag: DW_TAG_const_type, baseType: !1648)
!1694 = !DISubprogram(name: "getBuckets", linkageName: "_ZN4llvm12DenseMapBaseINS_8DenseMapIPKN5clang9FileEntryES5_NS_12DenseMapInfoIS5_EEEES5_S5_S7_E10getBucketsEv", scope: !1440, file: !880, line: 375, type: !1695, scopeLine: 375, flags: DIFlagPrototyped, spFlags: DISPFlagOptimized)
!1695 = !DISubroutineType(types: !1696)
!1696 = !{!1671, !1597}
!1697 = !DISubprogram(name: "getNumBuckets", linkageName: "_ZNK4llvm12DenseMapBaseINS_8DenseMapIPKN5clang9FileEntryES5_NS_12DenseMapInfoIS5_EEEES5_S5_S7_E13getNumBucketsEv", scope: !1440, file: !880, line: 378, type: !1610, scopeLine: 378, flags: DIFlagPrototyped, spFlags: DISPFlagOptimized)
!1698 = !DISubprogram(name: "getBucketsEnd", linkageName: "_ZN4llvm12DenseMapBaseINS_8DenseMapIPKN5clang9FileEntryES5_NS_12DenseMapInfoIS5_EEEES5_S5_S7_E13getBucketsEndEv", scope: !1440, file: !880, line: 381, type: !1695, scopeLine: 381, flags: DIFlagPrototyped, spFlags: DISPFlagOptimized)
!1699 = !DISubprogram(name: "getBucketsEnd", linkageName: "_ZNK4llvm12DenseMapBaseINS_8DenseMapIPKN5clang9FileEntryES5_NS_12DenseMapInfoIS5_EEEES5_S5_S7_E13getBucketsEndEv", scope: !1440, file: !880, line: 384, type: !1690, scopeLine: 384, flags: DIFlagPrototyped, spFlags: DISPFlagOptimized)
!1700 = !DISubprogram(name: "grow", linkageName: "_ZN4llvm12DenseMapBaseINS_8DenseMapIPKN5clang9FileEntryES5_NS_12DenseMapInfoIS5_EEEES5_S5_S7_E4growEj", scope: !1440, file: !880, line: 388, type: !1681, scopeLine: 388, flags: DIFlagPrototyped, spFlags: DISPFlagOptimized)
!1701 = !DISubprogram(name: "shrink_and_clear", linkageName: "_ZN4llvm12DenseMapBaseINS_8DenseMapIPKN5clang9FileEntryES5_NS_12DenseMapInfoIS5_EEEES5_S5_S7_E16shrink_and_clearEv", scope: !1440, file: !880, line: 392, type: !1616, scopeLine: 392, flags: DIFlagPrototyped, spFlags: DISPFlagOptimized)
!1702 = !DISubprogram(name: "InsertIntoBucket", linkageName: "_ZN4llvm12DenseMapBaseINS_8DenseMapIPKN5clang9FileEntryES5_NS_12DenseMapInfoIS5_EEEES5_S5_S7_E16InsertIntoBucketERKS5_SB_PSt4pairIS5_S5_E", scope: !1440, file: !880, line: 397, type: !1703, scopeLine: 397, flags: DIFlagPrototyped, spFlags: DISPFlagOptimized)
!1703 = !DISubroutineType(types: !1704)
!1704 = !{!1671, !1597, !1267, !1267, !1671}
!1705 = !DISubprogram(name: "InsertIntoBucket", linkageName: "_ZN4llvm12DenseMapBaseINS_8DenseMapIPKN5clang9FileEntryES5_NS_12DenseMapInfoIS5_EEEES5_S5_S7_E16InsertIntoBucketERKS5_OS5_PSt4pairIS5_S5_E", scope: !1440, file: !880, line: 407, type: !1706, scopeLine: 407, flags: DIFlagPrototyped, spFlags: DISPFlagOptimized)
!1706 = !DISubroutineType(types: !1707)
!1707 = !{!1671, !1597, !1267, !1304, !1671}
!1708 = !DISubprogram(name: "InsertIntoBucket", linkageName: "_ZN4llvm12DenseMapBaseINS_8DenseMapIPKN5clang9FileEntryES5_NS_12DenseMapInfoIS5_EEEES5_S5_S7_E16InsertIntoBucketEOS5_SA_PSt4pairIS5_S5_E", scope: !1440, file: !880, line: 416, type: !1709, scopeLine: 416, flags: DIFlagPrototyped, spFlags: DISPFlagOptimized)
!1709 = !DISubroutineType(types: !1710)
!1710 = !{!1671, !1597, !1304, !1304, !1671}
!1711 = !DISubprogram(name: "InsertIntoBucketImpl", linkageName: "_ZN4llvm12DenseMapBaseINS_8DenseMapIPKN5clang9FileEntryES5_NS_12DenseMapInfoIS5_EEEES5_S5_S7_E20InsertIntoBucketImplERKS5_PSt4pairIS5_S5_E", scope: !1440, file: !880, line: 425, type: !1712, scopeLine: 425, flags: DIFlagPrototyped, spFlags: DISPFlagOptimized)
!1712 = !DISubroutineType(types: !1713)
!1713 = !{!1671, !1597, !1267, !1671}
!1714 = !DISubprogram(name: "getMemorySize", linkageName: "_ZNK4llvm12DenseMapBaseINS_8DenseMapIPKN5clang9FileEntryES5_NS_12DenseMapInfoIS5_EEEES5_S5_S7_E13getMemorySizeEv", scope: !1440, file: !880, line: 527, type: !1715, scopeLine: 527, flags: DIFlagPublic | DIFlagPrototyped, spFlags: DISPFlagOptimized)
!1715 = !DISubroutineType(types: !1716)
!1716 = !{!43, !1603}
!1717 = !{!1718, !1230, !1585, !1232}
!1718 = !DITemplateTypeParameter(name: "DerivedT", type: !1437)
!1719 = !DIDerivedType(tag: DW_TAG_member, name: "Buckets", scope: !1437, file: !880, line: 543, baseType: !1720, size: 64)
!1720 = !DIDerivedType(tag: DW_TAG_pointer_type, baseType: !1721, size: 64)
!1721 = !DIDerivedType(tag: DW_TAG_typedef, name: "BucketT", scope: !1437, file: !880, line: 540, baseType: !1648)
!1722 = !DIDerivedType(tag: DW_TAG_member, name: "NumEntries", scope: !1437, file: !880, line: 544, baseType: !6, size: 32, offset: 64)
!1723 = !DIDerivedType(tag: DW_TAG_member, name: "NumTombstones", scope: !1437, file: !880, line: 545, baseType: !6, size: 32, offset: 96)
!1724 = !DIDerivedType(tag: DW_TAG_member, name: "NumBuckets", scope: !1437, file: !880, line: 546, baseType: !6, size: 32, offset: 128)
!1725 = !DISubprogram(name: "DenseMap", scope: !1437, file: !880, line: 549, type: !1726, scopeLine: 549, flags: DIFlagPublic | DIFlagExplicit | DIFlagPrototyped, spFlags: DISPFlagOptimized)
!1726 = !DISubroutineType(types: !1727)
!1727 = !{null, !1728, !6}
!1728 = !DIDerivedType(tag: DW_TAG_pointer_type, baseType: !1437, size: 64, flags: DIFlagArtificial | DIFlagObjectPointer)
!1729 = !DISubprogram(name: "DenseMap", scope: !1437, file: !880, line: 553, type: !1730, scopeLine: 553, flags: DIFlagPublic | DIFlagPrototyped, spFlags: DISPFlagOptimized)
!1730 = !DISubroutineType(types: !1731)
!1731 = !{null, !1728, !1732}
!1732 = !DIDerivedType(tag: DW_TAG_reference_type, baseType: !1733, size: 64)
!1733 = !DIDerivedType(tag: DW_TAG_const_type, baseType: !1437)
!1734 = !DISubprogram(name: "DenseMap", scope: !1437, file: !880, line: 559, type: !1735, scopeLine: 559, flags: DIFlagPublic | DIFlagPrototyped, spFlags: DISPFlagOptimized)
!1735 = !DISubroutineType(types: !1736)
!1736 = !{null, !1728, !1737}
!1737 = !DIDerivedType(tag: DW_TAG_rvalue_reference_type, baseType: !1437, size: 64)
!1738 = !DISubprogram(name: "~DenseMap", scope: !1437, file: !880, line: 571, type: !1739, scopeLine: 571, flags: DIFlagPublic | DIFlagPrototyped, spFlags: DISPFlagOptimized)
!1739 = !DISubroutineType(types: !1740)
!1740 = !{null, !1728}
!1741 = !DISubprogram(name: "swap", linkageName: "_ZN4llvm8DenseMapIPKN5clang9FileEntryES4_NS_12DenseMapInfoIS4_EEE4swapERS7_", scope: !1437, file: !880, line: 576, type: !1742, scopeLine: 576, flags: DIFlagPublic | DIFlagPrototyped, spFlags: DISPFlagOptimized)
!1742 = !DISubroutineType(types: !1743)
!1743 = !{null, !1728, !1744}
!1744 = !DIDerivedType(tag: DW_TAG_reference_type, baseType: !1437, size: 64)
!1745 = !DISubprogram(name: "operator=", linkageName: "_ZN4llvm8DenseMapIPKN5clang9FileEntryES4_NS_12DenseMapInfoIS4_EEEaSERKS7_", scope: !1437, file: !880, line: 583, type: !1746, scopeLine: 583, flags: DIFlagPublic | DIFlagPrototyped, spFlags: DISPFlagOptimized)
!1746 = !DISubroutineType(types: !1747)
!1747 = !{!1744, !1728, !1732}
!1748 = !DISubprogram(name: "operator=", linkageName: "_ZN4llvm8DenseMapIPKN5clang9FileEntryES4_NS_12DenseMapInfoIS4_EEEaSEOS7_", scope: !1437, file: !880, line: 589, type: !1749, scopeLine: 589, flags: DIFlagPublic | DIFlagPrototyped, spFlags: DISPFlagOptimized)
!1749 = !DISubroutineType(types: !1750)
!1750 = !{!1744, !1728, !1737}
!1751 = !DISubprogram(name: "copyFrom", linkageName: "_ZN4llvm8DenseMapIPKN5clang9FileEntryES4_NS_12DenseMapInfoIS4_EEE8copyFromERKS7_", scope: !1437, file: !880, line: 598, type: !1730, scopeLine: 598, flags: DIFlagPublic | DIFlagPrototyped, spFlags: DISPFlagOptimized)
!1752 = !DISubprogram(name: "init", linkageName: "_ZN4llvm8DenseMapIPKN5clang9FileEntryES4_NS_12DenseMapInfoIS4_EEE4initEj", scope: !1437, file: !880, line: 609, type: !1726, scopeLine: 609, flags: DIFlagPublic | DIFlagPrototyped, spFlags: DISPFlagOptimized)
!1753 = !DISubprogram(name: "grow", linkageName: "_ZN4llvm8DenseMapIPKN5clang9FileEntryES4_NS_12DenseMapInfoIS4_EEE4growEj", scope: !1437, file: !880, line: 618, type: !1726, scopeLine: 618, flags: DIFlagPublic | DIFlagPrototyped, spFlags: DISPFlagOptimized)
!1754 = !DISubprogram(name: "shrink_and_clear", linkageName: "_ZN4llvm8DenseMapIPKN5clang9FileEntryES4_NS_12DenseMapInfoIS4_EEE16shrink_and_clearEv", scope: !1437, file: !880, line: 635, type: !1739, scopeLine: 635, flags: DIFlagPublic | DIFlagPrototyped, spFlags: DISPFlagOptimized)
!1755 = !DISubprogram(name: "getNumEntries", linkageName: "_ZNK4llvm8DenseMapIPKN5clang9FileEntryES4_NS_12DenseMapInfoIS4_EEE13getNumEntriesEv", scope: !1437, file: !880, line: 653, type: !1756, scopeLine: 653, flags: DIFlagPrototyped, spFlags: DISPFlagOptimized)
!1756 = !DISubroutineType(types: !1757)
!1757 = !{!6, !1758}
!1758 = !DIDerivedType(tag: DW_TAG_pointer_type, baseType: !1733, size: 64, flags: DIFlagArtificial | DIFlagObjectPointer)
!1759 = !DISubprogram(name: "setNumEntries", linkageName: "_ZN4llvm8DenseMapIPKN5clang9FileEntryES4_NS_12DenseMapInfoIS4_EEE13setNumEntriesEj", scope: !1437, file: !880, line: 656, type: !1726, scopeLine: 656, flags: DIFlagPrototyped, spFlags: DISPFlagOptimized)
!1760 = !DISubprogram(name: "getNumTombstones", linkageName: "_ZNK4llvm8DenseMapIPKN5clang9FileEntryES4_NS_12DenseMapInfoIS4_EEE16getNumTombstonesEv", scope: !1437, file: !880, line: 660, type: !1756, scopeLine: 660, flags: DIFlagPrototyped, spFlags: DISPFlagOptimized)
!1761 = !DISubprogram(name: "setNumTombstones", linkageName: "_ZN4llvm8DenseMapIPKN5clang9FileEntryES4_NS_12DenseMapInfoIS4_EEE16setNumTombstonesEj", scope: !1437, file: !880, line: 663, type: !1726, scopeLine: 663, flags: DIFlagPrototyped, spFlags: DISPFlagOptimized)
!1762 = !DISubprogram(name: "getBuckets", linkageName: "_ZNK4llvm8DenseMapIPKN5clang9FileEntryES4_NS_12DenseMapInfoIS4_EEE10getBucketsEv", scope: !1437, file: !880, line: 667, type: !1763, scopeLine: 667, flags: DIFlagPrototyped, spFlags: DISPFlagOptimized)
!1763 = !DISubroutineType(types: !1764)
!1764 = !{!1720, !1758}
!1765 = !DISubprogram(name: "getNumBuckets", linkageName: "_ZNK4llvm8DenseMapIPKN5clang9FileEntryES4_NS_12DenseMapInfoIS4_EEE13getNumBucketsEv", scope: !1437, file: !880, line: 671, type: !1756, scopeLine: 671, flags: DIFlagPrototyped, spFlags: DISPFlagOptimized)
!1766 = !DISubprogram(name: "allocateBuckets", linkageName: "_ZN4llvm8DenseMapIPKN5clang9FileEntryES4_NS_12DenseMapInfoIS4_EEE15allocateBucketsEj", scope: !1437, file: !880, line: 675, type: !1767, scopeLine: 675, flags: DIFlagPrototyped, spFlags: DISPFlagOptimized)
!1767 = !DISubroutineType(types: !1768)
!1768 = !{!82, !1728, !6}
!1769 = !{!1230, !1585, !1232}
!1770 = !DIDerivedType(tag: DW_TAG_member, name: "OverriddenFilesWithBuffer", scope: !1434, file: !790, line: 567, baseType: !1771, size: 192, offset: 192)
!1771 = distinct !DICompositeType(tag: DW_TAG_class_type, name: "DenseSet<const clang::FileEntry *, llvm::DenseMapInfo<const clang::FileEntry *> >", scope: !14, file: !1772, line: 26, size: 192, flags: DIFlagTypePassByReference | DIFlagNonTrivial, elements: !1773, templateParams: !2076, identifier: "_ZTSN4llvm8DenseSetIPKN5clang9FileEntryENS_12DenseMapInfoIS4_EEEE")
!1772 = !DIFile(filename: "/faster/fs/llvm34/include/llvm/ADT/DenseSet.h", directory: "")
!1773 = !{!1774, !2013, !2019, !2022, !2026, !2029, !2032, !2035, !2038, !2041, !2044, !2048, !2051, !2056, !2057, !2062, !2063, !2066, !2069, !2072}
!1774 = !DIDerivedType(tag: DW_TAG_member, name: "TheMap", scope: !1771, file: !1772, line: 28, baseType: !1775, size: 192)
!1775 = !DIDerivedType(tag: DW_TAG_typedef, name: "MapTy", scope: !1771, file: !1772, line: 27, baseType: !1776)
!1776 = distinct !DICompositeType(tag: DW_TAG_class_type, name: "DenseMap<const clang::FileEntry *, char, llvm::DenseMapInfo<const clang::FileEntry *> >", scope: !14, file: !880, line: 534, size: 192, flags: DIFlagTypePassByReference | DIFlagNonTrivial, elements: !1777, templateParams: !2012, identifier: "_ZTSN4llvm8DenseMapIPKN5clang9FileEntryEcNS_12DenseMapInfoIS4_EEEE")
!1777 = !{!1778, !1962, !1965, !1966, !1967, !1968, !1972, !1977, !1981, !1984, !1988, !1991, !1994, !1995, !1996, !1997, !1998, !2002, !2003, !2004, !2005, !2008, !2009}
!1778 = !DIDerivedType(tag: DW_TAG_inheritance, scope: !1776, baseType: !1779, flags: DIFlagPublic, extraData: i32 0)
!1779 = distinct !DICompositeType(tag: DW_TAG_class_type, name: "DenseMapBase<llvm::DenseMap<const clang::FileEntry *, char, llvm::DenseMapInfo<const clang::FileEntry *> >, const clang::FileEntry *, char, llvm::DenseMapInfo<const clang::FileEntry *> >", scope: !14, file: !880, line: 41, size: 8, flags: DIFlagTypePassByValue | DIFlagNonTrivial, elements: !1780, templateParams: !1959, identifier: "_ZTSN4llvm12DenseMapBaseINS_8DenseMapIPKN5clang9FileEntryEcNS_12DenseMapInfoIS5_EEEES5_cS7_EE")
!1780 = !{!1781, !1787, !1788, !1795, !1796, !1799, !1802, !1805, !1808, !1811, !1814, !1817, !1820, !1877, !1880, !1883, !1886, !1892, !1895, !1898, !1901, !1904, !1907, !1908, !1909, !1910, !1914, !1918, !1919, !1920, !1921, !1922, !1925, !1926, !1927, !1928, !1929, !1930, !1931, !1936, !1939, !1940, !1941, !1942, !1943, !1944, !1947, !1950, !1953, !1956}
!1781 = !DISubprogram(name: "begin", linkageName: "_ZN4llvm12DenseMapBaseINS_8DenseMapIPKN5clang9FileEntryEcNS_12DenseMapInfoIS5_EEEES5_cS7_E5beginEv", scope: !1779, file: !880, line: 53, type: !1782, scopeLine: 53, flags: DIFlagPublic | DIFlagPrototyped, spFlags: DISPFlagOptimized)
!1782 = !DISubroutineType(types: !1783)
!1783 = !{!1784, !1786}
!1784 = !DIDerivedType(tag: DW_TAG_typedef, name: "iterator", scope: !1779, file: !880, line: 50, baseType: !1785)
!1785 = !DICompositeType(tag: DW_TAG_class_type, name: "DenseMapIterator<const clang::FileEntry *, char, llvm::DenseMapInfo<const clang::FileEntry *>, false>", scope: !14, file: !880, line: 37, flags: DIFlagFwdDecl, identifier: "_ZTSN4llvm16DenseMapIteratorIPKN5clang9FileEntryEcNS_12DenseMapInfoIS4_EELb0EEE")
!1786 = !DIDerivedType(tag: DW_TAG_pointer_type, baseType: !1779, size: 64, flags: DIFlagArtificial | DIFlagObjectPointer)
!1787 = !DISubprogram(name: "end", linkageName: "_ZN4llvm12DenseMapBaseINS_8DenseMapIPKN5clang9FileEntryEcNS_12DenseMapInfoIS5_EEEES5_cS7_E3endEv", scope: !1779, file: !880, line: 57, type: !1782, scopeLine: 57, flags: DIFlagPublic | DIFlagPrototyped, spFlags: DISPFlagOptimized)
!1788 = !DISubprogram(name: "begin", linkageName: "_ZNK4llvm12DenseMapBaseINS_8DenseMapIPKN5clang9FileEntryEcNS_12DenseMapInfoIS5_EEEES5_cS7_E5beginEv", scope: !1779, file: !880, line: 60, type: !1789, scopeLine: 60, flags: DIFlagPublic | DIFlagPrototyped, spFlags: DISPFlagOptimized)
!1789 = !DISubroutineType(types: !1790)
!1790 = !{!1791, !1793}
!1791 = !DIDerivedType(tag: DW_TAG_typedef, name: "const_iterator", scope: !1779, file: !880, line: 52, baseType: !1792)
!1792 = !DICompositeType(tag: DW_TAG_class_type, name: "DenseMapIterator<const clang::FileEntry *, char, llvm::DenseMapInfo<const clang::FileEntry *>, true>", scope: !14, file: !880, line: 37, flags: DIFlagFwdDecl, identifier: "_ZTSN4llvm16DenseMapIteratorIPKN5clang9FileEntryEcNS_12DenseMapInfoIS4_EELb1EEE")
!1793 = !DIDerivedType(tag: DW_TAG_pointer_type, baseType: !1794, size: 64, flags: DIFlagArtificial | DIFlagObjectPointer)
!1794 = !DIDerivedType(tag: DW_TAG_const_type, baseType: !1779)
!1795 = !DISubprogram(name: "end", linkageName: "_ZNK4llvm12DenseMapBaseINS_8DenseMapIPKN5clang9FileEntryEcNS_12DenseMapInfoIS5_EEEES5_cS7_E3endEv", scope: !1779, file: !880, line: 63, type: !1789, scopeLine: 63, flags: DIFlagPublic | DIFlagPrototyped, spFlags: DISPFlagOptimized)
!1796 = !DISubprogram(name: "empty", linkageName: "_ZNK4llvm12DenseMapBaseINS_8DenseMapIPKN5clang9FileEntryEcNS_12DenseMapInfoIS5_EEEES5_cS7_E5emptyEv", scope: !1779, file: !880, line: 67, type: !1797, scopeLine: 67, flags: DIFlagPublic | DIFlagPrototyped, spFlags: DISPFlagOptimized)
!1797 = !DISubroutineType(types: !1798)
!1798 = !{!82, !1793}
!1799 = !DISubprogram(name: "size", linkageName: "_ZNK4llvm12DenseMapBaseINS_8DenseMapIPKN5clang9FileEntryEcNS_12DenseMapInfoIS5_EEEES5_cS7_E4sizeEv", scope: !1779, file: !880, line: 70, type: !1800, scopeLine: 70, flags: DIFlagPublic | DIFlagPrototyped, spFlags: DISPFlagOptimized)
!1800 = !DISubroutineType(types: !1801)
!1801 = !{!6, !1793}
!1802 = !DISubprogram(name: "resize", linkageName: "_ZN4llvm12DenseMapBaseINS_8DenseMapIPKN5clang9FileEntryEcNS_12DenseMapInfoIS5_EEEES5_cS7_E6resizeEm", scope: !1779, file: !880, line: 73, type: !1803, scopeLine: 73, flags: DIFlagPublic | DIFlagPrototyped, spFlags: DISPFlagOptimized)
!1803 = !DISubroutineType(types: !1804)
!1804 = !{null, !1786, !43}
!1805 = !DISubprogram(name: "clear", linkageName: "_ZN4llvm12DenseMapBaseINS_8DenseMapIPKN5clang9FileEntryEcNS_12DenseMapInfoIS5_EEEES5_cS7_E5clearEv", scope: !1779, file: !880, line: 78, type: !1806, scopeLine: 78, flags: DIFlagPublic | DIFlagPrototyped, spFlags: DISPFlagOptimized)
!1806 = !DISubroutineType(types: !1807)
!1807 = !{null, !1786}
!1808 = !DISubprogram(name: "count", linkageName: "_ZNK4llvm12DenseMapBaseINS_8DenseMapIPKN5clang9FileEntryEcNS_12DenseMapInfoIS5_EEEES5_cS7_E5countERKS5_", scope: !1779, file: !880, line: 103, type: !1809, scopeLine: 103, flags: DIFlagPublic | DIFlagPrototyped, spFlags: DISPFlagOptimized)
!1809 = !DISubroutineType(types: !1810)
!1810 = !{!82, !1793, !1267}
!1811 = !DISubprogram(name: "find", linkageName: "_ZN4llvm12DenseMapBaseINS_8DenseMapIPKN5clang9FileEntryEcNS_12DenseMapInfoIS5_EEEES5_cS7_E4findERKS5_", scope: !1779, file: !880, line: 108, type: !1812, scopeLine: 108, flags: DIFlagPublic | DIFlagPrototyped, spFlags: DISPFlagOptimized)
!1812 = !DISubroutineType(types: !1813)
!1813 = !{!1784, !1786, !1267}
!1814 = !DISubprogram(name: "find", linkageName: "_ZNK4llvm12DenseMapBaseINS_8DenseMapIPKN5clang9FileEntryEcNS_12DenseMapInfoIS5_EEEES5_cS7_E4findERKS5_", scope: !1779, file: !880, line: 114, type: !1815, scopeLine: 114, flags: DIFlagPublic | DIFlagPrototyped, spFlags: DISPFlagOptimized)
!1815 = !DISubroutineType(types: !1816)
!1816 = !{!1791, !1793, !1267}
!1817 = !DISubprogram(name: "lookup", linkageName: "_ZNK4llvm12DenseMapBaseINS_8DenseMapIPKN5clang9FileEntryEcNS_12DenseMapInfoIS5_EEEES5_cS7_E6lookupERKS5_", scope: !1779, file: !880, line: 143, type: !1818, scopeLine: 143, flags: DIFlagPublic | DIFlagPrototyped, spFlags: DISPFlagOptimized)
!1818 = !DISubroutineType(types: !1819)
!1819 = !{!25, !1793, !1267}
!1820 = !DISubprogram(name: "insert", linkageName: "_ZN4llvm12DenseMapBaseINS_8DenseMapIPKN5clang9FileEntryEcNS_12DenseMapInfoIS5_EEEES5_cS7_E6insertERKSt4pairIS5_cE", scope: !1779, file: !880, line: 153, type: !1821, scopeLine: 153, flags: DIFlagPublic | DIFlagPrototyped, spFlags: DISPFlagOptimized)
!1821 = !DISubroutineType(types: !1822)
!1822 = !{!1823, !1786, !1824}
!1823 = !DICompositeType(tag: DW_TAG_structure_type, name: "pair<llvm::DenseMapIterator<const clang::FileEntry *, char, llvm::DenseMapInfo<const clang::FileEntry *>, false>, bool>", scope: !32, file: !154, line: 208, flags: DIFlagFwdDecl, identifier: "_ZTSSt4pairIN4llvm16DenseMapIteratorIPKN5clang9FileEntryEcNS0_12DenseMapInfoIS5_EELb0EEEbE")
!1824 = !DIDerivedType(tag: DW_TAG_reference_type, baseType: !1825, size: 64)
!1825 = !DIDerivedType(tag: DW_TAG_const_type, baseType: !1826)
!1826 = distinct !DICompositeType(tag: DW_TAG_structure_type, name: "pair<const clang::FileEntry *, char>", scope: !32, file: !154, line: 208, size: 128, flags: DIFlagTypePassByValue | DIFlagNonTrivial, elements: !1827, templateParams: !1875, identifier: "_ZTSSt4pairIPKN5clang9FileEntryEcE")
!1827 = !{!1828, !1847, !1848, !1849, !1853, !1857, !1865, !1872}
!1828 = !DIDerivedType(tag: DW_TAG_inheritance, scope: !1826, baseType: !1829, flags: DIFlagPrivate, extraData: i32 0)
!1829 = distinct !DICompositeType(tag: DW_TAG_class_type, name: "__pair_base<const clang::FileEntry *, char>", scope: !32, file: !154, line: 190, size: 8, flags: DIFlagTypePassByValue, elements: !1830, templateParams: !1845, identifier: "_ZTSSt11__pair_baseIPKN5clang9FileEntryEcE")
!1830 = !{!1831, !1835, !1836, !1841}
