; ModuleID = '<stdin>'
source_filename = "/faster/fs/llvm34/lib/Target/Hexagon/HexagonHardwareLoops.cpp"
target datalayout = "e-m:e-p270:32:32-p271:32:32-p272:64:64-i64:64-f80:128-n8:16:32:64-S128"
target triple = "x86_64-unknown-linux-gnu"

%"class.llvm::TargetRegisterClass" = type { %"class.llvm::MCRegisterClass"*, i32*, i32*, i16*, %"class.llvm::TargetRegisterClass"**, { i16*, i64 } (%"class.llvm::MachineFunction"*)* }
%"class.llvm::MCRegisterClass" = type { i8*, i16*, i8*, i16, i16, i16, i16, i16, i8, i8 }
%"class.llvm::MachineFunction" = type <{ %"class.llvm::Function"*, %"class.llvm::TargetMachine"*, %"class.llvm::MCContext"*, %"class.llvm::MachineModuleInfo"*, %"class.llvm::GCModuleInfo"*, %"class.llvm::MachineRegisterInfo"*, %"struct.llvm::MachineFunctionInfo"*, %"class.llvm::MachineFrameInfo"*, %"class.llvm::MachineConstantPool"*, %"class.llvm::MachineJumpTableInfo"*, %"class.std::vector.38", %"class.llvm::BumpPtrAllocator", %"class.llvm::Recycler", %"class.llvm::ArrayRecycler", %"class.llvm::Recycler.56", %"struct.llvm::ilist", i32, i32, i8, i8, [6 x i8] }>
%"class.llvm::Function" = type { %"class.llvm::GlobalValue", %"class.llvm::ilist_node", %"class.llvm::iplist", %"class.llvm::iplist.18", %"class.llvm::ValueSymbolTable"*, %"class.llvm::AttributeSet" }
%"class.llvm::GlobalValue" = type { %"class.llvm::Constant.base", i24, %"class.llvm::Module"*, %"class.std::__cxx11::basic_string" }
%"class.llvm::Constant.base" = type { %"class.llvm::User.base" }
%"class.llvm::User.base" = type <{ %"class.llvm::Value", %"class.llvm::Use"*, i32 }>
%"class.llvm::Value" = type { i32 (...)**, i8, i8, i16, %"class.llvm::Type"*, %"class.llvm::Use"*, %"class.llvm::StringMapEntry"* }
%"class.llvm::Type" = type { %"class.llvm::LLVMContext"*, i32, i32, %"class.llvm::Type"** }
%"class.llvm::LLVMContext" = type opaque
%"class.llvm::StringMapEntry" = type opaque
%"class.llvm::Use" = type { %"class.llvm::Value"*, %"class.llvm::Use"*, %"class.llvm::PointerIntPair" }
%"class.llvm::PointerIntPair" = type { i64 }
%"class.llvm::Module" = type opaque
%"class.std::__cxx11::basic_string" = type { %"struct.std::__cxx11::basic_string<char, std::char_traits<char>, std::allocator<char> >::_Alloc_hider", i64, %union.anon }
%"struct.std::__cxx11::basic_string<char, std::char_traits<char>, std::allocator<char> >::_Alloc_hider" = type { i8* }
%union.anon = type { i64, [8 x i8] }
%"class.llvm::ilist_node" = type { %"class.llvm::ilist_half_node", %"class.llvm::Function"* }
%"class.llvm::ilist_half_node" = type { %"class.llvm::Function"* }
%"class.llvm::iplist" = type { %"struct.llvm::ilist_traits", %"class.llvm::BasicBlock"* }
%"struct.llvm::ilist_traits" = type { %"class.llvm::ilist_half_node.17" }
%"class.llvm::ilist_half_node.17" = type { %"class.llvm::BasicBlock"* }
%"class.llvm::BasicBlock" = type { %"class.llvm::Value", %"class.llvm::ilist_node.156", %"class.llvm::iplist.157", %"class.llvm::Function"* }
%"class.llvm::ilist_node.156" = type { %"class.llvm::ilist_half_node.17", %"class.llvm::BasicBlock"* }
%"class.llvm::iplist.157" = type { %"struct.llvm::ilist_traits.158", %"class.llvm::Instruction"* }
%"struct.llvm::ilist_traits.158" = type { %"class.llvm::ilist_half_node.32" }
%"class.llvm::ilist_half_node.32" = type { %"class.llvm::Instruction"* }
%"class.llvm::Instruction" = type { %"class.llvm::User.base", %"class.llvm::ilist_node.31", %"class.llvm::BasicBlock"*, %"class.llvm::DebugLoc" }
%"class.llvm::ilist_node.31" = type { %"class.llvm::ilist_half_node.32", %"class.llvm::Instruction"* }
%"class.llvm::DebugLoc" = type { i32, i32 }
%"class.llvm::iplist.18" = type { %"struct.llvm::ilist_traits.19", %"class.llvm::Argument"* }
%"struct.llvm::ilist_traits.19" = type { %"class.llvm::ilist_half_node.25" }
%"class.llvm::ilist_half_node.25" = type { %"class.llvm::Argument"* }
%"class.llvm::Argument" = type { %"class.llvm::Value", %"class.llvm::ilist_node.169", %"class.llvm::Function"* }
%"class.llvm::ilist_node.169" = type { %"class.llvm::ilist_half_node.25", %"class.llvm::Argument"* }
%"class.llvm::ValueSymbolTable" = type opaque
%"class.llvm::AttributeSet" = type { %"class.llvm::AttributeSetImpl"* }
%"class.llvm::AttributeSetImpl" = type opaque
%"class.llvm::TargetMachine" = type { i32 (...)**, %"class.llvm::Target"*, %"class.std::__cxx11::basic_string", %"class.std::__cxx11::basic_string", %"class.std::__cxx11::basic_string", %"class.llvm::MCCodeGenInfo"*, %"class.llvm::MCAsmInfo"*, i8, %"class.llvm::TargetOptions" }
%"class.llvm::Target" = type opaque
%"class.llvm::MCCodeGenInfo" = type opaque
%"class.llvm::MCAsmInfo" = type opaque
%"class.llvm::TargetOptions" = type { i16, i32, i8, %"class.std::__cxx11::basic_string", i32, i32 }
%"class.llvm::MCContext" = type opaque
%"class.llvm::MachineModuleInfo" = type opaque
%"class.llvm::GCModuleInfo" = type opaque
%"class.llvm::MachineRegisterInfo" = type { %"class.llvm::TargetMachine"*, %"class.llvm::MachineRegisterInfo::Delegate"*, i8, i8, [6 x i8], %"class.llvm::IndexedMap", %"class.llvm::IndexedMap.77", %"class.llvm::MachineOperand"**, %"class.llvm::BitVector", %"class.llvm::BitVector", %"class.llvm::BitVector", %"class.std::vector.78" }
%"class.llvm::MachineRegisterInfo::Delegate" = type { i32 (...)** }
%"class.llvm::IndexedMap" = type <{ %"class.std::vector.9", %"struct.std::pair.14", %"struct.llvm::VirtReg2IndexFunctor", [7 x i8] }>
%"class.std::vector.9" = type { %"struct.std::_Vector_base.10" }
%"struct.std::_Vector_base.10" = type { %"struct.std::_Vector_base<std::pair<const llvm::TargetRegisterClass *, llvm::MachineOperand *>, std::allocator<std::pair<const llvm::TargetRegisterClass *, llvm::MachineOperand *> > >::_Vector_impl" }
%"struct.std::_Vector_base<std::pair<const llvm::TargetRegisterClass *, llvm::MachineOperand *>, std::allocator<std::pair<const llvm::TargetRegisterClass *, llvm::MachineOperand *> > >::_Vector_impl" = type { %"struct.std::pair.14"*, %"struct.std::pair.14"*, %"struct.std::pair.14"* }
%"struct.std::pair.14" = type { %"class.llvm::TargetRegisterClass"*, %"class.llvm::MachineOperand"* }
%"class.llvm::MachineOperand" = type { i8, [3 x i8], %union.anon.64, %"class.llvm::MachineInstr"*, %union.anon.73 }
%union.anon.64 = type { i32 }
%"class.llvm::MachineInstr" = type { %"class.llvm::ilist_node.65", %"class.llvm::MCInstrDesc"*, %"class.llvm::MachineBasicBlock"*, %"class.llvm::MachineOperand"*, i32, %"class.llvm::ArrayRecycler<llvm::MachineOperand, 8>::Capacity", i8, i8, i8, %"class.llvm::MachineMemOperand"**, %"class.llvm::DebugLoc" }
%"class.llvm::ilist_node.65" = type { %"class.llvm::ilist_half_node.66", %"class.llvm::MachineInstr"* }
%"class.llvm::ilist_half_node.66" = type { %"class.llvm::MachineInstr"* }
%"class.llvm::MCInstrDesc" = type { i16, i16, i16, i16, i16, i32, i64, i16*, i16*, %"class.llvm::MCOperandInfo"*, i64, i1 (%"class.llvm::MCInst"*, %"class.llvm::MCSubtargetInfo"*, %"class.std::__cxx11::basic_string"*)* }
%"class.llvm::MCOperandInfo" = type { i16, i8, i8, i32 }
%"class.llvm::MCInst" = type { i32, %"class.llvm::SMLoc", %"class.llvm::SmallVector.67" }
%"class.llvm::SMLoc" = type { i8* }
%"class.llvm::SmallVector.67" = type { %"class.llvm::SmallVectorImpl.68", %"struct.llvm::SmallVectorStorage.72" }
%"class.llvm::SmallVectorImpl.68" = type { %"class.llvm::SmallVectorTemplateBase.69" }
%"class.llvm::SmallVectorTemplateBase.69" = type { %"class.llvm::SmallVectorTemplateCommon.70" }
%"class.llvm::SmallVectorTemplateCommon.70" = type { %"class.llvm::SmallVectorBase", %"struct.llvm::AlignedCharArrayUnion.71" }
%"class.llvm::SmallVectorBase" = type { i8*, i8*, i8* }
%"struct.llvm::AlignedCharArrayUnion.71" = type { %"struct.llvm::AlignedCharArray" }
%"struct.llvm::AlignedCharArray" = type { [16 x i8] }
%"struct.llvm::SmallVectorStorage.72" = type { [7 x %"struct.llvm::AlignedCharArrayUnion.71"] }
%"class.llvm::MCSubtargetInfo" = type { %"class.std::__cxx11::basic_string", %"struct.llvm::SubtargetFeatureKV"*, %"struct.llvm::SubtargetFeatureKV"*, %"struct.llvm::SubtargetInfoKV"*, %"struct.llvm::MCWriteProcResEntry"*, %"struct.llvm::MCWriteLatencyEntry"*, %"struct.llvm::MCReadAdvanceEntry"*, %"class.llvm::MCSchedModel"*, %"struct.llvm::InstrStage"*, i32*, i32*, i32, i32, i64 }
%"struct.llvm::SubtargetFeatureKV" = type { i8*, i8*, i64, i64 }
%"struct.llvm::SubtargetInfoKV" = type { i8*, i8* }
%"struct.llvm::MCWriteProcResEntry" = type { i32, i32 }
%"struct.llvm::MCWriteLatencyEntry" = type { i32, i32 }
%"struct.llvm::MCReadAdvanceEntry" = type { i32, i32, i32 }
%"class.llvm::MCSchedModel" = type { i32, i32, i32, i32, i32, i8, i32, %"struct.llvm::MCProcResourceDesc"*, %"struct.llvm::MCSchedClassDesc"*, i32, i32, %"struct.llvm::InstrItinerary"* }
%"struct.llvm::MCProcResourceDesc" = type { i32, i32, i32 }
%"struct.llvm::MCSchedClassDesc" = type { i16, i8, i8, i32, i32, i32, i32, i32, i32 }
%"struct.llvm::InstrItinerary" = type { i32, i32, i32, i32, i32 }
%"struct.llvm::InstrStage" = type { i32, i32, i32, i32 }
%"class.llvm::MachineBasicBlock" = type { %"class.llvm::ilist_node.148", %"struct.llvm::ilist.149", %"class.llvm::BasicBlock"*, i32, %"class.llvm::MachineFunction"*, %"class.std::vector.38", %"class.std::vector.38", %"class.std::vector.164", %"class.std::vector.164", i32, i8, i8, %"class.llvm::MCSymbol"* }
%"class.llvm::ilist_node.148" = type { %"class.llvm::ilist_half_node.63", %"class.llvm::MachineBasicBlock"* }
%"class.llvm::ilist_half_node.63" = type { %"class.llvm::MachineBasicBlock"* }
%"struct.llvm::ilist.149" = type { %"class.llvm::iplist.150" }
%"class.llvm::iplist.150" = type { %"struct.llvm::ilist_traits.151", %"class.llvm::MachineInstr"* }
%"struct.llvm::ilist_traits.151" = type { %"class.llvm::ilist_half_node.66", %"class.llvm::MachineBasicBlock"* }
%"class.std::vector.164" = type { %"struct.std::_Vector_base.165" }
%"struct.std::_Vector_base.165" = type { %"struct.std::_Vector_base<unsigned int, std::allocator<unsigned int> >::_Vector_impl" }
%"struct.std::_Vector_base<unsigned int, std::allocator<unsigned int> >::_Vector_impl" = type { i32*, i32*, i32* }
%"class.llvm::MCSymbol" = type opaque
%"class.llvm::ArrayRecycler<llvm::MachineOperand, 8>::Capacity" = type { i8 }
%"class.llvm::MachineMemOperand" = type { %"struct.llvm::MachinePointerInfo", i64, i32, %"class.llvm::MDNode"*, %"class.llvm::MDNode"* }
%"struct.llvm::MachinePointerInfo" = type { %"class.llvm::Value"*, i64 }
%"class.llvm::MDNode" = type opaque
%union.anon.73 = type { %struct.anon }
%struct.anon = type { %"class.llvm::MachineOperand"*, %"class.llvm::MachineOperand"* }
%"struct.llvm::VirtReg2IndexFunctor" = type { i8 }
%"class.llvm::IndexedMap.77" = type <{ %"class.std::vector.78", %"struct.std::pair.83", %"struct.llvm::VirtReg2IndexFunctor", [7 x i8] }>
%"struct.std::pair.83" = type { i32, i32 }
%"class.llvm::BitVector" = type { i64*, i32, i32 }
%"class.std::vector.78" = type { %"struct.std::_Vector_base.79" }
%"struct.std::_Vector_base.79" = type { %"struct.std::_Vector_base<std::pair<unsigned int, unsigned int>, std::allocator<std::pair<unsigned int, unsigned int> > >::_Vector_impl" }
%"struct.std::_Vector_base<std::pair<unsigned int, unsigned int>, std::allocator<std::pair<unsigned int, unsigned int> > >::_Vector_impl" = type { %"struct.std::pair.83"*, %"struct.std::pair.83"*, %"struct.std::pair.83"* }
%"struct.llvm::MachineFunctionInfo" = type { i32 (...)** }
%"class.llvm::MachineFrameInfo" = type <{ %"class.llvm::TargetMachine"*, %"class.std::vector.26", i32, i8, i8, i8, i8, i64, i32, i32, i8, i8, [2 x i8], i32, i32, i32, %"class.std::vector.33", i8, [7 x i8], %"class.llvm::SmallVector", i64, i32, i8, i8, [2 x i8] }>
%"class.std::vector.26" = type { %"struct.std::_Vector_base.27" }
%"struct.std::_Vector_base.27" = type { %"struct.std::_Vector_base<llvm::MachineFrameInfo::StackObject, std::allocator<llvm::MachineFrameInfo::StackObject> >::_Vector_impl" }
%"struct.std::_Vector_base<llvm::MachineFrameInfo::StackObject, std::allocator<llvm::MachineFrameInfo::StackObject> >::_Vector_impl" = type { %"struct.llvm::MachineFrameInfo::StackObject"*, %"struct.llvm::MachineFrameInfo::StackObject"*, %"struct.llvm::MachineFrameInfo::StackObject"* }
%"struct.llvm::MachineFrameInfo::StackObject" = type <{ i64, i64, i32, i8, i8, i8, i8, %"class.llvm::AllocaInst"*, i8, [7 x i8] }>
%"class.llvm::AllocaInst" = type { %"class.llvm::UnaryInstruction" }
%"class.llvm::UnaryInstruction" = type { %"class.llvm::Instruction" }
%"class.std::vector.33" = type { %"struct.std::_Vector_base.34" }
%"struct.std::_Vector_base.34" = type { %"struct.std::_Vector_base<llvm::CalleeSavedInfo, std::allocator<llvm::CalleeSavedInfo> >::_Vector_impl" }
%"struct.std::_Vector_base<llvm::CalleeSavedInfo, std::allocator<llvm::CalleeSavedInfo> >::_Vector_impl" = type { %"class.llvm::CalleeSavedInfo"*, %"class.llvm::CalleeSavedInfo"*, %"class.llvm::CalleeSavedInfo"* }
%"class.llvm::CalleeSavedInfo" = type { i32, i32 }
%"class.llvm::SmallVector" = type { %"class.llvm::SmallVectorImpl", %"struct.llvm::SmallVectorStorage" }
%"class.llvm::SmallVectorImpl" = type { %"class.llvm::SmallVectorTemplateBase" }
%"class.llvm::SmallVectorTemplateBase" = type { %"class.llvm::SmallVectorTemplateCommon" }
%"class.llvm::SmallVectorTemplateCommon" = type { %"class.llvm::SmallVectorBase", %"struct.llvm::AlignedCharArrayUnion" }
%"struct.llvm::AlignedCharArrayUnion" = type { %"struct.llvm::AlignedCharArray" }
%"struct.llvm::SmallVectorStorage" = type { [31 x %"struct.llvm::AlignedCharArrayUnion"] }
%"class.llvm::MachineConstantPool" = type opaque
%"class.llvm::MachineJumpTableInfo" = type opaque
%"class.std::vector.38" = type { %"struct.std::_Vector_base.39" }
%"struct.std::_Vector_base.39" = type { %"struct.std::_Vector_base<llvm::MachineBasicBlock *, std::allocator<llvm::MachineBasicBlock *> >::_Vector_impl" }
%"struct.std::_Vector_base<llvm::MachineBasicBlock *, std::allocator<llvm::MachineBasicBlock *> >::_Vector_impl" = type { %"class.llvm::MachineBasicBlock"**, %"class.llvm::MachineBasicBlock"**, %"class.llvm::MachineBasicBlock"** }
%"class.llvm::BumpPtrAllocator" = type { i64, i64, %"class.llvm::MallocSlabAllocator", %"class.llvm::SlabAllocator"*, %"class.llvm::MemSlab"*, i8*, i8*, i64 }
%"class.llvm::MallocSlabAllocator" = type <{ %"class.llvm::SlabAllocator", %"class.llvm::MallocAllocator", [7 x i8] }>
%"class.llvm::SlabAllocator" = type { i32 (...)** }
%"class.llvm::MallocAllocator" = type { i8 }
%"class.llvm::MemSlab" = type { i64, %"class.llvm::MemSlab"* }
%"class.llvm::Recycler" = type { %"class.llvm::iplist.43" }
%"class.llvm::iplist.43" = type { %"struct.llvm::ilist_traits.44", %"struct.llvm::RecyclerStruct"* }
%"struct.llvm::ilist_traits.44" = type { %"struct.llvm::RecyclerStruct" }
%"struct.llvm::RecyclerStruct" = type { %"struct.llvm::RecyclerStruct"*, %"struct.llvm::RecyclerStruct"* }
%"class.llvm::ArrayRecycler" = type { %"class.llvm::SmallVector.49" }
%"class.llvm::SmallVector.49" = type { %"class.llvm::SmallVectorImpl.50", %"struct.llvm::SmallVectorStorage.55" }
%"class.llvm::SmallVectorImpl.50" = type { %"class.llvm::SmallVectorTemplateBase.51" }
%"class.llvm::SmallVectorTemplateBase.51" = type { %"class.llvm::SmallVectorTemplateCommon.52" }
%"class.llvm::SmallVectorTemplateCommon.52" = type { %"class.llvm::SmallVectorBase", %"struct.llvm::AlignedCharArrayUnion.53" }
%"struct.llvm::AlignedCharArrayUnion.53" = type { %"struct.llvm::AlignedCharArray.54" }
%"struct.llvm::AlignedCharArray.54" = type { [8 x i8] }
%"struct.llvm::SmallVectorStorage.55" = type { [7 x %"struct.llvm::AlignedCharArrayUnion.53"] }
%"class.llvm::Recycler.56" = type { %"class.llvm::iplist.43" }
%"struct.llvm::ilist" = type { %"class.llvm::iplist.57" }
%"class.llvm::iplist.57" = type { %"struct.llvm::ilist_traits.58", %"class.llvm::MachineBasicBlock"* }
%"struct.llvm::ilist_traits.58" = type { %"class.llvm::ilist_half_node.63" }
%"struct.(anonymous namespace)::HexagonHardwareLoops" = type { %"class.llvm::MachineFunctionPass.base", %"class.llvm::MachineLoopInfo"*, %"class.llvm::MachineRegisterInfo"*, %"class.llvm::MachineDominatorTree"*, %"class.llvm::HexagonTargetMachine"*, %"class.llvm::HexagonInstrInfo"*, %"struct.llvm::HexagonRegisterInfo"* }
%"class.llvm::MachineFunctionPass.base" = type { %"class.llvm::FunctionPass.base" }
%"class.llvm::FunctionPass.base" = type { %"class.llvm::Pass.base" }
%"class.llvm::Pass.base" = type <{ i32 (...)**, %"class.llvm::AnalysisResolver"*, i8*, i32 }>
%"class.llvm::AnalysisResolver" = type { %"class.std::vector", %"class.llvm::PMDataManager"* }
%"class.std::vector" = type { %"struct.std::_Vector_base" }
%"struct.std::_Vector_base" = type { %"struct.std::_Vector_base<std::pair<const void *, llvm::Pass *>, std::allocator<std::pair<const void *, llvm::Pass *> > >::_Vector_impl" }
%"struct.std::_Vector_base<std::pair<const void *, llvm::Pass *>, std::allocator<std::pair<const void *, llvm::Pass *> > >::_Vector_impl" = type { %"struct.std::pair"*, %"struct.std::pair"*, %"struct.std::pair"* }
%"struct.std::pair" = type { i8*, %"class.llvm::Pass"* }
%"class.llvm::Pass" = type <{ i32 (...)**, %"class.llvm::AnalysisResolver"*, i8*, i32, [4 x i8] }>
%"class.llvm::PMDataManager" = type opaque
%"class.llvm::MachineLoopInfo" = type { %"class.llvm::MachineFunctionPass.base", %"class.llvm::LoopInfoBase" }
%"class.llvm::LoopInfoBase" = type { %"class.llvm::DenseMap", %"class.std::vector.1" }
%"class.llvm::DenseMap" = type <{ %"struct.std::pair.0"*, i32, i32, i32, [4 x i8] }>
%"struct.std::pair.0" = type { %"class.llvm::MachineBasicBlock"*, %"class.llvm::MachineLoop"* }
%"class.llvm::MachineLoop" = type { %"class.llvm::LoopBase" }
%"class.llvm::LoopBase" = type { %"class.llvm::MachineLoop"*, %"class.std::vector.1", %"class.std::vector.38", %"class.llvm::SmallPtrSet" }
%"class.llvm::SmallPtrSet" = type { %"class.llvm::SmallPtrSetImpl.base", [8 x i8*] }
%"class.llvm::SmallPtrSetImpl.base" = type <{ i8**, i8**, i32, i32, i32 }>
%"class.std::vector.1" = type { %"struct.std::_Vector_base.2" }
%"struct.std::_Vector_base.2" = type { %"struct.std::_Vector_base<llvm::MachineLoop *, std::allocator<llvm::MachineLoop *> >::_Vector_impl" }
%"struct.std::_Vector_base<llvm::MachineLoop *, std::allocator<llvm::MachineLoop *> >::_Vector_impl" = type { %"class.llvm::MachineLoop"**, %"class.llvm::MachineLoop"**, %"class.llvm::MachineLoop"** }
%"class.llvm::MachineDominatorTree" = type { %"class.llvm::MachineFunctionPass.base", %"class.llvm::DominatorTreeBase"* }
%"class.llvm::DominatorTreeBase" = type { i32 (...)**, %"class.llvm::DominatorBase.base", [7 x i8], %"class.llvm::DenseMap.87", %"class.llvm::DomTreeNodeBase"*, i8, i32, %"class.llvm::DenseMap.97", %"class.std::vector.38", %"class.llvm::DenseMap.102" }
%"class.llvm::DominatorBase.base" = type <{ %"class.std::vector.38", i8 }>
%"class.llvm::DenseMap.87" = type <{ %"struct.std::pair.90"*, i32, i32, i32, [4 x i8] }>
%"struct.std::pair.90" = type { %"class.llvm::MachineBasicBlock"*, %"class.llvm::DomTreeNodeBase"* }
%"class.llvm::DomTreeNodeBase" = type { %"class.llvm::MachineBasicBlock"*, %"class.llvm::DomTreeNodeBase"*, %"class.std::vector.92", i32, i32 }
%"class.std::vector.92" = type { %"struct.std::_Vector_base.93" }
%"struct.std::_Vector_base.93" = type { %"struct.std::_Vector_base<llvm::DomTreeNodeBase<llvm::MachineBasicBlock> *, std::allocator<llvm::DomTreeNodeBase<llvm::MachineBasicBlock> *> >::_Vector_impl" }
%"struct.std::_Vector_base<llvm::DomTreeNodeBase<llvm::MachineBasicBlock> *, std::allocator<llvm::DomTreeNodeBase<llvm::MachineBasicBlock> *> >::_Vector_impl" = type { %"class.llvm::DomTreeNodeBase"**, %"class.llvm::DomTreeNodeBase"**, %"class.llvm::DomTreeNodeBase"** }
%"class.llvm::DenseMap.97" = type <{ %"struct.std::pair.100"*, i32, i32, i32, [4 x i8] }>
%"struct.std::pair.100" = type opaque
%"class.llvm::DenseMap.102" = type <{ %"struct.std::pair.105"*, i32, i32, i32, [4 x i8] }>
%"struct.std::pair.105" = type opaque
%"class.llvm::HexagonTargetMachine" = type { %"class.llvm::LLVMTargetMachine", %"class.llvm::DataLayout", %"class.llvm::HexagonSubtarget", %"class.llvm::HexagonInstrInfo", %"class.llvm::HexagonTargetLowering", %"class.llvm::HexagonSelectionDAGInfo", %"class.llvm::HexagonFrameLowering", %"class.llvm::InstrItineraryData"* }
%"class.llvm::LLVMTargetMachine" = type { %"class.llvm::TargetMachine" }
%"class.llvm::DataLayout" = type { %"class.llvm::ImmutablePass.base", i8, i32, [4 x i8], %"class.llvm::SmallVector.107", %"class.llvm::SmallVector.114", %"class.llvm::DenseMap.121", i8* }
%"class.llvm::ImmutablePass.base" = type { %"class.llvm::ModulePass.base" }
%"class.llvm::ModulePass.base" = type { %"class.llvm::Pass.base" }
%"class.llvm::SmallVector.107" = type { %"class.llvm::SmallVectorImpl.base", %"struct.llvm::SmallVectorStorage.113" }
%"class.llvm::SmallVectorImpl.base" = type { %"class.llvm::SmallVectorTemplateBase.base" }
%"class.llvm::SmallVectorTemplateBase.base" = type { %"class.llvm::SmallVectorTemplateCommon.base" }
%"class.llvm::SmallVectorTemplateCommon.base" = type <{ %"class.llvm::SmallVectorBase", %"struct.llvm::AlignedCharArrayUnion.111" }>
%"struct.llvm::AlignedCharArrayUnion.111" = type { %"struct.llvm::AlignedCharArray.112" }
%"struct.llvm::AlignedCharArray.112" = type { [1 x i8] }
%"struct.llvm::SmallVectorStorage.113" = type { [7 x %"struct.llvm::AlignedCharArrayUnion.111"] }
%"class.llvm::SmallVector.114" = type { %"class.llvm::SmallVectorImpl.115", %"struct.llvm::SmallVectorStorage.120" }
%"class.llvm::SmallVectorImpl.115" = type { %"class.llvm::SmallVectorTemplateBase.116" }
%"class.llvm::SmallVectorTemplateBase.116" = type { %"class.llvm::SmallVectorTemplateCommon.117" }
%"class.llvm::SmallVectorTemplateCommon.117" = type { %"class.llvm::SmallVectorBase", %"struct.llvm::AlignedCharArrayUnion.118" }
%"struct.llvm::AlignedCharArrayUnion.118" = type { %"struct.llvm::AlignedCharArray.119" }
%"struct.llvm::AlignedCharArray.119" = type { [8 x i8] }
%"struct.llvm::SmallVectorStorage.120" = type { [15 x %"struct.llvm::AlignedCharArrayUnion.118"] }
%"class.llvm::DenseMap.121" = type <{ %"struct.std::pair.124"*, i32, i32, i32, [4 x i8] }>
%"struct.std::pair.124" = type { i32, %"struct.llvm::PointerAlignElem" }
%"struct.llvm::PointerAlignElem" = type { i32, i32, i32, i32 }
%"class.llvm::HexagonSubtarget" = type { %"struct.llvm::HexagonGenSubtargetInfo", i8, i8, i32, %"class.std::__cxx11::basic_string", %"class.llvm::InstrItineraryData" }
%"struct.llvm::HexagonGenSubtargetInfo" = type { %"class.llvm::TargetSubtargetInfo" }
%"class.llvm::TargetSubtargetInfo" = type { i32 (...)**, %"class.llvm::MCSubtargetInfo" }
%"class.llvm::InstrItineraryData" = type { %"class.llvm::MCSchedModel"*, %"struct.llvm::InstrStage"*, i32*, i32*, %"struct.llvm::InstrItinerary"* }
%"class.llvm::HexagonInstrInfo" = type { %"struct.llvm::HexagonGenInstrInfo.base", %"struct.llvm::HexagonRegisterInfo", %"class.llvm::HexagonSubtarget"* }
%"struct.llvm::HexagonGenInstrInfo.base" = type { %"class.llvm::TargetInstrInfo.base" }
%"class.llvm::TargetInstrInfo.base" = type <{ i32 (...)**, %"class.llvm::MCInstrInfo.base", i32, i32 }>
%"class.llvm::MCInstrInfo.base" = type <{ %"class.llvm::MCInstrDesc"*, i32*, i8*, i32 }>
%"struct.llvm::HexagonRegisterInfo" = type { %"struct.llvm::HexagonGenRegisterInfo.base", %"class.llvm::HexagonSubtarget"* }
%"struct.llvm::HexagonGenRegisterInfo.base" = type { %"class.llvm::TargetRegisterInfo.base" }
%"class.llvm::TargetRegisterInfo.base" = type <{ i32 (...)**, %"class.llvm::MCRegisterInfo", %"struct.llvm::TargetRegisterInfoDesc"*, i8**, i32*, %"class.llvm::TargetRegisterClass"**, %"class.llvm::TargetRegisterClass"**, i32 }>
%"class.llvm::MCRegisterInfo" = type { %"struct.llvm::MCRegisterDesc"*, i32, i32, i32, %"class.llvm::MCRegisterClass"*, i32, i32, [2 x i16]*, i16*, i8*, i16*, %"struct.llvm::MCRegisterInfo::SubRegCoveredBits"*, i32, i16*, i32, i32, i32, i32, %"struct.llvm::MCRegisterInfo::DwarfLLVMRegPair"*, %"struct.llvm::MCRegisterInfo::DwarfLLVMRegPair"*, %"struct.llvm::MCRegisterInfo::DwarfLLVMRegPair"*, %"struct.llvm::MCRegisterInfo::DwarfLLVMRegPair"*, %"class.llvm::DenseMap.128" }
%"struct.llvm::MCRegisterDesc" = type { i32, i32, i32, i32, i32 }
%"struct.llvm::MCRegisterInfo::SubRegCoveredBits" = type { i16, i16 }
%"struct.llvm::MCRegisterInfo::DwarfLLVMRegPair" = type { i32, i32 }
%"class.llvm::DenseMap.128" = type <{ %"struct.std::pair.131"*, i32, i32, i32, [4 x i8] }>
%"struct.std::pair.131" = type { i32, i32 }
%"struct.llvm::TargetRegisterInfoDesc" = type { i32, i8 }
%"class.llvm::HexagonTargetLowering" = type { %"class.llvm::TargetLowering.base", i32, %"class.llvm::HexagonTargetMachine"* }
%"class.llvm::TargetLowering.base" = type { %"class.llvm::TargetLoweringBase.base" }
%"class.llvm::TargetLoweringBase.base" = type <{ i32 (...)**, %"class.llvm::TargetMachine"*, %"class.llvm::DataLayout"*, %"class.llvm::TargetLoweringObjectFile"*, i8, i8, i8, [5 x i8], %"class.llvm::DenseMap.133", i8, i8, i8, i8, i8, [3 x i8], i32, i32, i32, i32, i32, i32, i32, i32, i32, i32, i8, [3 x i8], i32, i32, i32, [58 x %"class.llvm::TargetRegisterClass"*], [58 x i8], [2 x i8], [58 x %"class.llvm::MVT"], [4 x i8], [58 x %"class.llvm::TargetRegisterClass"*], [58 x i8], [2 x i8], [58 x %"class.llvm::MVT"], [58 x [188 x i8]], [58 x [4 x i8]], [58 x [58 x i8]], [58 x [5 x i8]], [2 x i8], [24 x [4 x i32]], %"class.llvm::TargetLoweringBase::ValueTypeActionImpl", [2 x i8], %"class.std::vector.137", [24 x i8], %"class.std::map", [341 x i8*], [341 x i32], [341 x i32], i32, i32, i32, i32, i32, i32, i8 }>
%"class.llvm::TargetLoweringObjectFile" = type opaque
%"class.llvm::DenseMap.133" = type <{ %"struct.std::pair.83"*, i32, i32, i32, [4 x i8] }>
%"class.llvm::MVT" = type { i32 }
%"class.llvm::TargetLoweringBase::ValueTypeActionImpl" = type { [58 x i8] }
%"class.std::vector.137" = type { %"struct.std::_Vector_base.138" }
%"struct.std::_Vector_base.138" = type { %"struct.std::_Vector_base<std::pair<llvm::MVT, const llvm::TargetRegisterClass *>, std::allocator<std::pair<llvm::MVT, const llvm::TargetRegisterClass *> > >::_Vector_impl" }
%"struct.std::_Vector_base<std::pair<llvm::MVT, const llvm::TargetRegisterClass *>, std::allocator<std::pair<llvm::MVT, const llvm::TargetRegisterClass *> > >::_Vector_impl" = type { %"struct.std::pair.142"*, %"struct.std::pair.142"*, %"struct.std::pair.142"* }
%"struct.std::pair.142" = type { %"class.llvm::MVT", %"class.llvm::TargetRegisterClass"* }
%"class.std::map" = type { %"class.std::_Rb_tree" }
%"class.std::_Rb_tree" = type { %"struct.std::_Rb_tree<std::pair<unsigned int, llvm::MVT::SimpleValueType>, std::pair<const std::pair<unsigned int, llvm::MVT::SimpleValueType>, llvm::MVT::SimpleValueType>, std::_Select1st<std::pair<const std::pair<unsigned int, llvm::MVT::SimpleValueType>, llvm::MVT::SimpleValueType> >, std::less<std::pair<unsigned int, llvm::MVT::SimpleValueType> >, std::allocator<std::pair<const std::pair<unsigned int, llvm::MVT::SimpleValueType>, llvm::MVT::SimpleValueType> > >::_Rb_tree_impl" }
%"struct.std::_Rb_tree<std::pair<unsigned int, llvm::MVT::SimpleValueType>, std::pair<const std::pair<unsigned int, llvm::MVT::SimpleValueType>, llvm::MVT::SimpleValueType>, std::_Select1st<std::pair<const std::pair<unsigned int, llvm::MVT::SimpleValueType>, llvm::MVT::SimpleValueType> >, std::less<std::pair<unsigned int, llvm::MVT::SimpleValueType> >, std::allocator<std::pair<const std::pair<unsigned int, llvm::MVT::SimpleValueType>, llvm::MVT::SimpleValueType> > >::_Rb_tree_impl" = type { %"struct.std::_Rb_tree_key_compare", %"struct.std::_Rb_tree_header" }
%"struct.std::_Rb_tree_key_compare" = type { %"struct.std::less" }
%"struct.std::less" = type { i8 }
%"struct.std::_Rb_tree_header" = type { %"struct.std::_Rb_tree_node_base", i64 }
%"struct.std::_Rb_tree_node_base" = type { i32, %"struct.std::_Rb_tree_node_base"*, %"struct.std::_Rb_tree_node_base"*, %"struct.std::_Rb_tree_node_base"* }
%"class.llvm::HexagonSelectionDAGInfo" = type { %"class.llvm::TargetSelectionDAGInfo" }
%"class.llvm::TargetSelectionDAGInfo" = type { i32 (...)**, %"class.llvm::DataLayout"* }
%"class.llvm::HexagonFrameLowering" = type { %"class.llvm::TargetFrameLowering.base", %"class.llvm::HexagonSubtarget"* }
%"class.llvm::TargetFrameLowering.base" = type <{ i32 (...)**, i32, i32, i32, i32, i8 }>

@_ZN4llvm7Hexagon15IntRegsRegClassE = external global %"class.llvm::TargetRegisterClass", align 8
@_ZN4llvm7Hexagon18DoubleRegsRegClassE = external global %"class.llvm::TargetRegisterClass", align 8

; Function Attrs: nounwind uwtable
define hidden fastcc zeroext i1 @_ZN12_GLOBAL__N_120HexagonHardwareLoops21convertToHardwareLoopEPN4llvm11MachineLoopE(%"struct.(anonymous namespace)::HexagonHardwareLoops"* %this) unnamed_addr #0 align 2 !dbg !17071 {
_ZNK4llvm8SmallSetIjLj2ESt4lessIjEE5vfindERKj.exit.i394.i:
  br label %cleanup216.i

cleanup216.i:                                     ; preds = %_ZNK4llvm8SmallSetIjLj2ESt4lessIjEE5vfindERKj.exit.i394.i
  br label %_ZN4llvm8SmallSetIjLj2ESt4lessIjEED2Ev.exit.i

_ZN4llvm8SmallSetIjLj2ESt4lessIjEED2Ev.exit.i:    ; preds = %cleanup216.i
  br label %cleanup222.i

cleanup222.i:                                     ; preds = %_ZN4llvm8SmallSetIjLj2ESt4lessIjEED2Ev.exit.i
  br label %_ZN4llvm15SmallVectorImplINS_14MachineOperandEED2Ev.exit.i

_ZN4llvm15SmallVectorImplINS_14MachineOperandEED2Ev.exit.i: ; preds = %cleanup222.i
  br i1 true, label %if.end17, label %switch.lookup

if.end17:                                         ; preds = %_ZN4llvm15SmallVectorImplINS_14MachineOperandEED2Ev.exit.i
  br i1 undef, label %switch.lookup, label %if.end20

if.end20:                                         ; preds = %if.end17
  br i1 undef, label %switch.lookup, label %if.end25, !dbg !17358

if.end25:                                         ; preds = %if.end20
  br label %if.end33

for.body145.i:                                    ; preds = %if.end151.i
  br label %if.end151.i

if.end151.i:                                      ; preds = %for.body145.i
  br label %for.body145.i

for.body172.i:                                    ; preds = %if.end194.i
  br label %if.end194.i

if.end194.i:                                      ; preds = %for.body172.i
  br label %for.body172.i

if.end33:                                         ; preds = %if.end25
  br i1 undef, label %if.end19.i, label %cleanup190

if.end19.i:                                       ; preds = %if.end33
  br label %_ZNK4llvm8LoopBaseINS_17MachineBasicBlockENS_11MachineLoopEE8containsEPKS1_.exit.i

_ZNK4llvm8LoopBaseINS_17MachineBasicBlockENS_11MachineLoopEE8containsEPKS1_.exit.i: ; preds = %if.end19.i
  br label %if.end6.i.i.i323.i

for.cond.i.i.i316.i:                              ; preds = %for.body.i.i.i320.i
  br label %for.body.i.i.i320.i

for.body.i.i.i320.i:                              ; preds = %for.cond.i.i.i316.i
  br label %for.cond.i.i.i316.i

if.end6.i.i.i323.i:                               ; preds = %_ZNK4llvm8LoopBaseINS_17MachineBasicBlockENS_11MachineLoopEE8containsEPKS1_.exit.i
  br label %if.else.i

if.else.i:                                        ; preds = %if.end6.i.i.i323.i
  br i1 undef, label %if.end28.i, label %cleanup190

if.end28.i:                                       ; preds = %if.else.i
  br i1 undef, label %cleanup190, label %if.end31.i

if.end31.i:                                       ; preds = %if.end28.i
  br i1 undef, label %if.end.i328.i, label %cleanup190

if.end.i328.i:                                    ; preds = %if.end31.i
  br label %for.cond.cleanup.i.i

for.cond.cleanup.i.i:                             ; preds = %if.end.i328.i
  br i1 undef, label %cleanup112.i.i, label %if.end53.i.i

if.end53.i.i:                                     ; preds = %for.cond.cleanup.i.i
  br i1 undef, label %cleanup112.i.i, label %if.end61.i.i

if.end61.i.i:                                     ; preds = %if.end53.i.i
  br i1 undef, label %if.end69.i.i, label %cleanup104.i.i, !dbg !17359

if.end69.i.i:                                     ; preds = %if.end61.i.i
  br label %if.end79.i.i

if.end79.i.i:                                     ; preds = %if.end69.i.i
  br label %if.end90.i.i

if.end90.i.i:                                     ; preds = %if.end79.i.i
  br i1 undef, label %cleanup104.i.i, label %if.end93.i.i

if.end93.i.i:                                     ; preds = %if.end90.i.i
  %0 = load i32, i32* undef, align 8, !tbaa !17726
  br label %cleanup104.i.i

cleanup104.i.i:                                   ; preds = %if.end93.i.i, %if.end90.i.i, %if.end61.i.i
  %IVReg.0.i = phi i32 [ 0, %if.end90.i.i ], [ %0, %if.end93.i.i ], [ 0, %if.end61.i.i ], !dbg !17733
  br label %cleanup112.i.i

cleanup112.i.i:                                   ; preds = %cleanup104.i.i, %if.end53.i.i, %for.cond.cleanup.i.i
  %IVReg.1.i = phi i32 [ 0, %for.cond.cleanup.i.i ], [ 0, %if.end53.i.i ], [ %IVReg.0.i, %cleanup104.i.i ]
  br label %_ZNK12_GLOBAL__N_120HexagonHardwareLoops21findInductionRegisterEPN4llvm11MachineLoopERjRlRPNS1_12MachineInstrE.exit.i

_ZNK12_GLOBAL__N_120HexagonHardwareLoops21findInductionRegisterEPN4llvm11MachineLoopERjRlRPNS1_12MachineInstrE.exit.i: ; preds = %cleanup112.i.i
  br i1 undef, label %if.end35.i, label %cleanup190

if.end35.i:                                       ; preds = %_ZNK12_GLOBAL__N_120HexagonHardwareLoops21findInductionRegisterEPN4llvm11MachineLoopERjRlRPNS1_12MachineInstrE.exit.i
  call void @llvm.dbg.value(metadata i32 %IVReg.1.i, metadata !17681, metadata !DIExpression()) #2, !dbg !17733
  br i1 undef, label %for.body.lr.ph.i460, label %cleanup190, !dbg !17734

for.body.lr.ph.i460:                              ; preds = %if.end35.i
  br label %for.body.i466, !dbg !17734

for.cond.cleanup.i461:                            ; preds = %if.end50.i
  br i1 undef, label %cleanup190, label %if.end54.i

for.body.i466:                                    ; preds = %if.end50.i, %for.body.lr.ph.i460
  %IVReg.3463.i = phi i32 [ %IVReg.1.i, %for.body.lr.ph.i460 ], [ %IVReg.4.i, %if.end50.i ]
  br label %if.else44.i

if.else44.i:                                      ; preds = %for.body.i466
  br i1 undef, label %if.then46.i, label %if.end50.i, !dbg !17736

if.then46.i:                                      ; preds = %if.else44.i
  %1 = load i32, i32* undef, align 4
  call void @llvm.dbg.value(metadata i32 %1, metadata !17681, metadata !DIExpression()) #2, !dbg !17733
  br label %if.end50.i

if.end50.i:                                       ; preds = %if.then46.i, %if.else44.i
  %IVReg.4.i = phi i32 [ %1, %if.then46.i ], [ %IVReg.3463.i, %if.else44.i ], !dbg !17733
  %cmp.i468 = icmp ult i32 undef, undef
  br i1 %cmp.i468, label %for.body.i466, label %for.cond.cleanup.i461, !dbg !17734, !llvm.loop !17740

if.end54.i:                                       ; preds = %for.cond.cleanup.i461
  br i1 undef, label %cleanup203.i, label %if.end59.i475, !dbg !17742

if.end59.i475:                                    ; preds = %if.end54.i
  br i1 undef, label %cleanup203.i, label %lor.lhs.false.i477

lor.lhs.false.i477:                               ; preds = %if.end59.i475
  br i1 undef, label %if.end67.i, label %cleanup203.i, !dbg !17743

if.end67.i:                                       ; preds = %lor.lhs.false.i477
  br i1 undef, label %if.end88.i, label %cleanup193.i, !dbg !17745

if.end88.i:                                       ; preds = %if.end67.i
  br label %entry.Retry_crit_edge.i.i

entry.Retry_crit_edge.i.i:                        ; preds = %if.end88.i
  br label %_ZN4llvm23SmallVectorTemplateBaseIPNS_12MachineInstrELb1EE9push_backERKS2_.exit.i

_ZN4llvm23SmallVectorTemplateBaseIPNS_12MachineInstrELb1EE9push_backERKS2_.exit.i: ; preds = %entry.Retry_crit_edge.i.i
  br label %entry.Retry_crit_edge.i361.i

entry.Retry_crit_edge.i361.i:                     ; preds = %_ZN4llvm23SmallVectorTemplateBaseIPNS_12MachineInstrELb1EE9push_backERKS2_.exit.i
  br label %_ZN4llvm23SmallVectorTemplateBaseIPNS_12MachineInstrELb1EE9push_backERKS2_.exit366.i, !dbg !17746

_ZN4llvm23SmallVectorTemplateBaseIPNS_12MachineInstrELb1EE9push_backERKS2_.exit366.i: ; preds = %entry.Retry_crit_edge.i361.i
  br i1 undef, label %if.then92.i, label %cleanup193.i

if.then92.i:                                      ; preds = %_ZN4llvm23SmallVectorTemplateBaseIPNS_12MachineInstrELb1EE9push_backERKS2_.exit366.i
  br i1 undef, label %if.end103.i, label %lor.lhs.false94.i

lor.lhs.false94.i:                                ; preds = %if.then92.i
  %2 = load i32, i32* undef, align 4, !dbg !17756
  %cmp96.i = icmp eq i32 %2, %IVReg.4.i
  %not.cmp96.i = xor i1 %cmp96.i, true
  br label %if.end103.i

if.end103.i:                                      ; preds = %lor.lhs.false94.i, %if.then92.i
  %isSwapped.0.ph.i = phi i1 [ %not.cmp96.i, %lor.lhs.false94.i ], [ false, %if.then92.i ]
  switch i16 undef, label %cleanup193.i [
    i16 182, label %sw.bb113.i
    i16 176, label %sw.bb113.i
  ]

sw.bb113.i:                                       ; preds = %if.end103.i, %if.end103.i
  br i1 undef, label %if.end116.i, label %cleanup193.i

if.end116.i:                                      ; preds = %sw.bb113.i
  br label %if.then119.i

if.then119.i:                                     ; preds = %if.end116.i
  switch i16 undef, label %cleanup193.i [
    i16 1641, label %_ZN12_GLOBAL__N_120HexagonHardwareLoops16defWithImmediateEj.exit.i487
    i16 1642, label %_ZN12_GLOBAL__N_120HexagonHardwareLoops16defWithImmediateEj.exit.i487
    i16 207, label %_ZN12_GLOBAL__N_120HexagonHardwareLoops16defWithImmediateEj.exit.i487
    i16 212, label %_ZN12_GLOBAL__N_120HexagonHardwareLoops16defWithImmediateEj.exit.i487
  ], !dbg !17764

_ZN12_GLOBAL__N_120HexagonHardwareLoops16defWithImmediateEj.exit.i487: ; preds = %if.then119.i, %if.then119.i, %if.then119.i, %if.then119.i
  br i1 undef, label %cleanup193.i, label %if.end124.i

if.end124.i:                                      ; preds = %_ZN12_GLOBAL__N_120HexagonHardwareLoops16defWithImmediateEj.exit.i487
  br label %if.then.i384.i489

if.then.i384.i489:                                ; preds = %if.end124.i
  br label %if.end128.i

if.end128.i:                                      ; preds = %if.then.i384.i489
  br i1 undef, label %if.end131.i, label %cleanup193.i

if.end131.i:                                      ; preds = %if.end128.i
  br label %if.then133.i

if.then133.i:                                     ; preds = %if.end131.i
  br label %cleanup193.i

cleanup193.i:                                     ; preds = %if.then133.i, %if.end128.i, %_ZN12_GLOBAL__N_120HexagonHardwareLoops16defWithImmediateEj.exit.i487, %if.then119.i, %sw.bb113.i, %if.end103.i, %_ZN4llvm23SmallVectorTemplateBaseIPNS_12MachineInstrELb1EE9push_backERKS2_.exit366.i, %if.end67.i
  br label %cleanup203.i

cleanup203.i:                                     ; preds = %cleanup193.i, %lor.lhs.false.i477, %if.end59.i475, %if.end54.i
  br label %_ZN12_GLOBAL__N_120HexagonHardwareLoops16getLoopTripCountEPN4llvm11MachineLoopERNS1_15SmallVectorImplIPNS1_12MachineInstrEEE.exit

_ZN12_GLOBAL__N_120HexagonHardwareLoops16getLoopTripCountEPN4llvm11MachineLoopERNS1_15SmallVectorImplIPNS1_12MachineInstrEEE.exit: ; preds = %cleanup203.i
  br label %cleanup190

cleanup190:                                       ; preds = %_ZN12_GLOBAL__N_120HexagonHardwareLoops16getLoopTripCountEPN4llvm11MachineLoopERNS1_15SmallVectorImplIPNS1_12MachineInstrEEE.exit, %for.cond.cleanup.i461, %if.end35.i, %_ZNK12_GLOBAL__N_120HexagonHardwareLoops21findInductionRegisterEPN4llvm11MachineLoopERjRlRPNS1_12MachineInstrE.exit.i, %if.end31.i, %if.end28.i, %if.else.i, %if.end33
  br label %_ZN4llvm15SmallVectorImplIPNS_12MachineInstrEED2Ev.exit

_ZN4llvm15SmallVectorImplIPNS_12MachineInstrEED2Ev.exit: ; preds = %cleanup190
  br label %switch.lookup

switch.lookup:                                    ; preds = %_ZN4llvm15SmallVectorImplIPNS_12MachineInstrEED2Ev.exit, %if.end20, %if.end17, %_ZN4llvm15SmallVectorImplINS_14MachineOperandEED2Ev.exit.i
  ret i1 false
}

; Function Attrs: nounwind readnone speculatable willreturn
declare void @llvm.dbg.value(metadata, metadata, metadata) #1

attributes #0 = { nounwind uwtable "correctly-rounded-divide-sqrt-fp-math"="false" "denormal-fp-math"="ieee,ieee" "denormal-fp-math-f32"="ieee,ieee" "disable-tail-calls"="false" "frame-pointer"="none" "less-precise-fpmad"="false" "min-legal-vector-width"="0" "no-infs-fp-math"="false" "no-jump-tables"="false" "no-nans-fp-math"="false" "no-signed-zeros-fp-math"="false" "no-trapping-math"="false" "stack-protector-buffer-size"="8" "target-cpu"="x86-64" "target-features"="+cx8,+fxsr,+mmx,+sse,+sse2,+x87" "unsafe-fp-math"="false" "use-soft-float"="false" }
attributes #1 = { nounwind readnone speculatable willreturn }
attributes #2 = { nounwind }

!llvm.dbg.cu = !{!0}
!llvm.module.flags = !{!17067, !17068, !17069, !17070}

!0 = distinct !DICompileUnit(language: DW_LANG_C_plus_plus_14, file: !1, producer: "clang version 11.0.0 (git@github.com:llvm/llvm-project 804e68485f4ea133b88c01fd24dcfbbb39797021)", isOptimized: true, runtimeVersion: 0, emissionKind: FullDebug, enums: !2, retainedTypes: !12854, globals: !220, imports: !15723, splitDebugInlining: false, nameTableKind: None)
!1 = !DIFile(filename: "/faster/fs/llvm34/lib/Target/Hexagon/HexagonHardwareLoops.cpp", directory: "/fast/fs/build34reldebinfo")
!2 = !{!3, !11, !97, !11, !1727, !1731, !1752, !1758, !9789, !9800, !9865, !9904, !9931, !9715, !10413, !10449, !10449, !10994, !11003, !11026, !12729, !12797, !12828, !12833, !12848}
!3 = distinct !DICompositeType(tag: DW_TAG_enumeration_type, name: "_Lock_policy", scope: !5, file: !4, line: 49, baseType: !6, size: 32, elements: !7, identifier: "_ZTSN9__gnu_cxx12_Lock_policyE")
!4 = !DIFile(filename: "/usr/lib/gcc/x86_64-linux-gnu/7.5.0/../../../../include/c++/7.5.0/ext/concurrence.h", directory: "")
!5 = !DINamespace(name: "__gnu_cxx", scope: null)
!6 = !DIBasicType(name: "unsigned int", size: 32, encoding: DW_ATE_unsigned)
!7 = !{!8, !9, !10}
!8 = !DIEnumerator(name: "_S_single", value: 0, isUnsigned: true)
!9 = !DIEnumerator(name: "_S_mutex", value: 1, isUnsigned: true)
!10 = !DIEnumerator(name: "_S_atomic", value: 2, isUnsigned: true)
!11 = distinct !DICompositeType(tag: DW_TAG_enumeration_type, name: "SimpleValueType", scope: !13, file: !12, line: 35, baseType: !196, size: 32, elements: !1649, identifier: "_ZTSN4llvm3MVT15SimpleValueTypeE")
!12 = !DIFile(filename: "/faster/fs/llvm34/include/llvm/CodeGen/ValueTypes.h", directory: "")
!13 = distinct !DICompositeType(tag: DW_TAG_class_type, name: "MVT", scope: !14, file: !12, line: 33, size: 32, flags: DIFlagTypePassByValue | DIFlagNonTrivial, elements: !15, identifier: "_ZTSN4llvm3MVTE")
!14 = !DINamespace(name: "llvm", scope: null)
!15 = !{!16, !17, !21, !24, !31, !32, !33, !34, !35, !36, !39, !40, !41, !42, !43, !44, !45, !46, !47, !48, !49, !52, !53, !54, !57, !58, !59, !60, !63, !64, !65, !66, !69, !70, !73}
!16 = !DIDerivedType(tag: DW_TAG_member, name: "SimpleTy", scope: !13, file: !12, line: 161, baseType: !11, size: 32, flags: DIFlagPublic)
!17 = !DISubprogram(name: "MVT", scope: !13, file: !12, line: 163, type: !18, scopeLine: 163, flags: DIFlagPublic | DIFlagPrototyped, spFlags: DISPFlagOptimized)
!18 = !DISubroutineType(types: !19)
!19 = !{null, !20}
!20 = !DIDerivedType(tag: DW_TAG_pointer_type, baseType: !13, size: 64, flags: DIFlagArtificial | DIFlagObjectPointer)
!21 = !DISubprogram(name: "MVT", scope: !13, file: !12, line: 164, type: !22, scopeLine: 164, flags: DIFlagPublic | DIFlagPrototyped, spFlags: DISPFlagOptimized)
!22 = !DISubroutineType(types: !23)
!23 = !{null, !20, !11}
!24 = !DISubprogram(name: "operator>", linkageName: "_ZNK4llvm3MVTgtERKS0_", scope: !13, file: !12, line: 166, type: !25, scopeLine: 166, flags: DIFlagPublic | DIFlagPrototyped, spFlags: DISPFlagOptimized)
!25 = !DISubroutineType(types: !26)
!26 = !{!27, !28, !30}
!27 = !DIBasicType(name: "bool", size: 8, encoding: DW_ATE_boolean)
!28 = !DIDerivedType(tag: DW_TAG_pointer_type, baseType: !29, size: 64, flags: DIFlagArtificial | DIFlagObjectPointer)
!29 = !DIDerivedType(tag: DW_TAG_const_type, baseType: !13)
!30 = !DIDerivedType(tag: DW_TAG_reference_type, baseType: !29, size: 64)
!31 = !DISubprogram(name: "operator<", linkageName: "_ZNK4llvm3MVTltERKS0_", scope: !13, file: !12, line: 167, type: !25, scopeLine: 167, flags: DIFlagPublic | DIFlagPrototyped, spFlags: DISPFlagOptimized)
!32 = !DISubprogram(name: "operator==", linkageName: "_ZNK4llvm3MVTeqERKS0_", scope: !13, file: !12, line: 168, type: !25, scopeLine: 168, flags: DIFlagPublic | DIFlagPrototyped, spFlags: DISPFlagOptimized)
!33 = !DISubprogram(name: "operator!=", linkageName: "_ZNK4llvm3MVTneERKS0_", scope: !13, file: !12, line: 169, type: !25, scopeLine: 169, flags: DIFlagPublic | DIFlagPrototyped, spFlags: DISPFlagOptimized)
!34 = !DISubprogram(name: "operator>=", linkageName: "_ZNK4llvm3MVTgeERKS0_", scope: !13, file: !12, line: 170, type: !25, scopeLine: 170, flags: DIFlagPublic | DIFlagPrototyped, spFlags: DISPFlagOptimized)
!35 = !DISubprogram(name: "operator<=", linkageName: "_ZNK4llvm3MVTleERKS0_", scope: !13, file: !12, line: 171, type: !25, scopeLine: 171, flags: DIFlagPublic | DIFlagPrototyped, spFlags: DISPFlagOptimized)
!36 = !DISubprogram(name: "isFloatingPoint", linkageName: "_ZNK4llvm3MVT15isFloatingPointEv", scope: !13, file: !12, line: 174, type: !37, scopeLine: 174, flags: DIFlagPublic | DIFlagPrototyped, spFlags: DISPFlagOptimized)
!37 = !DISubroutineType(types: !38)
!38 = !{!27, !28}
!39 = !DISubprogram(name: "isInteger", linkageName: "_ZNK4llvm3MVT9isIntegerEv", scope: !13, file: !12, line: 182, type: !37, scopeLine: 182, flags: DIFlagPublic | DIFlagPrototyped, spFlags: DISPFlagOptimized)
!40 = !DISubprogram(name: "isVector", linkageName: "_ZNK4llvm3MVT8isVectorEv", scope: !13, file: !12, line: 190, type: !37, scopeLine: 190, flags: DIFlagPublic | DIFlagPrototyped, spFlags: DISPFlagOptimized)
!41 = !DISubprogram(name: "is16BitVector", linkageName: "_ZNK4llvm3MVT13is16BitVectorEv", scope: !13, file: !12, line: 196, type: !37, scopeLine: 196, flags: DIFlagPublic | DIFlagPrototyped, spFlags: DISPFlagOptimized)
!42 = !DISubprogram(name: "is32BitVector", linkageName: "_ZNK4llvm3MVT13is32BitVectorEv", scope: !13, file: !12, line: 202, type: !37, scopeLine: 202, flags: DIFlagPublic | DIFlagPrototyped, spFlags: DISPFlagOptimized)
!43 = !DISubprogram(name: "is64BitVector", linkageName: "_ZNK4llvm3MVT13is64BitVectorEv", scope: !13, file: !12, line: 208, type: !37, scopeLine: 208, flags: DIFlagPublic | DIFlagPrototyped, spFlags: DISPFlagOptimized)
!44 = !DISubprogram(name: "is128BitVector", linkageName: "_ZNK4llvm3MVT14is128BitVectorEv", scope: !13, file: !12, line: 215, type: !37, scopeLine: 215, flags: DIFlagPublic | DIFlagPrototyped, spFlags: DISPFlagOptimized)
!45 = !DISubprogram(name: "is256BitVector", linkageName: "_ZNK4llvm3MVT14is256BitVectorEv", scope: !13, file: !12, line: 222, type: !37, scopeLine: 222, flags: DIFlagPublic | DIFlagPrototyped, spFlags: DISPFlagOptimized)
!46 = !DISubprogram(name: "is512BitVector", linkageName: "_ZNK4llvm3MVT14is512BitVectorEv", scope: !13, file: !12, line: 229, type: !37, scopeLine: 229, flags: DIFlagPublic | DIFlagPrototyped, spFlags: DISPFlagOptimized)
!47 = !DISubprogram(name: "is1024BitVector", linkageName: "_ZNK4llvm3MVT15is1024BitVectorEv", scope: !13, file: !12, line: 236, type: !37, scopeLine: 236, flags: DIFlagPublic | DIFlagPrototyped, spFlags: DISPFlagOptimized)
!48 = !DISubprogram(name: "isPow2VectorType", linkageName: "_ZNK4llvm3MVT16isPow2VectorTypeEv", scope: !13, file: !12, line: 241, type: !37, scopeLine: 241, flags: DIFlagPublic | DIFlagPrototyped, spFlags: DISPFlagOptimized)
!49 = !DISubprogram(name: "getPow2VectorType", linkageName: "_ZNK4llvm3MVT17getPow2VectorTypeEv", scope: !13, file: !12, line: 248, type: !50, scopeLine: 248, flags: DIFlagPublic | DIFlagPrototyped, spFlags: DISPFlagOptimized)
!50 = !DISubroutineType(types: !51)
!51 = !{!13, !28}
!52 = !DISubprogram(name: "getScalarType", linkageName: "_ZNK4llvm3MVT13getScalarTypeEv", scope: !13, file: !12, line: 259, type: !50, scopeLine: 259, flags: DIFlagPublic | DIFlagPrototyped, spFlags: DISPFlagOptimized)
!53 = !DISubprogram(name: "getVectorElementType", linkageName: "_ZNK4llvm3MVT20getVectorElementTypeEv", scope: !13, file: !12, line: 263, type: !50, scopeLine: 263, flags: DIFlagPublic | DIFlagPrototyped, spFlags: DISPFlagOptimized)
!54 = !DISubprogram(name: "getVectorNumElements", linkageName: "_ZNK4llvm3MVT20getVectorNumElementsEv", scope: !13, file: !12, line: 311, type: !55, scopeLine: 311, flags: DIFlagPublic | DIFlagPrototyped, spFlags: DISPFlagOptimized)
!55 = !DISubroutineType(types: !56)
!56 = !{!6, !28}
!57 = !DISubprogram(name: "getSizeInBits", linkageName: "_ZNK4llvm3MVT13getSizeInBitsEv", scope: !13, file: !12, line: 359, type: !55, scopeLine: 359, flags: DIFlagPublic | DIFlagPrototyped, spFlags: DISPFlagOptimized)
!58 = !DISubprogram(name: "getStoreSize", linkageName: "_ZNK4llvm3MVT12getStoreSizeEv", scope: !13, file: !12, line: 433, type: !55, scopeLine: 433, flags: DIFlagPublic | DIFlagPrototyped, spFlags: DISPFlagOptimized)
!59 = !DISubprogram(name: "getStoreSizeInBits", linkageName: "_ZNK4llvm3MVT18getStoreSizeInBitsEv", scope: !13, file: !12, line: 439, type: !55, scopeLine: 439, flags: DIFlagPublic | DIFlagPrototyped, spFlags: DISPFlagOptimized)
!60 = !DISubprogram(name: "bitsGT", linkageName: "_ZNK4llvm3MVT6bitsGTES0_", scope: !13, file: !12, line: 444, type: !61, scopeLine: 444, flags: DIFlagPublic | DIFlagPrototyped, spFlags: DISPFlagOptimized)
!61 = !DISubroutineType(types: !62)
!62 = !{!27, !28, !13}
!63 = !DISubprogram(name: "bitsGE", linkageName: "_ZNK4llvm3MVT6bitsGEES0_", scope: !13, file: !12, line: 449, type: !61, scopeLine: 449, flags: DIFlagPublic | DIFlagPrototyped, spFlags: DISPFlagOptimized)
!64 = !DISubprogram(name: "bitsLT", linkageName: "_ZNK4llvm3MVT6bitsLTES0_", scope: !13, file: !12, line: 454, type: !61, scopeLine: 454, flags: DIFlagPublic | DIFlagPrototyped, spFlags: DISPFlagOptimized)
!65 = !DISubprogram(name: "bitsLE", linkageName: "_ZNK4llvm3MVT6bitsLEES0_", scope: !13, file: !12, line: 459, type: !61, scopeLine: 459, flags: DIFlagPublic | DIFlagPrototyped, spFlags: DISPFlagOptimized)
!66 = !DISubprogram(name: "getFloatingPointVT", linkageName: "_ZN4llvm3MVT18getFloatingPointVTEj", scope: !13, file: !12, line: 464, type: !67, scopeLine: 464, flags: DIFlagPublic | DIFlagPrototyped | DIFlagStaticMember, spFlags: DISPFlagOptimized)
!67 = !DISubroutineType(types: !68)
!68 = !{!13, !6}
!69 = !DISubprogram(name: "getIntegerVT", linkageName: "_ZN4llvm3MVT12getIntegerVTEj", scope: !13, file: !12, line: 481, type: !67, scopeLine: 481, flags: DIFlagPublic | DIFlagPrototyped | DIFlagStaticMember, spFlags: DISPFlagOptimized)
!70 = !DISubprogram(name: "getVectorVT", linkageName: "_ZN4llvm3MVT11getVectorVTES0_j", scope: !13, file: !12, line: 500, type: !71, scopeLine: 500, flags: DIFlagPublic | DIFlagPrototyped | DIFlagStaticMember, spFlags: DISPFlagOptimized)
!71 = !DISubroutineType(types: !72)
!72 = !{!13, !13, !6}
!73 = !DISubprogram(name: "getVT", linkageName: "_ZN4llvm3MVT5getVTEPNS_4TypeEb", scope: !13, file: !12, line: 568, type: !74, scopeLine: 568, flags: DIFlagPublic | DIFlagPrototyped | DIFlagStaticMember, spFlags: DISPFlagOptimized)
!74 = !DISubroutineType(types: !75)
!75 = !{!13, !76, !27}
!76 = !DIDerivedType(tag: DW_TAG_pointer_type, baseType: !77, size: 64)
!77 = distinct !DICompositeType(tag: DW_TAG_class_type, name: "Type", scope: !14, file: !78, line: 44, size: 192, flags: DIFlagTypePassByReference | DIFlagNonTrivial, elements: !79, identifier: "_ZTSN4llvm4TypeE")
!78 = !DIFile(filename: "/faster/fs/llvm34/include/llvm/IR/Type.h", directory: "")
!79 = !{!80, !84, !89, !90, !93, !118, !121, !124, !129, !132, !138, !141, !144, !147, !150, !151, !152, !153, !154, !155, !156, !157, !164, !165, !166, !167, !168, !169, !172, !173, !174, !175, !176, !177, !178, !179, !182, !183, !184, !185, !186, !187, !188, !189, !190, !193, !197, !201, !204, !208, !209, !294, !295, !298, !299, !300, !301, !302, !303, !1485, !1486, !1487, !1490, !1493, !1494, !1495, !1496, !1497, !1498, !1501, !1504, !1505, !1506, !1507, !1508, !1509, !1510, !1511, !1512, !1513, !1544, !1547, !1548, !1549, !1550, !1551, !1631, !1632, !1633, !1634, !1635, !1636, !1637, !1640, !1641, !1642, !1643, !1644, !1645, !1648}
!80 = !DIDerivedType(tag: DW_TAG_member, name: "Context", scope: !77, file: !78, line: 82, baseType: !81, size: 64)
!81 = !DIDerivedType(tag: DW_TAG_reference_type, baseType: !82, size: 64)
!82 = distinct !DICompositeType(tag: DW_TAG_class_type, name: "LLVMContext", scope: !14, file: !83, line: 36, flags: DIFlagFwdDecl, identifier: "_ZTSN4llvm11LLVMContextE")
!83 = !DIFile(filename: "/faster/fs/llvm34/include/llvm/IR/Attributes.h", directory: "")
!84 = !DIDerivedType(tag: DW_TAG_member, name: "IDAndSubclassData", scope: !77, file: !78, line: 88, baseType: !85, size: 32, offset: 64)
!85 = !DIDerivedType(tag: DW_TAG_typedef, name: "uint32_t", file: !86, line: 26, baseType: !87)
!86 = !DIFile(filename: "/usr/include/x86_64-linux-gnu/bits/stdint-uintn.h", directory: "")
!87 = !DIDerivedType(tag: DW_TAG_typedef, name: "__uint32_t", file: !88, line: 41, baseType: !6)
!88 = !DIFile(filename: "/usr/include/x86_64-linux-gnu/bits/types.h", directory: "")
!89 = !DIDerivedType(tag: DW_TAG_member, name: "NumContainedTys", scope: !77, file: !78, line: 114, baseType: !6, size: 32, offset: 96, flags: DIFlagProtected)
!90 = !DIDerivedType(tag: DW_TAG_member, name: "ContainedTys", scope: !77, file: !78, line: 121, baseType: !91, size: 64, offset: 128, flags: DIFlagProtected)
!91 = !DIDerivedType(tag: DW_TAG_pointer_type, baseType: !92, size: 64)
!92 = !DIDerivedType(tag: DW_TAG_const_type, baseType: !76)
!93 = !DISubprogram(name: "Type", scope: !77, file: !78, line: 92, type: !94, scopeLine: 92, flags: DIFlagProtected | DIFlagExplicit | DIFlagPrototyped, spFlags: DISPFlagOptimized)
!94 = !DISubroutineType(types: !95)
!95 = !{null, !96, !81, !97}
!96 = !DIDerivedType(tag: DW_TAG_pointer_type, baseType: !77, size: 64, flags: DIFlagArtificial | DIFlagObjectPointer)
!97 = distinct !DICompositeType(tag: DW_TAG_enumeration_type, name: "TypeID", scope: !77, file: !78, line: 53, baseType: !6, size: 32, elements: !98, identifier: "_ZTSN4llvm4Type6TypeIDE")
!98 = !{!99, !100, !101, !102, !103, !104, !105, !106, !107, !108, !109, !110, !111, !112, !113, !114, !115, !116, !117}
!99 = !DIEnumerator(name: "VoidTyID", value: 0, isUnsigned: true)
!100 = !DIEnumerator(name: "HalfTyID", value: 1, isUnsigned: true)
!101 = !DIEnumerator(name: "FloatTyID", value: 2, isUnsigned: true)
!102 = !DIEnumerator(name: "DoubleTyID", value: 3, isUnsigned: true)
!103 = !DIEnumerator(name: "X86_FP80TyID", value: 4, isUnsigned: true)
!104 = !DIEnumerator(name: "FP128TyID", value: 5, isUnsigned: true)
!105 = !DIEnumerator(name: "PPC_FP128TyID", value: 6, isUnsigned: true)
!106 = !DIEnumerator(name: "LabelTyID", value: 7, isUnsigned: true)
!107 = !DIEnumerator(name: "MetadataTyID", value: 8, isUnsigned: true)
!108 = !DIEnumerator(name: "X86_MMXTyID", value: 9, isUnsigned: true)
!109 = !DIEnumerator(name: "IntegerTyID", value: 10, isUnsigned: true)
!110 = !DIEnumerator(name: "FunctionTyID", value: 11, isUnsigned: true)
!111 = !DIEnumerator(name: "StructTyID", value: 12, isUnsigned: true)
!112 = !DIEnumerator(name: "ArrayTyID", value: 13, isUnsigned: true)
!113 = !DIEnumerator(name: "PointerTyID", value: 14, isUnsigned: true)
!114 = !DIEnumerator(name: "VectorTyID", value: 15, isUnsigned: true)
!115 = !DIEnumerator(name: "NumTypeIDs", value: 16, isUnsigned: true)
!116 = !DIEnumerator(name: "LastPrimitiveTyID", value: 9, isUnsigned: true)
!117 = !DIEnumerator(name: "FirstDerivedTyID", value: 10, isUnsigned: true)
!118 = !DISubprogram(name: "~Type", scope: !77, file: !78, line: 97, type: !119, scopeLine: 97, flags: DIFlagProtected | DIFlagPrototyped, spFlags: DISPFlagOptimized)
!119 = !DISubroutineType(types: !120)
!120 = !{null, !96}
!121 = !DISubprogram(name: "setTypeID", linkageName: "_ZN4llvm4Type9setTypeIDENS0_6TypeIDE", scope: !77, file: !78, line: 99, type: !122, scopeLine: 99, flags: DIFlagProtected | DIFlagPrototyped, spFlags: DISPFlagOptimized)
!122 = !DISubroutineType(types: !123)
!123 = !{null, !96, !97}
!124 = !DISubprogram(name: "getSubclassData", linkageName: "_ZNK4llvm4Type15getSubclassDataEv", scope: !77, file: !78, line: 104, type: !125, scopeLine: 104, flags: DIFlagProtected | DIFlagPrototyped, spFlags: DISPFlagOptimized)
!125 = !DISubroutineType(types: !126)
!126 = !{!6, !127}
!127 = !DIDerivedType(tag: DW_TAG_pointer_type, baseType: !128, size: 64, flags: DIFlagArtificial | DIFlagObjectPointer)
!128 = !DIDerivedType(tag: DW_TAG_const_type, baseType: !77)
!129 = !DISubprogram(name: "setSubclassData", linkageName: "_ZN4llvm4Type15setSubclassDataEj", scope: !77, file: !78, line: 106, type: !130, scopeLine: 106, flags: DIFlagProtected | DIFlagPrototyped, spFlags: DISPFlagOptimized)
!130 = !DISubroutineType(types: !131)
!131 = !{null, !96, !6}
!132 = !DISubprogram(name: "print", linkageName: "_ZNK4llvm4Type5printERNS_11raw_ostreamE", scope: !77, file: !78, line: 124, type: !133, scopeLine: 124, flags: DIFlagPublic | DIFlagPrototyped, spFlags: DISPFlagOptimized)
!133 = !DISubroutineType(types: !134)
!134 = !{null, !127, !135}
!135 = !DIDerivedType(tag: DW_TAG_reference_type, baseType: !136, size: 64)
!136 = distinct !DICompositeType(tag: DW_TAG_class_type, name: "raw_ostream", scope: !14, file: !137, line: 31, flags: DIFlagFwdDecl, identifier: "_ZTSN4llvm11raw_ostreamE")
!137 = !DIFile(filename: "/faster/fs/llvm34/include/llvm/Support/raw_ostream.h", directory: "")
!138 = !DISubprogram(name: "dump", linkageName: "_ZNK4llvm4Type4dumpEv", scope: !77, file: !78, line: 125, type: !139, scopeLine: 125, flags: DIFlagPublic | DIFlagPrototyped, spFlags: DISPFlagOptimized)
!139 = !DISubroutineType(types: !140)
!140 = !{null, !127}
!141 = !DISubprogram(name: "getContext", linkageName: "_ZNK4llvm4Type10getContextEv", scope: !77, file: !78, line: 128, type: !142, scopeLine: 128, flags: DIFlagPublic | DIFlagPrototyped, spFlags: DISPFlagOptimized)
!142 = !DISubroutineType(types: !143)
!143 = !{!81, !127}
!144 = !DISubprogram(name: "getTypeID", linkageName: "_ZNK4llvm4Type9getTypeIDEv", scope: !77, file: !78, line: 137, type: !145, scopeLine: 137, flags: DIFlagPublic | DIFlagPrototyped, spFlags: DISPFlagOptimized)
!145 = !DISubroutineType(types: !146)
!146 = !{!97, !127}
!147 = !DISubprogram(name: "isVoidTy", linkageName: "_ZNK4llvm4Type8isVoidTyEv", scope: !77, file: !78, line: 140, type: !148, scopeLine: 140, flags: DIFlagPublic | DIFlagPrototyped, spFlags: DISPFlagOptimized)
!148 = !DISubroutineType(types: !149)
!149 = !{!27, !127}
!150 = !DISubprogram(name: "isHalfTy", linkageName: "_ZNK4llvm4Type8isHalfTyEv", scope: !77, file: !78, line: 143, type: !148, scopeLine: 143, flags: DIFlagPublic | DIFlagPrototyped, spFlags: DISPFlagOptimized)
!151 = !DISubprogram(name: "isFloatTy", linkageName: "_ZNK4llvm4Type9isFloatTyEv", scope: !77, file: !78, line: 146, type: !148, scopeLine: 146, flags: DIFlagPublic | DIFlagPrototyped, spFlags: DISPFlagOptimized)
!152 = !DISubprogram(name: "isDoubleTy", linkageName: "_ZNK4llvm4Type10isDoubleTyEv", scope: !77, file: !78, line: 149, type: !148, scopeLine: 149, flags: DIFlagPublic | DIFlagPrototyped, spFlags: DISPFlagOptimized)
!153 = !DISubprogram(name: "isX86_FP80Ty", linkageName: "_ZNK4llvm4Type12isX86_FP80TyEv", scope: !77, file: !78, line: 152, type: !148, scopeLine: 152, flags: DIFlagPublic | DIFlagPrototyped, spFlags: DISPFlagOptimized)
!154 = !DISubprogram(name: "isFP128Ty", linkageName: "_ZNK4llvm4Type9isFP128TyEv", scope: !77, file: !78, line: 155, type: !148, scopeLine: 155, flags: DIFlagPublic | DIFlagPrototyped, spFlags: DISPFlagOptimized)
!155 = !DISubprogram(name: "isPPC_FP128Ty", linkageName: "_ZNK4llvm4Type13isPPC_FP128TyEv", scope: !77, file: !78, line: 158, type: !148, scopeLine: 158, flags: DIFlagPublic | DIFlagPrototyped, spFlags: DISPFlagOptimized)
!156 = !DISubprogram(name: "isFloatingPointTy", linkageName: "_ZNK4llvm4Type17isFloatingPointTyEv", scope: !77, file: !78, line: 162, type: !148, scopeLine: 162, flags: DIFlagPublic | DIFlagPrototyped, spFlags: DISPFlagOptimized)
!157 = !DISubprogram(name: "getFltSemantics", linkageName: "_ZNK4llvm4Type15getFltSemanticsEv", scope: !77, file: !78, line: 169, type: !158, scopeLine: 169, flags: DIFlagPublic | DIFlagPrototyped, spFlags: DISPFlagOptimized)
!158 = !DISubroutineType(types: !159)
!159 = !{!160, !127}
!160 = !DIDerivedType(tag: DW_TAG_reference_type, baseType: !161, size: 64)
!161 = !DIDerivedType(tag: DW_TAG_const_type, baseType: !162)
!162 = distinct !DICompositeType(tag: DW_TAG_structure_type, name: "fltSemantics", scope: !14, file: !163, line: 24, flags: DIFlagFwdDecl, identifier: "_ZTSN4llvm12fltSemanticsE")
!163 = !DIFile(filename: "/faster/fs/llvm34/include/llvm/ADT/APFloat.h", directory: "")
!164 = !DISubprogram(name: "isX86_MMXTy", linkageName: "_ZNK4llvm4Type11isX86_MMXTyEv", scope: !77, file: !78, line: 182, type: !148, scopeLine: 182, flags: DIFlagPublic | DIFlagPrototyped, spFlags: DISPFlagOptimized)
!165 = !DISubprogram(name: "isFPOrFPVectorTy", linkageName: "_ZNK4llvm4Type16isFPOrFPVectorTyEv", scope: !77, file: !78, line: 186, type: !148, scopeLine: 186, flags: DIFlagPublic | DIFlagPrototyped, spFlags: DISPFlagOptimized)
!166 = !DISubprogram(name: "isLabelTy", linkageName: "_ZNK4llvm4Type9isLabelTyEv", scope: !77, file: !78, line: 189, type: !148, scopeLine: 189, flags: DIFlagPublic | DIFlagPrototyped, spFlags: DISPFlagOptimized)
!167 = !DISubprogram(name: "isMetadataTy", linkageName: "_ZNK4llvm4Type12isMetadataTyEv", scope: !77, file: !78, line: 192, type: !148, scopeLine: 192, flags: DIFlagPublic | DIFlagPrototyped, spFlags: DISPFlagOptimized)
!168 = !DISubprogram(name: "isIntegerTy", linkageName: "_ZNK4llvm4Type11isIntegerTyEv", scope: !77, file: !78, line: 196, type: !148, scopeLine: 196, flags: DIFlagPublic | DIFlagPrototyped, spFlags: DISPFlagOptimized)
!169 = !DISubprogram(name: "isIntegerTy", linkageName: "_ZNK4llvm4Type11isIntegerTyEj", scope: !77, file: !78, line: 199, type: !170, scopeLine: 199, flags: DIFlagPublic | DIFlagPrototyped, spFlags: DISPFlagOptimized)
!170 = !DISubroutineType(types: !171)
!171 = !{!27, !127, !6}
!172 = !DISubprogram(name: "isIntOrIntVectorTy", linkageName: "_ZNK4llvm4Type18isIntOrIntVectorTyEv", scope: !77, file: !78, line: 204, type: !148, scopeLine: 204, flags: DIFlagPublic | DIFlagPrototyped, spFlags: DISPFlagOptimized)
!173 = !DISubprogram(name: "isFunctionTy", linkageName: "_ZNK4llvm4Type12isFunctionTyEv", scope: !77, file: !78, line: 208, type: !148, scopeLine: 208, flags: DIFlagPublic | DIFlagPrototyped, spFlags: DISPFlagOptimized)
!174 = !DISubprogram(name: "isStructTy", linkageName: "_ZNK4llvm4Type10isStructTyEv", scope: !77, file: !78, line: 212, type: !148, scopeLine: 212, flags: DIFlagPublic | DIFlagPrototyped, spFlags: DISPFlagOptimized)
!175 = !DISubprogram(name: "isArrayTy", linkageName: "_ZNK4llvm4Type9isArrayTyEv", scope: !77, file: !78, line: 216, type: !148, scopeLine: 216, flags: DIFlagPublic | DIFlagPrototyped, spFlags: DISPFlagOptimized)
!176 = !DISubprogram(name: "isPointerTy", linkageName: "_ZNK4llvm4Type11isPointerTyEv", scope: !77, file: !78, line: 220, type: !148, scopeLine: 220, flags: DIFlagPublic | DIFlagPrototyped, spFlags: DISPFlagOptimized)
!177 = !DISubprogram(name: "isPtrOrPtrVectorTy", linkageName: "_ZNK4llvm4Type18isPtrOrPtrVectorTyEv", scope: !77, file: !78, line: 225, type: !148, scopeLine: 225, flags: DIFlagPublic | DIFlagPrototyped, spFlags: DISPFlagOptimized)
!178 = !DISubprogram(name: "isVectorTy", linkageName: "_ZNK4llvm4Type10isVectorTyEv", scope: !77, file: !78, line: 229, type: !148, scopeLine: 229, flags: DIFlagPublic | DIFlagPrototyped, spFlags: DISPFlagOptimized)
!179 = !DISubprogram(name: "canLosslesslyBitCastTo", linkageName: "_ZNK4llvm4Type22canLosslesslyBitCastToEPS0_", scope: !77, file: !78, line: 236, type: !180, scopeLine: 236, flags: DIFlagPublic | DIFlagPrototyped, spFlags: DISPFlagOptimized)
!180 = !DISubroutineType(types: !181)
!181 = !{!27, !127, !76}
!182 = !DISubprogram(name: "isEmptyTy", linkageName: "_ZNK4llvm4Type9isEmptyTyEv", scope: !77, file: !78, line: 240, type: !148, scopeLine: 240, flags: DIFlagPublic | DIFlagPrototyped, spFlags: DISPFlagOptimized)
!183 = !DISubprogram(name: "isPrimitiveType", linkageName: "_ZNK4llvm4Type15isPrimitiveTypeEv", scope: !77, file: !78, line: 245, type: !148, scopeLine: 245, flags: DIFlagPublic | DIFlagPrototyped, spFlags: DISPFlagOptimized)
!184 = !DISubprogram(name: "isDerivedType", linkageName: "_ZNK4llvm4Type13isDerivedTypeEv", scope: !77, file: !78, line: 246, type: !148, scopeLine: 246, flags: DIFlagPublic | DIFlagPrototyped, spFlags: DISPFlagOptimized)
!185 = !DISubprogram(name: "isFirstClassType", linkageName: "_ZNK4llvm4Type16isFirstClassTypeEv", scope: !77, file: !78, line: 251, type: !148, scopeLine: 251, flags: DIFlagPublic | DIFlagPrototyped, spFlags: DISPFlagOptimized)
!186 = !DISubprogram(name: "isSingleValueType", linkageName: "_ZNK4llvm4Type17isSingleValueTypeEv", scope: !77, file: !78, line: 259, type: !148, scopeLine: 259, flags: DIFlagPublic | DIFlagPrototyped, spFlags: DISPFlagOptimized)
!187 = !DISubprogram(name: "isAggregateType", linkageName: "_ZNK4llvm4Type15isAggregateTypeEv", scope: !77, file: !78, line: 270, type: !148, scopeLine: 270, flags: DIFlagPublic | DIFlagPrototyped, spFlags: DISPFlagOptimized)
!188 = !DISubprogram(name: "isSized", linkageName: "_ZNK4llvm4Type7isSizedEv", scope: !77, file: !78, line: 278, type: !148, scopeLine: 278, flags: DIFlagPublic | DIFlagPrototyped, spFlags: DISPFlagOptimized)
!189 = !DISubprogram(name: "getPrimitiveSizeInBits", linkageName: "_ZNK4llvm4Type22getPrimitiveSizeInBitsEv", scope: !77, file: !78, line: 303, type: !125, scopeLine: 303, flags: DIFlagPublic | DIFlagPrototyped, spFlags: DISPFlagOptimized)
!190 = !DISubprogram(name: "getScalarSizeInBits", linkageName: "_ZN4llvm4Type19getScalarSizeInBitsEv", scope: !77, file: !78, line: 308, type: !191, scopeLine: 308, flags: DIFlagPublic | DIFlagPrototyped, spFlags: DISPFlagOptimized)
!191 = !DISubroutineType(types: !192)
!192 = !{!6, !96}
!193 = !DISubprogram(name: "getFPMantissaWidth", linkageName: "_ZNK4llvm4Type18getFPMantissaWidthEv", scope: !77, file: !78, line: 313, type: !194, scopeLine: 313, flags: DIFlagPublic | DIFlagPrototyped, spFlags: DISPFlagOptimized)
!194 = !DISubroutineType(types: !195)
!195 = !{!196, !127}
!196 = !DIBasicType(name: "int", size: 32, encoding: DW_ATE_signed)
!197 = !DISubprogram(name: "getScalarType", linkageName: "_ZNK4llvm4Type13getScalarTypeEv", scope: !77, file: !78, line: 317, type: !198, scopeLine: 317, flags: DIFlagPublic | DIFlagPrototyped, spFlags: DISPFlagOptimized)
!198 = !DISubroutineType(types: !199)
!199 = !{!200, !127}
!200 = !DIDerivedType(tag: DW_TAG_pointer_type, baseType: !128, size: 64)
!201 = !DISubprogram(name: "getScalarType", linkageName: "_ZN4llvm4Type13getScalarTypeEv", scope: !77, file: !78, line: 318, type: !202, scopeLine: 318, flags: DIFlagPublic | DIFlagPrototyped, spFlags: DISPFlagOptimized)
!202 = !DISubroutineType(types: !203)
!203 = !{!76, !96}
!204 = !DISubprogram(name: "subtype_begin", linkageName: "_ZNK4llvm4Type13subtype_beginEv", scope: !77, file: !78, line: 324, type: !205, scopeLine: 324, flags: DIFlagPublic | DIFlagPrototyped, spFlags: DISPFlagOptimized)
!205 = !DISubroutineType(types: !206)
!206 = !{!207, !127}
!207 = !DIDerivedType(tag: DW_TAG_typedef, name: "subtype_iterator", scope: !77, file: !78, line: 323, baseType: !91)
!208 = !DISubprogram(name: "subtype_end", linkageName: "_ZNK4llvm4Type11subtype_endEv", scope: !77, file: !78, line: 325, type: !205, scopeLine: 325, flags: DIFlagPublic | DIFlagPrototyped, spFlags: DISPFlagOptimized)
!209 = !DISubprogram(name: "subtype_rbegin", linkageName: "_ZNK4llvm4Type14subtype_rbeginEv", scope: !77, file: !78, line: 328, type: !210, scopeLine: 328, flags: DIFlagPublic | DIFlagPrototyped, spFlags: DISPFlagOptimized)
!210 = !DISubroutineType(types: !211)
!211 = !{!212, !127}
!212 = !DIDerivedType(tag: DW_TAG_typedef, name: "subtype_reverse_iterator", scope: !77, file: !78, line: 327, baseType: !213)
!213 = distinct !DICompositeType(tag: DW_TAG_class_type, name: "reverse_iterator<llvm::Type *const *>", scope: !215, file: !214, line: 101, size: 64, flags: DIFlagTypePassByReference | DIFlagNonTrivial, elements: !216, templateParams: !263, identifier: "_ZTSSt16reverse_iteratorIPKPN4llvm4TypeEE")
!214 = !DIFile(filename: "/usr/lib/gcc/x86_64-linux-gnu/7.5.0/../../../../include/c++/7.5.0/bits/stl_iterator.h", directory: "")
!215 = !DINamespace(name: "std", scope: null)
!216 = !{!217, !239, !240, !244, !248, !253, !257, !265, !270, !274, !277, !278, !279, !286, !289, !290, !291}
!217 = !DIDerivedType(tag: DW_TAG_inheritance, scope: !213, baseType: !218, flags: DIFlagPublic, extraData: i32 0)
!218 = distinct !DICompositeType(tag: DW_TAG_structure_type, name: "iterator<std::random_access_iterator_tag, llvm::Type *, long, llvm::Type *const *, llvm::Type *const &>", scope: !215, file: !219, line: 118, size: 8, flags: DIFlagTypePassByValue, elements: !220, templateParams: !221, identifier: "_ZTSSt8iteratorISt26random_access_iterator_tagPN4llvm4TypeElPKS3_RS4_E")
!219 = !DIFile(filename: "/usr/lib/gcc/x86_64-linux-gnu/7.5.0/../../../../include/c++/7.5.0/bits/stl_iterator_base_types.h", directory: "")
!220 = !{}
!221 = !{!222, !233, !234, !236, !237}
!222 = !DITemplateTypeParameter(name: "_Category", type: !223)
!223 = distinct !DICompositeType(tag: DW_TAG_structure_type, name: "random_access_iterator_tag", scope: !215, file: !219, line: 103, size: 8, flags: DIFlagTypePassByValue, elements: !224, identifier: "_ZTSSt26random_access_iterator_tag")
!224 = !{!225}
!225 = !DIDerivedType(tag: DW_TAG_inheritance, scope: !223, baseType: !226, extraData: i32 0)
!226 = distinct !DICompositeType(tag: DW_TAG_structure_type, name: "bidirectional_iterator_tag", scope: !215, file: !219, line: 99, size: 8, flags: DIFlagTypePassByValue, elements: !227, identifier: "_ZTSSt26bidirectional_iterator_tag")
!227 = !{!228}
!228 = !DIDerivedType(tag: DW_TAG_inheritance, scope: !226, baseType: !229, extraData: i32 0)
!229 = distinct !DICompositeType(tag: DW_TAG_structure_type, name: "forward_iterator_tag", scope: !215, file: !219, line: 95, size: 8, flags: DIFlagTypePassByValue, elements: !230, identifier: "_ZTSSt20forward_iterator_tag")
!230 = !{!231}
!231 = !DIDerivedType(tag: DW_TAG_inheritance, scope: !229, baseType: !232, extraData: i32 0)
!232 = distinct !DICompositeType(tag: DW_TAG_structure_type, name: "input_iterator_tag", scope: !215, file: !219, line: 89, size: 8, flags: DIFlagTypePassByValue, elements: !220, identifier: "_ZTSSt18input_iterator_tag")
!233 = !DITemplateTypeParameter(name: "_Tp", type: !76)
!234 = !DITemplateTypeParameter(name: "_Distance", type: !235)
!235 = !DIBasicType(name: "long int", size: 64, encoding: DW_ATE_signed)
!236 = !DITemplateTypeParameter(name: "_Pointer", type: !91)
!237 = !DITemplateTypeParameter(name: "_Reference", type: !238)
!238 = !DIDerivedType(tag: DW_TAG_reference_type, baseType: !92, size: 64)
!239 = !DIDerivedType(tag: DW_TAG_member, name: "current", scope: !213, file: !214, line: 109, baseType: !91, size: 64, flags: DIFlagProtected)
!240 = !DISubprogram(name: "reverse_iterator", scope: !213, file: !214, line: 127, type: !241, scopeLine: 127, flags: DIFlagPublic | DIFlagPrototyped, spFlags: DISPFlagOptimized)
!241 = !DISubroutineType(types: !242)
!242 = !{null, !243}
!243 = !DIDerivedType(tag: DW_TAG_pointer_type, baseType: !213, size: 64, flags: DIFlagArtificial | DIFlagObjectPointer)
!244 = !DISubprogram(name: "reverse_iterator", scope: !213, file: !214, line: 133, type: !245, scopeLine: 133, flags: DIFlagPublic | DIFlagExplicit | DIFlagPrototyped, spFlags: DISPFlagOptimized)
!245 = !DISubroutineType(types: !246)
!246 = !{null, !243, !247}
!247 = !DIDerivedType(tag: DW_TAG_typedef, name: "iterator_type", scope: !213, file: !214, line: 114, baseType: !91)
!248 = !DISubprogram(name: "reverse_iterator", scope: !213, file: !214, line: 139, type: !249, scopeLine: 139, flags: DIFlagPublic | DIFlagPrototyped, spFlags: DISPFlagOptimized)
!249 = !DISubroutineType(types: !250)
!250 = !{null, !243, !251}
!251 = !DIDerivedType(tag: DW_TAG_reference_type, baseType: !252, size: 64)
!252 = !DIDerivedType(tag: DW_TAG_const_type, baseType: !213)
!253 = !DISubprogram(name: "base", linkageName: "_ZNKSt16reverse_iteratorIPKPN4llvm4TypeEE4baseEv", scope: !213, file: !214, line: 155, type: !254, scopeLine: 155, flags: DIFlagPublic | DIFlagPrototyped, spFlags: DISPFlagOptimized)
!254 = !DISubroutineType(types: !255)
!255 = !{!247, !256}
!256 = !DIDerivedType(tag: DW_TAG_pointer_type, baseType: !252, size: 64, flags: DIFlagArtificial | DIFlagObjectPointer)
!257 = !DISubprogram(name: "operator*", linkageName: "_ZNKSt16reverse_iteratorIPKPN4llvm4TypeEEdeEv", scope: !213, file: !214, line: 169, type: !258, scopeLine: 169, flags: DIFlagPublic | DIFlagPrototyped, spFlags: DISPFlagOptimized)
!258 = !DISubroutineType(types: !259)
!259 = !{!260, !256}
!260 = !DIDerivedType(tag: DW_TAG_typedef, name: "reference", scope: !213, file: !214, line: 117, baseType: !261)
!261 = !DIDerivedType(tag: DW_TAG_typedef, name: "reference", scope: !262, file: !219, line: 195, baseType: !238)
!262 = distinct !DICompositeType(tag: DW_TAG_structure_type, name: "iterator_traits<llvm::Type *const *>", scope: !215, file: !219, line: 189, size: 8, flags: DIFlagTypePassByValue, elements: !220, templateParams: !263, identifier: "_ZTSSt15iterator_traitsIPKPN4llvm4TypeEE")
!263 = !{!264}
!264 = !DITemplateTypeParameter(name: "_Iterator", type: !91)
!265 = !DISubprogram(name: "operator->", linkageName: "_ZNKSt16reverse_iteratorIPKPN4llvm4TypeEEptEv", scope: !213, file: !214, line: 183, type: !266, scopeLine: 183, flags: DIFlagPublic | DIFlagPrototyped, spFlags: DISPFlagOptimized)
!266 = !DISubroutineType(types: !267)
!267 = !{!268, !256}
!268 = !DIDerivedType(tag: DW_TAG_typedef, name: "pointer", scope: !213, file: !214, line: 116, baseType: !269)
!269 = !DIDerivedType(tag: DW_TAG_typedef, name: "pointer", scope: !262, file: !219, line: 194, baseType: !91)
!270 = !DISubprogram(name: "operator++", linkageName: "_ZNSt16reverse_iteratorIPKPN4llvm4TypeEEppEv", scope: !213, file: !214, line: 192, type: !271, scopeLine: 192, flags: DIFlagPublic | DIFlagPrototyped, spFlags: DISPFlagOptimized)
!271 = !DISubroutineType(types: !272)
!272 = !{!273, !243}
!273 = !DIDerivedType(tag: DW_TAG_reference_type, baseType: !213, size: 64)
!274 = !DISubprogram(name: "operator++", linkageName: "_ZNSt16reverse_iteratorIPKPN4llvm4TypeEEppEi", scope: !213, file: !214, line: 204, type: !275, scopeLine: 204, flags: DIFlagPublic | DIFlagPrototyped, spFlags: DISPFlagOptimized)
!275 = !DISubroutineType(types: !276)
!276 = !{!213, !243, !196}
!277 = !DISubprogram(name: "operator--", linkageName: "_ZNSt16reverse_iteratorIPKPN4llvm4TypeEEmmEv", scope: !213, file: !214, line: 217, type: !271, scopeLine: 217, flags: DIFlagPublic | DIFlagPrototyped, spFlags: DISPFlagOptimized)
!278 = !DISubprogram(name: "operator--", linkageName: "_ZNSt16reverse_iteratorIPKPN4llvm4TypeEEmmEi", scope: !213, file: !214, line: 229, type: !275, scopeLine: 229, flags: DIFlagPublic | DIFlagPrototyped, spFlags: DISPFlagOptimized)
!279 = !DISubprogram(name: "operator+", linkageName: "_ZNKSt16reverse_iteratorIPKPN4llvm4TypeEEplEl", scope: !213, file: !214, line: 242, type: !280, scopeLine: 242, flags: DIFlagPublic | DIFlagPrototyped, spFlags: DISPFlagOptimized)
!280 = !DISubroutineType(types: !281)
!281 = !{!213, !256, !282}
!282 = !DIDerivedType(tag: DW_TAG_typedef, name: "difference_type", scope: !213, file: !214, line: 115, baseType: !283)
!283 = !DIDerivedType(tag: DW_TAG_typedef, name: "difference_type", scope: !262, file: !219, line: 193, baseType: !284)
!284 = !DIDerivedType(tag: DW_TAG_typedef, name: "ptrdiff_t", scope: !215, file: !285, line: 232, baseType: !235)
!285 = !DIFile(filename: "/usr/lib/gcc/x86_64-linux-gnu/7.5.0/../../../../include/x86_64-linux-gnu/c++/7.5.0/bits/c++config.h", directory: "")
!286 = !DISubprogram(name: "operator+=", linkageName: "_ZNSt16reverse_iteratorIPKPN4llvm4TypeEEpLEl", scope: !213, file: !214, line: 252, type: !287, scopeLine: 252, flags: DIFlagPublic | DIFlagPrototyped, spFlags: DISPFlagOptimized)
!287 = !DISubroutineType(types: !288)
!288 = !{!273, !243, !282}
!289 = !DISubprogram(name: "operator-", linkageName: "_ZNKSt16reverse_iteratorIPKPN4llvm4TypeEEmiEl", scope: !213, file: !214, line: 264, type: !280, scopeLine: 264, flags: DIFlagPublic | DIFlagPrototyped, spFlags: DISPFlagOptimized)
!290 = !DISubprogram(name: "operator-=", linkageName: "_ZNSt16reverse_iteratorIPKPN4llvm4TypeEEmIEl", scope: !213, file: !214, line: 274, type: !287, scopeLine: 274, flags: DIFlagPublic | DIFlagPrototyped, spFlags: DISPFlagOptimized)
!291 = !DISubprogram(name: "operator[]", linkageName: "_ZNKSt16reverse_iteratorIPKPN4llvm4TypeEEixEl", scope: !213, file: !214, line: 286, type: !292, scopeLine: 286, flags: DIFlagPublic | DIFlagPrototyped, spFlags: DISPFlagOptimized)
!292 = !DISubroutineType(types: !293)
!293 = !{!260, !256, !282}
!294 = !DISubprogram(name: "subtype_rend", linkageName: "_ZNK4llvm4Type12subtype_rendEv", scope: !77, file: !78, line: 331, type: !210, scopeLine: 331, flags: DIFlagPublic | DIFlagPrototyped, spFlags: DISPFlagOptimized)
!295 = !DISubprogram(name: "getContainedType", linkageName: "_ZNK4llvm4Type16getContainedTypeEj", scope: !77, file: !78, line: 339, type: !296, scopeLine: 339, flags: DIFlagPublic | DIFlagPrototyped, spFlags: DISPFlagOptimized)
!296 = !DISubroutineType(types: !297)
!297 = !{!76, !127, !6}
!298 = !DISubprogram(name: "getNumContainedTypes", linkageName: "_ZNK4llvm4Type20getNumContainedTypesEv", scope: !77, file: !78, line: 346, type: !125, scopeLine: 346, flags: DIFlagPublic | DIFlagPrototyped, spFlags: DISPFlagOptimized)
!299 = !DISubprogram(name: "getIntegerBitWidth", linkageName: "_ZNK4llvm4Type18getIntegerBitWidthEv", scope: !77, file: !78, line: 355, type: !125, scopeLine: 355, flags: DIFlagPublic | DIFlagPrototyped, spFlags: DISPFlagOptimized)
!300 = !DISubprogram(name: "getFunctionParamType", linkageName: "_ZNK4llvm4Type20getFunctionParamTypeEj", scope: !77, file: !78, line: 357, type: !296, scopeLine: 357, flags: DIFlagPublic | DIFlagPrototyped, spFlags: DISPFlagOptimized)
!301 = !DISubprogram(name: "getFunctionNumParams", linkageName: "_ZNK4llvm4Type20getFunctionNumParamsEv", scope: !77, file: !78, line: 358, type: !125, scopeLine: 358, flags: DIFlagPublic | DIFlagPrototyped, spFlags: DISPFlagOptimized)
!302 = !DISubprogram(name: "isFunctionVarArg", linkageName: "_ZNK4llvm4Type16isFunctionVarArgEv", scope: !77, file: !78, line: 359, type: !148, scopeLine: 359, flags: DIFlagPublic | DIFlagPrototyped, spFlags: DISPFlagOptimized)
!303 = !DISubprogram(name: "getStructName", linkageName: "_ZNK4llvm4Type13getStructNameEv", scope: !77, file: !78, line: 361, type: !304, scopeLine: 361, flags: DIFlagPublic | DIFlagPrototyped, spFlags: DISPFlagOptimized)
!304 = !DISubroutineType(types: !305)
!305 = !{!306, !127}
!306 = distinct !DICompositeType(tag: DW_TAG_class_type, name: "StringRef", scope: !14, file: !307, line: 41, size: 128, flags: DIFlagTypePassByValue | DIFlagNonTrivial, elements: !308, identifier: "_ZTSN4llvm9StringRefE")
!307 = !DIFile(filename: "/faster/fs/llvm34/include/llvm/ADT/StringRef.h", directory: "")
!308 = !{!309, !314, !318, !319, !322, !323, !326, !330, !333, !336, !346, !352, !353, !356, !359, !362, !365, !366, !369, !370, !373, !374, !375, !378, !381, !384, !385, !386, !387, !388, !389, !392, !395, !396, !399, !400, !401, !402, !403, !404, !405, !406, !407, !410, !411, !1394, !1395, !1396, !1399, !1402, !1403, !1404, !1471, !1474, !1479, !1480, !1483, !1484}
!309 = !DIDerivedType(tag: DW_TAG_member, name: "npos", scope: !306, file: !307, line: 45, baseType: !310, flags: DIFlagPublic | DIFlagStaticMember, extraData: i64 -1)
!310 = !DIDerivedType(tag: DW_TAG_const_type, baseType: !311)
!311 = !DIDerivedType(tag: DW_TAG_typedef, name: "size_t", file: !312, line: 46, baseType: !313)
!312 = !DIFile(filename: "llvm-project/build/lib/clang/11.0.0/include/stddef.h", directory: "/fast/fs")
!313 = !DIBasicType(name: "long unsigned int", size: 64, encoding: DW_ATE_unsigned)
!314 = !DIDerivedType(tag: DW_TAG_member, name: "Data", scope: !306, file: !307, line: 50, baseType: !315, size: 64)
!315 = !DIDerivedType(tag: DW_TAG_pointer_type, baseType: !316, size: 64)
!316 = !DIDerivedType(tag: DW_TAG_const_type, baseType: !317)
!317 = !DIBasicType(name: "char", size: 8, encoding: DW_ATE_signed_char)
!318 = !DIDerivedType(tag: DW_TAG_member, name: "Length", scope: !306, file: !307, line: 53, baseType: !311, size: 64, offset: 64)
!319 = !DISubprogram(name: "min", linkageName: "_ZN4llvm9StringRef3minEmm", scope: !306, file: !307, line: 58, type: !320, scopeLine: 58, flags: DIFlagPrototyped | DIFlagStaticMember, spFlags: DISPFlagOptimized)
!320 = !DISubroutineType(types: !321)
!321 = !{!311, !311, !311}
!322 = !DISubprogram(name: "max", linkageName: "_ZN4llvm9StringRef3maxEmm", scope: !306, file: !307, line: 59, type: !320, scopeLine: 59, flags: DIFlagPrototyped | DIFlagStaticMember, spFlags: DISPFlagOptimized)
!323 = !DISubprogram(name: "compareMemory", linkageName: "_ZN4llvm9StringRef13compareMemoryEPKcS2_m", scope: !306, file: !307, line: 63, type: !324, scopeLine: 63, flags: DIFlagPrototyped | DIFlagStaticMember, spFlags: DISPFlagOptimized)
!324 = !DISubroutineType(types: !325)
!325 = !{!196, !315, !315, !311}
!326 = !DISubprogram(name: "StringRef", scope: !306, file: !307, line: 73, type: !327, scopeLine: 73, flags: DIFlagPublic | DIFlagPrototyped, spFlags: DISPFlagOptimized)
!327 = !DISubroutineType(types: !328)
!328 = !{null, !329}
!329 = !DIDerivedType(tag: DW_TAG_pointer_type, baseType: !306, size: 64, flags: DIFlagArtificial | DIFlagObjectPointer)
!330 = !DISubprogram(name: "StringRef", scope: !306, file: !307, line: 76, type: !331, scopeLine: 76, flags: DIFlagPublic | DIFlagPrototyped, spFlags: DISPFlagOptimized)
!331 = !DISubroutineType(types: !332)
!332 = !{null, !329, !315}
!333 = !DISubprogram(name: "StringRef", scope: !306, file: !307, line: 83, type: !334, scopeLine: 83, flags: DIFlagPublic | DIFlagPrototyped, spFlags: DISPFlagOptimized)
!334 = !DISubroutineType(types: !335)
!335 = !{null, !329, !315, !311}
!336 = !DISubprogram(name: "StringRef", scope: !306, file: !307, line: 90, type: !337, scopeLine: 90, flags: DIFlagPublic | DIFlagPrototyped, spFlags: DISPFlagOptimized)
!337 = !DISubroutineType(types: !338)
!338 = !{null, !329, !339}
!339 = !DIDerivedType(tag: DW_TAG_reference_type, baseType: !340, size: 64)
!340 = !DIDerivedType(tag: DW_TAG_const_type, baseType: !341)
!341 = !DIDerivedType(tag: DW_TAG_typedef, name: "string", scope: !343, file: !342, line: 74, baseType: !344)
!342 = !DIFile(filename: "/usr/lib/gcc/x86_64-linux-gnu/7.5.0/../../../../include/c++/7.5.0/bits/stringfwd.h", directory: "")
!343 = !DINamespace(name: "__cxx11", scope: !215, exportSymbols: true)
!344 = distinct !DICompositeType(tag: DW_TAG_class_type, name: "basic_string<char, std::char_traits<char>, std::allocator<char> >", scope: !343, file: !345, line: 1607, flags: DIFlagFwdDecl, identifier: "_ZTSNSt7__cxx1112basic_stringIcSt11char_traitsIcESaIcEEE")
!345 = !DIFile(filename: "/usr/lib/gcc/x86_64-linux-gnu/7.5.0/../../../../include/c++/7.5.0/bits/basic_string.tcc", directory: "")
!346 = !DISubprogram(name: "begin", linkageName: "_ZNK4llvm9StringRef5beginEv", scope: !306, file: !307, line: 97, type: !347, scopeLine: 97, flags: DIFlagPublic | DIFlagPrototyped, spFlags: DISPFlagOptimized)
!347 = !DISubroutineType(types: !348)
!348 = !{!349, !350}
!349 = !DIDerivedType(tag: DW_TAG_typedef, name: "iterator", scope: !306, file: !307, line: 43, baseType: !315)
!350 = !DIDerivedType(tag: DW_TAG_pointer_type, baseType: !351, size: 64, flags: DIFlagArtificial | DIFlagObjectPointer)
!351 = !DIDerivedType(tag: DW_TAG_const_type, baseType: !306)
!352 = !DISubprogram(name: "end", linkageName: "_ZNK4llvm9StringRef3endEv", scope: !306, file: !307, line: 99, type: !347, scopeLine: 99, flags: DIFlagPublic | DIFlagPrototyped, spFlags: DISPFlagOptimized)
!353 = !DISubprogram(name: "data", linkageName: "_ZNK4llvm9StringRef4dataEv", scope: !306, file: !307, line: 107, type: !354, scopeLine: 107, flags: DIFlagPublic | DIFlagPrototyped, spFlags: DISPFlagOptimized)
!354 = !DISubroutineType(types: !355)
!355 = !{!315, !350}
!356 = !DISubprogram(name: "empty", linkageName: "_ZNK4llvm9StringRef5emptyEv", scope: !306, file: !307, line: 110, type: !357, scopeLine: 110, flags: DIFlagPublic | DIFlagPrototyped, spFlags: DISPFlagOptimized)
!357 = !DISubroutineType(types: !358)
!358 = !{!27, !350}
!359 = !DISubprogram(name: "size", linkageName: "_ZNK4llvm9StringRef4sizeEv", scope: !306, file: !307, line: 113, type: !360, scopeLine: 113, flags: DIFlagPublic | DIFlagPrototyped, spFlags: DISPFlagOptimized)
!360 = !DISubroutineType(types: !361)
!361 = !{!311, !350}
!362 = !DISubprogram(name: "front", linkageName: "_ZNK4llvm9StringRef5frontEv", scope: !306, file: !307, line: 116, type: !363, scopeLine: 116, flags: DIFlagPublic | DIFlagPrototyped, spFlags: DISPFlagOptimized)
!363 = !DISubroutineType(types: !364)
!364 = !{!317, !350}
!365 = !DISubprogram(name: "back", linkageName: "_ZNK4llvm9StringRef4backEv", scope: !306, file: !307, line: 122, type: !363, scopeLine: 122, flags: DIFlagPublic | DIFlagPrototyped, spFlags: DISPFlagOptimized)
!366 = !DISubprogram(name: "equals", linkageName: "_ZNK4llvm9StringRef6equalsES0_", scope: !306, file: !307, line: 129, type: !367, scopeLine: 129, flags: DIFlagPublic | DIFlagPrototyped, spFlags: DISPFlagOptimized)
!367 = !DISubroutineType(types: !368)
!368 = !{!27, !350, !306}
!369 = !DISubprogram(name: "equals_lower", linkageName: "_ZNK4llvm9StringRef12equals_lowerES0_", scope: !306, file: !307, line: 135, type: !367, scopeLine: 135, flags: DIFlagPublic | DIFlagPrototyped, spFlags: DISPFlagOptimized)
!370 = !DISubprogram(name: "compare", linkageName: "_ZNK4llvm9StringRef7compareES0_", scope: !306, file: !307, line: 141, type: !371, scopeLine: 141, flags: DIFlagPublic | DIFlagPrototyped, spFlags: DISPFlagOptimized)
!371 = !DISubroutineType(types: !372)
!372 = !{!196, !350, !306}
!373 = !DISubprogram(name: "compare_lower", linkageName: "_ZNK4llvm9StringRef13compare_lowerES0_", scope: !306, file: !307, line: 153, type: !371, scopeLine: 153, flags: DIFlagPublic | DIFlagPrototyped, spFlags: DISPFlagOptimized)
!374 = !DISubprogram(name: "compare_numeric", linkageName: "_ZNK4llvm9StringRef15compare_numericES0_", scope: !306, file: !307, line: 157, type: !371, scopeLine: 157, flags: DIFlagPublic | DIFlagPrototyped, spFlags: DISPFlagOptimized)
!375 = !DISubprogram(name: "edit_distance", linkageName: "_ZNK4llvm9StringRef13edit_distanceES0_bj", scope: !306, file: !307, line: 177, type: !376, scopeLine: 177, flags: DIFlagPublic | DIFlagPrototyped, spFlags: DISPFlagOptimized)
!376 = !DISubroutineType(types: !377)
!377 = !{!6, !350, !306, !27, !6}
!378 = !DISubprogram(name: "str", linkageName: "_ZNK4llvm9StringRef3strB5cxx11Ev", scope: !306, file: !307, line: 181, type: !379, scopeLine: 181, flags: DIFlagPublic | DIFlagPrototyped, spFlags: DISPFlagOptimized)
!379 = !DISubroutineType(types: !380)
!380 = !{!341, !350}
!381 = !DISubprogram(name: "operator[]", linkageName: "_ZNK4llvm9StringRefixEm", scope: !306, file: !307, line: 190, type: !382, scopeLine: 190, flags: DIFlagPublic | DIFlagPrototyped, spFlags: DISPFlagOptimized)
!382 = !DISubroutineType(types: !383)
!383 = !{!317, !350, !311}
!384 = !DISubprogram(name: "operator basic_string", linkageName: "_ZNK4llvm9StringRefcvNSt7__cxx1112basic_stringIcSt11char_traitsIcESaIcEEEEv", scope: !306, file: !307, line: 199, type: !379, scopeLine: 199, flags: DIFlagPublic | DIFlagPrototyped, spFlags: DISPFlagOptimized)
!385 = !DISubprogram(name: "startswith", linkageName: "_ZNK4llvm9StringRef10startswithES0_", scope: !306, file: !307, line: 208, type: !367, scopeLine: 208, flags: DIFlagPublic | DIFlagPrototyped, spFlags: DISPFlagOptimized)
!386 = !DISubprogram(name: "startswith_lower", linkageName: "_ZNK4llvm9StringRef16startswith_lowerES0_", scope: !306, file: !307, line: 214, type: !367, scopeLine: 214, flags: DIFlagPublic | DIFlagPrototyped, spFlags: DISPFlagOptimized)
!387 = !DISubprogram(name: "endswith", linkageName: "_ZNK4llvm9StringRef8endswithES0_", scope: !306, file: !307, line: 217, type: !367, scopeLine: 217, flags: DIFlagPublic | DIFlagPrototyped, spFlags: DISPFlagOptimized)
!388 = !DISubprogram(name: "endswith_lower", linkageName: "_ZNK4llvm9StringRef14endswith_lowerES0_", scope: !306, file: !307, line: 223, type: !367, scopeLine: 223, flags: DIFlagPublic | DIFlagPrototyped, spFlags: DISPFlagOptimized)
!389 = !DISubprogram(name: "find", linkageName: "_ZNK4llvm9StringRef4findEcm", scope: !306, file: !307, line: 233, type: !390, scopeLine: 233, flags: DIFlagPublic | DIFlagPrototyped, spFlags: DISPFlagOptimized)
!390 = !DISubroutineType(types: !391)
!391 = !{!311, !350, !317, !311}
!392 = !DISubprogram(name: "find", linkageName: "_ZNK4llvm9StringRef4findES0_m", scope: !306, file: !307, line: 244, type: !393, scopeLine: 244, flags: DIFlagPublic | DIFlagPrototyped, spFlags: DISPFlagOptimized)
!393 = !DISubroutineType(types: !394)
!394 = !{!311, !350, !306, !311}
!395 = !DISubprogram(name: "rfind", linkageName: "_ZNK4llvm9StringRef5rfindEcm", scope: !306, file: !307, line: 250, type: !390, scopeLine: 250, flags: DIFlagPublic | DIFlagPrototyped, spFlags: DISPFlagOptimized)
!396 = !DISubprogram(name: "rfind", linkageName: "_ZNK4llvm9StringRef5rfindES0_", scope: !306, file: !307, line: 265, type: !397, scopeLine: 265, flags: DIFlagPublic | DIFlagPrototyped, spFlags: DISPFlagOptimized)
!397 = !DISubroutineType(types: !398)
!398 = !{!311, !350, !306}
!399 = !DISubprogram(name: "find_first_of", linkageName: "_ZNK4llvm9StringRef13find_first_ofEcm", scope: !306, file: !307, line: 269, type: !390, scopeLine: 269, flags: DIFlagPublic | DIFlagPrototyped, spFlags: DISPFlagOptimized)
!400 = !DISubprogram(name: "find_first_of", linkageName: "_ZNK4llvm9StringRef13find_first_ofES0_m", scope: !306, file: !307, line: 277, type: !393, scopeLine: 277, flags: DIFlagPublic | DIFlagPrototyped, spFlags: DISPFlagOptimized)
!401 = !DISubprogram(name: "find_first_not_of", linkageName: "_ZNK4llvm9StringRef17find_first_not_ofEcm", scope: !306, file: !307, line: 281, type: !390, scopeLine: 281, flags: DIFlagPublic | DIFlagPrototyped, spFlags: DISPFlagOptimized)
!402 = !DISubprogram(name: "find_first_not_of", linkageName: "_ZNK4llvm9StringRef17find_first_not_ofES0_m", scope: !306, file: !307, line: 287, type: !393, scopeLine: 287, flags: DIFlagPublic | DIFlagPrototyped, spFlags: DISPFlagOptimized)
!403 = !DISubprogram(name: "find_last_of", linkageName: "_ZNK4llvm9StringRef12find_last_ofEcm", scope: !306, file: !307, line: 291, type: !390, scopeLine: 291, flags: DIFlagPublic | DIFlagPrototyped, spFlags: DISPFlagOptimized)
!404 = !DISubprogram(name: "find_last_of", linkageName: "_ZNK4llvm9StringRef12find_last_ofES0_m", scope: !306, file: !307, line: 299, type: !393, scopeLine: 299, flags: DIFlagPublic | DIFlagPrototyped, spFlags: DISPFlagOptimized)
!405 = !DISubprogram(name: "find_last_not_of", linkageName: "_ZNK4llvm9StringRef16find_last_not_ofEcm", scope: !306, file: !307, line: 303, type: !390, scopeLine: 303, flags: DIFlagPublic | DIFlagPrototyped, spFlags: DISPFlagOptimized)
!406 = !DISubprogram(name: "find_last_not_of", linkageName: "_ZNK4llvm9StringRef16find_last_not_ofES0_m", scope: !306, file: !307, line: 309, type: !393, scopeLine: 309, flags: DIFlagPublic | DIFlagPrototyped, spFlags: DISPFlagOptimized)
!407 = !DISubprogram(name: "count", linkageName: "_ZNK4llvm9StringRef5countEc", scope: !306, file: !307, line: 316, type: !408, scopeLine: 316, flags: DIFlagPublic | DIFlagPrototyped, spFlags: DISPFlagOptimized)
!408 = !DISubroutineType(types: !409)
!409 = !{!311, !350, !317}
!410 = !DISubprogram(name: "count", linkageName: "_ZNK4llvm9StringRef5countES0_", scope: !306, file: !307, line: 326, type: !397, scopeLine: 326, flags: DIFlagPublic | DIFlagPrototyped, spFlags: DISPFlagOptimized)
!411 = !DISubprogram(name: "getAsInteger", linkageName: "_ZNK4llvm9StringRef12getAsIntegerEjRNS_5APIntE", scope: !306, file: !307, line: 367, type: !412, scopeLine: 367, flags: DIFlagPublic | DIFlagPrototyped, spFlags: DISPFlagOptimized)
!412 = !DISubroutineType(types: !413)
!413 = !{!27, !350, !6, !414}
!414 = !DIDerivedType(tag: DW_TAG_reference_type, baseType: !415, size: 64)
!415 = distinct !DICompositeType(tag: DW_TAG_class_type, name: "APInt", scope: !14, file: !416, line: 75, size: 128, flags: DIFlagTypePassByReference | DIFlagNonTrivial, elements: !417, identifier: "_ZTSN4llvm5APIntE")
!416 = !DIFile(filename: "/faster/fs/llvm34/include/llvm/ADT/APInt.h", directory: "")
!417 = !{!418, !419, !427, !431, !436, !439, !440, !443, !446, !449, !455, !460, !463, !468, !471, !474, !477, !478, !479, !482, !485, !488, !491, !492, !493, !494, !497, !502, !503, !504, !508, !511, !512, !513, !917, !918, !919, !920, !921, !922, !923, !924, !925, !928, !929, !930, !931, !932, !935, !938, !939, !940, !941, !942, !943, !944, !945, !946, !949, !952, !953, !954, !957, !960, !963, !966, !967, !968, !969, !972, !973, !974, !975, !978, !981, !982, !983, !984, !985, !986, !987, !988, !991, !992, !993, !994, !995, !996, !997, !998, !999, !1002, !1003, !1004, !1005, !1006, !1007, !1008, !1009, !1010, !1011, !1012, !1013, !1014, !1015, !1016, !1017, !1018, !1019, !1020, !1023, !1024, !1028, !1029, !1030, !1031, !1032, !1033, !1034, !1037, !1038, !1039, !1040, !1041, !1042, !1043, !1044, !1045, !1046, !1047, !1048, !1049, !1050, !1051, !1052, !1053, !1054, !1055, !1056, !1057, !1058, !1059, !1060, !1061, !1062, !1063, !1064, !1065, !1066, !1067, !1068, !1069, !1072, !1073, !1074, !1075, !1076, !1077, !1078, !1079, !1080, !1081, !1082, !1085, !1091, !1094, !1095, !1096, !1097, !1098, !1099, !1100, !1103, !1286, !1289, !1290, !1293, !1294, !1298, !1301, !1302, !1303, !1307, !1310, !1313, !1314, !1315, !1320, !1321, !1322, !1323, !1327, !1331, !1336, !1341, !1344, !1347, !1350, !1353, !1354, !1357, !1358, !1359, !1362, !1363, !1366, !1369, !1372, !1375, !1378, !1379, !1380, !1381, !1382, !1383, !1386, !1389, !1390, !1391}
!418 = !DIDerivedType(tag: DW_TAG_member, name: "BitWidth", scope: !415, file: !416, line: 76, baseType: !6, size: 32)
!419 = !DIDerivedType(tag: DW_TAG_member, scope: !415, file: !416, line: 80, baseType: !420, size: 64, offset: 64)
!420 = distinct !DICompositeType(tag: DW_TAG_union_type, scope: !415, file: !416, line: 80, size: 64, flags: DIFlagExportSymbols | DIFlagTypePassByValue, elements: !421, identifier: "_ZTSN4llvm5APIntUt_E")
!421 = !{!422, !425}
!422 = !DIDerivedType(tag: DW_TAG_member, name: "VAL", scope: !420, file: !416, line: 81, baseType: !423, size: 64)
!423 = !DIDerivedType(tag: DW_TAG_typedef, name: "uint64_t", file: !86, line: 27, baseType: !424)
!424 = !DIDerivedType(tag: DW_TAG_typedef, name: "__uint64_t", file: !88, line: 44, baseType: !313)
!425 = !DIDerivedType(tag: DW_TAG_member, name: "pVal", scope: !420, file: !416, line: 82, baseType: !426, size: 64)
!426 = !DIDerivedType(tag: DW_TAG_pointer_type, baseType: !423, size: 64)
!427 = !DISubprogram(name: "APInt", scope: !415, file: !416, line: 98, type: !428, scopeLine: 98, flags: DIFlagPrototyped, spFlags: DISPFlagOptimized)
!428 = !DISubroutineType(types: !429)
!429 = !{null, !430, !426, !6}
!430 = !DIDerivedType(tag: DW_TAG_pointer_type, baseType: !415, size: 64, flags: DIFlagArtificial | DIFlagObjectPointer)
!431 = !DISubprogram(name: "isSingleWord", linkageName: "_ZNK4llvm5APInt12isSingleWordEv", scope: !415, file: !416, line: 103, type: !432, scopeLine: 103, flags: DIFlagPrototyped, spFlags: DISPFlagOptimized)
!432 = !DISubroutineType(types: !433)
!433 = !{!27, !434}
!434 = !DIDerivedType(tag: DW_TAG_pointer_type, baseType: !435, size: 64, flags: DIFlagArtificial | DIFlagObjectPointer)
!435 = !DIDerivedType(tag: DW_TAG_const_type, baseType: !415)
!436 = !DISubprogram(name: "whichWord", linkageName: "_ZN4llvm5APInt9whichWordEj", scope: !415, file: !416, line: 108, type: !437, scopeLine: 108, flags: DIFlagPrototyped | DIFlagStaticMember, spFlags: DISPFlagOptimized)
!437 = !DISubroutineType(types: !438)
!438 = !{!6, !6}
!439 = !DISubprogram(name: "whichBit", linkageName: "_ZN4llvm5APInt8whichBitEj", scope: !415, file: !416, line: 116, type: !437, scopeLine: 116, flags: DIFlagPrototyped | DIFlagStaticMember, spFlags: DISPFlagOptimized)
!440 = !DISubprogram(name: "maskBit", linkageName: "_ZN4llvm5APInt7maskBitEj", scope: !415, file: !416, line: 126, type: !441, scopeLine: 126, flags: DIFlagPrototyped | DIFlagStaticMember, spFlags: DISPFlagOptimized)
!441 = !DISubroutineType(types: !442)
!442 = !{!423, !6}
!443 = !DISubprogram(name: "clearUnusedBits", linkageName: "_ZN4llvm5APInt15clearUnusedBitsEv", scope: !415, file: !416, line: 136, type: !444, scopeLine: 136, flags: DIFlagPrototyped, spFlags: DISPFlagOptimized)
!444 = !DISubroutineType(types: !445)
!445 = !{!414, !430}
!446 = !DISubprogram(name: "getWord", linkageName: "_ZNK4llvm5APInt7getWordEj", scope: !415, file: !416, line: 156, type: !447, scopeLine: 156, flags: DIFlagPrototyped, spFlags: DISPFlagOptimized)
!447 = !DISubroutineType(types: !448)
!448 = !{!423, !434, !6}
!449 = !DISubprogram(name: "fromString", linkageName: "_ZN4llvm5APInt10fromStringEjNS_9StringRefEh", scope: !415, file: !416, line: 172, type: !450, scopeLine: 172, flags: DIFlagPrototyped, spFlags: DISPFlagOptimized)
!450 = !DISubroutineType(types: !451)
!451 = !{null, !430, !6, !306, !452}
!452 = !DIDerivedType(tag: DW_TAG_typedef, name: "uint8_t", file: !86, line: 24, baseType: !453)
!453 = !DIDerivedType(tag: DW_TAG_typedef, name: "__uint8_t", file: !88, line: 37, baseType: !454)
!454 = !DIBasicType(name: "unsigned char", size: 8, encoding: DW_ATE_unsigned_char)
!455 = !DISubprogram(name: "divide", linkageName: "_ZN4llvm5APInt6divideES0_jRKS0_jPS0_S3_", scope: !415, file: !416, line: 180, type: !456, scopeLine: 180, flags: DIFlagPrototyped | DIFlagStaticMember, spFlags: DISPFlagOptimized)
!456 = !DISubroutineType(types: !457)
!457 = !{null, !435, !6, !458, !6, !459, !459}
!458 = !DIDerivedType(tag: DW_TAG_reference_type, baseType: !435, size: 64)
!459 = !DIDerivedType(tag: DW_TAG_pointer_type, baseType: !415, size: 64)
!460 = !DISubprogram(name: "initSlowCase", linkageName: "_ZN4llvm5APInt12initSlowCaseEjmb", scope: !415, file: !416, line: 184, type: !461, scopeLine: 184, flags: DIFlagPrototyped, spFlags: DISPFlagOptimized)
!461 = !DISubroutineType(types: !462)
!462 = !{null, !430, !6, !423, !27}
!463 = !DISubprogram(name: "initFromArray", linkageName: "_ZN4llvm5APInt13initFromArrayENS_8ArrayRefImEE", scope: !415, file: !416, line: 187, type: !464, scopeLine: 187, flags: DIFlagPrototyped, spFlags: DISPFlagOptimized)
!464 = !DISubroutineType(types: !465)
!465 = !{null, !430, !466}
!466 = distinct !DICompositeType(tag: DW_TAG_class_type, name: "ArrayRef<unsigned long>", scope: !14, file: !467, line: 31, flags: DIFlagFwdDecl, identifier: "_ZTSN4llvm8ArrayRefImEE")
!467 = !DIFile(filename: "/faster/fs/llvm34/include/llvm/ADT/ArrayRef.h", directory: "")
!468 = !DISubprogram(name: "initSlowCase", linkageName: "_ZN4llvm5APInt12initSlowCaseERKS0_", scope: !415, file: !416, line: 190, type: !469, scopeLine: 190, flags: DIFlagPrototyped, spFlags: DISPFlagOptimized)
!469 = !DISubroutineType(types: !470)
!470 = !{null, !430, !458}
!471 = !DISubprogram(name: "shlSlowCase", linkageName: "_ZNK4llvm5APInt11shlSlowCaseEj", scope: !415, file: !416, line: 193, type: !472, scopeLine: 193, flags: DIFlagPrototyped, spFlags: DISPFlagOptimized)
!472 = !DISubroutineType(types: !473)
!473 = !{!415, !434, !6}
!474 = !DISubprogram(name: "AndSlowCase", linkageName: "_ZNK4llvm5APInt11AndSlowCaseERKS0_", scope: !415, file: !416, line: 196, type: !475, scopeLine: 196, flags: DIFlagPrototyped, spFlags: DISPFlagOptimized)
!475 = !DISubroutineType(types: !476)
!476 = !{!415, !434, !458}
!477 = !DISubprogram(name: "OrSlowCase", linkageName: "_ZNK4llvm5APInt10OrSlowCaseERKS0_", scope: !415, file: !416, line: 199, type: !475, scopeLine: 199, flags: DIFlagPrototyped, spFlags: DISPFlagOptimized)
!478 = !DISubprogram(name: "XorSlowCase", linkageName: "_ZNK4llvm5APInt11XorSlowCaseERKS0_", scope: !415, file: !416, line: 202, type: !475, scopeLine: 202, flags: DIFlagPrototyped, spFlags: DISPFlagOptimized)
!479 = !DISubprogram(name: "AssignSlowCase", linkageName: "_ZN4llvm5APInt14AssignSlowCaseERKS0_", scope: !415, file: !416, line: 205, type: !480, scopeLine: 205, flags: DIFlagPrototyped, spFlags: DISPFlagOptimized)
!480 = !DISubroutineType(types: !481)
!481 = !{!414, !430, !458}
!482 = !DISubprogram(name: "EqualSlowCase", linkageName: "_ZNK4llvm5APInt13EqualSlowCaseERKS0_", scope: !415, file: !416, line: 208, type: !483, scopeLine: 208, flags: DIFlagPrototyped, spFlags: DISPFlagOptimized)
!483 = !DISubroutineType(types: !484)
!484 = !{!27, !434, !458}
!485 = !DISubprogram(name: "EqualSlowCase", linkageName: "_ZNK4llvm5APInt13EqualSlowCaseEm", scope: !415, file: !416, line: 211, type: !486, scopeLine: 211, flags: DIFlagPrototyped, spFlags: DISPFlagOptimized)
!486 = !DISubroutineType(types: !487)
!487 = !{!27, !434, !423}
!488 = !DISubprogram(name: "countLeadingZerosSlowCase", linkageName: "_ZNK4llvm5APInt25countLeadingZerosSlowCaseEv", scope: !415, file: !416, line: 214, type: !489, scopeLine: 214, flags: DIFlagPrototyped, spFlags: DISPFlagOptimized)
!489 = !DISubroutineType(types: !490)
!490 = !{!6, !434}
!491 = !DISubprogram(name: "countTrailingOnesSlowCase", linkageName: "_ZNK4llvm5APInt25countTrailingOnesSlowCaseEv", scope: !415, file: !416, line: 217, type: !489, scopeLine: 217, flags: DIFlagPrototyped, spFlags: DISPFlagOptimized)
!492 = !DISubprogram(name: "countPopulationSlowCase", linkageName: "_ZNK4llvm5APInt23countPopulationSlowCaseEv", scope: !415, file: !416, line: 220, type: !489, scopeLine: 220, flags: DIFlagPrototyped, spFlags: DISPFlagOptimized)
!493 = !DISubprogram(name: "APInt", scope: !415, file: !416, line: 236, type: !461, scopeLine: 236, flags: DIFlagPublic | DIFlagPrototyped, spFlags: DISPFlagOptimized)
!494 = !DISubprogram(name: "APInt", scope: !415, file: !416, line: 253, type: !495, scopeLine: 253, flags: DIFlagPublic | DIFlagPrototyped, spFlags: DISPFlagOptimized)
!495 = !DISubroutineType(types: !496)
!496 = !{null, !430, !6, !466}
!497 = !DISubprogram(name: "APInt", scope: !415, file: !416, line: 262, type: !498, scopeLine: 262, flags: DIFlagPublic | DIFlagPrototyped, spFlags: DISPFlagOptimized)
!498 = !DISubroutineType(types: !499)
!499 = !{null, !430, !6, !6, !500}
!500 = !DIDerivedType(tag: DW_TAG_pointer_type, baseType: !501, size: 64)
!501 = !DIDerivedType(tag: DW_TAG_const_type, baseType: !423)
!502 = !DISubprogram(name: "APInt", scope: !415, file: !416, line: 275, type: !450, scopeLine: 275, flags: DIFlagPublic | DIFlagPrototyped, spFlags: DISPFlagOptimized)
!503 = !DISubprogram(name: "APInt", scope: !415, file: !416, line: 279, type: !469, scopeLine: 279, flags: DIFlagPublic | DIFlagPrototyped, spFlags: DISPFlagOptimized)
!504 = !DISubprogram(name: "APInt", scope: !415, file: !416, line: 289, type: !505, scopeLine: 289, flags: DIFlagPublic | DIFlagPrototyped, spFlags: DISPFlagOptimized)
!505 = !DISubroutineType(types: !506)
!506 = !{null, !430, !507}
!507 = !DIDerivedType(tag: DW_TAG_rvalue_reference_type, baseType: !415, size: 64)
!508 = !DISubprogram(name: "~APInt", scope: !415, file: !416, line: 295, type: !509, scopeLine: 295, flags: DIFlagPublic | DIFlagPrototyped, spFlags: DISPFlagOptimized)
!509 = !DISubroutineType(types: !510)
!510 = !{null, !430}
!511 = !DISubprogram(name: "APInt", scope: !415, file: !416, line: 304, type: !509, scopeLine: 304, flags: DIFlagPublic | DIFlagExplicit | DIFlagPrototyped, spFlags: DISPFlagOptimized)
!512 = !DISubprogram(name: "needsCleanup", linkageName: "_ZNK4llvm5APInt12needsCleanupEv", scope: !415, file: !416, line: 307, type: !432, scopeLine: 307, flags: DIFlagPublic | DIFlagPrototyped, spFlags: DISPFlagOptimized)
!513 = !DISubprogram(name: "Profile", linkageName: "_ZNK4llvm5APInt7ProfileERNS_16FoldingSetNodeIDE", scope: !415, file: !416, line: 311, type: !514, scopeLine: 311, flags: DIFlagPublic | DIFlagPrototyped, spFlags: DISPFlagOptimized)
!514 = !DISubroutineType(types: !515)
!515 = !{null, !434, !516}
!516 = !DIDerivedType(tag: DW_TAG_reference_type, baseType: !517, size: 64)
!517 = distinct !DICompositeType(tag: DW_TAG_class_type, name: "FoldingSetNodeID", scope: !14, file: !518, line: 294, size: 1216, flags: DIFlagTypePassByReference | DIFlagNonTrivial, elements: !519, identifier: "_ZTSN4llvm16FoldingSetNodeIDE")
!518 = !DIFile(filename: "/faster/fs/llvm34/include/llvm/ADT/FoldingSet.h", directory: "")
!519 = !{!520, !771, !775, !804, !809, !812, !815, !818, !821, !825, !829, !832, !835, !840, !841, !845, !848, !851, !852, !853}
!520 = !DIDerivedType(tag: DW_TAG_member, name: "Bits", scope: !517, file: !518, line: 297, baseType: !521, size: 1216)
!521 = distinct !DICompositeType(tag: DW_TAG_class_type, name: "SmallVector<unsigned int, 32>", scope: !14, file: !522, line: 880, size: 1216, flags: DIFlagTypePassByReference | DIFlagNonTrivial, elements: !523, templateParams: !747, identifier: "_ZTSN4llvm11SmallVectorIjLj32EEE")
!522 = !DIFile(filename: "/faster/fs/llvm34/include/llvm/ADT/SmallVector.h", directory: "")
!523 = !{!524, !740, !749, !753, !756, !761, !764, !768}
!524 = !DIDerivedType(tag: DW_TAG_inheritance, scope: !521, baseType: !525, flags: DIFlagPublic, extraData: i32 0)
!525 = distinct !DICompositeType(tag: DW_TAG_class_type, name: "SmallVectorImpl<unsigned int>", scope: !14, file: !522, line: 371, size: 256, flags: DIFlagTypePassByReference | DIFlagNonTrivial, elements: !526, templateParams: !739, identifier: "_ZTSN4llvm15SmallVectorImplIjEE")
!526 = !{!527, !677, !683, !686, !689, !690, !691, !694, !695, !698, !702, !707, !708, !712, !715, !719, !722, !725, !728, !732, !736, !737, !738}
!527 = !DIDerivedType(tag: DW_TAG_inheritance, scope: !525, baseType: !528, flags: DIFlagPublic, extraData: i32 0)
!528 = distinct !DICompositeType(tag: DW_TAG_class_type, name: "SmallVectorTemplateBase<unsigned int, true>", scope: !14, file: !522, line: 296, size: 256, flags: DIFlagTypePassByValue | DIFlagNonTrivial, elements: !529, templateParams: !675, identifier: "_ZTSN4llvm23SmallVectorTemplateBaseIjLb1EEE")
!529 = !{!530, !661, !665, !668, !669, !672}
!530 = !DIDerivedType(tag: DW_TAG_inheritance, scope: !528, baseType: !531, flags: DIFlagPublic, extraData: i32 0)
!531 = distinct !DICompositeType(tag: DW_TAG_class_type, name: "SmallVectorTemplateCommon<unsigned int, void>", scope: !14, file: !522, line: 66, size: 256, flags: DIFlagTypePassByValue | DIFlagNonTrivial, elements: !532, templateParams: !658, identifier: "_ZTSN4llvm25SmallVectorTemplateCommonIjvEE")
!532 = !{!533, !556, !579, !583, !586, !591, !594, !598, !602, !608, !609, !610, !611, !612, !617, !622, !623, !624, !628, !629, !632, !636, !640, !645, !650, !653, !656, !657}
!533 = !DIDerivedType(tag: DW_TAG_inheritance, scope: !531, baseType: !534, flags: DIFlagPublic, extraData: i32 0)
!534 = distinct !DICompositeType(tag: DW_TAG_class_type, name: "SmallVectorBase", scope: !14, file: !522, line: 33, size: 192, flags: DIFlagTypePassByValue | DIFlagNonTrivial, elements: !535, identifier: "_ZTSN4llvm15SmallVectorBaseE")
!535 = !{!536, !538, !539, !540, !544, !547, !552, !553}
!536 = !DIDerivedType(tag: DW_TAG_member, name: "BeginX", scope: !534, file: !522, line: 35, baseType: !537, size: 64, flags: DIFlagProtected)
!537 = !DIDerivedType(tag: DW_TAG_pointer_type, baseType: null, size: 64)
!538 = !DIDerivedType(tag: DW_TAG_member, name: "EndX", scope: !534, file: !522, line: 35, baseType: !537, size: 64, offset: 64, flags: DIFlagProtected)
!539 = !DIDerivedType(tag: DW_TAG_member, name: "CapacityX", scope: !534, file: !522, line: 35, baseType: !537, size: 64, offset: 128, flags: DIFlagProtected)
!540 = !DISubprogram(name: "SmallVectorBase", scope: !534, file: !522, line: 38, type: !541, scopeLine: 38, flags: DIFlagProtected | DIFlagPrototyped, spFlags: DISPFlagOptimized)
!541 = !DISubroutineType(types: !542)
!542 = !{null, !543, !537, !311}
!543 = !DIDerivedType(tag: DW_TAG_pointer_type, baseType: !534, size: 64, flags: DIFlagArtificial | DIFlagObjectPointer)
!544 = !DISubprogram(name: "grow_pod", linkageName: "_ZN4llvm15SmallVectorBase8grow_podEPvmm", scope: !534, file: !522, line: 43, type: !545, scopeLine: 43, flags: DIFlagProtected | DIFlagPrototyped, spFlags: DISPFlagOptimized)
!545 = !DISubroutineType(types: !546)
!546 = !{null, !543, !537, !311, !311}
!547 = !DISubprogram(name: "size_in_bytes", linkageName: "_ZNK4llvm15SmallVectorBase13size_in_bytesEv", scope: !534, file: !522, line: 47, type: !548, scopeLine: 47, flags: DIFlagPublic | DIFlagPrototyped, spFlags: DISPFlagOptimized)
!548 = !DISubroutineType(types: !549)
!549 = !{!311, !550}
!550 = !DIDerivedType(tag: DW_TAG_pointer_type, baseType: !551, size: 64, flags: DIFlagArtificial | DIFlagObjectPointer)
!551 = !DIDerivedType(tag: DW_TAG_const_type, baseType: !534)
!552 = !DISubprogram(name: "capacity_in_bytes", linkageName: "_ZNK4llvm15SmallVectorBase17capacity_in_bytesEv", scope: !534, file: !522, line: 52, type: !548, scopeLine: 52, flags: DIFlagPublic | DIFlagPrototyped, spFlags: DISPFlagOptimized)
!553 = !DISubprogram(name: "empty", linkageName: "_ZNK4llvm15SmallVectorBase5emptyEv", scope: !534, file: !522, line: 56, type: !554, scopeLine: 56, flags: DIFlagPublic | DIFlagPrototyped, spFlags: DISPFlagOptimized)
!554 = !DISubroutineType(types: !555)
!555 = !{!27, !550}
!556 = !DIDerivedType(tag: DW_TAG_member, name: "FirstEl", scope: !531, file: !522, line: 74, baseType: !557, size: 32, offset: 192)
!557 = !DIDerivedType(tag: DW_TAG_typedef, name: "U", scope: !531, file: !522, line: 73, baseType: !558)
!558 = distinct !DICompositeType(tag: DW_TAG_structure_type, name: "AlignedCharArrayUnion<unsigned int, char, char, char, char, char, char>", scope: !14, file: !559, line: 199, size: 32, flags: DIFlagTypePassByValue, elements: !560, templateParams: !571, identifier: "_ZTSN4llvm21AlignedCharArrayUnionIjccccccEE")
!559 = !DIFile(filename: "/faster/fs/llvm34/include/llvm/Support/AlignOf.h", directory: "")
!560 = !{!561}
!561 = !DIDerivedType(tag: DW_TAG_inheritance, scope: !558, baseType: !562, extraData: i32 0)
!562 = distinct !DICompositeType(tag: DW_TAG_structure_type, name: "AlignedCharArray<4, 4>", scope: !14, file: !559, line: 75, size: 32, flags: DIFlagTypePassByValue, elements: !563, templateParams: !568, identifier: "_ZTSN4llvm16AlignedCharArrayILm4ELm4EEE")
!563 = !{!564}
!564 = !DIDerivedType(tag: DW_TAG_member, name: "buffer", scope: !562, file: !559, line: 76, baseType: !565, size: 32, align: 32)
!565 = !DICompositeType(tag: DW_TAG_array_type, baseType: !317, size: 32, elements: !566)
!566 = !{!567}
!567 = !DISubrange(count: 4)
!568 = !{!569, !570}
!569 = !DITemplateValueParameter(name: "Alignment", type: !313, value: i64 4)
!570 = !DITemplateValueParameter(name: "Size", type: !313, value: i64 4)
!571 = !{!572, !573, !574, !575, !576, !577, !578}
!572 = !DITemplateTypeParameter(name: "T1", type: !6)
!573 = !DITemplateTypeParameter(name: "T2", type: !317, defaulted: true)
!574 = !DITemplateTypeParameter(name: "T3", type: !317, defaulted: true)
!575 = !DITemplateTypeParameter(name: "T4", type: !317, defaulted: true)
!576 = !DITemplateTypeParameter(name: "T5", type: !317, defaulted: true)
!577 = !DITemplateTypeParameter(name: "T6", type: !317, defaulted: true)
!578 = !DITemplateTypeParameter(name: "T7", type: !317, defaulted: true)
!579 = !DISubprogram(name: "SmallVectorTemplateCommon", scope: !531, file: !522, line: 78, type: !580, scopeLine: 78, flags: DIFlagProtected | DIFlagPrototyped, spFlags: DISPFlagOptimized)
!580 = !DISubroutineType(types: !581)
!581 = !{null, !582, !311}
!582 = !DIDerivedType(tag: DW_TAG_pointer_type, baseType: !531, size: 64, flags: DIFlagArtificial | DIFlagObjectPointer)
!583 = !DISubprogram(name: "grow_pod", linkageName: "_ZN4llvm25SmallVectorTemplateCommonIjvE8grow_podEmm", scope: !531, file: !522, line: 80, type: !584, scopeLine: 80, flags: DIFlagProtected | DIFlagPrototyped, spFlags: DISPFlagOptimized)
!584 = !DISubroutineType(types: !585)
!585 = !{null, !582, !311, !311}
!586 = !DISubprogram(name: "isSmall", linkageName: "_ZNK4llvm25SmallVectorTemplateCommonIjvE7isSmallEv", scope: !531, file: !522, line: 86, type: !587, scopeLine: 86, flags: DIFlagProtected | DIFlagPrototyped, spFlags: DISPFlagOptimized)
!587 = !DISubroutineType(types: !588)
!588 = !{!27, !589}
!589 = !DIDerivedType(tag: DW_TAG_pointer_type, baseType: !590, size: 64, flags: DIFlagArtificial | DIFlagObjectPointer)
!590 = !DIDerivedType(tag: DW_TAG_const_type, baseType: !531)
!591 = !DISubprogram(name: "resetToSmall", linkageName: "_ZN4llvm25SmallVectorTemplateCommonIjvE12resetToSmallEv", scope: !531, file: !522, line: 91, type: !592, scopeLine: 91, flags: DIFlagProtected | DIFlagPrototyped, spFlags: DISPFlagOptimized)
!592 = !DISubroutineType(types: !593)
!593 = !{null, !582}
!594 = !DISubprogram(name: "setEnd", linkageName: "_ZN4llvm25SmallVectorTemplateCommonIjvE6setEndEPj", scope: !531, file: !522, line: 95, type: !595, scopeLine: 95, flags: DIFlagProtected | DIFlagPrototyped, spFlags: DISPFlagOptimized)
!595 = !DISubroutineType(types: !596)
!596 = !{null, !582, !597}
!597 = !DIDerivedType(tag: DW_TAG_pointer_type, baseType: !6, size: 64)
!598 = !DISubprogram(name: "begin", linkageName: "_ZN4llvm25SmallVectorTemplateCommonIjvE5beginEv", scope: !531, file: !522, line: 112, type: !599, scopeLine: 112, flags: DIFlagPublic | DIFlagPrototyped, spFlags: DISPFlagOptimized)
!599 = !DISubroutineType(types: !600)
!600 = !{!601, !582}
!601 = !DIDerivedType(tag: DW_TAG_typedef, name: "iterator", scope: !531, file: !522, line: 100, baseType: !597)
!602 = !DISubprogram(name: "begin", linkageName: "_ZNK4llvm25SmallVectorTemplateCommonIjvE5beginEv", scope: !531, file: !522, line: 113, type: !603, scopeLine: 113, flags: DIFlagPublic | DIFlagPrototyped, spFlags: DISPFlagOptimized)
!603 = !DISubroutineType(types: !604)
!604 = !{!605, !589}
!605 = !DIDerivedType(tag: DW_TAG_typedef, name: "const_iterator", scope: !531, file: !522, line: 101, baseType: !606)
!606 = !DIDerivedType(tag: DW_TAG_pointer_type, baseType: !607, size: 64)
!607 = !DIDerivedType(tag: DW_TAG_const_type, baseType: !6)
!608 = !DISubprogram(name: "end", linkageName: "_ZN4llvm25SmallVectorTemplateCommonIjvE3endEv", scope: !531, file: !522, line: 114, type: !599, scopeLine: 114, flags: DIFlagPublic | DIFlagPrototyped, spFlags: DISPFlagOptimized)
!609 = !DISubprogram(name: "end", linkageName: "_ZNK4llvm25SmallVectorTemplateCommonIjvE3endEv", scope: !531, file: !522, line: 115, type: !603, scopeLine: 115, flags: DIFlagPublic | DIFlagPrototyped, spFlags: DISPFlagOptimized)
!610 = !DISubprogram(name: "capacity_ptr", linkageName: "_ZN4llvm25SmallVectorTemplateCommonIjvE12capacity_ptrEv", scope: !531, file: !522, line: 117, type: !599, scopeLine: 117, flags: DIFlagProtected | DIFlagPrototyped, spFlags: DISPFlagOptimized)
!611 = !DISubprogram(name: "capacity_ptr", linkageName: "_ZNK4llvm25SmallVectorTemplateCommonIjvE12capacity_ptrEv", scope: !531, file: !522, line: 118, type: !603, scopeLine: 118, flags: DIFlagProtected | DIFlagPrototyped, spFlags: DISPFlagOptimized)
!612 = !DISubprogram(name: "rbegin", linkageName: "_ZN4llvm25SmallVectorTemplateCommonIjvE6rbeginEv", scope: !531, file: !522, line: 122, type: !613, scopeLine: 122, flags: DIFlagPublic | DIFlagPrototyped, spFlags: DISPFlagOptimized)
!613 = !DISubroutineType(types: !614)
!614 = !{!615, !582}
!615 = !DIDerivedType(tag: DW_TAG_typedef, name: "reverse_iterator", scope: !531, file: !522, line: 104, baseType: !616)
!616 = distinct !DICompositeType(tag: DW_TAG_class_type, name: "reverse_iterator<unsigned int *>", scope: !215, file: !214, line: 101, flags: DIFlagFwdDecl, identifier: "_ZTSSt16reverse_iteratorIPjE")
!617 = !DISubprogram(name: "rbegin", linkageName: "_ZNK4llvm25SmallVectorTemplateCommonIjvE6rbeginEv", scope: !531, file: !522, line: 123, type: !618, scopeLine: 123, flags: DIFlagPublic | DIFlagPrototyped, spFlags: DISPFlagOptimized)
!618 = !DISubroutineType(types: !619)
!619 = !{!620, !589}
!620 = !DIDerivedType(tag: DW_TAG_typedef, name: "const_reverse_iterator", scope: !531, file: !522, line: 103, baseType: !621)
!621 = distinct !DICompositeType(tag: DW_TAG_class_type, name: "reverse_iterator<const unsigned int *>", scope: !215, file: !214, line: 101, flags: DIFlagFwdDecl, identifier: "_ZTSSt16reverse_iteratorIPKjE")
!622 = !DISubprogram(name: "rend", linkageName: "_ZN4llvm25SmallVectorTemplateCommonIjvE4rendEv", scope: !531, file: !522, line: 124, type: !613, scopeLine: 124, flags: DIFlagPublic | DIFlagPrototyped, spFlags: DISPFlagOptimized)
!623 = !DISubprogram(name: "rend", linkageName: "_ZNK4llvm25SmallVectorTemplateCommonIjvE4rendEv", scope: !531, file: !522, line: 125, type: !618, scopeLine: 125, flags: DIFlagPublic | DIFlagPrototyped, spFlags: DISPFlagOptimized)
!624 = !DISubprogram(name: "size", linkageName: "_ZNK4llvm25SmallVectorTemplateCommonIjvE4sizeEv", scope: !531, file: !522, line: 127, type: !625, scopeLine: 127, flags: DIFlagPublic | DIFlagPrototyped, spFlags: DISPFlagOptimized)
!625 = !DISubroutineType(types: !626)
!626 = !{!627, !589}
!627 = !DIDerivedType(tag: DW_TAG_typedef, name: "size_type", file: !522, line: 97, baseType: !311)
!628 = !DISubprogram(name: "max_size", linkageName: "_ZNK4llvm25SmallVectorTemplateCommonIjvE8max_sizeEv", scope: !531, file: !522, line: 128, type: !625, scopeLine: 128, flags: DIFlagPublic | DIFlagPrototyped, spFlags: DISPFlagOptimized)
!629 = !DISubprogram(name: "capacity", linkageName: "_ZNK4llvm25SmallVectorTemplateCommonIjvE8capacityEv", scope: !531, file: !522, line: 132, type: !630, scopeLine: 132, flags: DIFlagPublic | DIFlagPrototyped, spFlags: DISPFlagOptimized)
!630 = !DISubroutineType(types: !631)
!631 = !{!311, !589}
!632 = !DISubprogram(name: "data", linkageName: "_ZN4llvm25SmallVectorTemplateCommonIjvE4dataEv", scope: !531, file: !522, line: 135, type: !633, scopeLine: 135, flags: DIFlagPublic | DIFlagPrototyped, spFlags: DISPFlagOptimized)
!633 = !DISubroutineType(types: !634)
!634 = !{!635, !582}
!635 = !DIDerivedType(tag: DW_TAG_typedef, name: "pointer", scope: !531, file: !522, line: 108, baseType: !597)
!636 = !DISubprogram(name: "data", linkageName: "_ZNK4llvm25SmallVectorTemplateCommonIjvE4dataEv", scope: !531, file: !522, line: 137, type: !637, scopeLine: 137, flags: DIFlagPublic | DIFlagPrototyped, spFlags: DISPFlagOptimized)
!637 = !DISubroutineType(types: !638)
!638 = !{!639, !589}
!639 = !DIDerivedType(tag: DW_TAG_typedef, name: "const_pointer", scope: !531, file: !522, line: 109, baseType: !606)
!640 = !DISubprogram(name: "operator[]", linkageName: "_ZN4llvm25SmallVectorTemplateCommonIjvEixEj", scope: !531, file: !522, line: 139, type: !641, scopeLine: 139, flags: DIFlagPublic | DIFlagPrototyped, spFlags: DISPFlagOptimized)
!641 = !DISubroutineType(types: !642)
!642 = !{!643, !582, !6}
!643 = !DIDerivedType(tag: DW_TAG_typedef, name: "reference", scope: !531, file: !522, line: 106, baseType: !644)
!644 = !DIDerivedType(tag: DW_TAG_reference_type, baseType: !6, size: 64)
!645 = !DISubprogram(name: "operator[]", linkageName: "_ZNK4llvm25SmallVectorTemplateCommonIjvEixEj", scope: !531, file: !522, line: 143, type: !646, scopeLine: 143, flags: DIFlagPublic | DIFlagPrototyped, spFlags: DISPFlagOptimized)
!646 = !DISubroutineType(types: !647)
!647 = !{!648, !589, !6}
!648 = !DIDerivedType(tag: DW_TAG_typedef, name: "const_reference", scope: !531, file: !522, line: 107, baseType: !649)
!649 = !DIDerivedType(tag: DW_TAG_reference_type, baseType: !607, size: 64)
!650 = !DISubprogram(name: "front", linkageName: "_ZN4llvm25SmallVectorTemplateCommonIjvE5frontEv", scope: !531, file: !522, line: 148, type: !651, scopeLine: 148, flags: DIFlagPublic | DIFlagPrototyped, spFlags: DISPFlagOptimized)
!651 = !DISubroutineType(types: !652)
!652 = !{!643, !582}
!653 = !DISubprogram(name: "front", linkageName: "_ZNK4llvm25SmallVectorTemplateCommonIjvE5frontEv", scope: !531, file: !522, line: 152, type: !654, scopeLine: 152, flags: DIFlagPublic | DIFlagPrototyped, spFlags: DISPFlagOptimized)
!654 = !DISubroutineType(types: !655)
!655 = !{!648, !589}
!656 = !DISubprogram(name: "back", linkageName: "_ZN4llvm25SmallVectorTemplateCommonIjvE4backEv", scope: !531, file: !522, line: 157, type: !651, scopeLine: 157, flags: DIFlagPublic | DIFlagPrototyped, spFlags: DISPFlagOptimized)
!657 = !DISubprogram(name: "back", linkageName: "_ZNK4llvm25SmallVectorTemplateCommonIjvE4backEv", scope: !531, file: !522, line: 161, type: !654, scopeLine: 161, flags: DIFlagPublic | DIFlagPrototyped, spFlags: DISPFlagOptimized)
!658 = !{!659, !660}
!659 = !DITemplateTypeParameter(name: "T", type: !6)
!660 = !DITemplateTypeParameter(type: null, defaulted: true)
!661 = !DISubprogram(name: "SmallVectorTemplateBase", scope: !528, file: !522, line: 298, type: !662, scopeLine: 298, flags: DIFlagProtected | DIFlagPrototyped, spFlags: DISPFlagOptimized)
!662 = !DISubroutineType(types: !663)
!663 = !{null, !664, !311}
!664 = !DIDerivedType(tag: DW_TAG_pointer_type, baseType: !528, size: 64, flags: DIFlagArtificial | DIFlagObjectPointer)
!665 = !DISubprogram(name: "destroy_range", linkageName: "_ZN4llvm23SmallVectorTemplateBaseIjLb1EE13destroy_rangeEPjS2_", scope: !528, file: !522, line: 301, type: !666, scopeLine: 301, flags: DIFlagProtected | DIFlagPrototyped | DIFlagStaticMember, spFlags: DISPFlagOptimized)
!666 = !DISubroutineType(types: !667)
!667 = !{null, !597, !597}
!668 = !DISubprogram(name: "grow", linkageName: "_ZN4llvm23SmallVectorTemplateBaseIjLb1EE4growEm", scope: !528, file: !522, line: 346, type: !662, scopeLine: 346, flags: DIFlagProtected | DIFlagPrototyped, spFlags: DISPFlagOptimized)
!669 = !DISubprogram(name: "push_back", linkageName: "_ZN4llvm23SmallVectorTemplateBaseIjLb1EE9push_backERKj", scope: !528, file: !522, line: 350, type: !670, scopeLine: 350, flags: DIFlagPublic | DIFlagPrototyped, spFlags: DISPFlagOptimized)
!670 = !DISubroutineType(types: !671)
!671 = !{null, !664, !649}
!672 = !DISubprogram(name: "pop_back", linkageName: "_ZN4llvm23SmallVectorTemplateBaseIjLb1EE8pop_backEv", scope: !528, file: !522, line: 361, type: !673, scopeLine: 361, flags: DIFlagPublic | DIFlagPrototyped, spFlags: DISPFlagOptimized)
!673 = !DISubroutineType(types: !674)
!674 = !{null, !664}
!675 = !{!659, !676}
!676 = !DITemplateValueParameter(name: "isPodLike", type: !27, value: i8 1)
!677 = !DISubprogram(name: "SmallVectorImpl", scope: !525, file: !522, line: 374, type: !678, scopeLine: 374, flags: DIFlagPrototyped, spFlags: DISPFlagOptimized | DISPFlagDeleted)
!678 = !DISubroutineType(types: !679)
!679 = !{null, !680, !681}
!680 = !DIDerivedType(tag: DW_TAG_pointer_type, baseType: !525, size: 64, flags: DIFlagArtificial | DIFlagObjectPointer)
!681 = !DIDerivedType(tag: DW_TAG_reference_type, baseType: !682, size: 64)
!682 = !DIDerivedType(tag: DW_TAG_const_type, baseType: !525)
!683 = !DISubprogram(name: "SmallVectorImpl", scope: !525, file: !522, line: 381, type: !684, scopeLine: 381, flags: DIFlagProtected | DIFlagExplicit | DIFlagPrototyped, spFlags: DISPFlagOptimized)
!684 = !DISubroutineType(types: !685)
!685 = !{null, !680, !6}
!686 = !DISubprogram(name: "~SmallVectorImpl", scope: !525, file: !522, line: 386, type: !687, scopeLine: 386, flags: DIFlagPublic | DIFlagPrototyped, spFlags: DISPFlagOptimized)
!687 = !DISubroutineType(types: !688)
!688 = !{null, !680}
!689 = !DISubprogram(name: "clear", linkageName: "_ZN4llvm15SmallVectorImplIjE5clearEv", scope: !525, file: !522, line: 396, type: !687, scopeLine: 396, flags: DIFlagPublic | DIFlagPrototyped, spFlags: DISPFlagOptimized)
!690 = !DISubprogram(name: "resize", linkageName: "_ZN4llvm15SmallVectorImplIjE6resizeEj", scope: !525, file: !522, line: 401, type: !684, scopeLine: 401, flags: DIFlagPublic | DIFlagPrototyped, spFlags: DISPFlagOptimized)
!691 = !DISubprogram(name: "resize", linkageName: "_ZN4llvm15SmallVectorImplIjE6resizeEjRKj", scope: !525, file: !522, line: 413, type: !692, scopeLine: 413, flags: DIFlagPublic | DIFlagPrototyped, spFlags: DISPFlagOptimized)
!692 = !DISubroutineType(types: !693)
!693 = !{null, !680, !6, !649}
!694 = !DISubprogram(name: "reserve", linkageName: "_ZN4llvm15SmallVectorImplIjE7reserveEj", scope: !525, file: !522, line: 425, type: !684, scopeLine: 425, flags: DIFlagPublic | DIFlagPrototyped, spFlags: DISPFlagOptimized)
!695 = !DISubprogram(name: "pop_back_val", linkageName: "_ZN4llvm15SmallVectorImplIjE12pop_back_valEv", scope: !525, file: !522, line: 430, type: !696, scopeLine: 430, flags: DIFlagPublic | DIFlagPrototyped, spFlags: DISPFlagOptimized)
!696 = !DISubroutineType(types: !697)
!697 = !{!6, !680}
!698 = !DISubprogram(name: "swap", linkageName: "_ZN4llvm15SmallVectorImplIjE4swapERS1_", scope: !525, file: !522, line: 440, type: !699, scopeLine: 440, flags: DIFlagPublic | DIFlagPrototyped, spFlags: DISPFlagOptimized)
!699 = !DISubroutineType(types: !700)
!700 = !{null, !680, !701}
!701 = !DIDerivedType(tag: DW_TAG_reference_type, baseType: !525, size: 64)
!702 = !DISubprogram(name: "append", linkageName: "_ZN4llvm15SmallVectorImplIjE6appendEmRKj", scope: !525, file: !522, line: 460, type: !703, scopeLine: 460, flags: DIFlagPublic | DIFlagPrototyped, spFlags: DISPFlagOptimized)
!703 = !DISubroutineType(types: !704)
!704 = !{null, !680, !705, !649}
!705 = !DIDerivedType(tag: DW_TAG_typedef, name: "size_type", scope: !525, file: !522, line: 377, baseType: !706)
!706 = !DIDerivedType(tag: DW_TAG_typedef, name: "size_type", scope: !531, file: !522, line: 97, baseType: !311)
!707 = !DISubprogram(name: "assign", linkageName: "_ZN4llvm15SmallVectorImplIjE6assignEjRKj", scope: !525, file: !522, line: 470, type: !692, scopeLine: 470, flags: DIFlagPublic | DIFlagPrototyped, spFlags: DISPFlagOptimized)
!708 = !DISubprogram(name: "erase", linkageName: "_ZN4llvm15SmallVectorImplIjE5eraseEPj", scope: !525, file: !522, line: 478, type: !709, scopeLine: 478, flags: DIFlagPublic | DIFlagPrototyped, spFlags: DISPFlagOptimized)
!709 = !DISubroutineType(types: !710)
!710 = !{!711, !680, !711}
!711 = !DIDerivedType(tag: DW_TAG_typedef, name: "iterator", scope: !525, file: !522, line: 376, baseType: !601)
!712 = !DISubprogram(name: "erase", linkageName: "_ZN4llvm15SmallVectorImplIjE5eraseEPjS2_", scope: !525, file: !522, line: 490, type: !713, scopeLine: 490, flags: DIFlagPublic | DIFlagPrototyped, spFlags: DISPFlagOptimized)
!713 = !DISubroutineType(types: !714)
!714 = !{!711, !680, !711, !711}
!715 = !DISubprogram(name: "insert", linkageName: "_ZN4llvm15SmallVectorImplIjE6insertEPjOj", scope: !525, file: !522, line: 505, type: !716, scopeLine: 505, flags: DIFlagPublic | DIFlagPrototyped, spFlags: DISPFlagOptimized)
!716 = !DISubroutineType(types: !717)
!717 = !{!711, !680, !711, !718}
!718 = !DIDerivedType(tag: DW_TAG_rvalue_reference_type, baseType: !6, size: 64)
!719 = !DISubprogram(name: "insert", linkageName: "_ZN4llvm15SmallVectorImplIjE6insertEPjRKj", scope: !525, file: !522, line: 537, type: !720, scopeLine: 537, flags: DIFlagPublic | DIFlagPrototyped, spFlags: DISPFlagOptimized)
!720 = !DISubroutineType(types: !721)
!721 = !{!711, !680, !711, !649}
!722 = !DISubprogram(name: "insert", linkageName: "_ZN4llvm15SmallVectorImplIjE6insertEPjmRKj", scope: !525, file: !522, line: 568, type: !723, scopeLine: 568, flags: DIFlagPublic | DIFlagPrototyped, spFlags: DISPFlagOptimized)
!723 = !DISubroutineType(types: !724)
!724 = !{!711, !680, !711, !705, !649}
!725 = !DISubprogram(name: "operator=", linkageName: "_ZN4llvm15SmallVectorImplIjEaSERKS1_", scope: !525, file: !522, line: 674, type: !726, scopeLine: 674, flags: DIFlagPublic | DIFlagPrototyped, spFlags: DISPFlagOptimized)
!726 = !DISubroutineType(types: !727)
!727 = !{!701, !680, !681}
!728 = !DISubprogram(name: "operator=", linkageName: "_ZN4llvm15SmallVectorImplIjEaSEOS1_", scope: !525, file: !522, line: 677, type: !729, scopeLine: 677, flags: DIFlagPublic | DIFlagPrototyped, spFlags: DISPFlagOptimized)
!729 = !DISubroutineType(types: !730)
!730 = !{!701, !680, !731}
!731 = !DIDerivedType(tag: DW_TAG_rvalue_reference_type, baseType: !525, size: 64)
!732 = !DISubprogram(name: "operator==", linkageName: "_ZNK4llvm15SmallVectorImplIjEeqERKS1_", scope: !525, file: !522, line: 680, type: !733, scopeLine: 680, flags: DIFlagPublic | DIFlagPrototyped, spFlags: DISPFlagOptimized)
!733 = !DISubroutineType(types: !734)
!734 = !{!27, !735, !681}
!735 = !DIDerivedType(tag: DW_TAG_pointer_type, baseType: !682, size: 64, flags: DIFlagArtificial | DIFlagObjectPointer)
!736 = !DISubprogram(name: "operator!=", linkageName: "_ZNK4llvm15SmallVectorImplIjEneERKS1_", scope: !525, file: !522, line: 684, type: !733, scopeLine: 684, flags: DIFlagPublic | DIFlagPrototyped, spFlags: DISPFlagOptimized)
!737 = !DISubprogram(name: "operator<", linkageName: "_ZNK4llvm15SmallVectorImplIjEltERKS1_", scope: !525, file: !522, line: 688, type: !733, scopeLine: 688, flags: DIFlagPublic | DIFlagPrototyped, spFlags: DISPFlagOptimized)
!738 = !DISubprogram(name: "set_size", linkageName: "_ZN4llvm15SmallVectorImplIjE8set_sizeEj", scope: !525, file: !522, line: 702, type: !684, scopeLine: 702, flags: DIFlagPublic | DIFlagPrototyped, spFlags: DISPFlagOptimized)
!739 = !{!659}
!740 = !DIDerivedType(tag: DW_TAG_member, name: "Storage", scope: !521, file: !522, line: 882, baseType: !741, size: 992, offset: 224)
!741 = distinct !DICompositeType(tag: DW_TAG_structure_type, name: "SmallVectorStorage<unsigned int, 32>", scope: !14, file: !522, line: 865, size: 992, flags: DIFlagTypePassByValue, elements: !742, templateParams: !747, identifier: "_ZTSN4llvm18SmallVectorStorageIjLj32EEE")
!742 = !{!743}
!743 = !DIDerivedType(tag: DW_TAG_member, name: "InlineElts", scope: !741, file: !522, line: 866, baseType: !744, size: 992)
!744 = !DICompositeType(tag: DW_TAG_array_type, baseType: !557, size: 992, elements: !745)
!745 = !{!746}
!746 = !DISubrange(count: 31)
!747 = !{!659, !748}
!748 = !DITemplateValueParameter(name: "N", type: !6, value: i32 32)
!749 = !DISubprogram(name: "SmallVector", scope: !521, file: !522, line: 884, type: !750, scopeLine: 884, flags: DIFlagPublic | DIFlagPrototyped, spFlags: DISPFlagOptimized)
!750 = !DISubroutineType(types: !751)
!751 = !{null, !752}
!752 = !DIDerivedType(tag: DW_TAG_pointer_type, baseType: !521, size: 64, flags: DIFlagArtificial | DIFlagObjectPointer)
!753 = !DISubprogram(name: "SmallVector", scope: !521, file: !522, line: 887, type: !754, scopeLine: 887, flags: DIFlagPublic | DIFlagExplicit | DIFlagPrototyped, spFlags: DISPFlagOptimized)
!754 = !DISubroutineType(types: !755)
!755 = !{null, !752, !6, !649}
!756 = !DISubprogram(name: "SmallVector", scope: !521, file: !522, line: 897, type: !757, scopeLine: 897, flags: DIFlagPublic | DIFlagPrototyped, spFlags: DISPFlagOptimized)
!757 = !DISubroutineType(types: !758)
!758 = !{null, !752, !759}
!759 = !DIDerivedType(tag: DW_TAG_reference_type, baseType: !760, size: 64)
!760 = !DIDerivedType(tag: DW_TAG_const_type, baseType: !521)
!761 = !DISubprogram(name: "operator=", linkageName: "_ZN4llvm11SmallVectorIjLj32EEaSERKS1_", scope: !521, file: !522, line: 902, type: !762, scopeLine: 902, flags: DIFlagPublic | DIFlagPrototyped, spFlags: DISPFlagOptimized)
!762 = !DISubroutineType(types: !763)
!763 = !{!759, !752, !759}
!764 = !DISubprogram(name: "SmallVector", scope: !521, file: !522, line: 908, type: !765, scopeLine: 908, flags: DIFlagPublic | DIFlagPrototyped, spFlags: DISPFlagOptimized)
!765 = !DISubroutineType(types: !766)
!766 = !{null, !752, !767}
!767 = !DIDerivedType(tag: DW_TAG_rvalue_reference_type, baseType: !521, size: 64)
!768 = !DISubprogram(name: "operator=", linkageName: "_ZN4llvm11SmallVectorIjLj32EEaSEOS1_", scope: !521, file: !522, line: 913, type: !769, scopeLine: 913, flags: DIFlagPublic | DIFlagPrototyped, spFlags: DISPFlagOptimized)
!769 = !DISubroutineType(types: !770)
!770 = !{!759, !752, !767}
!771 = !DISubprogram(name: "FoldingSetNodeID", scope: !517, file: !518, line: 300, type: !772, scopeLine: 300, flags: DIFlagPublic | DIFlagPrototyped, spFlags: DISPFlagOptimized)
!772 = !DISubroutineType(types: !773)
!773 = !{null, !774}
!774 = !DIDerivedType(tag: DW_TAG_pointer_type, baseType: !517, size: 64, flags: DIFlagArtificial | DIFlagObjectPointer)
!775 = !DISubprogram(name: "FoldingSetNodeID", scope: !517, file: !518, line: 302, type: !776, scopeLine: 302, flags: DIFlagPublic | DIFlagPrototyped, spFlags: DISPFlagOptimized)
!776 = !DISubroutineType(types: !777)
!777 = !{null, !774, !778}
!778 = distinct !DICompositeType(tag: DW_TAG_class_type, name: "FoldingSetNodeIDRef", scope: !14, file: !518, line: 268, size: 128, flags: DIFlagTypePassByValue | DIFlagNonTrivial, elements: !779, identifier: "_ZTSN4llvm19FoldingSetNodeIDRefE")
!779 = !{!780, !781, !782, !786, !789, !794, !797, !798, !801}
!780 = !DIDerivedType(tag: DW_TAG_member, name: "Data", scope: !778, file: !518, line: 269, baseType: !606, size: 64)
!781 = !DIDerivedType(tag: DW_TAG_member, name: "Size", scope: !778, file: !518, line: 270, baseType: !311, size: 64, offset: 64)
!782 = !DISubprogram(name: "FoldingSetNodeIDRef", scope: !778, file: !518, line: 272, type: !783, scopeLine: 272, flags: DIFlagPublic | DIFlagPrototyped, spFlags: DISPFlagOptimized)
!783 = !DISubroutineType(types: !784)
!784 = !{null, !785}
!785 = !DIDerivedType(tag: DW_TAG_pointer_type, baseType: !778, size: 64, flags: DIFlagArtificial | DIFlagObjectPointer)
!786 = !DISubprogram(name: "FoldingSetNodeIDRef", scope: !778, file: !518, line: 273, type: !787, scopeLine: 273, flags: DIFlagPublic | DIFlagPrototyped, spFlags: DISPFlagOptimized)
!787 = !DISubroutineType(types: !788)
!788 = !{null, !785, !606, !311}
!789 = !DISubprogram(name: "ComputeHash", linkageName: "_ZNK4llvm19FoldingSetNodeIDRef11ComputeHashEv", scope: !778, file: !518, line: 277, type: !790, scopeLine: 277, flags: DIFlagPublic | DIFlagPrototyped, spFlags: DISPFlagOptimized)
!790 = !DISubroutineType(types: !791)
!791 = !{!6, !792}
!792 = !DIDerivedType(tag: DW_TAG_pointer_type, baseType: !793, size: 64, flags: DIFlagArtificial | DIFlagObjectPointer)
!793 = !DIDerivedType(tag: DW_TAG_const_type, baseType: !778)
!794 = !DISubprogram(name: "operator==", linkageName: "_ZNK4llvm19FoldingSetNodeIDRefeqES0_", scope: !778, file: !518, line: 279, type: !795, scopeLine: 279, flags: DIFlagPublic | DIFlagPrototyped, spFlags: DISPFlagOptimized)
!795 = !DISubroutineType(types: !796)
!796 = !{!27, !792, !778}
!797 = !DISubprogram(name: "operator<", linkageName: "_ZNK4llvm19FoldingSetNodeIDRefltES0_", scope: !778, file: !518, line: 283, type: !795, scopeLine: 283, flags: DIFlagPublic | DIFlagPrototyped, spFlags: DISPFlagOptimized)
!798 = !DISubprogram(name: "getData", linkageName: "_ZNK4llvm19FoldingSetNodeIDRef7getDataEv", scope: !778, file: !518, line: 285, type: !799, scopeLine: 285, flags: DIFlagPublic | DIFlagPrototyped, spFlags: DISPFlagOptimized)
!799 = !DISubroutineType(types: !800)
!800 = !{!606, !792}
!801 = !DISubprogram(name: "getSize", linkageName: "_ZNK4llvm19FoldingSetNodeIDRef7getSizeEv", scope: !778, file: !518, line: 286, type: !802, scopeLine: 286, flags: DIFlagPublic | DIFlagPrototyped, spFlags: DISPFlagOptimized)
!802 = !DISubroutineType(types: !803)
!803 = !{!311, !792}
!804 = !DISubprogram(name: "AddPointer", linkageName: "_ZN4llvm16FoldingSetNodeID10AddPointerEPKv", scope: !517, file: !518, line: 307, type: !805, scopeLine: 307, flags: DIFlagPublic | DIFlagPrototyped, spFlags: DISPFlagOptimized)
!805 = !DISubroutineType(types: !806)
!806 = !{null, !774, !807}
!807 = !DIDerivedType(tag: DW_TAG_pointer_type, baseType: !808, size: 64)
!808 = !DIDerivedType(tag: DW_TAG_const_type, baseType: null)
!809 = !DISubprogram(name: "AddInteger", linkageName: "_ZN4llvm16FoldingSetNodeID10AddIntegerEi", scope: !517, file: !518, line: 308, type: !810, scopeLine: 308, flags: DIFlagPublic | DIFlagPrototyped, spFlags: DISPFlagOptimized)
!810 = !DISubroutineType(types: !811)
!811 = !{null, !774, !196}
!812 = !DISubprogram(name: "AddInteger", linkageName: "_ZN4llvm16FoldingSetNodeID10AddIntegerEj", scope: !517, file: !518, line: 309, type: !813, scopeLine: 309, flags: DIFlagPublic | DIFlagPrototyped, spFlags: DISPFlagOptimized)
!813 = !DISubroutineType(types: !814)
!814 = !{null, !774, !6}
!815 = !DISubprogram(name: "AddInteger", linkageName: "_ZN4llvm16FoldingSetNodeID10AddIntegerEl", scope: !517, file: !518, line: 310, type: !816, scopeLine: 310, flags: DIFlagPublic | DIFlagPrototyped, spFlags: DISPFlagOptimized)
!816 = !DISubroutineType(types: !817)
!817 = !{null, !774, !235}
!818 = !DISubprogram(name: "AddInteger", linkageName: "_ZN4llvm16FoldingSetNodeID10AddIntegerEm", scope: !517, file: !518, line: 311, type: !819, scopeLine: 311, flags: DIFlagPublic | DIFlagPrototyped, spFlags: DISPFlagOptimized)
!819 = !DISubroutineType(types: !820)
!820 = !{null, !774, !313}
!821 = !DISubprogram(name: "AddInteger", linkageName: "_ZN4llvm16FoldingSetNodeID10AddIntegerEx", scope: !517, file: !518, line: 312, type: !822, scopeLine: 312, flags: DIFlagPublic | DIFlagPrototyped, spFlags: DISPFlagOptimized)
!822 = !DISubroutineType(types: !823)
!823 = !{null, !774, !824}
!824 = !DIBasicType(name: "long long int", size: 64, encoding: DW_ATE_signed)
!825 = !DISubprogram(name: "AddInteger", linkageName: "_ZN4llvm16FoldingSetNodeID10AddIntegerEy", scope: !517, file: !518, line: 313, type: !826, scopeLine: 313, flags: DIFlagPublic | DIFlagPrototyped, spFlags: DISPFlagOptimized)
!826 = !DISubroutineType(types: !827)
!827 = !{null, !774, !828}
!828 = !DIBasicType(name: "long long unsigned int", size: 64, encoding: DW_ATE_unsigned)
!829 = !DISubprogram(name: "AddBoolean", linkageName: "_ZN4llvm16FoldingSetNodeID10AddBooleanEb", scope: !517, file: !518, line: 314, type: !830, scopeLine: 314, flags: DIFlagPublic | DIFlagPrototyped, spFlags: DISPFlagOptimized)
!830 = !DISubroutineType(types: !831)
!831 = !{null, !774, !27}
!832 = !DISubprogram(name: "AddString", linkageName: "_ZN4llvm16FoldingSetNodeID9AddStringENS_9StringRefE", scope: !517, file: !518, line: 315, type: !833, scopeLine: 315, flags: DIFlagPublic | DIFlagPrototyped, spFlags: DISPFlagOptimized)
!833 = !DISubroutineType(types: !834)
!834 = !{null, !774, !306}
!835 = !DISubprogram(name: "AddNodeID", linkageName: "_ZN4llvm16FoldingSetNodeID9AddNodeIDERKS0_", scope: !517, file: !518, line: 316, type: !836, scopeLine: 316, flags: DIFlagPublic | DIFlagPrototyped, spFlags: DISPFlagOptimized)
!836 = !DISubroutineType(types: !837)
!837 = !{null, !774, !838}
!838 = !DIDerivedType(tag: DW_TAG_reference_type, baseType: !839, size: 64)
!839 = !DIDerivedType(tag: DW_TAG_const_type, baseType: !517)
!840 = !DISubprogram(name: "clear", linkageName: "_ZN4llvm16FoldingSetNodeID5clearEv", scope: !517, file: !518, line: 323, type: !772, scopeLine: 323, flags: DIFlagPublic | DIFlagPrototyped, spFlags: DISPFlagOptimized)
!841 = !DISubprogram(name: "ComputeHash", linkageName: "_ZNK4llvm16FoldingSetNodeID11ComputeHashEv", scope: !517, file: !518, line: 327, type: !842, scopeLine: 327, flags: DIFlagPublic | DIFlagPrototyped, spFlags: DISPFlagOptimized)
!842 = !DISubroutineType(types: !843)
!843 = !{!6, !844}
!844 = !DIDerivedType(tag: DW_TAG_pointer_type, baseType: !839, size: 64, flags: DIFlagArtificial | DIFlagObjectPointer)
!845 = !DISubprogram(name: "operator==", linkageName: "_ZNK4llvm16FoldingSetNodeIDeqERKS0_", scope: !517, file: !518, line: 331, type: !846, scopeLine: 331, flags: DIFlagPublic | DIFlagPrototyped, spFlags: DISPFlagOptimized)
!846 = !DISubroutineType(types: !847)
!847 = !{!27, !844, !838}
!848 = !DISubprogram(name: "operator==", linkageName: "_ZNK4llvm16FoldingSetNodeIDeqENS_19FoldingSetNodeIDRefE", scope: !517, file: !518, line: 332, type: !849, scopeLine: 332, flags: DIFlagPublic | DIFlagPrototyped, spFlags: DISPFlagOptimized)
!849 = !DISubroutineType(types: !850)
!850 = !{!27, !844, !793}
!851 = !DISubprogram(name: "operator<", linkageName: "_ZNK4llvm16FoldingSetNodeIDltERKS0_", scope: !517, file: !518, line: 336, type: !846, scopeLine: 336, flags: DIFlagPublic | DIFlagPrototyped, spFlags: DISPFlagOptimized)
!852 = !DISubprogram(name: "operator<", linkageName: "_ZNK4llvm16FoldingSetNodeIDltENS_19FoldingSetNodeIDRefE", scope: !517, file: !518, line: 337, type: !849, scopeLine: 337, flags: DIFlagPublic | DIFlagPrototyped, spFlags: DISPFlagOptimized)
!853 = !DISubprogram(name: "Intern", linkageName: "_ZNK4llvm16FoldingSetNodeID6InternERNS_16BumpPtrAllocatorE", scope: !517, file: !518, line: 342, type: !854, scopeLine: 342, flags: DIFlagPublic | DIFlagPrototyped, spFlags: DISPFlagOptimized)
!854 = !DISubroutineType(types: !855)
!855 = !{!778, !844, !856}
!856 = !DIDerivedType(tag: DW_TAG_reference_type, baseType: !857, size: 64)
!857 = distinct !DICompositeType(tag: DW_TAG_class_type, name: "BumpPtrAllocator", scope: !14, file: !858, line: 90, size: 576, flags: DIFlagTypePassByReference | DIFlagNonTrivial, elements: !859, identifier: "_ZTSN4llvm16BumpPtrAllocatorE")
!858 = !DIFile(filename: "/faster/fs/llvm34/include/llvm/Support/Allocator.h", directory: "")
!859 = !{!860, !861, !862, !864, !867, !873, !875, !876, !877, !883, !884, !887, !890, !893, !896, !899, !900, !901, !904, !907, !911, !914}
!860 = !DIDerivedType(tag: DW_TAG_member, name: "SlabSize", scope: !857, file: !858, line: 96, baseType: !311, size: 64)
!861 = !DIDerivedType(tag: DW_TAG_member, name: "SizeThreshold", scope: !857, file: !858, line: 100, baseType: !311, size: 64, offset: 64)
!862 = !DIDerivedType(tag: DW_TAG_member, name: "DefaultSlabAllocator", scope: !857, file: !858, line: 103, baseType: !863, size: 128, offset: 128)
!863 = distinct !DICompositeType(tag: DW_TAG_class_type, name: "MallocSlabAllocator", scope: !14, file: !858, line: 74, flags: DIFlagFwdDecl, identifier: "_ZTSN4llvm19MallocSlabAllocatorE")
!864 = !DIDerivedType(tag: DW_TAG_member, name: "Allocator", scope: !857, file: !858, line: 108, baseType: !865, size: 64, offset: 256)
!865 = !DIDerivedType(tag: DW_TAG_reference_type, baseType: !866, size: 64)
!866 = distinct !DICompositeType(tag: DW_TAG_class_type, name: "SlabAllocator", scope: !14, file: !858, line: 64, flags: DIFlagFwdDecl, identifier: "_ZTSN4llvm13SlabAllocatorE")
!867 = !DIDerivedType(tag: DW_TAG_member, name: "CurSlab", scope: !857, file: !858, line: 112, baseType: !868, size: 64, offset: 320)
!868 = !DIDerivedType(tag: DW_TAG_pointer_type, baseType: !869, size: 64)
!869 = distinct !DICompositeType(tag: DW_TAG_class_type, name: "MemSlab", scope: !14, file: !858, line: 53, size: 128, flags: DIFlagTypePassByValue, elements: !870, identifier: "_ZTSN4llvm7MemSlabE")
!870 = !{!871, !872}
!871 = !DIDerivedType(tag: DW_TAG_member, name: "Size", scope: !869, file: !858, line: 55, baseType: !311, size: 64, flags: DIFlagPublic)
!872 = !DIDerivedType(tag: DW_TAG_member, name: "NextPtr", scope: !869, file: !858, line: 56, baseType: !868, size: 64, offset: 64, flags: DIFlagPublic)
!873 = !DIDerivedType(tag: DW_TAG_member, name: "CurPtr", scope: !857, file: !858, line: 116, baseType: !874, size: 64, offset: 384)
!874 = !DIDerivedType(tag: DW_TAG_pointer_type, baseType: !317, size: 64)
!875 = !DIDerivedType(tag: DW_TAG_member, name: "End", scope: !857, file: !858, line: 120, baseType: !874, size: 64, offset: 448)
!876 = !DIDerivedType(tag: DW_TAG_member, name: "BytesAllocated", scope: !857, file: !858, line: 124, baseType: !311, size: 64, offset: 512)
!877 = !DISubprogram(name: "BumpPtrAllocator", scope: !857, file: !858, line: 91, type: !878, scopeLine: 91, flags: DIFlagPrototyped, spFlags: DISPFlagOptimized | DISPFlagDeleted)
!878 = !DISubroutineType(types: !879)
!879 = !{null, !880, !881}
!880 = !DIDerivedType(tag: DW_TAG_pointer_type, baseType: !857, size: 64, flags: DIFlagArtificial | DIFlagObjectPointer)
!881 = !DIDerivedType(tag: DW_TAG_reference_type, baseType: !882, size: 64)
!882 = !DIDerivedType(tag: DW_TAG_const_type, baseType: !857)
!883 = !DISubprogram(name: "operator=", linkageName: "_ZN4llvm16BumpPtrAllocatoraSERKS0_", scope: !857, file: !858, line: 92, type: !878, scopeLine: 92, flags: DIFlagPrototyped, spFlags: DISPFlagOptimized | DISPFlagDeleted)
!884 = !DISubprogram(name: "AlignPtr", linkageName: "_ZN4llvm16BumpPtrAllocator8AlignPtrEPcm", scope: !857, file: !858, line: 129, type: !885, scopeLine: 129, flags: DIFlagPrototyped | DIFlagStaticMember, spFlags: DISPFlagOptimized)
!885 = !DISubroutineType(types: !886)
!886 = !{!874, !874, !311}
!887 = !DISubprogram(name: "StartNewSlab", linkageName: "_ZN4llvm16BumpPtrAllocator12StartNewSlabEv", scope: !857, file: !858, line: 133, type: !888, scopeLine: 133, flags: DIFlagPrototyped, spFlags: DISPFlagOptimized)
!888 = !DISubroutineType(types: !889)
!889 = !{null, !880}
!890 = !DISubprogram(name: "DeallocateSlabs", linkageName: "_ZN4llvm16BumpPtrAllocator15DeallocateSlabsEPNS_7MemSlabE", scope: !857, file: !858, line: 137, type: !891, scopeLine: 137, flags: DIFlagPrototyped, spFlags: DISPFlagOptimized)
!891 = !DISubroutineType(types: !892)
!892 = !{null, !880, !868}
!893 = !DISubprogram(name: "BumpPtrAllocator", scope: !857, file: !858, line: 141, type: !894, scopeLine: 141, flags: DIFlagPublic | DIFlagPrototyped, spFlags: DISPFlagOptimized)
!894 = !DISubroutineType(types: !895)
!895 = !{null, !880, !311, !311}
!896 = !DISubprogram(name: "BumpPtrAllocator", scope: !857, file: !858, line: 142, type: !897, scopeLine: 142, flags: DIFlagPublic | DIFlagPrototyped, spFlags: DISPFlagOptimized)
!897 = !DISubroutineType(types: !898)
!898 = !{null, !880, !311, !311, !865}
!899 = !DISubprogram(name: "~BumpPtrAllocator", scope: !857, file: !858, line: 143, type: !888, scopeLine: 143, flags: DIFlagPublic | DIFlagPrototyped, spFlags: DISPFlagOptimized)
!900 = !DISubprogram(name: "Reset", linkageName: "_ZN4llvm16BumpPtrAllocator5ResetEv", scope: !857, file: !858, line: 147, type: !888, scopeLine: 147, flags: DIFlagPublic | DIFlagPrototyped, spFlags: DISPFlagOptimized)
!901 = !DISubprogram(name: "Allocate", linkageName: "_ZN4llvm16BumpPtrAllocator8AllocateEmm", scope: !857, file: !858, line: 151, type: !902, scopeLine: 151, flags: DIFlagPublic | DIFlagPrototyped, spFlags: DISPFlagOptimized)
!902 = !DISubroutineType(types: !903)
!903 = !{!537, !880, !311, !311}
!904 = !DISubprogram(name: "Deallocate", linkageName: "_ZN4llvm16BumpPtrAllocator10DeallocateEPKv", scope: !857, file: !858, line: 176, type: !905, scopeLine: 176, flags: DIFlagPublic | DIFlagPrototyped, spFlags: DISPFlagOptimized)
!905 = !DISubroutineType(types: !906)
!906 = !{null, !880, !807}
!907 = !DISubprogram(name: "GetNumSlabs", linkageName: "_ZNK4llvm16BumpPtrAllocator11GetNumSlabsEv", scope: !857, file: !858, line: 178, type: !908, scopeLine: 178, flags: DIFlagPublic | DIFlagPrototyped, spFlags: DISPFlagOptimized)
!908 = !DISubroutineType(types: !909)
!909 = !{!6, !910}
!910 = !DIDerivedType(tag: DW_TAG_pointer_type, baseType: !882, size: 64, flags: DIFlagArtificial | DIFlagObjectPointer)
!911 = !DISubprogram(name: "PrintStats", linkageName: "_ZNK4llvm16BumpPtrAllocator10PrintStatsEv", scope: !857, file: !858, line: 180, type: !912, scopeLine: 180, flags: DIFlagPublic | DIFlagPrototyped, spFlags: DISPFlagOptimized)
!912 = !DISubroutineType(types: !913)
!913 = !{null, !910}
!914 = !DISubprogram(name: "getTotalMemory", linkageName: "_ZNK4llvm16BumpPtrAllocator14getTotalMemoryEv", scope: !857, file: !858, line: 183, type: !915, scopeLine: 183, flags: DIFlagPublic | DIFlagPrototyped, spFlags: DISPFlagOptimized)
!915 = !DISubroutineType(types: !916)
!916 = !{!311, !910}
!917 = !DISubprogram(name: "isNegative", linkageName: "_ZNK4llvm5APInt10isNegativeEv", scope: !415, file: !416, line: 322, type: !432, scopeLine: 322, flags: DIFlagPublic | DIFlagPrototyped, spFlags: DISPFlagOptimized)
!918 = !DISubprogram(name: "isNonNegative", linkageName: "_ZNK4llvm5APInt13isNonNegativeEv", scope: !415, file: !416, line: 327, type: !432, scopeLine: 327, flags: DIFlagPublic | DIFlagPrototyped, spFlags: DISPFlagOptimized)
!919 = !DISubprogram(name: "isStrictlyPositive", linkageName: "_ZNK4llvm5APInt18isStrictlyPositiveEv", scope: !415, file: !416, line: 335, type: !432, scopeLine: 335, flags: DIFlagPublic | DIFlagPrototyped, spFlags: DISPFlagOptimized)
!920 = !DISubprogram(name: "isAllOnesValue", linkageName: "_ZNK4llvm5APInt14isAllOnesValueEv", scope: !415, file: !416, line: 340, type: !432, scopeLine: 340, flags: DIFlagPublic | DIFlagPrototyped, spFlags: DISPFlagOptimized)
!921 = !DISubprogram(name: "isMaxValue", linkageName: "_ZNK4llvm5APInt10isMaxValueEv", scope: !415, file: !416, line: 350, type: !432, scopeLine: 350, flags: DIFlagPublic | DIFlagPrototyped, spFlags: DISPFlagOptimized)
!922 = !DISubprogram(name: "isMaxSignedValue", linkageName: "_ZNK4llvm5APInt16isMaxSignedValueEv", scope: !415, file: !416, line: 356, type: !432, scopeLine: 356, flags: DIFlagPublic | DIFlagPrototyped, spFlags: DISPFlagOptimized)
!923 = !DISubprogram(name: "isMinValue", linkageName: "_ZNK4llvm5APInt10isMinValueEv", scope: !415, file: !416, line: 365, type: !432, scopeLine: 365, flags: DIFlagPublic | DIFlagPrototyped, spFlags: DISPFlagOptimized)
!924 = !DISubprogram(name: "isMinSignedValue", linkageName: "_ZNK4llvm5APInt16isMinSignedValueEv", scope: !415, file: !416, line: 371, type: !432, scopeLine: 371, flags: DIFlagPublic | DIFlagPrototyped, spFlags: DISPFlagOptimized)
!925 = !DISubprogram(name: "isIntN", linkageName: "_ZNK4llvm5APInt6isIntNEj", scope: !415, file: !416, line: 376, type: !926, scopeLine: 376, flags: DIFlagPublic | DIFlagPrototyped, spFlags: DISPFlagOptimized)
!926 = !DISubroutineType(types: !927)
!927 = !{!27, !434, !6}
!928 = !DISubprogram(name: "isSignedIntN", linkageName: "_ZNK4llvm5APInt12isSignedIntNEj", scope: !415, file: !416, line: 382, type: !926, scopeLine: 382, flags: DIFlagPublic | DIFlagPrototyped, spFlags: DISPFlagOptimized)
!929 = !DISubprogram(name: "isPowerOf2", linkageName: "_ZNK4llvm5APInt10isPowerOf2Ev", scope: !415, file: !416, line: 390, type: !432, scopeLine: 390, flags: DIFlagPublic | DIFlagPrototyped, spFlags: DISPFlagOptimized)
!930 = !DISubprogram(name: "isSignBit", linkageName: "_ZNK4llvm5APInt9isSignBitEv", scope: !415, file: !416, line: 399, type: !432, scopeLine: 399, flags: DIFlagPublic | DIFlagPrototyped, spFlags: DISPFlagOptimized)
!931 = !DISubprogram(name: "getBoolValue", linkageName: "_ZNK4llvm5APInt12getBoolValueEv", scope: !415, file: !416, line: 404, type: !432, scopeLine: 404, flags: DIFlagPublic | DIFlagPrototyped, spFlags: DISPFlagOptimized)
!932 = !DISubprogram(name: "getLimitedValue", linkageName: "_ZNK4llvm5APInt15getLimitedValueEm", scope: !415, file: !416, line: 408, type: !933, scopeLine: 408, flags: DIFlagPublic | DIFlagPrototyped, spFlags: DISPFlagOptimized)
!933 = !DISubroutineType(types: !934)
!934 = !{!423, !434, !423}
!935 = !DISubprogram(name: "getMaxValue", linkageName: "_ZN4llvm5APInt11getMaxValueEj", scope: !415, file: !416, line: 418, type: !936, scopeLine: 418, flags: DIFlagPublic | DIFlagPrototyped | DIFlagStaticMember, spFlags: DISPFlagOptimized)
!936 = !DISubroutineType(types: !937)
!937 = !{!415, !6}
!938 = !DISubprogram(name: "getSignedMaxValue", linkageName: "_ZN4llvm5APInt17getSignedMaxValueEj", scope: !415, file: !416, line: 423, type: !936, scopeLine: 423, flags: DIFlagPublic | DIFlagPrototyped | DIFlagStaticMember, spFlags: DISPFlagOptimized)
!939 = !DISubprogram(name: "getMinValue", linkageName: "_ZN4llvm5APInt11getMinValueEj", scope: !415, file: !416, line: 430, type: !936, scopeLine: 430, flags: DIFlagPublic | DIFlagPrototyped | DIFlagStaticMember, spFlags: DISPFlagOptimized)
!940 = !DISubprogram(name: "getSignedMinValue", linkageName: "_ZN4llvm5APInt17getSignedMinValueEj", scope: !415, file: !416, line: 433, type: !936, scopeLine: 433, flags: DIFlagPublic | DIFlagPrototyped | DIFlagStaticMember, spFlags: DISPFlagOptimized)
!941 = !DISubprogram(name: "getSignBit", linkageName: "_ZN4llvm5APInt10getSignBitEj", scope: !415, file: !416, line: 443, type: !936, scopeLine: 443, flags: DIFlagPublic | DIFlagPrototyped | DIFlagStaticMember, spFlags: DISPFlagOptimized)
!942 = !DISubprogram(name: "getAllOnesValue", linkageName: "_ZN4llvm5APInt15getAllOnesValueEj", scope: !415, file: !416, line: 450, type: !936, scopeLine: 450, flags: DIFlagPublic | DIFlagPrototyped | DIFlagStaticMember, spFlags: DISPFlagOptimized)
!943 = !DISubprogram(name: "getNullValue", linkageName: "_ZN4llvm5APInt12getNullValueEj", scope: !415, file: !416, line: 457, type: !936, scopeLine: 457, flags: DIFlagPublic | DIFlagPrototyped | DIFlagStaticMember, spFlags: DISPFlagOptimized)
!944 = !DISubprogram(name: "getHiBits", linkageName: "_ZNK4llvm5APInt9getHiBitsEj", scope: !415, file: !416, line: 465, type: !472, scopeLine: 465, flags: DIFlagPublic | DIFlagPrototyped, spFlags: DISPFlagOptimized)
!945 = !DISubprogram(name: "getLoBits", linkageName: "_ZNK4llvm5APInt9getLoBitsEj", scope: !415, file: !416, line: 473, type: !472, scopeLine: 473, flags: DIFlagPublic | DIFlagPrototyped, spFlags: DISPFlagOptimized)
!946 = !DISubprogram(name: "getOneBitSet", linkageName: "_ZN4llvm5APInt12getOneBitSetEjj", scope: !415, file: !416, line: 476, type: !947, scopeLine: 476, flags: DIFlagPublic | DIFlagPrototyped | DIFlagStaticMember, spFlags: DISPFlagOptimized)
!947 = !DISubroutineType(types: !948)
!948 = !{!415, !6, !6}
!949 = !DISubprogram(name: "getBitsSet", linkageName: "_ZN4llvm5APInt10getBitsSetEjjj", scope: !415, file: !416, line: 495, type: !950, scopeLine: 495, flags: DIFlagPublic | DIFlagPrototyped | DIFlagStaticMember, spFlags: DISPFlagOptimized)
!950 = !DISubroutineType(types: !951)
!951 = !{!415, !6, !6, !6}
!952 = !DISubprogram(name: "getHighBitsSet", linkageName: "_ZN4llvm5APInt14getHighBitsSetEjj", scope: !415, file: !416, line: 510, type: !947, scopeLine: 510, flags: DIFlagPublic | DIFlagPrototyped | DIFlagStaticMember, spFlags: DISPFlagOptimized)
!953 = !DISubprogram(name: "getLowBitsSet", linkageName: "_ZN4llvm5APInt13getLowBitsSetEjj", scope: !415, file: !416, line: 528, type: !947, scopeLine: 528, flags: DIFlagPublic | DIFlagPrototyped | DIFlagStaticMember, spFlags: DISPFlagOptimized)
!954 = !DISubprogram(name: "getSplat", linkageName: "_ZN4llvm5APInt8getSplatEjRKS0_", scope: !415, file: !416, line: 542, type: !955, scopeLine: 542, flags: DIFlagPublic | DIFlagPrototyped | DIFlagStaticMember, spFlags: DISPFlagOptimized)
!955 = !DISubroutineType(types: !956)
!956 = !{!415, !6, !458}
!957 = !DISubprogram(name: "isSameValue", linkageName: "_ZN4llvm5APInt11isSameValueERKS0_S2_", scope: !415, file: !416, line: 554, type: !958, scopeLine: 554, flags: DIFlagPublic | DIFlagPrototyped | DIFlagStaticMember, spFlags: DISPFlagOptimized)
!958 = !DISubroutineType(types: !959)
!959 = !{!27, !458, !458}
!960 = !DISubprogram(name: "getRawData", linkageName: "_ZNK4llvm5APInt10getRawDataEv", scope: !415, file: !416, line: 570, type: !961, scopeLine: 570, flags: DIFlagPublic | DIFlagPrototyped, spFlags: DISPFlagOptimized)
!961 = !DISubroutineType(types: !962)
!962 = !{!500, !434}
!963 = !DISubprogram(name: "operator++", linkageName: "_ZN4llvm5APIntppEi", scope: !415, file: !416, line: 583, type: !964, scopeLine: 583, flags: DIFlagPublic | DIFlagPrototyped, spFlags: DISPFlagOptimized)
!964 = !DISubroutineType(types: !965)
!965 = !{!435, !430, !196}
!966 = !DISubprogram(name: "operator++", linkageName: "_ZN4llvm5APIntppEv", scope: !415, file: !416, line: 592, type: !444, scopeLine: 592, flags: DIFlagPublic | DIFlagPrototyped, spFlags: DISPFlagOptimized)
!967 = !DISubprogram(name: "operator--", linkageName: "_ZN4llvm5APIntmmEi", scope: !415, file: !416, line: 597, type: !964, scopeLine: 597, flags: DIFlagPublic | DIFlagPrototyped, spFlags: DISPFlagOptimized)
!968 = !DISubprogram(name: "operator--", linkageName: "_ZN4llvm5APIntmmEv", scope: !415, file: !416, line: 606, type: !444, scopeLine: 606, flags: DIFlagPublic | DIFlagPrototyped, spFlags: DISPFlagOptimized)
!969 = !DISubprogram(name: "operator~", linkageName: "_ZNK4llvm5APIntcoEv", scope: !415, file: !416, line: 613, type: !970, scopeLine: 613, flags: DIFlagPublic | DIFlagPrototyped, spFlags: DISPFlagOptimized)
!970 = !DISubroutineType(types: !971)
!971 = !{!415, !434}
!972 = !DISubprogram(name: "operator-", linkageName: "_ZNK4llvm5APIntngEv", scope: !415, file: !416, line: 624, type: !970, scopeLine: 624, flags: DIFlagPublic | DIFlagPrototyped, spFlags: DISPFlagOptimized)
!973 = !DISubprogram(name: "operator!", linkageName: "_ZNK4llvm5APIntntEv", scope: !415, file: !416, line: 631, type: !432, scopeLine: 631, flags: DIFlagPublic | DIFlagPrototyped, spFlags: DISPFlagOptimized)
!974 = !DISubprogram(name: "operator=", linkageName: "_ZN4llvm5APIntaSERKS0_", scope: !415, file: !416, line: 648, type: !480, scopeLine: 648, flags: DIFlagPublic | DIFlagPrototyped, spFlags: DISPFlagOptimized)
!975 = !DISubprogram(name: "operator=", linkageName: "_ZN4llvm5APIntaSEOS0_", scope: !415, file: !416, line: 661, type: !976, scopeLine: 661, flags: DIFlagPublic | DIFlagPrototyped, spFlags: DISPFlagOptimized)
!976 = !DISubroutineType(types: !977)
!977 = !{!414, !430, !507}
!978 = !DISubprogram(name: "operator=", linkageName: "_ZN4llvm5APIntaSEm", scope: !415, file: !416, line: 681, type: !979, scopeLine: 681, flags: DIFlagPublic | DIFlagPrototyped, spFlags: DISPFlagOptimized)
!979 = !DISubroutineType(types: !980)
!980 = !{!414, !430, !423}
!981 = !DISubprogram(name: "operator&=", linkageName: "_ZN4llvm5APIntaNERKS0_", scope: !415, file: !416, line: 689, type: !480, scopeLine: 689, flags: DIFlagPublic | DIFlagPrototyped, spFlags: DISPFlagOptimized)
!982 = !DISubprogram(name: "operator|=", linkageName: "_ZN4llvm5APIntoRERKS0_", scope: !415, file: !416, line: 697, type: !480, scopeLine: 697, flags: DIFlagPublic | DIFlagPrototyped, spFlags: DISPFlagOptimized)
!983 = !DISubprogram(name: "operator|=", linkageName: "_ZN4llvm5APIntoREm", scope: !415, file: !416, line: 704, type: !979, scopeLine: 704, flags: DIFlagPublic | DIFlagPrototyped, spFlags: DISPFlagOptimized)
!984 = !DISubprogram(name: "operator^=", linkageName: "_ZN4llvm5APInteOERKS0_", scope: !415, file: !416, line: 720, type: !480, scopeLine: 720, flags: DIFlagPublic | DIFlagPrototyped, spFlags: DISPFlagOptimized)
!985 = !DISubprogram(name: "operator*=", linkageName: "_ZN4llvm5APIntmLERKS0_", scope: !415, file: !416, line: 727, type: !480, scopeLine: 727, flags: DIFlagPublic | DIFlagPrototyped, spFlags: DISPFlagOptimized)
!986 = !DISubprogram(name: "operator+=", linkageName: "_ZN4llvm5APIntpLERKS0_", scope: !415, file: !416, line: 734, type: !480, scopeLine: 734, flags: DIFlagPublic | DIFlagPrototyped, spFlags: DISPFlagOptimized)
!987 = !DISubprogram(name: "operator-=", linkageName: "_ZN4llvm5APIntmIERKS0_", scope: !415, file: !416, line: 741, type: !480, scopeLine: 741, flags: DIFlagPublic | DIFlagPrototyped, spFlags: DISPFlagOptimized)
!988 = !DISubprogram(name: "operator<<=", linkageName: "_ZN4llvm5APIntlSEj", scope: !415, file: !416, line: 748, type: !989, scopeLine: 748, flags: DIFlagPublic | DIFlagPrototyped, spFlags: DISPFlagOptimized)
!989 = !DISubroutineType(types: !990)
!990 = !{!414, !430, !6}
!991 = !DISubprogram(name: "operator&", linkageName: "_ZNK4llvm5APIntanERKS0_", scope: !415, file: !416, line: 762, type: !475, scopeLine: 762, flags: DIFlagPublic | DIFlagPrototyped, spFlags: DISPFlagOptimized)
!992 = !DISubprogram(name: "And", linkageName: "_ZNK4llvm5APInt3AndERKS0_", scope: !415, file: !416, line: 768, type: !475, scopeLine: 768, flags: DIFlagPublic | DIFlagPrototyped, spFlags: DISPFlagOptimized)
!993 = !DISubprogram(name: "operator|", linkageName: "_ZNK4llvm5APIntorERKS0_", scope: !415, file: !416, line: 777, type: !475, scopeLine: 777, flags: DIFlagPublic | DIFlagPrototyped, spFlags: DISPFlagOptimized)
!994 = !DISubprogram(name: "Or", linkageName: "_ZNK4llvm5APInt2OrERKS0_", scope: !415, file: !416, line: 790, type: !475, scopeLine: 790, flags: DIFlagPublic | DIFlagPrototyped, spFlags: DISPFlagOptimized)
!995 = !DISubprogram(name: "operator^", linkageName: "_ZNK4llvm5APInteoERKS0_", scope: !415, file: !416, line: 799, type: !475, scopeLine: 799, flags: DIFlagPublic | DIFlagPrototyped, spFlags: DISPFlagOptimized)
!996 = !DISubprogram(name: "Xor", linkageName: "_ZNK4llvm5APInt3XorERKS0_", scope: !415, file: !416, line: 812, type: !475, scopeLine: 812, flags: DIFlagPublic | DIFlagPrototyped, spFlags: DISPFlagOptimized)
!997 = !DISubprogram(name: "operator*", linkageName: "_ZNK4llvm5APIntmlERKS0_", scope: !415, file: !416, line: 819, type: !475, scopeLine: 819, flags: DIFlagPublic | DIFlagPrototyped, spFlags: DISPFlagOptimized)
!998 = !DISubprogram(name: "operator+", linkageName: "_ZNK4llvm5APIntplERKS0_", scope: !415, file: !416, line: 824, type: !475, scopeLine: 824, flags: DIFlagPublic | DIFlagPrototyped, spFlags: DISPFlagOptimized)
!999 = !DISubprogram(name: "operator+", linkageName: "_ZNK4llvm5APIntplEm", scope: !415, file: !416, line: 825, type: !1000, scopeLine: 825, flags: DIFlagPublic | DIFlagPrototyped, spFlags: DISPFlagOptimized)
!1000 = !DISubroutineType(types: !1001)
!1001 = !{!415, !434, !423}
!1002 = !DISubprogram(name: "operator-", linkageName: "_ZNK4llvm5APIntmiERKS0_", scope: !415, file: !416, line: 830, type: !475, scopeLine: 830, flags: DIFlagPublic | DIFlagPrototyped, spFlags: DISPFlagOptimized)
!1003 = !DISubprogram(name: "operator-", linkageName: "_ZNK4llvm5APIntmiEm", scope: !415, file: !416, line: 831, type: !1000, scopeLine: 831, flags: DIFlagPublic | DIFlagPrototyped, spFlags: DISPFlagOptimized)
!1004 = !DISubprogram(name: "operator<<", linkageName: "_ZNK4llvm5APIntlsEj", scope: !415, file: !416, line: 836, type: !472, scopeLine: 836, flags: DIFlagPublic | DIFlagPrototyped, spFlags: DISPFlagOptimized)
!1005 = !DISubprogram(name: "operator<<", linkageName: "_ZNK4llvm5APIntlsERKS0_", scope: !415, file: !416, line: 841, type: !475, scopeLine: 841, flags: DIFlagPublic | DIFlagPrototyped, spFlags: DISPFlagOptimized)
!1006 = !DISubprogram(name: "ashr", linkageName: "_ZNK4llvm5APInt4ashrEj", scope: !415, file: !416, line: 846, type: !472, scopeLine: 846, flags: DIFlagPublic | DIFlagPrototyped, spFlags: DISPFlagOptimized)
!1007 = !DISubprogram(name: "lshr", linkageName: "_ZNK4llvm5APInt4lshrEj", scope: !415, file: !416, line: 851, type: !472, scopeLine: 851, flags: DIFlagPublic | DIFlagPrototyped, spFlags: DISPFlagOptimized)
!1008 = !DISubprogram(name: "shl", linkageName: "_ZNK4llvm5APInt3shlEj", scope: !415, file: !416, line: 856, type: !472, scopeLine: 856, flags: DIFlagPublic | DIFlagPrototyped, spFlags: DISPFlagOptimized)
!1009 = !DISubprogram(name: "rotl", linkageName: "_ZNK4llvm5APInt4rotlEj", scope: !415, file: !416, line: 867, type: !472, scopeLine: 867, flags: DIFlagPublic | DIFlagPrototyped, spFlags: DISPFlagOptimized)
!1010 = !DISubprogram(name: "rotr", linkageName: "_ZNK4llvm5APInt4rotrEj", scope: !415, file: !416, line: 870, type: !472, scopeLine: 870, flags: DIFlagPublic | DIFlagPrototyped, spFlags: DISPFlagOptimized)
!1011 = !DISubprogram(name: "ashr", linkageName: "_ZNK4llvm5APInt4ashrERKS0_", scope: !415, file: !416, line: 875, type: !475, scopeLine: 875, flags: DIFlagPublic | DIFlagPrototyped, spFlags: DISPFlagOptimized)
!1012 = !DISubprogram(name: "lshr", linkageName: "_ZNK4llvm5APInt4lshrERKS0_", scope: !415, file: !416, line: 880, type: !475, scopeLine: 880, flags: DIFlagPublic | DIFlagPrototyped, spFlags: DISPFlagOptimized)
!1013 = !DISubprogram(name: "shl", linkageName: "_ZNK4llvm5APInt3shlERKS0_", scope: !415, file: !416, line: 885, type: !475, scopeLine: 885, flags: DIFlagPublic | DIFlagPrototyped, spFlags: DISPFlagOptimized)
!1014 = !DISubprogram(name: "rotl", linkageName: "_ZNK4llvm5APInt4rotlERKS0_", scope: !415, file: !416, line: 888, type: !475, scopeLine: 888, flags: DIFlagPublic | DIFlagPrototyped, spFlags: DISPFlagOptimized)
!1015 = !DISubprogram(name: "rotr", linkageName: "_ZNK4llvm5APInt4rotrERKS0_", scope: !415, file: !416, line: 891, type: !475, scopeLine: 891, flags: DIFlagPublic | DIFlagPrototyped, spFlags: DISPFlagOptimized)
!1016 = !DISubprogram(name: "udiv", linkageName: "_ZNK4llvm5APInt4udivERKS0_", scope: !415, file: !416, line: 899, type: !475, scopeLine: 899, flags: DIFlagPublic | DIFlagPrototyped, spFlags: DISPFlagOptimized)
!1017 = !DISubprogram(name: "sdiv", linkageName: "_ZNK4llvm5APInt4sdivERKS0_", scope: !415, file: !416, line: 904, type: !475, scopeLine: 904, flags: DIFlagPublic | DIFlagPrototyped, spFlags: DISPFlagOptimized)
!1018 = !DISubprogram(name: "urem", linkageName: "_ZNK4llvm5APInt4uremERKS0_", scope: !415, file: !416, line: 915, type: !475, scopeLine: 915, flags: DIFlagPublic | DIFlagPrototyped, spFlags: DISPFlagOptimized)
!1019 = !DISubprogram(name: "srem", linkageName: "_ZNK4llvm5APInt4sremERKS0_", scope: !415, file: !416, line: 920, type: !475, scopeLine: 920, flags: DIFlagPublic | DIFlagPrototyped, spFlags: DISPFlagOptimized)
!1020 = !DISubprogram(name: "udivrem", linkageName: "_ZN4llvm5APInt7udivremERKS0_S2_RS0_S3_", scope: !415, file: !416, line: 929, type: !1021, scopeLine: 929, flags: DIFlagPublic | DIFlagPrototyped | DIFlagStaticMember, spFlags: DISPFlagOptimized)
!1021 = !DISubroutineType(types: !1022)
!1022 = !{null, !458, !458, !414, !414}
!1023 = !DISubprogram(name: "sdivrem", linkageName: "_ZN4llvm5APInt7sdivremERKS0_S2_RS0_S3_", scope: !415, file: !416, line: 932, type: !1021, scopeLine: 932, flags: DIFlagPublic | DIFlagPrototyped | DIFlagStaticMember, spFlags: DISPFlagOptimized)
!1024 = !DISubprogram(name: "sadd_ov", linkageName: "_ZNK4llvm5APInt7sadd_ovERKS0_Rb", scope: !415, file: !416, line: 936, type: !1025, scopeLine: 936, flags: DIFlagPublic | DIFlagPrototyped, spFlags: DISPFlagOptimized)
!1025 = !DISubroutineType(types: !1026)
!1026 = !{!415, !434, !458, !1027}
!1027 = !DIDerivedType(tag: DW_TAG_reference_type, baseType: !27, size: 64)
!1028 = !DISubprogram(name: "uadd_ov", linkageName: "_ZNK4llvm5APInt7uadd_ovERKS0_Rb", scope: !415, file: !416, line: 937, type: !1025, scopeLine: 937, flags: DIFlagPublic | DIFlagPrototyped, spFlags: DISPFlagOptimized)
!1029 = !DISubprogram(name: "ssub_ov", linkageName: "_ZNK4llvm5APInt7ssub_ovERKS0_Rb", scope: !415, file: !416, line: 938, type: !1025, scopeLine: 938, flags: DIFlagPublic | DIFlagPrototyped, spFlags: DISPFlagOptimized)
!1030 = !DISubprogram(name: "usub_ov", linkageName: "_ZNK4llvm5APInt7usub_ovERKS0_Rb", scope: !415, file: !416, line: 939, type: !1025, scopeLine: 939, flags: DIFlagPublic | DIFlagPrototyped, spFlags: DISPFlagOptimized)
!1031 = !DISubprogram(name: "sdiv_ov", linkageName: "_ZNK4llvm5APInt7sdiv_ovERKS0_Rb", scope: !415, file: !416, line: 940, type: !1025, scopeLine: 940, flags: DIFlagPublic | DIFlagPrototyped, spFlags: DISPFlagOptimized)
!1032 = !DISubprogram(name: "smul_ov", linkageName: "_ZNK4llvm5APInt7smul_ovERKS0_Rb", scope: !415, file: !416, line: 941, type: !1025, scopeLine: 941, flags: DIFlagPublic | DIFlagPrototyped, spFlags: DISPFlagOptimized)
!1033 = !DISubprogram(name: "umul_ov", linkageName: "_ZNK4llvm5APInt7umul_ovERKS0_Rb", scope: !415, file: !416, line: 942, type: !1025, scopeLine: 942, flags: DIFlagPublic | DIFlagPrototyped, spFlags: DISPFlagOptimized)
!1034 = !DISubprogram(name: "sshl_ov", linkageName: "_ZNK4llvm5APInt7sshl_ovEjRb", scope: !415, file: !416, line: 943, type: !1035, scopeLine: 943, flags: DIFlagPublic | DIFlagPrototyped, spFlags: DISPFlagOptimized)
!1035 = !DISubroutineType(types: !1036)
!1036 = !{!415, !434, !6, !1027}
!1037 = !DISubprogram(name: "operator[]", linkageName: "_ZNK4llvm5APIntixEj", scope: !415, file: !416, line: 948, type: !926, scopeLine: 948, flags: DIFlagPublic | DIFlagPrototyped, spFlags: DISPFlagOptimized)
!1038 = !DISubprogram(name: "operator==", linkageName: "_ZNK4llvm5APInteqERKS0_", scope: !415, file: !416, line: 963, type: !483, scopeLine: 963, flags: DIFlagPublic | DIFlagPrototyped, spFlags: DISPFlagOptimized)
!1039 = !DISubprogram(name: "operator==", linkageName: "_ZNK4llvm5APInteqEm", scope: !415, file: !416, line: 976, type: !486, scopeLine: 976, flags: DIFlagPublic | DIFlagPrototyped, spFlags: DISPFlagOptimized)
!1040 = !DISubprogram(name: "eq", linkageName: "_ZNK4llvm5APInt2eqERKS0_", scope: !415, file: !416, line: 988, type: !483, scopeLine: 988, flags: DIFlagPublic | DIFlagPrototyped, spFlags: DISPFlagOptimized)
!1041 = !DISubprogram(name: "operator!=", linkageName: "_ZNK4llvm5APIntneERKS0_", scope: !415, file: !416, line: 996, type: !483, scopeLine: 996, flags: DIFlagPublic | DIFlagPrototyped, spFlags: DISPFlagOptimized)
!1042 = !DISubprogram(name: "operator!=", linkageName: "_ZNK4llvm5APIntneEm", scope: !415, file: !416, line: 1004, type: !486, scopeLine: 1004, flags: DIFlagPublic | DIFlagPrototyped, spFlags: DISPFlagOptimized)
!1043 = !DISubprogram(name: "ne", linkageName: "_ZNK4llvm5APInt2neERKS0_", scope: !415, file: !416, line: 1012, type: !483, scopeLine: 1012, flags: DIFlagPublic | DIFlagPrototyped, spFlags: DISPFlagOptimized)
!1044 = !DISubprogram(name: "ult", linkageName: "_ZNK4llvm5APInt3ultERKS0_", scope: !415, file: !416, line: 1020, type: !483, scopeLine: 1020, flags: DIFlagPublic | DIFlagPrototyped, spFlags: DISPFlagOptimized)
!1045 = !DISubprogram(name: "ult", linkageName: "_ZNK4llvm5APInt3ultEm", scope: !415, file: !416, line: 1028, type: !486, scopeLine: 1028, flags: DIFlagPublic | DIFlagPrototyped, spFlags: DISPFlagOptimized)
!1046 = !DISubprogram(name: "slt", linkageName: "_ZNK4llvm5APInt3sltERKS0_", scope: !415, file: !416, line: 1036, type: !483, scopeLine: 1036, flags: DIFlagPublic | DIFlagPrototyped, spFlags: DISPFlagOptimized)
!1047 = !DISubprogram(name: "slt", linkageName: "_ZNK4llvm5APInt3sltEm", scope: !415, file: !416, line: 1044, type: !486, scopeLine: 1044, flags: DIFlagPublic | DIFlagPrototyped, spFlags: DISPFlagOptimized)
!1048 = !DISubprogram(name: "ule", linkageName: "_ZNK4llvm5APInt3uleERKS0_", scope: !415, file: !416, line: 1052, type: !483, scopeLine: 1052, flags: DIFlagPublic | DIFlagPrototyped, spFlags: DISPFlagOptimized)
!1049 = !DISubprogram(name: "ule", linkageName: "_ZNK4llvm5APInt3uleEm", scope: !415, file: !416, line: 1060, type: !486, scopeLine: 1060, flags: DIFlagPublic | DIFlagPrototyped, spFlags: DISPFlagOptimized)
!1050 = !DISubprogram(name: "sle", linkageName: "_ZNK4llvm5APInt3sleERKS0_", scope: !415, file: !416, line: 1068, type: !483, scopeLine: 1068, flags: DIFlagPublic | DIFlagPrototyped, spFlags: DISPFlagOptimized)
!1051 = !DISubprogram(name: "sle", linkageName: "_ZNK4llvm5APInt3sleEm", scope: !415, file: !416, line: 1076, type: !486, scopeLine: 1076, flags: DIFlagPublic | DIFlagPrototyped, spFlags: DISPFlagOptimized)
!1052 = !DISubprogram(name: "ugt", linkageName: "_ZNK4llvm5APInt3ugtERKS0_", scope: !415, file: !416, line: 1084, type: !483, scopeLine: 1084, flags: DIFlagPublic | DIFlagPrototyped, spFlags: DISPFlagOptimized)
!1053 = !DISubprogram(name: "ugt", linkageName: "_ZNK4llvm5APInt3ugtEm", scope: !415, file: !416, line: 1092, type: !486, scopeLine: 1092, flags: DIFlagPublic | DIFlagPrototyped, spFlags: DISPFlagOptimized)
!1054 = !DISubprogram(name: "sgt", linkageName: "_ZNK4llvm5APInt3sgtERKS0_", scope: !415, file: !416, line: 1100, type: !483, scopeLine: 1100, flags: DIFlagPublic | DIFlagPrototyped, spFlags: DISPFlagOptimized)
!1055 = !DISubprogram(name: "sgt", linkageName: "_ZNK4llvm5APInt3sgtEm", scope: !415, file: !416, line: 1108, type: !486, scopeLine: 1108, flags: DIFlagPublic | DIFlagPrototyped, spFlags: DISPFlagOptimized)
!1056 = !DISubprogram(name: "uge", linkageName: "_ZNK4llvm5APInt3ugeERKS0_", scope: !415, file: !416, line: 1116, type: !483, scopeLine: 1116, flags: DIFlagPublic | DIFlagPrototyped, spFlags: DISPFlagOptimized)
!1057 = !DISubprogram(name: "uge", linkageName: "_ZNK4llvm5APInt3ugeEm", scope: !415, file: !416, line: 1124, type: !486, scopeLine: 1124, flags: DIFlagPublic | DIFlagPrototyped, spFlags: DISPFlagOptimized)
!1058 = !DISubprogram(name: "sge", linkageName: "_ZNK4llvm5APInt3sgeERKS0_", scope: !415, file: !416, line: 1132, type: !483, scopeLine: 1132, flags: DIFlagPublic | DIFlagPrototyped, spFlags: DISPFlagOptimized)
!1059 = !DISubprogram(name: "sge", linkageName: "_ZNK4llvm5APInt3sgeEm", scope: !415, file: !416, line: 1140, type: !486, scopeLine: 1140, flags: DIFlagPublic | DIFlagPrototyped, spFlags: DISPFlagOptimized)
!1060 = !DISubprogram(name: "intersects", linkageName: "_ZNK4llvm5APInt10intersectsERKS0_", scope: !415, file: !416, line: 1144, type: !483, scopeLine: 1144, flags: DIFlagPublic | DIFlagPrototyped, spFlags: DISPFlagOptimized)
!1061 = !DISubprogram(name: "trunc", linkageName: "_ZNK4llvm5APInt5truncEj", scope: !415, file: !416, line: 1154, type: !472, scopeLine: 1154, flags: DIFlagPublic | DIFlagPrototyped, spFlags: DISPFlagOptimized)
!1062 = !DISubprogram(name: "sext", linkageName: "_ZNK4llvm5APInt4sextEj", scope: !415, file: !416, line: 1162, type: !472, scopeLine: 1162, flags: DIFlagPublic | DIFlagPrototyped, spFlags: DISPFlagOptimized)
!1063 = !DISubprogram(name: "zext", linkageName: "_ZNK4llvm5APInt4zextEj", scope: !415, file: !416, line: 1169, type: !472, scopeLine: 1169, flags: DIFlagPublic | DIFlagPrototyped, spFlags: DISPFlagOptimized)
!1064 = !DISubprogram(name: "sextOrTrunc", linkageName: "_ZNK4llvm5APInt11sextOrTruncEj", scope: !415, file: !416, line: 1175, type: !472, scopeLine: 1175, flags: DIFlagPublic | DIFlagPrototyped, spFlags: DISPFlagOptimized)
!1065 = !DISubprogram(name: "zextOrTrunc", linkageName: "_ZNK4llvm5APInt11zextOrTruncEj", scope: !415, file: !416, line: 1181, type: !472, scopeLine: 1181, flags: DIFlagPublic | DIFlagPrototyped, spFlags: DISPFlagOptimized)
!1066 = !DISubprogram(name: "sextOrSelf", linkageName: "_ZNK4llvm5APInt10sextOrSelfEj", scope: !415, file: !416, line: 1187, type: !472, scopeLine: 1187, flags: DIFlagPublic | DIFlagPrototyped, spFlags: DISPFlagOptimized)
!1067 = !DISubprogram(name: "zextOrSelf", linkageName: "_ZNK4llvm5APInt10zextOrSelfEj", scope: !415, file: !416, line: 1193, type: !472, scopeLine: 1193, flags: DIFlagPublic | DIFlagPrototyped, spFlags: DISPFlagOptimized)
!1068 = !DISubprogram(name: "setAllBits", linkageName: "_ZN4llvm5APInt10setAllBitsEv", scope: !415, file: !416, line: 1200, type: !509, scopeLine: 1200, flags: DIFlagPublic | DIFlagPrototyped, spFlags: DISPFlagOptimized)
!1069 = !DISubprogram(name: "setBit", linkageName: "_ZN4llvm5APInt6setBitEj", scope: !415, file: !416, line: 1215, type: !1070, scopeLine: 1215, flags: DIFlagPublic | DIFlagPrototyped, spFlags: DISPFlagOptimized)
!1070 = !DISubroutineType(types: !1071)
!1071 = !{null, !430, !6}
!1072 = !DISubprogram(name: "clearAllBits", linkageName: "_ZN4llvm5APInt12clearAllBitsEv", scope: !415, file: !416, line: 1218, type: !509, scopeLine: 1218, flags: DIFlagPublic | DIFlagPrototyped, spFlags: DISPFlagOptimized)
!1073 = !DISubprogram(name: "clearBit", linkageName: "_ZN4llvm5APInt8clearBitEj", scope: !415, file: !416, line: 1228, type: !1070, scopeLine: 1228, flags: DIFlagPublic | DIFlagPrototyped, spFlags: DISPFlagOptimized)
!1074 = !DISubprogram(name: "flipAllBits", linkageName: "_ZN4llvm5APInt11flipAllBitsEv", scope: !415, file: !416, line: 1231, type: !509, scopeLine: 1231, flags: DIFlagPublic | DIFlagPrototyped, spFlags: DISPFlagOptimized)
!1075 = !DISubprogram(name: "flipBit", linkageName: "_ZN4llvm5APInt7flipBitEj", scope: !415, file: !416, line: 1245, type: !1070, scopeLine: 1245, flags: DIFlagPublic | DIFlagPrototyped, spFlags: DISPFlagOptimized)
!1076 = !DISubprogram(name: "getBitWidth", linkageName: "_ZNK4llvm5APInt11getBitWidthEv", scope: !415, file: !416, line: 1252, type: !489, scopeLine: 1252, flags: DIFlagPublic | DIFlagPrototyped, spFlags: DISPFlagOptimized)
!1077 = !DISubprogram(name: "getNumWords", linkageName: "_ZNK4llvm5APInt11getNumWordsEv", scope: !415, file: !416, line: 1259, type: !489, scopeLine: 1259, flags: DIFlagPublic | DIFlagPrototyped, spFlags: DISPFlagOptimized)
!1078 = !DISubprogram(name: "getNumWords", linkageName: "_ZN4llvm5APInt11getNumWordsEj", scope: !415, file: !416, line: 1267, type: !437, scopeLine: 1267, flags: DIFlagPublic | DIFlagPrototyped | DIFlagStaticMember, spFlags: DISPFlagOptimized)
!1079 = !DISubprogram(name: "getActiveBits", linkageName: "_ZNK4llvm5APInt13getActiveBitsEv", scope: !415, file: !416, line: 1276, type: !489, scopeLine: 1276, flags: DIFlagPublic | DIFlagPrototyped, spFlags: DISPFlagOptimized)
!1080 = !DISubprogram(name: "getActiveWords", linkageName: "_ZNK4llvm5APInt14getActiveWordsEv", scope: !415, file: !416, line: 1282, type: !489, scopeLine: 1282, flags: DIFlagPublic | DIFlagPrototyped, spFlags: DISPFlagOptimized)
!1081 = !DISubprogram(name: "getMinSignedBits", linkageName: "_ZNK4llvm5APInt16getMinSignedBitsEv", scope: !415, file: !416, line: 1295, type: !489, scopeLine: 1295, flags: DIFlagPublic | DIFlagPrototyped, spFlags: DISPFlagOptimized)
!1082 = !DISubprogram(name: "getZExtValue", linkageName: "_ZNK4llvm5APInt12getZExtValueEv", scope: !415, file: !416, line: 1306, type: !1083, scopeLine: 1306, flags: DIFlagPublic | DIFlagPrototyped, spFlags: DISPFlagOptimized)
!1083 = !DISubroutineType(types: !1084)
!1084 = !{!423, !434}
!1085 = !DISubprogram(name: "getSExtValue", linkageName: "_ZNK4llvm5APInt12getSExtValueEv", scope: !415, file: !416, line: 1318, type: !1086, scopeLine: 1318, flags: DIFlagPublic | DIFlagPrototyped, spFlags: DISPFlagOptimized)
!1086 = !DISubroutineType(types: !1087)
!1087 = !{!1088, !434}
!1088 = !DIDerivedType(tag: DW_TAG_typedef, name: "int64_t", file: !1089, line: 27, baseType: !1090)
!1089 = !DIFile(filename: "/usr/include/x86_64-linux-gnu/bits/stdint-intn.h", directory: "")
!1090 = !DIDerivedType(tag: DW_TAG_typedef, name: "__int64_t", file: !88, line: 43, baseType: !235)
!1091 = !DISubprogram(name: "getBitsNeeded", linkageName: "_ZN4llvm5APInt13getBitsNeededENS_9StringRefEh", scope: !415, file: !416, line: 1330, type: !1092, scopeLine: 1330, flags: DIFlagPublic | DIFlagPrototyped | DIFlagStaticMember, spFlags: DISPFlagOptimized)
!1092 = !DISubroutineType(types: !1093)
!1093 = !{!6, !306, !452}
!1094 = !DISubprogram(name: "countLeadingZeros", linkageName: "_ZNK4llvm5APInt17countLeadingZerosEv", scope: !415, file: !416, line: 1340, type: !489, scopeLine: 1340, flags: DIFlagPublic | DIFlagPrototyped, spFlags: DISPFlagOptimized)
!1095 = !DISubprogram(name: "countLeadingOnes", linkageName: "_ZNK4llvm5APInt16countLeadingOnesEv", scope: !415, file: !416, line: 1356, type: !489, scopeLine: 1356, flags: DIFlagPublic | DIFlagPrototyped, spFlags: DISPFlagOptimized)
!1096 = !DISubprogram(name: "getNumSignBits", linkageName: "_ZNK4llvm5APInt14getNumSignBitsEv", scope: !415, file: !416, line: 1360, type: !489, scopeLine: 1360, flags: DIFlagPublic | DIFlagPrototyped, spFlags: DISPFlagOptimized)
!1097 = !DISubprogram(name: "countTrailingZeros", linkageName: "_ZNK4llvm5APInt18countTrailingZerosEv", scope: !415, file: !416, line: 1372, type: !489, scopeLine: 1372, flags: DIFlagPublic | DIFlagPrototyped, spFlags: DISPFlagOptimized)
!1098 = !DISubprogram(name: "countTrailingOnes", linkageName: "_ZNK4llvm5APInt17countTrailingOnesEv", scope: !415, file: !416, line: 1382, type: !489, scopeLine: 1382, flags: DIFlagPublic | DIFlagPrototyped, spFlags: DISPFlagOptimized)
!1099 = !DISubprogram(name: "countPopulation", linkageName: "_ZNK4llvm5APInt15countPopulationEv", scope: !415, file: !416, line: 1394, type: !489, scopeLine: 1394, flags: DIFlagPublic | DIFlagPrototyped, spFlags: DISPFlagOptimized)
!1100 = !DISubprogram(name: "print", linkageName: "_ZNK4llvm5APInt5printERNS_11raw_ostreamEb", scope: !415, file: !416, line: 1403, type: !1101, scopeLine: 1403, flags: DIFlagPublic | DIFlagPrototyped, spFlags: DISPFlagOptimized)
!1101 = !DISubroutineType(types: !1102)
!1102 = !{null, !434, !135, !27}
!1103 = !DISubprogram(name: "toString", linkageName: "_ZNK4llvm5APInt8toStringERNS_15SmallVectorImplIcEEjbb", scope: !415, file: !416, line: 1407, type: !1104, scopeLine: 1407, flags: DIFlagPublic | DIFlagPrototyped, spFlags: DISPFlagOptimized)
!1104 = !DISubroutineType(types: !1105)
!1105 = !{null, !434, !1106, !6, !27, !27}
!1106 = !DIDerivedType(tag: DW_TAG_reference_type, baseType: !1107, size: 64)
!1107 = distinct !DICompositeType(tag: DW_TAG_class_type, name: "SmallVectorImpl<char>", scope: !14, file: !522, line: 371, size: 256, flags: DIFlagTypePassByReference | DIFlagNonTrivial, elements: !1108, templateParams: !1285, identifier: "_ZTSN4llvm15SmallVectorImplIcEE")
!1108 = !{!1109, !1224, !1230, !1233, !1236, !1237, !1238, !1241, !1242, !1245, !1248, !1253, !1254, !1258, !1261, !1265, !1268, !1271, !1274, !1278, !1282, !1283, !1284}
!1109 = !DIDerivedType(tag: DW_TAG_inheritance, scope: !1107, baseType: !1110, flags: DIFlagPublic, extraData: i32 0)
!1110 = distinct !DICompositeType(tag: DW_TAG_class_type, name: "SmallVectorTemplateBase<char, true>", scope: !14, file: !522, line: 296, size: 256, flags: DIFlagTypePassByValue | DIFlagNonTrivial, elements: !1111, templateParams: !1223, identifier: "_ZTSN4llvm23SmallVectorTemplateBaseIcLb1EEE")
!1111 = !{!1112, !1209, !1213, !1216, !1217, !1220}
!1112 = !DIDerivedType(tag: DW_TAG_inheritance, scope: !1110, baseType: !1113, flags: DIFlagPublic, extraData: i32 0)
!1113 = distinct !DICompositeType(tag: DW_TAG_class_type, name: "SmallVectorTemplateCommon<char, void>", scope: !14, file: !522, line: 66, size: 256, flags: DIFlagTypePassByValue | DIFlagNonTrivial, elements: !1114, templateParams: !1207, identifier: "_ZTSN4llvm25SmallVectorTemplateCommonIcvEE")
!1114 = !{!1115, !1116, !1132, !1136, !1139, !1144, !1147, !1150, !1154, !1158, !1159, !1160, !1161, !1162, !1167, !1172, !1173, !1174, !1177, !1178, !1181, !1185, !1189, !1194, !1199, !1202, !1205, !1206}
!1115 = !DIDerivedType(tag: DW_TAG_inheritance, scope: !1113, baseType: !534, flags: DIFlagPublic, extraData: i32 0)
!1116 = !DIDerivedType(tag: DW_TAG_member, name: "FirstEl", scope: !1113, file: !522, line: 74, baseType: !1117, size: 8, offset: 192)
!1117 = !DIDerivedType(tag: DW_TAG_typedef, name: "U", scope: !1113, file: !522, line: 73, baseType: !1118)
!1118 = distinct !DICompositeType(tag: DW_TAG_structure_type, name: "AlignedCharArrayUnion<char, char, char, char, char, char, char>", scope: !14, file: !559, line: 199, size: 8, flags: DIFlagTypePassByValue, elements: !1119, templateParams: !1130, identifier: "_ZTSN4llvm21AlignedCharArrayUnionIcccccccEE")
!1119 = !{!1120}
!1120 = !DIDerivedType(tag: DW_TAG_inheritance, scope: !1118, baseType: !1121, extraData: i32 0)
!1121 = distinct !DICompositeType(tag: DW_TAG_structure_type, name: "AlignedCharArray<1, 1>", scope: !14, file: !559, line: 75, size: 8, flags: DIFlagTypePassByValue, elements: !1122, templateParams: !1127, identifier: "_ZTSN4llvm16AlignedCharArrayILm1ELm1EEE")
!1122 = !{!1123}
!1123 = !DIDerivedType(tag: DW_TAG_member, name: "buffer", scope: !1121, file: !559, line: 76, baseType: !1124, size: 8, align: 8)
!1124 = !DICompositeType(tag: DW_TAG_array_type, baseType: !317, size: 8, elements: !1125)
!1125 = !{!1126}
!1126 = !DISubrange(count: 1)
!1127 = !{!1128, !1129}
!1128 = !DITemplateValueParameter(name: "Alignment", type: !313, value: i64 1)
!1129 = !DITemplateValueParameter(name: "Size", type: !313, value: i64 1)
!1130 = !{!1131, !573, !574, !575, !576, !577, !578}
!1131 = !DITemplateTypeParameter(name: "T1", type: !317)
!1132 = !DISubprogram(name: "SmallVectorTemplateCommon", scope: !1113, file: !522, line: 78, type: !1133, scopeLine: 78, flags: DIFlagProtected | DIFlagPrototyped, spFlags: DISPFlagOptimized)
!1133 = !DISubroutineType(types: !1134)
!1134 = !{null, !1135, !311}
!1135 = !DIDerivedType(tag: DW_TAG_pointer_type, baseType: !1113, size: 64, flags: DIFlagArtificial | DIFlagObjectPointer)
!1136 = !DISubprogram(name: "grow_pod", linkageName: "_ZN4llvm25SmallVectorTemplateCommonIcvE8grow_podEmm", scope: !1113, file: !522, line: 80, type: !1137, scopeLine: 80, flags: DIFlagProtected | DIFlagPrototyped, spFlags: DISPFlagOptimized)
!1137 = !DISubroutineType(types: !1138)
!1138 = !{null, !1135, !311, !311}
!1139 = !DISubprogram(name: "isSmall", linkageName: "_ZNK4llvm25SmallVectorTemplateCommonIcvE7isSmallEv", scope: !1113, file: !522, line: 86, type: !1140, scopeLine: 86, flags: DIFlagProtected | DIFlagPrototyped, spFlags: DISPFlagOptimized)
!1140 = !DISubroutineType(types: !1141)
!1141 = !{!27, !1142}
!1142 = !DIDerivedType(tag: DW_TAG_pointer_type, baseType: !1143, size: 64, flags: DIFlagArtificial | DIFlagObjectPointer)
!1143 = !DIDerivedType(tag: DW_TAG_const_type, baseType: !1113)
!1144 = !DISubprogram(name: "resetToSmall", linkageName: "_ZN4llvm25SmallVectorTemplateCommonIcvE12resetToSmallEv", scope: !1113, file: !522, line: 91, type: !1145, scopeLine: 91, flags: DIFlagProtected | DIFlagPrototyped, spFlags: DISPFlagOptimized)
!1145 = !DISubroutineType(types: !1146)
!1146 = !{null, !1135}
!1147 = !DISubprogram(name: "setEnd", linkageName: "_ZN4llvm25SmallVectorTemplateCommonIcvE6setEndEPc", scope: !1113, file: !522, line: 95, type: !1148, scopeLine: 95, flags: DIFlagProtected | DIFlagPrototyped, spFlags: DISPFlagOptimized)
!1148 = !DISubroutineType(types: !1149)
!1149 = !{null, !1135, !874}
!1150 = !DISubprogram(name: "begin", linkageName: "_ZN4llvm25SmallVectorTemplateCommonIcvE5beginEv", scope: !1113, file: !522, line: 112, type: !1151, scopeLine: 112, flags: DIFlagPublic | DIFlagPrototyped, spFlags: DISPFlagOptimized)
!1151 = !DISubroutineType(types: !1152)
!1152 = !{!1153, !1135}
!1153 = !DIDerivedType(tag: DW_TAG_typedef, name: "iterator", scope: !1113, file: !522, line: 100, baseType: !874)
!1154 = !DISubprogram(name: "begin", linkageName: "_ZNK4llvm25SmallVectorTemplateCommonIcvE5beginEv", scope: !1113, file: !522, line: 113, type: !1155, scopeLine: 113, flags: DIFlagPublic | DIFlagPrototyped, spFlags: DISPFlagOptimized)
!1155 = !DISubroutineType(types: !1156)
!1156 = !{!1157, !1142}
!1157 = !DIDerivedType(tag: DW_TAG_typedef, name: "const_iterator", scope: !1113, file: !522, line: 101, baseType: !315)
!1158 = !DISubprogram(name: "end", linkageName: "_ZN4llvm25SmallVectorTemplateCommonIcvE3endEv", scope: !1113, file: !522, line: 114, type: !1151, scopeLine: 114, flags: DIFlagPublic | DIFlagPrototyped, spFlags: DISPFlagOptimized)
!1159 = !DISubprogram(name: "end", linkageName: "_ZNK4llvm25SmallVectorTemplateCommonIcvE3endEv", scope: !1113, file: !522, line: 115, type: !1155, scopeLine: 115, flags: DIFlagPublic | DIFlagPrototyped, spFlags: DISPFlagOptimized)
!1160 = !DISubprogram(name: "capacity_ptr", linkageName: "_ZN4llvm25SmallVectorTemplateCommonIcvE12capacity_ptrEv", scope: !1113, file: !522, line: 117, type: !1151, scopeLine: 117, flags: DIFlagProtected | DIFlagPrototyped, spFlags: DISPFlagOptimized)
!1161 = !DISubprogram(name: "capacity_ptr", linkageName: "_ZNK4llvm25SmallVectorTemplateCommonIcvE12capacity_ptrEv", scope: !1113, file: !522, line: 118, type: !1155, scopeLine: 118, flags: DIFlagProtected | DIFlagPrototyped, spFlags: DISPFlagOptimized)
!1162 = !DISubprogram(name: "rbegin", linkageName: "_ZN4llvm25SmallVectorTemplateCommonIcvE6rbeginEv", scope: !1113, file: !522, line: 122, type: !1163, scopeLine: 122, flags: DIFlagPublic | DIFlagPrototyped, spFlags: DISPFlagOptimized)
!1163 = !DISubroutineType(types: !1164)
!1164 = !{!1165, !1135}
!1165 = !DIDerivedType(tag: DW_TAG_typedef, name: "reverse_iterator", scope: !1113, file: !522, line: 104, baseType: !1166)
!1166 = distinct !DICompositeType(tag: DW_TAG_class_type, name: "reverse_iterator<char *>", scope: !215, file: !214, line: 101, flags: DIFlagFwdDecl, identifier: "_ZTSSt16reverse_iteratorIPcE")
!1167 = !DISubprogram(name: "rbegin", linkageName: "_ZNK4llvm25SmallVectorTemplateCommonIcvE6rbeginEv", scope: !1113, file: !522, line: 123, type: !1168, scopeLine: 123, flags: DIFlagPublic | DIFlagPrototyped, spFlags: DISPFlagOptimized)
!1168 = !DISubroutineType(types: !1169)
!1169 = !{!1170, !1142}
!1170 = !DIDerivedType(tag: DW_TAG_typedef, name: "const_reverse_iterator", scope: !1113, file: !522, line: 103, baseType: !1171)
!1171 = distinct !DICompositeType(tag: DW_TAG_class_type, name: "reverse_iterator<const char *>", scope: !215, file: !214, line: 101, flags: DIFlagFwdDecl, identifier: "_ZTSSt16reverse_iteratorIPKcE")
!1172 = !DISubprogram(name: "rend", linkageName: "_ZN4llvm25SmallVectorTemplateCommonIcvE4rendEv", scope: !1113, file: !522, line: 124, type: !1163, scopeLine: 124, flags: DIFlagPublic | DIFlagPrototyped, spFlags: DISPFlagOptimized)
!1173 = !DISubprogram(name: "rend", linkageName: "_ZNK4llvm25SmallVectorTemplateCommonIcvE4rendEv", scope: !1113, file: !522, line: 125, type: !1168, scopeLine: 125, flags: DIFlagPublic | DIFlagPrototyped, spFlags: DISPFlagOptimized)
!1174 = !DISubprogram(name: "size", linkageName: "_ZNK4llvm25SmallVectorTemplateCommonIcvE4sizeEv", scope: !1113, file: !522, line: 127, type: !1175, scopeLine: 127, flags: DIFlagPublic | DIFlagPrototyped, spFlags: DISPFlagOptimized)
!1175 = !DISubroutineType(types: !1176)
!1176 = !{!627, !1142}
!1177 = !DISubprogram(name: "max_size", linkageName: "_ZNK4llvm25SmallVectorTemplateCommonIcvE8max_sizeEv", scope: !1113, file: !522, line: 128, type: !1175, scopeLine: 128, flags: DIFlagPublic | DIFlagPrototyped, spFlags: DISPFlagOptimized)
!1178 = !DISubprogram(name: "capacity", linkageName: "_ZNK4llvm25SmallVectorTemplateCommonIcvE8capacityEv", scope: !1113, file: !522, line: 132, type: !1179, scopeLine: 132, flags: DIFlagPublic | DIFlagPrototyped, spFlags: DISPFlagOptimized)
!1179 = !DISubroutineType(types: !1180)
!1180 = !{!311, !1142}
!1181 = !DISubprogram(name: "data", linkageName: "_ZN4llvm25SmallVectorTemplateCommonIcvE4dataEv", scope: !1113, file: !522, line: 135, type: !1182, scopeLine: 135, flags: DIFlagPublic | DIFlagPrototyped, spFlags: DISPFlagOptimized)
!1182 = !DISubroutineType(types: !1183)
!1183 = !{!1184, !1135}
!1184 = !DIDerivedType(tag: DW_TAG_typedef, name: "pointer", scope: !1113, file: !522, line: 108, baseType: !874)
!1185 = !DISubprogram(name: "data", linkageName: "_ZNK4llvm25SmallVectorTemplateCommonIcvE4dataEv", scope: !1113, file: !522, line: 137, type: !1186, scopeLine: 137, flags: DIFlagPublic | DIFlagPrototyped, spFlags: DISPFlagOptimized)
!1186 = !DISubroutineType(types: !1187)
!1187 = !{!1188, !1142}
!1188 = !DIDerivedType(tag: DW_TAG_typedef, name: "const_pointer", scope: !1113, file: !522, line: 109, baseType: !315)
!1189 = !DISubprogram(name: "operator[]", linkageName: "_ZN4llvm25SmallVectorTemplateCommonIcvEixEj", scope: !1113, file: !522, line: 139, type: !1190, scopeLine: 139, flags: DIFlagPublic | DIFlagPrototyped, spFlags: DISPFlagOptimized)
!1190 = !DISubroutineType(types: !1191)
!1191 = !{!1192, !1135, !6}
!1192 = !DIDerivedType(tag: DW_TAG_typedef, name: "reference", scope: !1113, file: !522, line: 106, baseType: !1193)
!1193 = !DIDerivedType(tag: DW_TAG_reference_type, baseType: !317, size: 64)
!1194 = !DISubprogram(name: "operator[]", linkageName: "_ZNK4llvm25SmallVectorTemplateCommonIcvEixEj", scope: !1113, file: !522, line: 143, type: !1195, scopeLine: 143, flags: DIFlagPublic | DIFlagPrototyped, spFlags: DISPFlagOptimized)
!1195 = !DISubroutineType(types: !1196)
!1196 = !{!1197, !1142, !6}
!1197 = !DIDerivedType(tag: DW_TAG_typedef, name: "const_reference", scope: !1113, file: !522, line: 107, baseType: !1198)
!1198 = !DIDerivedType(tag: DW_TAG_reference_type, baseType: !316, size: 64)
!1199 = !DISubprogram(name: "front", linkageName: "_ZN4llvm25SmallVectorTemplateCommonIcvE5frontEv", scope: !1113, file: !522, line: 148, type: !1200, scopeLine: 148, flags: DIFlagPublic | DIFlagPrototyped, spFlags: DISPFlagOptimized)
!1200 = !DISubroutineType(types: !1201)
!1201 = !{!1192, !1135}
!1202 = !DISubprogram(name: "front", linkageName: "_ZNK4llvm25SmallVectorTemplateCommonIcvE5frontEv", scope: !1113, file: !522, line: 152, type: !1203, scopeLine: 152, flags: DIFlagPublic | DIFlagPrototyped, spFlags: DISPFlagOptimized)
!1203 = !DISubroutineType(types: !1204)
!1204 = !{!1197, !1142}
!1205 = !DISubprogram(name: "back", linkageName: "_ZN4llvm25SmallVectorTemplateCommonIcvE4backEv", scope: !1113, file: !522, line: 157, type: !1200, scopeLine: 157, flags: DIFlagPublic | DIFlagPrototyped, spFlags: DISPFlagOptimized)
!1206 = !DISubprogram(name: "back", linkageName: "_ZNK4llvm25SmallVectorTemplateCommonIcvE4backEv", scope: !1113, file: !522, line: 161, type: !1203, scopeLine: 161, flags: DIFlagPublic | DIFlagPrototyped, spFlags: DISPFlagOptimized)
!1207 = !{!1208, !660}
!1208 = !DITemplateTypeParameter(name: "T", type: !317)
!1209 = !DISubprogram(name: "SmallVectorTemplateBase", scope: !1110, file: !522, line: 298, type: !1210, scopeLine: 298, flags: DIFlagProtected | DIFlagPrototyped, spFlags: DISPFlagOptimized)
!1210 = !DISubroutineType(types: !1211)
!1211 = !{null, !1212, !311}
!1212 = !DIDerivedType(tag: DW_TAG_pointer_type, baseType: !1110, size: 64, flags: DIFlagArtificial | DIFlagObjectPointer)
!1213 = !DISubprogram(name: "destroy_range", linkageName: "_ZN4llvm23SmallVectorTemplateBaseIcLb1EE13destroy_rangeEPcS2_", scope: !1110, file: !522, line: 301, type: !1214, scopeLine: 301, flags: DIFlagProtected | DIFlagPrototyped | DIFlagStaticMember, spFlags: DISPFlagOptimized)
!1214 = !DISubroutineType(types: !1215)
!1215 = !{null, !874, !874}
!1216 = !DISubprogram(name: "grow", linkageName: "_ZN4llvm23SmallVectorTemplateBaseIcLb1EE4growEm", scope: !1110, file: !522, line: 346, type: !1210, scopeLine: 346, flags: DIFlagProtected | DIFlagPrototyped, spFlags: DISPFlagOptimized)
!1217 = !DISubprogram(name: "push_back", linkageName: "_ZN4llvm23SmallVectorTemplateBaseIcLb1EE9push_backERKc", scope: !1110, file: !522, line: 350, type: !1218, scopeLine: 350, flags: DIFlagPublic | DIFlagPrototyped, spFlags: DISPFlagOptimized)
!1218 = !DISubroutineType(types: !1219)
!1219 = !{null, !1212, !1198}
!1220 = !DISubprogram(name: "pop_back", linkageName: "_ZN4llvm23SmallVectorTemplateBaseIcLb1EE8pop_backEv", scope: !1110, file: !522, line: 361, type: !1221, scopeLine: 361, flags: DIFlagPublic | DIFlagPrototyped, spFlags: DISPFlagOptimized)
!1221 = !DISubroutineType(types: !1222)
!1222 = !{null, !1212}
!1223 = !{!1208, !676}
!1224 = !DISubprogram(name: "SmallVectorImpl", scope: !1107, file: !522, line: 374, type: !1225, scopeLine: 374, flags: DIFlagPrototyped, spFlags: DISPFlagOptimized | DISPFlagDeleted)
!1225 = !DISubroutineType(types: !1226)
!1226 = !{null, !1227, !1228}
!1227 = !DIDerivedType(tag: DW_TAG_pointer_type, baseType: !1107, size: 64, flags: DIFlagArtificial | DIFlagObjectPointer)
!1228 = !DIDerivedType(tag: DW_TAG_reference_type, baseType: !1229, size: 64)
!1229 = !DIDerivedType(tag: DW_TAG_const_type, baseType: !1107)
!1230 = !DISubprogram(name: "SmallVectorImpl", scope: !1107, file: !522, line: 381, type: !1231, scopeLine: 381, flags: DIFlagProtected | DIFlagExplicit | DIFlagPrototyped, spFlags: DISPFlagOptimized)
!1231 = !DISubroutineType(types: !1232)
!1232 = !{null, !1227, !6}
!1233 = !DISubprogram(name: "~SmallVectorImpl", scope: !1107, file: !522, line: 386, type: !1234, scopeLine: 386, flags: DIFlagPublic | DIFlagPrototyped, spFlags: DISPFlagOptimized)
!1234 = !DISubroutineType(types: !1235)
!1235 = !{null, !1227}
!1236 = !DISubprogram(name: "clear", linkageName: "_ZN4llvm15SmallVectorImplIcE5clearEv", scope: !1107, file: !522, line: 396, type: !1234, scopeLine: 396, flags: DIFlagPublic | DIFlagPrototyped, spFlags: DISPFlagOptimized)
!1237 = !DISubprogram(name: "resize", linkageName: "_ZN4llvm15SmallVectorImplIcE6resizeEj", scope: !1107, file: !522, line: 401, type: !1231, scopeLine: 401, flags: DIFlagPublic | DIFlagPrototyped, spFlags: DISPFlagOptimized)
!1238 = !DISubprogram(name: "resize", linkageName: "_ZN4llvm15SmallVectorImplIcE6resizeEjRKc", scope: !1107, file: !522, line: 413, type: !1239, scopeLine: 413, flags: DIFlagPublic | DIFlagPrototyped, spFlags: DISPFlagOptimized)
!1239 = !DISubroutineType(types: !1240)
!1240 = !{null, !1227, !6, !1198}
!1241 = !DISubprogram(name: "reserve", linkageName: "_ZN4llvm15SmallVectorImplIcE7reserveEj", scope: !1107, file: !522, line: 425, type: !1231, scopeLine: 425, flags: DIFlagPublic | DIFlagPrototyped, spFlags: DISPFlagOptimized)
!1242 = !DISubprogram(name: "pop_back_val", linkageName: "_ZN4llvm15SmallVectorImplIcE12pop_back_valEv", scope: !1107, file: !522, line: 430, type: !1243, scopeLine: 430, flags: DIFlagPublic | DIFlagPrototyped, spFlags: DISPFlagOptimized)
!1243 = !DISubroutineType(types: !1244)
!1244 = !{!317, !1227}
!1245 = !DISubprogram(name: "swap", linkageName: "_ZN4llvm15SmallVectorImplIcE4swapERS1_", scope: !1107, file: !522, line: 440, type: !1246, scopeLine: 440, flags: DIFlagPublic | DIFlagPrototyped, spFlags: DISPFlagOptimized)
!1246 = !DISubroutineType(types: !1247)
!1247 = !{null, !1227, !1106}
!1248 = !DISubprogram(name: "append", linkageName: "_ZN4llvm15SmallVectorImplIcE6appendEmRKc", scope: !1107, file: !522, line: 460, type: !1249, scopeLine: 460, flags: DIFlagPublic | DIFlagPrototyped, spFlags: DISPFlagOptimized)
!1249 = !DISubroutineType(types: !1250)
!1250 = !{null, !1227, !1251, !1198}
!1251 = !DIDerivedType(tag: DW_TAG_typedef, name: "size_type", scope: !1107, file: !522, line: 377, baseType: !1252)
!1252 = !DIDerivedType(tag: DW_TAG_typedef, name: "size_type", scope: !1113, file: !522, line: 97, baseType: !311)
!1253 = !DISubprogram(name: "assign", linkageName: "_ZN4llvm15SmallVectorImplIcE6assignEjRKc", scope: !1107, file: !522, line: 470, type: !1239, scopeLine: 470, flags: DIFlagPublic | DIFlagPrototyped, spFlags: DISPFlagOptimized)
!1254 = !DISubprogram(name: "erase", linkageName: "_ZN4llvm15SmallVectorImplIcE5eraseEPc", scope: !1107, file: !522, line: 478, type: !1255, scopeLine: 478, flags: DIFlagPublic | DIFlagPrototyped, spFlags: DISPFlagOptimized)
!1255 = !DISubroutineType(types: !1256)
!1256 = !{!1257, !1227, !1257}
!1257 = !DIDerivedType(tag: DW_TAG_typedef, name: "iterator", scope: !1107, file: !522, line: 376, baseType: !1153)
!1258 = !DISubprogram(name: "erase", linkageName: "_ZN4llvm15SmallVectorImplIcE5eraseEPcS2_", scope: !1107, file: !522, line: 490, type: !1259, scopeLine: 490, flags: DIFlagPublic | DIFlagPrototyped, spFlags: DISPFlagOptimized)
!1259 = !DISubroutineType(types: !1260)
!1260 = !{!1257, !1227, !1257, !1257}
!1261 = !DISubprogram(name: "insert", linkageName: "_ZN4llvm15SmallVectorImplIcE6insertEPcOc", scope: !1107, file: !522, line: 505, type: !1262, scopeLine: 505, flags: DIFlagPublic | DIFlagPrototyped, spFlags: DISPFlagOptimized)
!1262 = !DISubroutineType(types: !1263)
!1263 = !{!1257, !1227, !1257, !1264}
!1264 = !DIDerivedType(tag: DW_TAG_rvalue_reference_type, baseType: !317, size: 64)
!1265 = !DISubprogram(name: "insert", linkageName: "_ZN4llvm15SmallVectorImplIcE6insertEPcRKc", scope: !1107, file: !522, line: 537, type: !1266, scopeLine: 537, flags: DIFlagPublic | DIFlagPrototyped, spFlags: DISPFlagOptimized)
!1266 = !DISubroutineType(types: !1267)
!1267 = !{!1257, !1227, !1257, !1198}
!1268 = !DISubprogram(name: "insert", linkageName: "_ZN4llvm15SmallVectorImplIcE6insertEPcmRKc", scope: !1107, file: !522, line: 568, type: !1269, scopeLine: 568, flags: DIFlagPublic | DIFlagPrototyped, spFlags: DISPFlagOptimized)
!1269 = !DISubroutineType(types: !1270)
!1270 = !{!1257, !1227, !1257, !1251, !1198}
!1271 = !DISubprogram(name: "operator=", linkageName: "_ZN4llvm15SmallVectorImplIcEaSERKS1_", scope: !1107, file: !522, line: 674, type: !1272, scopeLine: 674, flags: DIFlagPublic | DIFlagPrototyped, spFlags: DISPFlagOptimized)
!1272 = !DISubroutineType(types: !1273)
!1273 = !{!1106, !1227, !1228}
!1274 = !DISubprogram(name: "operator=", linkageName: "_ZN4llvm15SmallVectorImplIcEaSEOS1_", scope: !1107, file: !522, line: 677, type: !1275, scopeLine: 677, flags: DIFlagPublic | DIFlagPrototyped, spFlags: DISPFlagOptimized)
!1275 = !DISubroutineType(types: !1276)
!1276 = !{!1106, !1227, !1277}
!1277 = !DIDerivedType(tag: DW_TAG_rvalue_reference_type, baseType: !1107, size: 64)
!1278 = !DISubprogram(name: "operator==", linkageName: "_ZNK4llvm15SmallVectorImplIcEeqERKS1_", scope: !1107, file: !522, line: 680, type: !1279, scopeLine: 680, flags: DIFlagPublic | DIFlagPrototyped, spFlags: DISPFlagOptimized)
!1279 = !DISubroutineType(types: !1280)
!1280 = !{!27, !1281, !1228}
!1281 = !DIDerivedType(tag: DW_TAG_pointer_type, baseType: !1229, size: 64, flags: DIFlagArtificial | DIFlagObjectPointer)
!1282 = !DISubprogram(name: "operator!=", linkageName: "_ZNK4llvm15SmallVectorImplIcEneERKS1_", scope: !1107, file: !522, line: 684, type: !1279, scopeLine: 684, flags: DIFlagPublic | DIFlagPrototyped, spFlags: DISPFlagOptimized)
!1283 = !DISubprogram(name: "operator<", linkageName: "_ZNK4llvm15SmallVectorImplIcEltERKS1_", scope: !1107, file: !522, line: 688, type: !1279, scopeLine: 688, flags: DIFlagPublic | DIFlagPrototyped, spFlags: DISPFlagOptimized)
!1284 = !DISubprogram(name: "set_size", linkageName: "_ZN4llvm15SmallVectorImplIcE8set_sizeEj", scope: !1107, file: !522, line: 702, type: !1231, scopeLine: 702, flags: DIFlagPublic | DIFlagPrototyped, spFlags: DISPFlagOptimized)
!1285 = !{!1208}
!1286 = !DISubprogram(name: "toStringUnsigned", linkageName: "_ZNK4llvm5APInt16toStringUnsignedERNS_15SmallVectorImplIcEEj", scope: !415, file: !416, line: 1412, type: !1287, scopeLine: 1412, flags: DIFlagPublic | DIFlagPrototyped, spFlags: DISPFlagOptimized)
!1287 = !DISubroutineType(types: !1288)
!1288 = !{null, !434, !1106, !6}
!1289 = !DISubprogram(name: "toStringSigned", linkageName: "_ZNK4llvm5APInt14toStringSignedERNS_15SmallVectorImplIcEEj", scope: !415, file: !416, line: 1418, type: !1287, scopeLine: 1418, flags: DIFlagPublic | DIFlagPrototyped, spFlags: DISPFlagOptimized)
!1290 = !DISubprogram(name: "toString", linkageName: "_ZNK4llvm5APInt8toStringB5cxx11Ejb", scope: !415, file: !416, line: 1427, type: !1291, scopeLine: 1427, flags: DIFlagPublic | DIFlagPrototyped, spFlags: DISPFlagOptimized)
!1291 = !DISubroutineType(types: !1292)
!1292 = !{!341, !434, !6, !27}
!1293 = !DISubprogram(name: "byteSwap", linkageName: "_ZNK4llvm5APInt8byteSwapEv", scope: !415, file: !416, line: 1430, type: !970, scopeLine: 1430, flags: DIFlagPublic | DIFlagPrototyped, spFlags: DISPFlagOptimized)
!1294 = !DISubprogram(name: "roundToDouble", linkageName: "_ZNK4llvm5APInt13roundToDoubleEb", scope: !415, file: !416, line: 1433, type: !1295, scopeLine: 1433, flags: DIFlagPublic | DIFlagPrototyped, spFlags: DISPFlagOptimized)
!1295 = !DISubroutineType(types: !1296)
!1296 = !{!1297, !434, !27}
!1297 = !DIBasicType(name: "double", size: 64, encoding: DW_ATE_float)
!1298 = !DISubprogram(name: "roundToDouble", linkageName: "_ZNK4llvm5APInt13roundToDoubleEv", scope: !415, file: !416, line: 1436, type: !1299, scopeLine: 1436, flags: DIFlagPublic | DIFlagPrototyped, spFlags: DISPFlagOptimized)
!1299 = !DISubroutineType(types: !1300)
!1300 = !{!1297, !434}
!1301 = !DISubprogram(name: "signedRoundToDouble", linkageName: "_ZNK4llvm5APInt19signedRoundToDoubleEv", scope: !415, file: !416, line: 1439, type: !1299, scopeLine: 1439, flags: DIFlagPublic | DIFlagPrototyped, spFlags: DISPFlagOptimized)
!1302 = !DISubprogram(name: "bitsToDouble", linkageName: "_ZNK4llvm5APInt12bitsToDoubleEv", scope: !415, file: !416, line: 1446, type: !1299, scopeLine: 1446, flags: DIFlagPublic | DIFlagPrototyped, spFlags: DISPFlagOptimized)
!1303 = !DISubprogram(name: "bitsToFloat", linkageName: "_ZNK4llvm5APInt11bitsToFloatEv", scope: !415, file: !416, line: 1460, type: !1304, scopeLine: 1460, flags: DIFlagPublic | DIFlagPrototyped, spFlags: DISPFlagOptimized)
!1304 = !DISubroutineType(types: !1305)
!1305 = !{!1306, !434}
!1306 = !DIBasicType(name: "float", size: 32, encoding: DW_ATE_float)
!1307 = !DISubprogram(name: "doubleToBits", linkageName: "_ZN4llvm5APInt12doubleToBitsEd", scope: !415, file: !416, line: 1473, type: !1308, scopeLine: 1473, flags: DIFlagPublic | DIFlagPrototyped | DIFlagStaticMember, spFlags: DISPFlagOptimized)
!1308 = !DISubroutineType(types: !1309)
!1309 = !{!415, !1297}
!1310 = !DISubprogram(name: "floatToBits", linkageName: "_ZN4llvm5APInt11floatToBitsEf", scope: !415, file: !416, line: 1486, type: !1311, scopeLine: 1486, flags: DIFlagPublic | DIFlagPrototyped | DIFlagStaticMember, spFlags: DISPFlagOptimized)
!1311 = !DISubroutineType(types: !1312)
!1312 = !{!415, !1306}
!1313 = !DISubprogram(name: "logBase2", linkageName: "_ZNK4llvm5APInt8logBase2Ev", scope: !415, file: !416, line: 1500, type: !489, scopeLine: 1500, flags: DIFlagPublic | DIFlagPrototyped, spFlags: DISPFlagOptimized)
!1314 = !DISubprogram(name: "ceilLogBase2", linkageName: "_ZNK4llvm5APInt12ceilLogBase2Ev", scope: !415, file: !416, line: 1503, type: !489, scopeLine: 1503, flags: DIFlagPublic | DIFlagPrototyped, spFlags: DISPFlagOptimized)
!1315 = !DISubprogram(name: "exactLogBase2", linkageName: "_ZNK4llvm5APInt13exactLogBase2Ev", scope: !415, file: !416, line: 1509, type: !1316, scopeLine: 1509, flags: DIFlagPublic | DIFlagPrototyped, spFlags: DISPFlagOptimized)
!1316 = !DISubroutineType(types: !1317)
!1317 = !{!1318, !434}
!1318 = !DIDerivedType(tag: DW_TAG_typedef, name: "int32_t", file: !1089, line: 26, baseType: !1319)
!1319 = !DIDerivedType(tag: DW_TAG_typedef, name: "__int32_t", file: !88, line: 40, baseType: !196)
!1320 = !DISubprogram(name: "sqrt", linkageName: "_ZNK4llvm5APInt4sqrtEv", scope: !415, file: !416, line: 1516, type: !970, scopeLine: 1516, flags: DIFlagPublic | DIFlagPrototyped, spFlags: DISPFlagOptimized)
!1321 = !DISubprogram(name: "abs", linkageName: "_ZNK4llvm5APInt3absEv", scope: !415, file: !416, line: 1521, type: !970, scopeLine: 1521, flags: DIFlagPublic | DIFlagPrototyped, spFlags: DISPFlagOptimized)
!1322 = !DISubprogram(name: "multiplicativeInverse", linkageName: "_ZNK4llvm5APInt21multiplicativeInverseERKS0_", scope: !415, file: !416, line: 1528, type: !475, scopeLine: 1528, flags: DIFlagPublic | DIFlagPrototyped, spFlags: DISPFlagOptimized)
!1323 = !DISubprogram(name: "magic", linkageName: "_ZNK4llvm5APInt5magicEv", scope: !415, file: !416, line: 1536, type: !1324, scopeLine: 1536, flags: DIFlagPublic | DIFlagPrototyped, spFlags: DISPFlagOptimized)
!1324 = !DISubroutineType(types: !1325)
!1325 = !{!1326, !434}
!1326 = distinct !DICompositeType(tag: DW_TAG_structure_type, name: "ms", scope: !415, file: !416, line: 1672, flags: DIFlagFwdDecl, identifier: "_ZTSN4llvm5APInt2msE")
!1327 = !DISubprogram(name: "magicu", linkageName: "_ZNK4llvm5APInt6magicuEj", scope: !415, file: !416, line: 1540, type: !1328, scopeLine: 1540, flags: DIFlagPublic | DIFlagPrototyped, spFlags: DISPFlagOptimized)
!1328 = !DISubroutineType(types: !1329)
!1329 = !{!1330, !434, !6}
!1330 = distinct !DICompositeType(tag: DW_TAG_structure_type, name: "mu", scope: !415, file: !416, line: 1678, flags: DIFlagFwdDecl, identifier: "_ZTSN4llvm5APInt2muE")
!1331 = !DISubprogram(name: "tcSet", linkageName: "_ZN4llvm5APInt5tcSetEPmmj", scope: !415, file: !416, line: 1554, type: !1332, scopeLine: 1554, flags: DIFlagPublic | DIFlagPrototyped | DIFlagStaticMember, spFlags: DISPFlagOptimized)
!1332 = !DISubroutineType(types: !1333)
!1333 = !{null, !1334, !1335, !6}
!1334 = !DIDerivedType(tag: DW_TAG_pointer_type, baseType: !1335, size: 64)
!1335 = !DIDerivedType(tag: DW_TAG_typedef, name: "integerPart", scope: !14, file: !416, line: 39, baseType: !423)
!1336 = !DISubprogram(name: "tcAssign", linkageName: "_ZN4llvm5APInt8tcAssignEPmPKmj", scope: !415, file: !416, line: 1557, type: !1337, scopeLine: 1557, flags: DIFlagPublic | DIFlagPrototyped | DIFlagStaticMember, spFlags: DISPFlagOptimized)
!1337 = !DISubroutineType(types: !1338)
!1338 = !{null, !1334, !1339, !6}
!1339 = !DIDerivedType(tag: DW_TAG_pointer_type, baseType: !1340, size: 64)
!1340 = !DIDerivedType(tag: DW_TAG_const_type, baseType: !1335)
!1341 = !DISubprogram(name: "tcIsZero", linkageName: "_ZN4llvm5APInt8tcIsZeroEPKmj", scope: !415, file: !416, line: 1560, type: !1342, scopeLine: 1560, flags: DIFlagPublic | DIFlagPrototyped | DIFlagStaticMember, spFlags: DISPFlagOptimized)
!1342 = !DISubroutineType(types: !1343)
!1343 = !{!27, !1339, !6}
!1344 = !DISubprogram(name: "tcExtractBit", linkageName: "_ZN4llvm5APInt12tcExtractBitEPKmj", scope: !415, file: !416, line: 1563, type: !1345, scopeLine: 1563, flags: DIFlagPublic | DIFlagPrototyped | DIFlagStaticMember, spFlags: DISPFlagOptimized)
!1345 = !DISubroutineType(types: !1346)
!1346 = !{!196, !1339, !6}
!1347 = !DISubprogram(name: "tcExtract", linkageName: "_ZN4llvm5APInt9tcExtractEPmjPKmjj", scope: !415, file: !416, line: 1569, type: !1348, scopeLine: 1569, flags: DIFlagPublic | DIFlagPrototyped | DIFlagStaticMember, spFlags: DISPFlagOptimized)
!1348 = !DISubroutineType(types: !1349)
!1349 = !{null, !1334, !6, !1339, !6, !6}
!1350 = !DISubprogram(name: "tcSetBit", linkageName: "_ZN4llvm5APInt8tcSetBitEPmj", scope: !415, file: !416, line: 1574, type: !1351, scopeLine: 1574, flags: DIFlagPublic | DIFlagPrototyped | DIFlagStaticMember, spFlags: DISPFlagOptimized)
!1351 = !DISubroutineType(types: !1352)
!1352 = !{null, !1334, !6}
!1353 = !DISubprogram(name: "tcClearBit", linkageName: "_ZN4llvm5APInt10tcClearBitEPmj", scope: !415, file: !416, line: 1577, type: !1351, scopeLine: 1577, flags: DIFlagPublic | DIFlagPrototyped | DIFlagStaticMember, spFlags: DISPFlagOptimized)
!1354 = !DISubprogram(name: "tcLSB", linkageName: "_ZN4llvm5APInt5tcLSBEPKmj", scope: !415, file: !416, line: 1581, type: !1355, scopeLine: 1581, flags: DIFlagPublic | DIFlagPrototyped | DIFlagStaticMember, spFlags: DISPFlagOptimized)
!1355 = !DISubroutineType(types: !1356)
!1356 = !{!6, !1339, !6}
!1357 = !DISubprogram(name: "tcMSB", linkageName: "_ZN4llvm5APInt5tcMSBEPKmj", scope: !415, file: !416, line: 1582, type: !1355, scopeLine: 1582, flags: DIFlagPublic | DIFlagPrototyped | DIFlagStaticMember, spFlags: DISPFlagOptimized)
!1358 = !DISubprogram(name: "tcNegate", linkageName: "_ZN4llvm5APInt8tcNegateEPmj", scope: !415, file: !416, line: 1585, type: !1351, scopeLine: 1585, flags: DIFlagPublic | DIFlagPrototyped | DIFlagStaticMember, spFlags: DISPFlagOptimized)
!1359 = !DISubprogram(name: "tcAdd", linkageName: "_ZN4llvm5APInt5tcAddEPmPKmmj", scope: !415, file: !416, line: 1588, type: !1360, scopeLine: 1588, flags: DIFlagPublic | DIFlagPrototyped | DIFlagStaticMember, spFlags: DISPFlagOptimized)
!1360 = !DISubroutineType(types: !1361)
!1361 = !{!1335, !1334, !1339, !1335, !6}
!1362 = !DISubprogram(name: "tcSubtract", linkageName: "_ZN4llvm5APInt10tcSubtractEPmPKmmj", scope: !415, file: !416, line: 1592, type: !1360, scopeLine: 1592, flags: DIFlagPublic | DIFlagPrototyped | DIFlagStaticMember, spFlags: DISPFlagOptimized)
!1363 = !DISubprogram(name: "tcMultiplyPart", linkageName: "_ZN4llvm5APInt14tcMultiplyPartEPmPKmmmjjb", scope: !415, file: !416, line: 1605, type: !1364, scopeLine: 1605, flags: DIFlagPublic | DIFlagPrototyped | DIFlagStaticMember, spFlags: DISPFlagOptimized)
!1364 = !DISubroutineType(types: !1365)
!1365 = !{!196, !1334, !1339, !1335, !1335, !6, !6, !27}
!1366 = !DISubprogram(name: "tcMultiply", linkageName: "_ZN4llvm5APInt10tcMultiplyEPmPKmS3_j", scope: !415, file: !416, line: 1614, type: !1367, scopeLine: 1614, flags: DIFlagPublic | DIFlagPrototyped | DIFlagStaticMember, spFlags: DISPFlagOptimized)
!1367 = !DISubroutineType(types: !1368)
!1368 = !{!196, !1334, !1339, !1339, !6}
!1369 = !DISubprogram(name: "tcFullMultiply", linkageName: "_ZN4llvm5APInt14tcFullMultiplyEPmPKmS3_jj", scope: !415, file: !416, line: 1620, type: !1370, scopeLine: 1620, flags: DIFlagPublic | DIFlagPrototyped | DIFlagStaticMember, spFlags: DISPFlagOptimized)
!1370 = !DISubroutineType(types: !1371)
!1371 = !{!6, !1334, !1339, !1339, !6, !6}
!1372 = !DISubprogram(name: "tcDivide", linkageName: "_ZN4llvm5APInt8tcDivideEPmPKmS1_S1_j", scope: !415, file: !416, line: 1632, type: !1373, scopeLine: 1632, flags: DIFlagPublic | DIFlagPrototyped | DIFlagStaticMember, spFlags: DISPFlagOptimized)
!1373 = !DISubroutineType(types: !1374)
!1374 = !{!196, !1334, !1339, !1334, !1334, !6}
!1375 = !DISubprogram(name: "tcShiftLeft", linkageName: "_ZN4llvm5APInt11tcShiftLeftEPmjj", scope: !415, file: !416, line: 1638, type: !1376, scopeLine: 1638, flags: DIFlagPublic | DIFlagPrototyped | DIFlagStaticMember, spFlags: DISPFlagOptimized)
!1376 = !DISubroutineType(types: !1377)
!1377 = !{null, !1334, !6, !6}
!1378 = !DISubprogram(name: "tcShiftRight", linkageName: "_ZN4llvm5APInt12tcShiftRightEPmjj", scope: !415, file: !416, line: 1643, type: !1376, scopeLine: 1643, flags: DIFlagPublic | DIFlagPrototyped | DIFlagStaticMember, spFlags: DISPFlagOptimized)
!1379 = !DISubprogram(name: "tcAnd", linkageName: "_ZN4llvm5APInt5tcAndEPmPKmj", scope: !415, file: !416, line: 1647, type: !1337, scopeLine: 1647, flags: DIFlagPublic | DIFlagPrototyped | DIFlagStaticMember, spFlags: DISPFlagOptimized)
!1380 = !DISubprogram(name: "tcOr", linkageName: "_ZN4llvm5APInt4tcOrEPmPKmj", scope: !415, file: !416, line: 1648, type: !1337, scopeLine: 1648, flags: DIFlagPublic | DIFlagPrototyped | DIFlagStaticMember, spFlags: DISPFlagOptimized)
!1381 = !DISubprogram(name: "tcXor", linkageName: "_ZN4llvm5APInt5tcXorEPmPKmj", scope: !415, file: !416, line: 1649, type: !1337, scopeLine: 1649, flags: DIFlagPublic | DIFlagPrototyped | DIFlagStaticMember, spFlags: DISPFlagOptimized)
!1382 = !DISubprogram(name: "tcComplement", linkageName: "_ZN4llvm5APInt12tcComplementEPmj", scope: !415, file: !416, line: 1650, type: !1351, scopeLine: 1650, flags: DIFlagPublic | DIFlagPrototyped | DIFlagStaticMember, spFlags: DISPFlagOptimized)
!1383 = !DISubprogram(name: "tcCompare", linkageName: "_ZN4llvm5APInt9tcCompareEPKmS2_j", scope: !415, file: !416, line: 1653, type: !1384, scopeLine: 1653, flags: DIFlagPublic | DIFlagPrototyped | DIFlagStaticMember, spFlags: DISPFlagOptimized)
!1384 = !DISubroutineType(types: !1385)
!1385 = !{!196, !1339, !1339, !6}
!1386 = !DISubprogram(name: "tcIncrement", linkageName: "_ZN4llvm5APInt11tcIncrementEPmj", scope: !415, file: !416, line: 1656, type: !1387, scopeLine: 1656, flags: DIFlagPublic | DIFlagPrototyped | DIFlagStaticMember, spFlags: DISPFlagOptimized)
!1387 = !DISubroutineType(types: !1388)
!1388 = !{!1335, !1334, !6}
!1389 = !DISubprogram(name: "tcDecrement", linkageName: "_ZN4llvm5APInt11tcDecrementEPmj", scope: !415, file: !416, line: 1659, type: !1387, scopeLine: 1659, flags: DIFlagPublic | DIFlagPrototyped | DIFlagStaticMember, spFlags: DISPFlagOptimized)
!1390 = !DISubprogram(name: "tcSetLeastSignificantBits", linkageName: "_ZN4llvm5APInt25tcSetLeastSignificantBitsEPmjj", scope: !415, file: !416, line: 1662, type: !1376, scopeLine: 1662, flags: DIFlagPublic | DIFlagPrototyped | DIFlagStaticMember, spFlags: DISPFlagOptimized)
!1391 = !DISubprogram(name: "dump", linkageName: "_ZNK4llvm5APInt4dumpEv", scope: !415, file: !416, line: 1666, type: !1392, scopeLine: 1666, flags: DIFlagPublic | DIFlagPrototyped, spFlags: DISPFlagOptimized)
!1392 = !DISubroutineType(types: !1393)
!1393 = !{null, !434}
!1394 = !DISubprogram(name: "lower", linkageName: "_ZNK4llvm9StringRef5lowerB5cxx11Ev", scope: !306, file: !307, line: 374, type: !379, scopeLine: 374, flags: DIFlagPublic | DIFlagPrototyped, spFlags: DISPFlagOptimized)
!1395 = !DISubprogram(name: "upper", linkageName: "_ZNK4llvm9StringRef5upperB5cxx11Ev", scope: !306, file: !307, line: 377, type: !379, scopeLine: 377, flags: DIFlagPublic | DIFlagPrototyped, spFlags: DISPFlagOptimized)
!1396 = !DISubprogram(name: "substr", linkageName: "_ZNK4llvm9StringRef6substrEmm", scope: !306, file: !307, line: 392, type: !1397, scopeLine: 392, flags: DIFlagPublic | DIFlagPrototyped, spFlags: DISPFlagOptimized)
!1397 = !DISubroutineType(types: !1398)
!1398 = !{!306, !350, !311, !311}
!1399 = !DISubprogram(name: "drop_front", linkageName: "_ZNK4llvm9StringRef10drop_frontEm", scope: !306, file: !307, line: 399, type: !1400, scopeLine: 399, flags: DIFlagPublic | DIFlagPrototyped, spFlags: DISPFlagOptimized)
!1400 = !DISubroutineType(types: !1401)
!1401 = !{!306, !350, !311}
!1402 = !DISubprogram(name: "drop_back", linkageName: "_ZNK4llvm9StringRef9drop_backEm", scope: !306, file: !307, line: 406, type: !1400, scopeLine: 406, flags: DIFlagPublic | DIFlagPrototyped, spFlags: DISPFlagOptimized)
!1403 = !DISubprogram(name: "slice", linkageName: "_ZNK4llvm9StringRef5sliceEmm", scope: !306, file: !307, line: 421, type: !1397, scopeLine: 421, flags: DIFlagPublic | DIFlagPrototyped, spFlags: DISPFlagOptimized)
!1404 = !DISubprogram(name: "split", linkageName: "_ZNK4llvm9StringRef5splitEc", scope: !306, file: !307, line: 437, type: !1405, scopeLine: 437, flags: DIFlagPublic | DIFlagPrototyped, spFlags: DISPFlagOptimized)
!1405 = !DISubroutineType(types: !1406)
!1406 = !{!1407, !350, !317}
!1407 = distinct !DICompositeType(tag: DW_TAG_structure_type, name: "pair<llvm::StringRef, llvm::StringRef>", scope: !215, file: !1408, line: 208, size: 256, flags: DIFlagTypePassByValue | DIFlagNonTrivial, elements: !1409, templateParams: !1468, identifier: "_ZTSSt4pairIN4llvm9StringRefES1_E")
!1408 = !DIFile(filename: "/usr/lib/gcc/x86_64-linux-gnu/7.5.0/../../../../include/c++/7.5.0/bits/stl_pair.h", directory: "")
!1409 = !{!1410, !1430, !1431, !1432, !1438, !1442, !1456, !1465}
!1410 = !DIDerivedType(tag: DW_TAG_inheritance, scope: !1407, baseType: !1411, flags: DIFlagPrivate, extraData: i32 0)
!1411 = distinct !DICompositeType(tag: DW_TAG_class_type, name: "__pair_base<llvm::StringRef, llvm::StringRef>", scope: !215, file: !1408, line: 190, size: 8, flags: DIFlagTypePassByValue, elements: !1412, templateParams: !1427, identifier: "_ZTSSt11__pair_baseIN4llvm9StringRefES1_E")
!1412 = !{!1413, !1417, !1418, !1423}
!1413 = !DISubprogram(name: "__pair_base", scope: !1411, file: !1408, line: 194, type: !1414, scopeLine: 194, flags: DIFlagPrototyped, spFlags: DISPFlagOptimized)
!1414 = !DISubroutineType(types: !1415)
!1415 = !{null, !1416}
!1416 = !DIDerivedType(tag: DW_TAG_pointer_type, baseType: !1411, size: 64, flags: DIFlagArtificial | DIFlagObjectPointer)
!1417 = !DISubprogram(name: "~__pair_base", scope: !1411, file: !1408, line: 195, type: !1414, scopeLine: 195, flags: DIFlagPrototyped, spFlags: DISPFlagOptimized)
!1418 = !DISubprogram(name: "__pair_base", scope: !1411, file: !1408, line: 196, type: !1419, scopeLine: 196, flags: DIFlagPrototyped, spFlags: DISPFlagOptimized)
!1419 = !DISubroutineType(types: !1420)
!1420 = !{null, !1416, !1421}
!1421 = !DIDerivedType(tag: DW_TAG_reference_type, baseType: !1422, size: 64)
!1422 = !DIDerivedType(tag: DW_TAG_const_type, baseType: !1411)
!1423 = !DISubprogram(name: "operator=", linkageName: "_ZNSt11__pair_baseIN4llvm9StringRefES1_EaSERKS2_", scope: !1411, file: !1408, line: 197, type: !1424, scopeLine: 197, flags: DIFlagPrototyped, spFlags: DISPFlagOptimized | DISPFlagDeleted)
!1424 = !DISubroutineType(types: !1425)
!1425 = !{!1426, !1416, !1421}
!1426 = !DIDerivedType(tag: DW_TAG_reference_type, baseType: !1411, size: 64)
!1427 = !{!1428, !1429}
!1428 = !DITemplateTypeParameter(name: "_U1", type: !306)
!1429 = !DITemplateTypeParameter(name: "_U2", type: !306)
!1430 = !DIDerivedType(tag: DW_TAG_member, name: "first", scope: !1407, file: !1408, line: 214, baseType: !306, size: 128)
!1431 = !DIDerivedType(tag: DW_TAG_member, name: "second", scope: !1407, file: !1408, line: 215, baseType: !306, size: 128, offset: 128)
!1432 = !DISubprogram(name: "pair", scope: !1407, file: !1408, line: 303, type: !1433, scopeLine: 303, flags: DIFlagPrototyped, spFlags: DISPFlagOptimized)
!1433 = !DISubroutineType(types: !1434)
!1434 = !{null, !1435, !1436}
!1435 = !DIDerivedType(tag: DW_TAG_pointer_type, baseType: !1407, size: 64, flags: DIFlagArtificial | DIFlagObjectPointer)
!1436 = !DIDerivedType(tag: DW_TAG_reference_type, baseType: !1437, size: 64)
!1437 = !DIDerivedType(tag: DW_TAG_const_type, baseType: !1407)
!1438 = !DISubprogram(name: "pair", scope: !1407, file: !1408, line: 304, type: !1439, scopeLine: 304, flags: DIFlagPrototyped, spFlags: DISPFlagOptimized)
!1439 = !DISubroutineType(types: !1440)
!1440 = !{null, !1435, !1441}
!1441 = !DIDerivedType(tag: DW_TAG_rvalue_reference_type, baseType: !1407, size: 64)
!1442 = !DISubprogram(name: "operator=", linkageName: "_ZNSt4pairIN4llvm9StringRefES1_EaSERKS2_", scope: !1407, file: !1408, line: 378, type: !1443, scopeLine: 378, flags: DIFlagPrototyped, spFlags: DISPFlagOptimized)
!1443 = !DISubroutineType(types: !1444)
!1444 = !{!1445, !1435, !1446}
!1445 = !DIDerivedType(tag: DW_TAG_reference_type, baseType: !1407, size: 64)
!1446 = !DIDerivedType(tag: DW_TAG_typedef, name: "type", scope: !1448, file: !1447, line: 2166, baseType: !1436)
!1447 = !DIFile(filename: "/usr/lib/gcc/x86_64-linux-gnu/7.5.0/../../../../include/c++/7.5.0/type_traits", directory: "")
!1448 = distinct !DICompositeType(tag: DW_TAG_structure_type, name: "conditional<true, const std::pair<llvm::StringRef, llvm::StringRef> &, const std::__nonesuch_no_braces &>", scope: !215, file: !1447, line: 2165, size: 8, flags: DIFlagTypePassByValue, elements: !220, templateParams: !1449, identifier: "_ZTSSt11conditionalILb1ERKSt4pairIN4llvm9StringRefES2_ERKSt20__nonesuch_no_bracesE")
!1449 = !{!1450, !1451, !1452}
!1450 = !DITemplateValueParameter(name: "_Cond", type: !27, value: i8 1)
!1451 = !DITemplateTypeParameter(name: "_Iftrue", type: !1436)
!1452 = !DITemplateTypeParameter(name: "_Iffalse", type: !1453)
!1453 = !DIDerivedType(tag: DW_TAG_reference_type, baseType: !1454, size: 64)
!1454 = !DIDerivedType(tag: DW_TAG_const_type, baseType: !1455)
!1455 = distinct !DICompositeType(tag: DW_TAG_structure_type, name: "__nonesuch_no_braces", scope: !215, file: !1408, line: 185, flags: DIFlagFwdDecl, identifier: "_ZTSSt20__nonesuch_no_braces")
!1456 = !DISubprogram(name: "operator=", linkageName: "_ZNSt4pairIN4llvm9StringRefES1_EaSEOS2_", scope: !1407, file: !1408, line: 389, type: !1457, scopeLine: 389, flags: DIFlagPrototyped, spFlags: DISPFlagOptimized)
!1457 = !DISubroutineType(types: !1458)
!1458 = !{!1445, !1435, !1459}
!1459 = !DIDerivedType(tag: DW_TAG_typedef, name: "type", scope: !1460, file: !1447, line: 2166, baseType: !1441)
!1460 = distinct !DICompositeType(tag: DW_TAG_structure_type, name: "conditional<true, std::pair<llvm::StringRef, llvm::StringRef> &&, std::__nonesuch_no_braces &&>", scope: !215, file: !1447, line: 2165, size: 8, flags: DIFlagTypePassByValue, elements: !220, templateParams: !1461, identifier: "_ZTSSt11conditionalILb1EOSt4pairIN4llvm9StringRefES2_EOSt20__nonesuch_no_bracesE")
!1461 = !{!1450, !1462, !1463}
!1462 = !DITemplateTypeParameter(name: "_Iftrue", type: !1441)
!1463 = !DITemplateTypeParameter(name: "_Iffalse", type: !1464)
!1464 = !DIDerivedType(tag: DW_TAG_rvalue_reference_type, baseType: !1455, size: 64)
!1465 = !DISubprogram(name: "swap", linkageName: "_ZNSt4pairIN4llvm9StringRefES1_E4swapERS2_", scope: !1407, file: !1408, line: 424, type: !1466, scopeLine: 424, flags: DIFlagPrototyped, spFlags: DISPFlagOptimized)
!1466 = !DISubroutineType(types: !1467)
!1467 = !{null, !1435, !1445}
!1468 = !{!1469, !1470}
!1469 = !DITemplateTypeParameter(name: "_T1", type: !306)
!1470 = !DITemplateTypeParameter(name: "_T2", type: !306)
!1471 = !DISubprogram(name: "split", linkageName: "_ZNK4llvm9StringRef5splitES0_", scope: !306, file: !307, line: 454, type: !1472, scopeLine: 454, flags: DIFlagPublic | DIFlagPrototyped, spFlags: DISPFlagOptimized)
!1472 = !DISubroutineType(types: !1473)
!1473 = !{!1407, !350, !306}
!1474 = !DISubprogram(name: "split", linkageName: "_ZNK4llvm9StringRef5splitERNS_15SmallVectorImplIS0_EES0_ib", scope: !306, file: !307, line: 475, type: !1475, scopeLine: 475, flags: DIFlagPublic | DIFlagPrototyped, spFlags: DISPFlagOptimized)
!1475 = !DISubroutineType(types: !1476)
!1476 = !{null, !350, !1477, !306, !196, !27}
!1477 = !DIDerivedType(tag: DW_TAG_reference_type, baseType: !1478, size: 64)
!1478 = distinct !DICompositeType(tag: DW_TAG_class_type, name: "SmallVectorImpl<llvm::StringRef>", scope: !14, file: !307, line: 23, flags: DIFlagFwdDecl, identifier: "_ZTSN4llvm15SmallVectorImplINS_9StringRefEEE")
!1479 = !DISubprogram(name: "rsplit", linkageName: "_ZNK4llvm9StringRef6rsplitEc", scope: !306, file: !307, line: 489, type: !1405, scopeLine: 489, flags: DIFlagPublic | DIFlagPrototyped, spFlags: DISPFlagOptimized)
!1480 = !DISubprogram(name: "ltrim", linkageName: "_ZNK4llvm9StringRef5ltrimES0_", scope: !306, file: !307, line: 498, type: !1481, scopeLine: 498, flags: DIFlagPublic | DIFlagPrototyped, spFlags: DISPFlagOptimized)
!1481 = !DISubroutineType(types: !1482)
!1482 = !{!306, !350, !306}
!1483 = !DISubprogram(name: "rtrim", linkageName: "_ZNK4llvm9StringRef5rtrimES0_", scope: !306, file: !307, line: 504, type: !1481, scopeLine: 504, flags: DIFlagPublic | DIFlagPrototyped, spFlags: DISPFlagOptimized)
!1484 = !DISubprogram(name: "trim", linkageName: "_ZNK4llvm9StringRef4trimES0_", scope: !306, file: !307, line: 510, type: !1481, scopeLine: 510, flags: DIFlagPublic | DIFlagPrototyped, spFlags: DISPFlagOptimized)
!1485 = !DISubprogram(name: "getStructNumElements", linkageName: "_ZNK4llvm4Type20getStructNumElementsEv", scope: !77, file: !78, line: 362, type: !125, scopeLine: 362, flags: DIFlagPublic | DIFlagPrototyped, spFlags: DISPFlagOptimized)
!1486 = !DISubprogram(name: "getStructElementType", linkageName: "_ZNK4llvm4Type20getStructElementTypeEj", scope: !77, file: !78, line: 363, type: !296, scopeLine: 363, flags: DIFlagPublic | DIFlagPrototyped, spFlags: DISPFlagOptimized)
!1487 = !DISubprogram(name: "getSequentialElementType", linkageName: "_ZNK4llvm4Type24getSequentialElementTypeEv", scope: !77, file: !78, line: 365, type: !1488, scopeLine: 365, flags: DIFlagPublic | DIFlagPrototyped, spFlags: DISPFlagOptimized)
!1488 = !DISubroutineType(types: !1489)
!1489 = !{!76, !127}
!1490 = !DISubprogram(name: "getArrayNumElements", linkageName: "_ZNK4llvm4Type19getArrayNumElementsEv", scope: !77, file: !78, line: 367, type: !1491, scopeLine: 367, flags: DIFlagPublic | DIFlagPrototyped, spFlags: DISPFlagOptimized)
!1491 = !DISubroutineType(types: !1492)
!1492 = !{!423, !127}
!1493 = !DISubprogram(name: "getArrayElementType", linkageName: "_ZNK4llvm4Type19getArrayElementTypeEv", scope: !77, file: !78, line: 368, type: !1488, scopeLine: 368, flags: DIFlagPublic | DIFlagPrototyped, spFlags: DISPFlagOptimized)
!1494 = !DISubprogram(name: "getVectorNumElements", linkageName: "_ZNK4llvm4Type20getVectorNumElementsEv", scope: !77, file: !78, line: 370, type: !125, scopeLine: 370, flags: DIFlagPublic | DIFlagPrototyped, spFlags: DISPFlagOptimized)
!1495 = !DISubprogram(name: "getVectorElementType", linkageName: "_ZNK4llvm4Type20getVectorElementTypeEv", scope: !77, file: !78, line: 371, type: !1488, scopeLine: 371, flags: DIFlagPublic | DIFlagPrototyped, spFlags: DISPFlagOptimized)
!1496 = !DISubprogram(name: "getPointerElementType", linkageName: "_ZNK4llvm4Type21getPointerElementTypeEv", scope: !77, file: !78, line: 373, type: !1488, scopeLine: 373, flags: DIFlagPublic | DIFlagPrototyped, spFlags: DISPFlagOptimized)
!1497 = !DISubprogram(name: "getPointerAddressSpace", linkageName: "_ZNK4llvm4Type22getPointerAddressSpaceEv", scope: !77, file: !78, line: 376, type: !125, scopeLine: 376, flags: DIFlagPublic | DIFlagPrototyped, spFlags: DISPFlagOptimized)
!1498 = !DISubprogram(name: "getPrimitiveType", linkageName: "_ZN4llvm4Type16getPrimitiveTypeERNS_11LLVMContextENS0_6TypeIDE", scope: !77, file: !78, line: 384, type: !1499, scopeLine: 384, flags: DIFlagPublic | DIFlagPrototyped | DIFlagStaticMember, spFlags: DISPFlagOptimized)
!1499 = !DISubroutineType(types: !1500)
!1500 = !{!76, !81, !97}
!1501 = !DISubprogram(name: "getVoidTy", linkageName: "_ZN4llvm4Type9getVoidTyERNS_11LLVMContextE", scope: !77, file: !78, line: 389, type: !1502, scopeLine: 389, flags: DIFlagPublic | DIFlagPrototyped | DIFlagStaticMember, spFlags: DISPFlagOptimized)
!1502 = !DISubroutineType(types: !1503)
!1503 = !{!76, !81}
!1504 = !DISubprogram(name: "getLabelTy", linkageName: "_ZN4llvm4Type10getLabelTyERNS_11LLVMContextE", scope: !77, file: !78, line: 390, type: !1502, scopeLine: 390, flags: DIFlagPublic | DIFlagPrototyped | DIFlagStaticMember, spFlags: DISPFlagOptimized)
!1505 = !DISubprogram(name: "getHalfTy", linkageName: "_ZN4llvm4Type9getHalfTyERNS_11LLVMContextE", scope: !77, file: !78, line: 391, type: !1502, scopeLine: 391, flags: DIFlagPublic | DIFlagPrototyped | DIFlagStaticMember, spFlags: DISPFlagOptimized)
!1506 = !DISubprogram(name: "getFloatTy", linkageName: "_ZN4llvm4Type10getFloatTyERNS_11LLVMContextE", scope: !77, file: !78, line: 392, type: !1502, scopeLine: 392, flags: DIFlagPublic | DIFlagPrototyped | DIFlagStaticMember, spFlags: DISPFlagOptimized)
!1507 = !DISubprogram(name: "getDoubleTy", linkageName: "_ZN4llvm4Type11getDoubleTyERNS_11LLVMContextE", scope: !77, file: !78, line: 393, type: !1502, scopeLine: 393, flags: DIFlagPublic | DIFlagPrototyped | DIFlagStaticMember, spFlags: DISPFlagOptimized)
!1508 = !DISubprogram(name: "getMetadataTy", linkageName: "_ZN4llvm4Type13getMetadataTyERNS_11LLVMContextE", scope: !77, file: !78, line: 394, type: !1502, scopeLine: 394, flags: DIFlagPublic | DIFlagPrototyped | DIFlagStaticMember, spFlags: DISPFlagOptimized)
!1509 = !DISubprogram(name: "getX86_FP80Ty", linkageName: "_ZN4llvm4Type13getX86_FP80TyERNS_11LLVMContextE", scope: !77, file: !78, line: 395, type: !1502, scopeLine: 395, flags: DIFlagPublic | DIFlagPrototyped | DIFlagStaticMember, spFlags: DISPFlagOptimized)
!1510 = !DISubprogram(name: "getFP128Ty", linkageName: "_ZN4llvm4Type10getFP128TyERNS_11LLVMContextE", scope: !77, file: !78, line: 396, type: !1502, scopeLine: 396, flags: DIFlagPublic | DIFlagPrototyped | DIFlagStaticMember, spFlags: DISPFlagOptimized)
!1511 = !DISubprogram(name: "getPPC_FP128Ty", linkageName: "_ZN4llvm4Type14getPPC_FP128TyERNS_11LLVMContextE", scope: !77, file: !78, line: 397, type: !1502, scopeLine: 397, flags: DIFlagPublic | DIFlagPrototyped | DIFlagStaticMember, spFlags: DISPFlagOptimized)
!1512 = !DISubprogram(name: "getX86_MMXTy", linkageName: "_ZN4llvm4Type12getX86_MMXTyERNS_11LLVMContextE", scope: !77, file: !78, line: 398, type: !1502, scopeLine: 398, flags: DIFlagPublic | DIFlagPrototyped | DIFlagStaticMember, spFlags: DISPFlagOptimized)
!1513 = !DISubprogram(name: "getIntNTy", linkageName: "_ZN4llvm4Type9getIntNTyERNS_11LLVMContextEj", scope: !77, file: !78, line: 399, type: !1514, scopeLine: 399, flags: DIFlagPublic | DIFlagPrototyped | DIFlagStaticMember, spFlags: DISPFlagOptimized)
!1514 = !DISubroutineType(types: !1515)
!1515 = !{!1516, !81, !6}
!1516 = !DIDerivedType(tag: DW_TAG_pointer_type, baseType: !1517, size: 64)
!1517 = distinct !DICompositeType(tag: DW_TAG_class_type, name: "IntegerType", scope: !14, file: !1518, line: 37, size: 192, flags: DIFlagTypePassByReference | DIFlagNonTrivial, elements: !1519, identifier: "_ZTSN4llvm11IntegerTypeE")
!1518 = !DIFile(filename: "/faster/fs/llvm34/include/llvm/IR/DerivedTypes.h", directory: "")
!1519 = !{!1520, !1521, !1525, !1526, !1531, !1534, !1535, !1538, !1541}
!1520 = !DIDerivedType(tag: DW_TAG_inheritance, scope: !1517, baseType: !77, flags: DIFlagPublic, extraData: i32 0)
!1521 = !DISubprogram(name: "IntegerType", scope: !1517, file: !1518, line: 41, type: !1522, scopeLine: 41, flags: DIFlagProtected | DIFlagExplicit | DIFlagPrototyped, spFlags: DISPFlagOptimized)
!1522 = !DISubroutineType(types: !1523)
!1523 = !{null, !1524, !81, !6}
!1524 = !DIDerivedType(tag: DW_TAG_pointer_type, baseType: !1517, size: 64, flags: DIFlagArtificial | DIFlagObjectPointer)
!1525 = !DISubprogram(name: "get", linkageName: "_ZN4llvm11IntegerType3getERNS_11LLVMContextEj", scope: !1517, file: !1518, line: 58, type: !1514, scopeLine: 58, flags: DIFlagPublic | DIFlagPrototyped | DIFlagStaticMember, spFlags: DISPFlagOptimized)
!1526 = !DISubprogram(name: "getBitWidth", linkageName: "_ZNK4llvm11IntegerType11getBitWidthEv", scope: !1517, file: !1518, line: 61, type: !1527, scopeLine: 61, flags: DIFlagPublic | DIFlagPrototyped, spFlags: DISPFlagOptimized)
!1527 = !DISubroutineType(types: !1528)
!1528 = !{!6, !1529}
!1529 = !DIDerivedType(tag: DW_TAG_pointer_type, baseType: !1530, size: 64, flags: DIFlagArtificial | DIFlagObjectPointer)
!1530 = !DIDerivedType(tag: DW_TAG_const_type, baseType: !1517)
!1531 = !DISubprogram(name: "getBitMask", linkageName: "_ZNK4llvm11IntegerType10getBitMaskEv", scope: !1517, file: !1518, line: 66, type: !1532, scopeLine: 66, flags: DIFlagPublic | DIFlagPrototyped, spFlags: DISPFlagOptimized)
!1532 = !DISubroutineType(types: !1533)
!1533 = !{!423, !1529}
!1534 = !DISubprogram(name: "getSignBit", linkageName: "_ZNK4llvm11IntegerType10getSignBitEv", scope: !1517, file: !1518, line: 72, type: !1532, scopeLine: 72, flags: DIFlagPublic | DIFlagPrototyped, spFlags: DISPFlagOptimized)
!1535 = !DISubprogram(name: "getMask", linkageName: "_ZNK4llvm11IntegerType7getMaskEv", scope: !1517, file: !1518, line: 79, type: !1536, scopeLine: 79, flags: DIFlagPublic | DIFlagPrototyped, spFlags: DISPFlagOptimized)
!1536 = !DISubroutineType(types: !1537)
!1537 = !{!415, !1529}
!1538 = !DISubprogram(name: "isPowerOf2ByteWidth", linkageName: "_ZNK4llvm11IntegerType19isPowerOf2ByteWidthEv", scope: !1517, file: !1518, line: 85, type: !1539, scopeLine: 85, flags: DIFlagPublic | DIFlagPrototyped, spFlags: DISPFlagOptimized)
!1539 = !DISubroutineType(types: !1540)
!1540 = !{!27, !1529}
!1541 = !DISubprogram(name: "classof", linkageName: "_ZN4llvm11IntegerType7classofEPKNS_4TypeE", scope: !1517, file: !1518, line: 88, type: !1542, scopeLine: 88, flags: DIFlagPublic | DIFlagPrototyped | DIFlagStaticMember, spFlags: DISPFlagOptimized)
!1542 = !DISubroutineType(types: !1543)
!1543 = !{!27, !200}
!1544 = !DISubprogram(name: "getInt1Ty", linkageName: "_ZN4llvm4Type9getInt1TyERNS_11LLVMContextE", scope: !77, file: !78, line: 400, type: !1545, scopeLine: 400, flags: DIFlagPublic | DIFlagPrototyped | DIFlagStaticMember, spFlags: DISPFlagOptimized)
!1545 = !DISubroutineType(types: !1546)
!1546 = !{!1516, !81}
!1547 = !DISubprogram(name: "getInt8Ty", linkageName: "_ZN4llvm4Type9getInt8TyERNS_11LLVMContextE", scope: !77, file: !78, line: 401, type: !1545, scopeLine: 401, flags: DIFlagPublic | DIFlagPrototyped | DIFlagStaticMember, spFlags: DISPFlagOptimized)
!1548 = !DISubprogram(name: "getInt16Ty", linkageName: "_ZN4llvm4Type10getInt16TyERNS_11LLVMContextE", scope: !77, file: !78, line: 402, type: !1545, scopeLine: 402, flags: DIFlagPublic | DIFlagPrototyped | DIFlagStaticMember, spFlags: DISPFlagOptimized)
!1549 = !DISubprogram(name: "getInt32Ty", linkageName: "_ZN4llvm4Type10getInt32TyERNS_11LLVMContextE", scope: !77, file: !78, line: 403, type: !1545, scopeLine: 403, flags: DIFlagPublic | DIFlagPrototyped | DIFlagStaticMember, spFlags: DISPFlagOptimized)
!1550 = !DISubprogram(name: "getInt64Ty", linkageName: "_ZN4llvm4Type10getInt64TyERNS_11LLVMContextE", scope: !77, file: !78, line: 404, type: !1545, scopeLine: 404, flags: DIFlagPublic | DIFlagPrototyped | DIFlagStaticMember, spFlags: DISPFlagOptimized)
!1551 = !DISubprogram(name: "getHalfPtrTy", linkageName: "_ZN4llvm4Type12getHalfPtrTyERNS_11LLVMContextEj", scope: !77, file: !78, line: 410, type: !1552, scopeLine: 410, flags: DIFlagPublic | DIFlagPrototyped | DIFlagStaticMember, spFlags: DISPFlagOptimized)
!1552 = !DISubroutineType(types: !1553)
!1553 = !{!1554, !81, !6}
!1554 = !DIDerivedType(tag: DW_TAG_pointer_type, baseType: !1555, size: 64)
!1555 = distinct !DICompositeType(tag: DW_TAG_class_type, name: "PointerType", scope: !14, file: !1518, line: 425, size: 256, flags: DIFlagTypePassByReference | DIFlagNonTrivial, elements: !1556, identifier: "_ZTSN4llvm11PointerTypeE")
!1556 = !{!1557, !1605, !1611, !1614, !1617, !1620, !1623, !1626, !1630}
!1557 = !DIDerivedType(tag: DW_TAG_inheritance, scope: !1555, baseType: !1558, flags: DIFlagPublic, extraData: i32 0)
!1558 = distinct !DICompositeType(tag: DW_TAG_class_type, name: "SequentialType", scope: !14, file: !1518, line: 306, size: 256, flags: DIFlagTypePassByReference | DIFlagNonTrivial, elements: !1559, identifier: "_ZTSN4llvm14SequentialTypeE")
!1559 = !{!1560, !1587, !1588, !1594, !1597, !1600, !1604}
!1560 = !DIDerivedType(tag: DW_TAG_inheritance, scope: !1558, baseType: !1561, flags: DIFlagPublic, extraData: i32 0)
!1561 = distinct !DICompositeType(tag: DW_TAG_class_type, name: "CompositeType", scope: !14, file: !1518, line: 144, size: 192, flags: DIFlagTypePassByReference | DIFlagNonTrivial, elements: !1562, identifier: "_ZTSN4llvm13CompositeTypeE")
!1562 = !{!1563, !1564, !1568, !1575, !1578, !1583, !1586}
!1563 = !DIDerivedType(tag: DW_TAG_inheritance, scope: !1561, baseType: !77, flags: DIFlagPublic, extraData: i32 0)
!1564 = !DISubprogram(name: "CompositeType", scope: !1561, file: !1518, line: 146, type: !1565, scopeLine: 146, flags: DIFlagProtected | DIFlagExplicit | DIFlagPrototyped, spFlags: DISPFlagOptimized)
!1565 = !DISubroutineType(types: !1566)
!1566 = !{null, !1567, !81, !97}
!1567 = !DIDerivedType(tag: DW_TAG_pointer_type, baseType: !1561, size: 64, flags: DIFlagArtificial | DIFlagObjectPointer)
!1568 = !DISubprogram(name: "getTypeAtIndex", linkageName: "_ZN4llvm13CompositeType14getTypeAtIndexEPKNS_5ValueE", scope: !1561, file: !1518, line: 152, type: !1569, scopeLine: 152, flags: DIFlagPublic | DIFlagPrototyped, spFlags: DISPFlagOptimized)
!1569 = !DISubroutineType(types: !1570)
!1570 = !{!76, !1567, !1571}
!1571 = !DIDerivedType(tag: DW_TAG_pointer_type, baseType: !1572, size: 64)
!1572 = !DIDerivedType(tag: DW_TAG_const_type, baseType: !1573)
!1573 = distinct !DICompositeType(tag: DW_TAG_class_type, name: "Value", scope: !14, file: !1574, line: 66, flags: DIFlagFwdDecl, identifier: "_ZTSN4llvm5ValueE")
!1574 = !DIFile(filename: "/faster/fs/llvm34/include/llvm/IR/Value.h", directory: "")
!1575 = !DISubprogram(name: "getTypeAtIndex", linkageName: "_ZN4llvm13CompositeType14getTypeAtIndexEj", scope: !1561, file: !1518, line: 153, type: !1576, scopeLine: 153, flags: DIFlagPublic | DIFlagPrototyped, spFlags: DISPFlagOptimized)
!1576 = !DISubroutineType(types: !1577)
!1577 = !{!76, !1567, !6}
!1578 = !DISubprogram(name: "indexValid", linkageName: "_ZNK4llvm13CompositeType10indexValidEPKNS_5ValueE", scope: !1561, file: !1518, line: 154, type: !1579, scopeLine: 154, flags: DIFlagPublic | DIFlagPrototyped, spFlags: DISPFlagOptimized)
!1579 = !DISubroutineType(types: !1580)
!1580 = !{!27, !1581, !1571}
!1581 = !DIDerivedType(tag: DW_TAG_pointer_type, baseType: !1582, size: 64, flags: DIFlagArtificial | DIFlagObjectPointer)
!1582 = !DIDerivedType(tag: DW_TAG_const_type, baseType: !1561)
!1583 = !DISubprogram(name: "indexValid", linkageName: "_ZNK4llvm13CompositeType10indexValidEj", scope: !1561, file: !1518, line: 155, type: !1584, scopeLine: 155, flags: DIFlagPublic | DIFlagPrototyped, spFlags: DISPFlagOptimized)
!1584 = !DISubroutineType(types: !1585)
!1585 = !{!27, !1581, !6}
!1586 = !DISubprogram(name: "classof", linkageName: "_ZN4llvm13CompositeType7classofEPKNS_4TypeE", scope: !1561, file: !1518, line: 158, type: !1542, scopeLine: 158, flags: DIFlagPublic | DIFlagPrototyped | DIFlagStaticMember, spFlags: DISPFlagOptimized)
!1587 = !DIDerivedType(tag: DW_TAG_member, name: "ContainedType", scope: !1558, file: !1518, line: 307, baseType: !76, size: 64, offset: 192)
!1588 = !DISubprogram(name: "SequentialType", scope: !1558, file: !1518, line: 308, type: !1589, scopeLine: 308, flags: DIFlagPrototyped, spFlags: DISPFlagOptimized | DISPFlagDeleted)
!1589 = !DISubroutineType(types: !1590)
!1590 = !{null, !1591, !1592}
!1591 = !DIDerivedType(tag: DW_TAG_pointer_type, baseType: !1558, size: 64, flags: DIFlagArtificial | DIFlagObjectPointer)
!1592 = !DIDerivedType(tag: DW_TAG_reference_type, baseType: !1593, size: 64)
!1593 = !DIDerivedType(tag: DW_TAG_const_type, baseType: !1558)
!1594 = !DISubprogram(name: "operator=", linkageName: "_ZN4llvm14SequentialTypeaSERKS0_", scope: !1558, file: !1518, line: 309, type: !1595, scopeLine: 309, flags: DIFlagPrototyped, spFlags: DISPFlagOptimized | DISPFlagDeleted)
!1595 = !DISubroutineType(types: !1596)
!1596 = !{!1592, !1591, !1592}
!1597 = !DISubprogram(name: "SequentialType", scope: !1558, file: !1518, line: 312, type: !1598, scopeLine: 312, flags: DIFlagProtected | DIFlagPrototyped, spFlags: DISPFlagOptimized)
!1598 = !DISubroutineType(types: !1599)
!1599 = !{null, !1591, !97, !76}
!1600 = !DISubprogram(name: "getElementType", linkageName: "_ZNK4llvm14SequentialType14getElementTypeEv", scope: !1558, file: !1518, line: 319, type: !1601, scopeLine: 319, flags: DIFlagPublic | DIFlagPrototyped, spFlags: DISPFlagOptimized)
!1601 = !DISubroutineType(types: !1602)
!1602 = !{!76, !1603}
!1603 = !DIDerivedType(tag: DW_TAG_pointer_type, baseType: !1593, size: 64, flags: DIFlagArtificial | DIFlagObjectPointer)
!1604 = !DISubprogram(name: "classof", linkageName: "_ZN4llvm14SequentialType7classofEPKNS_4TypeE", scope: !1558, file: !1518, line: 322, type: !1542, scopeLine: 322, flags: DIFlagPublic | DIFlagPrototyped | DIFlagStaticMember, spFlags: DISPFlagOptimized)
!1605 = !DISubprogram(name: "PointerType", scope: !1555, file: !1518, line: 426, type: !1606, scopeLine: 426, flags: DIFlagPrototyped, spFlags: DISPFlagOptimized | DISPFlagDeleted)
!1606 = !DISubroutineType(types: !1607)
!1607 = !{null, !1608, !1609}
!1608 = !DIDerivedType(tag: DW_TAG_pointer_type, baseType: !1555, size: 64, flags: DIFlagArtificial | DIFlagObjectPointer)
!1609 = !DIDerivedType(tag: DW_TAG_reference_type, baseType: !1610, size: 64)
!1610 = !DIDerivedType(tag: DW_TAG_const_type, baseType: !1555)
!1611 = !DISubprogram(name: "operator=", linkageName: "_ZN4llvm11PointerTypeaSERKS0_", scope: !1555, file: !1518, line: 427, type: !1612, scopeLine: 427, flags: DIFlagPrototyped, spFlags: DISPFlagOptimized | DISPFlagDeleted)
!1612 = !DISubroutineType(types: !1613)
!1613 = !{!1609, !1608, !1609}
!1614 = !DISubprogram(name: "PointerType", scope: !1555, file: !1518, line: 428, type: !1615, scopeLine: 428, flags: DIFlagExplicit | DIFlagPrototyped, spFlags: DISPFlagOptimized)
!1615 = !DISubroutineType(types: !1616)
!1616 = !{null, !1608, !76, !6}
!1617 = !DISubprogram(name: "get", linkageName: "_ZN4llvm11PointerType3getEPNS_4TypeEj", scope: !1555, file: !1518, line: 432, type: !1618, scopeLine: 432, flags: DIFlagPublic | DIFlagPrototyped | DIFlagStaticMember, spFlags: DISPFlagOptimized)
!1618 = !DISubroutineType(types: !1619)
!1619 = !{!1554, !76, !6}
!1620 = !DISubprogram(name: "getUnqual", linkageName: "_ZN4llvm11PointerType9getUnqualEPNS_4TypeE", scope: !1555, file: !1518, line: 436, type: !1621, scopeLine: 436, flags: DIFlagPublic | DIFlagPrototyped | DIFlagStaticMember, spFlags: DISPFlagOptimized)
!1621 = !DISubroutineType(types: !1622)
!1622 = !{!1554, !76}
!1623 = !DISubprogram(name: "isValidElementType", linkageName: "_ZN4llvm11PointerType18isValidElementTypeEPNS_4TypeE", scope: !1555, file: !1518, line: 442, type: !1624, scopeLine: 442, flags: DIFlagPublic | DIFlagPrototyped | DIFlagStaticMember, spFlags: DISPFlagOptimized)
!1624 = !DISubroutineType(types: !1625)
!1625 = !{!27, !76}
!1626 = !DISubprogram(name: "getAddressSpace", linkageName: "_ZNK4llvm11PointerType15getAddressSpaceEv", scope: !1555, file: !1518, line: 445, type: !1627, scopeLine: 445, flags: DIFlagPublic | DIFlagPrototyped, spFlags: DISPFlagOptimized)
!1627 = !DISubroutineType(types: !1628)
!1628 = !{!6, !1629}
!1629 = !DIDerivedType(tag: DW_TAG_pointer_type, baseType: !1610, size: 64, flags: DIFlagArtificial | DIFlagObjectPointer)
!1630 = !DISubprogram(name: "classof", linkageName: "_ZN4llvm11PointerType7classofEPKNS_4TypeE", scope: !1555, file: !1518, line: 448, type: !1542, scopeLine: 448, flags: DIFlagPublic | DIFlagPrototyped | DIFlagStaticMember, spFlags: DISPFlagOptimized)
!1631 = !DISubprogram(name: "getFloatPtrTy", linkageName: "_ZN4llvm4Type13getFloatPtrTyERNS_11LLVMContextEj", scope: !77, file: !78, line: 411, type: !1552, scopeLine: 411, flags: DIFlagPublic | DIFlagPrototyped | DIFlagStaticMember, spFlags: DISPFlagOptimized)
!1632 = !DISubprogram(name: "getDoublePtrTy", linkageName: "_ZN4llvm4Type14getDoublePtrTyERNS_11LLVMContextEj", scope: !77, file: !78, line: 412, type: !1552, scopeLine: 412, flags: DIFlagPublic | DIFlagPrototyped | DIFlagStaticMember, spFlags: DISPFlagOptimized)
!1633 = !DISubprogram(name: "getX86_FP80PtrTy", linkageName: "_ZN4llvm4Type16getX86_FP80PtrTyERNS_11LLVMContextEj", scope: !77, file: !78, line: 413, type: !1552, scopeLine: 413, flags: DIFlagPublic | DIFlagPrototyped | DIFlagStaticMember, spFlags: DISPFlagOptimized)
!1634 = !DISubprogram(name: "getFP128PtrTy", linkageName: "_ZN4llvm4Type13getFP128PtrTyERNS_11LLVMContextEj", scope: !77, file: !78, line: 414, type: !1552, scopeLine: 414, flags: DIFlagPublic | DIFlagPrototyped | DIFlagStaticMember, spFlags: DISPFlagOptimized)
!1635 = !DISubprogram(name: "getPPC_FP128PtrTy", linkageName: "_ZN4llvm4Type17getPPC_FP128PtrTyERNS_11LLVMContextEj", scope: !77, file: !78, line: 415, type: !1552, scopeLine: 415, flags: DIFlagPublic | DIFlagPrototyped | DIFlagStaticMember, spFlags: DISPFlagOptimized)
!1636 = !DISubprogram(name: "getX86_MMXPtrTy", linkageName: "_ZN4llvm4Type15getX86_MMXPtrTyERNS_11LLVMContextEj", scope: !77, file: !78, line: 416, type: !1552, scopeLine: 416, flags: DIFlagPublic | DIFlagPrototyped | DIFlagStaticMember, spFlags: DISPFlagOptimized)
!1637 = !DISubprogram(name: "getIntNPtrTy", linkageName: "_ZN4llvm4Type12getIntNPtrTyERNS_11LLVMContextEjj", scope: !77, file: !78, line: 417, type: !1638, scopeLine: 417, flags: DIFlagPublic | DIFlagPrototyped | DIFlagStaticMember, spFlags: DISPFlagOptimized)
!1638 = !DISubroutineType(types: !1639)
!1639 = !{!1554, !81, !6, !6}
!1640 = !DISubprogram(name: "getInt1PtrTy", linkageName: "_ZN4llvm4Type12getInt1PtrTyERNS_11LLVMContextEj", scope: !77, file: !78, line: 418, type: !1552, scopeLine: 418, flags: DIFlagPublic | DIFlagPrototyped | DIFlagStaticMember, spFlags: DISPFlagOptimized)
!1641 = !DISubprogram(name: "getInt8PtrTy", linkageName: "_ZN4llvm4Type12getInt8PtrTyERNS_11LLVMContextEj", scope: !77, file: !78, line: 419, type: !1552, scopeLine: 419, flags: DIFlagPublic | DIFlagPrototyped | DIFlagStaticMember, spFlags: DISPFlagOptimized)
!1642 = !DISubprogram(name: "getInt16PtrTy", linkageName: "_ZN4llvm4Type13getInt16PtrTyERNS_11LLVMContextEj", scope: !77, file: !78, line: 420, type: !1552, scopeLine: 420, flags: DIFlagPublic | DIFlagPrototyped | DIFlagStaticMember, spFlags: DISPFlagOptimized)
!1643 = !DISubprogram(name: "getInt32PtrTy", linkageName: "_ZN4llvm4Type13getInt32PtrTyERNS_11LLVMContextEj", scope: !77, file: !78, line: 421, type: !1552, scopeLine: 421, flags: DIFlagPublic | DIFlagPrototyped | DIFlagStaticMember, spFlags: DISPFlagOptimized)
!1644 = !DISubprogram(name: "getInt64PtrTy", linkageName: "_ZN4llvm4Type13getInt64PtrTyERNS_11LLVMContextEj", scope: !77, file: !78, line: 422, type: !1552, scopeLine: 422, flags: DIFlagPublic | DIFlagPrototyped | DIFlagStaticMember, spFlags: DISPFlagOptimized)
!1645 = !DISubprogram(name: "getPointerTo", linkageName: "_ZN4llvm4Type12getPointerToEj", scope: !77, file: !78, line: 426, type: !1646, scopeLine: 426, flags: DIFlagPublic | DIFlagPrototyped, spFlags: DISPFlagOptimized)
!1646 = !DISubroutineType(types: !1647)
!1647 = !{!1554, !96, !6}
!1648 = !DISubprogram(name: "isSizedDerivedType", linkageName: "_ZNK4llvm4Type18isSizedDerivedTypeEv", scope: !77, file: !78, line: 432, type: !148, scopeLine: 432, flags: DIFlagPrototyped, spFlags: DISPFlagOptimized)
!1649 = !{!1650, !1651, !1652, !1653, !1654, !1655, !1656, !1657, !1658, !1659, !1660, !1661, !1662, !1663, !1664, !1665, !1666, !1667, !1668, !1669, !1670, !1671, !1672, !1673, !1674, !1675, !1676, !1677, !1678, !1679, !1680, !1681, !1682, !1683, !1684, !1685, !1686, !1687, !1688, !1689, !1690, !1691, !1692, !1693, !1694, !1695, !1696, !1697, !1698, !1699, !1700, !1701, !1702, !1703, !1704, !1705, !1706, !1707, !1708, !1709, !1710, !1711, !1712, !1713, !1714, !1715, !1716, !1717, !1718, !1719, !1720, !1721, !1722, !1723, !1724, !1725, !1726}
!1650 = !DIEnumerator(name: "INVALID_SIMPLE_VALUE_TYPE", value: -1)
!1651 = !DIEnumerator(name: "Other", value: 0)
!1652 = !DIEnumerator(name: "i1", value: 1)
!1653 = !DIEnumerator(name: "i8", value: 2)
!1654 = !DIEnumerator(name: "i16", value: 3)
!1655 = !DIEnumerator(name: "i32", value: 4)
!1656 = !DIEnumerator(name: "i64", value: 5)
!1657 = !DIEnumerator(name: "i128", value: 6)
!1658 = !DIEnumerator(name: "FIRST_INTEGER_VALUETYPE", value: 1)
!1659 = !DIEnumerator(name: "LAST_INTEGER_VALUETYPE", value: 6)
!1660 = !DIEnumerator(name: "f16", value: 7)
!1661 = !DIEnumerator(name: "f32", value: 8)
!1662 = !DIEnumerator(name: "f64", value: 9)
!1663 = !DIEnumerator(name: "f80", value: 10)
!1664 = !DIEnumerator(name: "f128", value: 11)
!1665 = !DIEnumerator(name: "ppcf128", value: 12)
!1666 = !DIEnumerator(name: "FIRST_FP_VALUETYPE", value: 7)
!1667 = !DIEnumerator(name: "LAST_FP_VALUETYPE", value: 12)
!1668 = !DIEnumerator(name: "v2i1", value: 13)
!1669 = !DIEnumerator(name: "v4i1", value: 14)
!1670 = !DIEnumerator(name: "v8i1", value: 15)
!1671 = !DIEnumerator(name: "v16i1", value: 16)
!1672 = !DIEnumerator(name: "v32i1", value: 17)
!1673 = !DIEnumerator(name: "v64i1", value: 18)
!1674 = !DIEnumerator(name: "v1i8", value: 19)
!1675 = !DIEnumerator(name: "v2i8", value: 20)
!1676 = !DIEnumerator(name: "v4i8", value: 21)
!1677 = !DIEnumerator(name: "v8i8", value: 22)
!1678 = !DIEnumerator(name: "v16i8", value: 23)
!1679 = !DIEnumerator(name: "v32i8", value: 24)
!1680 = !DIEnumerator(name: "v64i8", value: 25)
!1681 = !DIEnumerator(name: "v1i16", value: 26)
!1682 = !DIEnumerator(name: "v2i16", value: 27)
!1683 = !DIEnumerator(name: "v4i16", value: 28)
