; ModuleID = '<stdin>'
source_filename = "/faster/fs/llvm34/lib/Target/Hexagon/HexagonISelLowering.cpp"
target datalayout = "e-m:e-p270:32:32-p271:32:32-p272:64:64-i64:64-f80:128-n8:16:32:64-S128"
target triple = "x86_64-unknown-linux-gnu"

%"class.llvm::SDNode" = type { %"class.llvm::FoldingSetImpl::Node", %"class.llvm::ilist_node", i16, i16, i32, %"class.llvm::SDUse"*, %"struct.llvm::EVT"*, %"class.llvm::SDUse"*, i16, i16, %"class.llvm::DebugLoc", i32 }
%"class.llvm::FoldingSetImpl::Node" = type { i8* }
%"class.llvm::ilist_node" = type { %"class.llvm::ilist_half_node", %"class.llvm::SDNode"* }
%"class.llvm::ilist_half_node" = type { %"class.llvm::SDNode"* }
%"struct.llvm::EVT" = type { %"class.llvm::MVT", %"class.llvm::Type"* }
%"class.llvm::MVT" = type { i32 }
%"class.llvm::SDUse" = type { %"class.llvm::SDValue", %"class.llvm::SDNode"*, %"class.llvm::SDUse"**, %"class.llvm::SDUse"* }
%"class.llvm::SDValue" = type <{ %"class.llvm::SDNode"*, i32, [4 x i8] }>
%"class.llvm::DebugLoc" = type { i32, i32 }
%"class.llvm::SelectionDAG" = type { %"class.llvm::TargetMachine"*, %"class.llvm::TargetSelectionDAGInfo"*, %"class.llvm::TargetTransformInfo"*, %"class.llvm::TargetLowering"*, %"class.llvm::MachineFunction"*, %"class.llvm::LLVMContext"*, i32, %"class.llvm::SDNode", %"class.llvm::SDValue", %"struct.llvm::ilist.181", %"class.llvm::RecyclingAllocator", %"class.llvm::FoldingSet", %"class.llvm::BumpPtrAllocator", %"class.llvm::BumpPtrAllocator", %"class.llvm::SDDbgInfo"*, i8, %"struct.llvm::SelectionDAG::DAGUpdateListener"*, %"class.llvm::FoldingSet.204", %"class.std::vector.205", %"class.std::vector.210", %"class.std::map.215", %"class.llvm::StringMap", %"class.std::map.221" }
%"class.llvm::TargetMachine" = type { i32 (...)**, %"class.llvm::Target"*, %"class.std::__cxx11::basic_string", %"class.std::__cxx11::basic_string", %"class.std::__cxx11::basic_string", %"class.llvm::MCCodeGenInfo"*, %"class.llvm::MCAsmInfo"*, i8, %"class.llvm::TargetOptions" }
%"class.llvm::Target" = type opaque
%"class.std::__cxx11::basic_string" = type { %"struct.std::__cxx11::basic_string<char, std::char_traits<char>, std::allocator<char> >::_Alloc_hider", i64, %union.anon }
%"struct.std::__cxx11::basic_string<char, std::char_traits<char>, std::allocator<char> >::_Alloc_hider" = type { i8* }
%union.anon = type { i64, [8 x i8] }
%"class.llvm::MCCodeGenInfo" = type opaque
%"class.llvm::MCAsmInfo" = type opaque
%"class.llvm::TargetOptions" = type { i16, i32, i8, %"class.std::__cxx11::basic_string", i32, i32 }
%"class.llvm::TargetSelectionDAGInfo" = type { i32 (...)**, %"class.llvm::DataLayout"* }
%"class.llvm::DataLayout" = type { %"class.llvm::ImmutablePass.base", i8, i32, [4 x i8], %"class.llvm::SmallVector", %"class.llvm::SmallVector.3", %"class.llvm::DenseMap", i8* }
%"class.llvm::ImmutablePass.base" = type { %"class.llvm::ModulePass.base" }
%"class.llvm::ModulePass.base" = type { %"class.llvm::Pass.base" }
%"class.llvm::Pass.base" = type <{ i32 (...)**, %"class.llvm::AnalysisResolver"*, i8*, i32 }>
%"class.llvm::AnalysisResolver" = type { %"class.std::vector", %"class.llvm::PMDataManager"* }
%"class.std::vector" = type { %"struct.std::_Vector_base" }
%"struct.std::_Vector_base" = type { %"struct.std::_Vector_base<std::pair<const void *, llvm::Pass *>, std::allocator<std::pair<const void *, llvm::Pass *> > >::_Vector_impl" }
%"struct.std::_Vector_base<std::pair<const void *, llvm::Pass *>, std::allocator<std::pair<const void *, llvm::Pass *> > >::_Vector_impl" = type { %"struct.std::pair"*, %"struct.std::pair"*, %"struct.std::pair"* }
%"struct.std::pair" = type { i8*, %"class.llvm::Pass"* }
%"class.llvm::Pass" = type <{ i32 (...)**, %"class.llvm::AnalysisResolver"*, i8*, i32, [4 x i8] }>
%"class.llvm::PMDataManager" = type opaque
%"class.llvm::SmallVector" = type { %"class.llvm::SmallVectorImpl.base", %"struct.llvm::SmallVectorStorage" }
%"class.llvm::SmallVectorImpl.base" = type { %"class.llvm::SmallVectorTemplateBase.base" }
%"class.llvm::SmallVectorTemplateBase.base" = type { %"class.llvm::SmallVectorTemplateCommon.base" }
%"class.llvm::SmallVectorTemplateCommon.base" = type <{ %"class.llvm::SmallVectorBase", %"struct.llvm::AlignedCharArrayUnion" }>
%"class.llvm::SmallVectorBase" = type { i8*, i8*, i8* }
%"struct.llvm::AlignedCharArrayUnion" = type { %"struct.llvm::AlignedCharArray" }
%"struct.llvm::AlignedCharArray" = type { [1 x i8] }
%"struct.llvm::SmallVectorStorage" = type { [7 x %"struct.llvm::AlignedCharArrayUnion"] }
%"class.llvm::SmallVector.3" = type { %"class.llvm::SmallVectorImpl.4", %"struct.llvm::SmallVectorStorage.9" }
%"class.llvm::SmallVectorImpl.4" = type { %"class.llvm::SmallVectorTemplateBase.5" }
%"class.llvm::SmallVectorTemplateBase.5" = type { %"class.llvm::SmallVectorTemplateCommon.6" }
%"class.llvm::SmallVectorTemplateCommon.6" = type { %"class.llvm::SmallVectorBase", %"struct.llvm::AlignedCharArrayUnion.7" }
%"struct.llvm::AlignedCharArrayUnion.7" = type { %"struct.llvm::AlignedCharArray.8" }
%"struct.llvm::AlignedCharArray.8" = type { [8 x i8] }
%"struct.llvm::SmallVectorStorage.9" = type { [15 x %"struct.llvm::AlignedCharArrayUnion.7"] }
%"class.llvm::DenseMap" = type <{ %"struct.std::pair.10"*, i32, i32, i32, [4 x i8] }>
%"struct.std::pair.10" = type { i32, %"struct.llvm::PointerAlignElem" }
%"struct.llvm::PointerAlignElem" = type { i32, i32, i32, i32 }
%"class.llvm::TargetTransformInfo" = type opaque
%"class.llvm::TargetLowering" = type { %"class.llvm::TargetLoweringBase.base", [7 x i8] }
%"class.llvm::TargetLoweringBase.base" = type <{ i32 (...)**, %"class.llvm::TargetMachine"*, %"class.llvm::DataLayout"*, %"class.llvm::TargetLoweringObjectFile"*, i8, i8, i8, [5 x i8], %"class.llvm::DenseMap.13", i8, i8, i8, i8, i8, [3 x i8], i32, i32, i32, i32, i32, i32, i32, i32, i32, i32, i8, [3 x i8], i32, i32, i32, [58 x %"class.llvm::TargetRegisterClass"*], [58 x i8], [2 x i8], [58 x %"class.llvm::MVT"], [4 x i8], [58 x %"class.llvm::TargetRegisterClass"*], [58 x i8], [2 x i8], [58 x %"class.llvm::MVT"], [58 x [188 x i8]], [58 x [4 x i8]], [58 x [58 x i8]], [58 x [5 x i8]], [2 x i8], [24 x [4 x i32]], %"class.llvm::TargetLoweringBase::ValueTypeActionImpl", [2 x i8], %"class.std::vector.164", [24 x i8], %"class.std::map", [341 x i8*], [341 x i32], [341 x i32], i32, i32, i32, i32, i32, i32, i8 }>
%"class.llvm::TargetLoweringObjectFile" = type { i32 (...)**, %"class.llvm::MCObjectFileInfo", %"class.llvm::MCContext"* }
%"class.llvm::MCObjectFileInfo" = type { i8, i8, i8, i32, i32, i32, i32, i32, i32, i32, i32, %"class.llvm::MCSection"*, %"class.llvm::MCSection"*, %"class.llvm::MCSection"*, %"class.llvm::MCSection"*, %"class.llvm::MCSection"*, %"class.llvm::MCSection"*, %"class.llvm::MCSection"*, %"class.llvm::MCSection"*, %"class.llvm::MCSection"*, %"class.llvm::MCSection"*, %"class.llvm::MCSection"*, %"class.llvm::MCSection"*, %"class.llvm::MCSection"*, %"class.llvm::MCSection"*, %"class.llvm::MCSection"*, %"class.llvm::MCSection"*, %"class.llvm::MCSection"*, %"class.llvm::MCSection"*, %"class.llvm::MCSection"*, %"class.llvm::MCSection"*, %"class.llvm::MCSection"*, %"class.llvm::MCSection"*, %"class.llvm::MCSection"*, %"class.llvm::MCSection"*, %"class.llvm::MCSection"*, %"class.llvm::MCSection"*, %"class.llvm::MCSection"*, %"class.llvm::MCSection"*, %"class.llvm::MCSection"*, %"class.llvm::MCSection"*, %"class.llvm::MCSection"*, %"class.llvm::MCSection"*, %"class.llvm::MCSection"*, %"class.llvm::MCSection"*, %"class.llvm::MCSection"*, %"class.llvm::MCSection"*, %"class.llvm::MCSection"*, %"class.llvm::MCSection"*, %"class.llvm::MCSection"*, %"class.llvm::MCSection"*, %"class.llvm::MCSection"*, %"class.llvm::MCSection"*, %"class.llvm::MCSection"*, %"class.llvm::MCSection"*, %"class.llvm::MCSection"*, %"class.llvm::MCSection"*, %"class.llvm::MCSection"*, %"class.llvm::MCSection"*, %"class.llvm::MCSection"*, %"class.llvm::MCSection"*, %"class.llvm::MCSection"*, %"class.llvm::MCSection"*, %"class.llvm::MCSection"*, %"class.llvm::MCSection"*, %"class.llvm::MCSection"*, %"class.llvm::MCSection"*, %"class.llvm::MCSection"*, %"class.llvm::MCSection"*, %"class.llvm::MCSection"*, %"class.llvm::MCSection"*, %"class.llvm::MCSection"*, %"class.llvm::MCSection"*, %"class.llvm::MCSection"*, i32, i32, i32, %"class.llvm::MCContext"* }
%"class.llvm::MCSection" = type { i32 (...)**, i32, %"class.llvm::SectionKind" }
%"class.llvm::SectionKind" = type { i8, [3 x i8] }
%"class.llvm::MCContext" = type opaque
%"class.llvm::DenseMap.13" = type <{ %"struct.std::pair.16"*, i32, i32, i32, [4 x i8] }>
%"struct.std::pair.16" = type { i32, i32 }
%"class.llvm::TargetRegisterClass" = type { %"class.llvm::MCRegisterClass"*, i32*, i32*, i16*, %"class.llvm::TargetRegisterClass"**, { i16*, i64 } (%"class.llvm::MachineFunction"*)* }
%"class.llvm::MCRegisterClass" = type { i8*, i16*, i8*, i16, i16, i16, i16, i16, i8, i8 }
%"class.llvm::TargetLoweringBase::ValueTypeActionImpl" = type { [58 x i8] }
%"class.std::vector.164" = type { %"struct.std::_Vector_base.165" }
%"struct.std::_Vector_base.165" = type { %"struct.std::_Vector_base<std::pair<llvm::MVT, const llvm::TargetRegisterClass *>, std::allocator<std::pair<llvm::MVT, const llvm::TargetRegisterClass *> > >::_Vector_impl" }
%"struct.std::_Vector_base<std::pair<llvm::MVT, const llvm::TargetRegisterClass *>, std::allocator<std::pair<llvm::MVT, const llvm::TargetRegisterClass *> > >::_Vector_impl" = type { %"struct.std::pair.169"*, %"struct.std::pair.169"*, %"struct.std::pair.169"* }
%"struct.std::pair.169" = type { %"class.llvm::MVT", %"class.llvm::TargetRegisterClass"* }
%"class.std::map" = type { %"class.std::_Rb_tree" }
%"class.std::_Rb_tree" = type { %"struct.std::_Rb_tree<std::pair<unsigned int, llvm::MVT::SimpleValueType>, std::pair<const std::pair<unsigned int, llvm::MVT::SimpleValueType>, llvm::MVT::SimpleValueType>, std::_Select1st<std::pair<const std::pair<unsigned int, llvm::MVT::SimpleValueType>, llvm::MVT::SimpleValueType> >, std::less<std::pair<unsigned int, llvm::MVT::SimpleValueType> >, std::allocator<std::pair<const std::pair<unsigned int, llvm::MVT::SimpleValueType>, llvm::MVT::SimpleValueType> > >::_Rb_tree_impl" }
%"struct.std::_Rb_tree<std::pair<unsigned int, llvm::MVT::SimpleValueType>, std::pair<const std::pair<unsigned int, llvm::MVT::SimpleValueType>, llvm::MVT::SimpleValueType>, std::_Select1st<std::pair<const std::pair<unsigned int, llvm::MVT::SimpleValueType>, llvm::MVT::SimpleValueType> >, std::less<std::pair<unsigned int, llvm::MVT::SimpleValueType> >, std::allocator<std::pair<const std::pair<unsigned int, llvm::MVT::SimpleValueType>, llvm::MVT::SimpleValueType> > >::_Rb_tree_impl" = type { %"struct.std::_Rb_tree_key_compare", %"struct.std::_Rb_tree_header" }
%"struct.std::_Rb_tree_key_compare" = type { %"struct.std::less" }
%"struct.std::less" = type { i8 }
%"struct.std::_Rb_tree_header" = type { %"struct.std::_Rb_tree_node_base", i64 }
%"struct.std::_Rb_tree_node_base" = type { i32, %"struct.std::_Rb_tree_node_base"*, %"struct.std::_Rb_tree_node_base"*, %"struct.std::_Rb_tree_node_base"* }
%"class.llvm::MachineFunction" = type <{ %"class.llvm::Function"*, %"class.llvm::TargetMachine"*, %"class.llvm::MCContext"*, %"class.llvm::MachineModuleInfo"*, %"class.llvm::GCModuleInfo"*, %"class.llvm::MachineRegisterInfo"*, %"struct.llvm::MachineFunctionInfo"*, %"class.llvm::MachineFrameInfo"*, %"class.llvm::MachineConstantPool"*, %"class.llvm::MachineJumpTableInfo"*, %"class.std::vector.100", %"class.llvm::BumpPtrAllocator", %"class.llvm::Recycler", %"class.llvm::ArrayRecycler", %"class.llvm::Recycler.156", %"struct.llvm::ilist.157", i32, i32, i8, i8, [6 x i8] }>
%"class.llvm::Function" = type { %"class.llvm::GlobalValue", %"class.llvm::ilist_node.29", %"class.llvm::iplist.48", %"class.llvm::iplist.56", %"class.llvm::ValueSymbolTable"*, %"class.llvm::AttributeSet" }
%"class.llvm::GlobalValue" = type { %"class.llvm::Constant.base", i24, %"class.llvm::Module"*, %"class.std::__cxx11::basic_string" }
%"class.llvm::Constant.base" = type { %"class.llvm::User.base" }
%"class.llvm::User.base" = type <{ %"class.llvm::Value", %"class.llvm::Use"*, i32 }>
%"class.llvm::Value" = type { i32 (...)**, i8, i8, i16, %"class.llvm::Type"*, %"class.llvm::Use"*, %"class.llvm::StringMapEntry"* }
%"class.llvm::StringMapEntry" = type opaque
%"class.llvm::Use" = type { %"class.llvm::Value"*, %"class.llvm::Use"*, %"class.llvm::PointerIntPair" }
%"class.llvm::PointerIntPair" = type { i64 }
%"class.llvm::Module" = type { %"class.llvm::LLVMContext"*, %"class.llvm::iplist", %"class.llvm::iplist.22", %"class.llvm::iplist.31", %"struct.llvm::ilist", %"class.std::__cxx11::basic_string", %"class.llvm::ValueSymbolTable"*, %"class.llvm::OwningPtr", %"class.std::__cxx11::basic_string", %"class.std::__cxx11::basic_string", %"class.std::__cxx11::basic_string", i8* }
%"class.llvm::iplist" = type { %"struct.llvm::ilist_traits", %"class.llvm::GlobalVariable"* }
%"struct.llvm::ilist_traits" = type { %"class.llvm::ilist_node.20" }
%"class.llvm::ilist_node.20" = type { %"class.llvm::ilist_half_node.21", %"class.llvm::GlobalVariable"* }
%"class.llvm::ilist_half_node.21" = type { %"class.llvm::GlobalVariable"* }
%"class.llvm::GlobalVariable" = type <{ %"class.llvm::GlobalValue", %"class.llvm::ilist_node.20", i8, [7 x i8] }>
%"class.llvm::iplist.22" = type { %"struct.llvm::ilist_traits.23", %"class.llvm::Function"* }
%"struct.llvm::ilist_traits.23" = type { %"class.llvm::ilist_node.29" }
%"class.llvm::iplist.31" = type { %"struct.llvm::ilist_traits.32", %"class.llvm::GlobalAlias"* }
%"struct.llvm::ilist_traits.32" = type { %"class.llvm::ilist_node.38" }
%"class.llvm::ilist_node.38" = type { %"class.llvm::ilist_half_node.39", %"class.llvm::GlobalAlias"* }
%"class.llvm::ilist_half_node.39" = type { %"class.llvm::GlobalAlias"* }
%"class.llvm::GlobalAlias" = type { %"class.llvm::GlobalValue", %"class.llvm::ilist_node.38" }
%"struct.llvm::ilist" = type { %"class.llvm::iplist.40" }
%"class.llvm::iplist.40" = type { %"struct.llvm::ilist_traits.41", %"class.llvm::NamedMDNode"* }
%"struct.llvm::ilist_traits.41" = type { %"class.llvm::ilist_node.46" }
%"class.llvm::ilist_node.46" = type { %"class.llvm::ilist_half_node.47", %"class.llvm::NamedMDNode"* }
%"class.llvm::ilist_half_node.47" = type { %"class.llvm::NamedMDNode"* }
%"class.llvm::NamedMDNode" = type { %"class.llvm::ilist_node.46", %"class.std::__cxx11::basic_string", %"class.llvm::Module"*, i8* }
%"class.llvm::OwningPtr" = type { %"class.llvm::GVMaterializer"* }
%"class.llvm::GVMaterializer" = type opaque
%"class.llvm::ilist_node.29" = type { %"class.llvm::ilist_half_node.30", %"class.llvm::Function"* }
%"class.llvm::ilist_half_node.30" = type { %"class.llvm::Function"* }
%"class.llvm::iplist.48" = type { %"struct.llvm::ilist_traits.49", %"class.llvm::BasicBlock"* }
%"struct.llvm::ilist_traits.49" = type { %"class.llvm::ilist_half_node.55" }
%"class.llvm::ilist_half_node.55" = type { %"class.llvm::BasicBlock"* }
%"class.llvm::BasicBlock" = type { %"class.llvm::Value", %"class.llvm::ilist_node.91", %"class.llvm::iplist.92", %"class.llvm::Function"* }
%"class.llvm::ilist_node.91" = type { %"class.llvm::ilist_half_node.55", %"class.llvm::BasicBlock"* }
%"class.llvm::iplist.92" = type { %"struct.llvm::ilist_traits.93", %"class.llvm::Instruction"* }
%"struct.llvm::ilist_traits.93" = type { %"class.llvm::ilist_half_node.99" }
%"class.llvm::ilist_half_node.99" = type { %"class.llvm::Instruction"* }
%"class.llvm::Instruction" = type { %"class.llvm::User.base", %"class.llvm::ilist_node.126", %"class.llvm::BasicBlock"*, %"class.llvm::DebugLoc" }
%"class.llvm::ilist_node.126" = type { %"class.llvm::ilist_half_node.99", %"class.llvm::Instruction"* }
%"class.llvm::iplist.56" = type { %"struct.llvm::ilist_traits.57", %"class.llvm::Argument"* }
%"struct.llvm::ilist_traits.57" = type { %"class.llvm::ilist_half_node.63" }
%"class.llvm::ilist_half_node.63" = type { %"class.llvm::Argument"* }
%"class.llvm::Argument" = type { %"class.llvm::Value", %"class.llvm::ilist_node.180", %"class.llvm::Function"* }
%"class.llvm::ilist_node.180" = type { %"class.llvm::ilist_half_node.63", %"class.llvm::Argument"* }
%"class.llvm::ValueSymbolTable" = type opaque
%"class.llvm::AttributeSet" = type { %"class.llvm::AttributeSetImpl"* }
%"class.llvm::AttributeSetImpl" = type opaque
%"class.llvm::MachineModuleInfo" = type opaque
%"class.llvm::GCModuleInfo" = type opaque
%"class.llvm::MachineRegisterInfo" = type { %"class.llvm::TargetMachine"*, %"class.llvm::MachineRegisterInfo::Delegate"*, i8, i8, [6 x i8], %"class.llvm::IndexedMap", %"class.llvm::IndexedMap.114", %"class.llvm::MachineOperand"**, %"class.llvm::BitVector", %"class.llvm::BitVector", %"class.llvm::BitVector", %"class.std::vector.115" }
%"class.llvm::MachineRegisterInfo::Delegate" = type { i32 (...)** }
%"class.llvm::IndexedMap" = type <{ %"class.std::vector.64", %"struct.std::pair.69", %"struct.llvm::VirtReg2IndexFunctor", [7 x i8] }>
%"class.std::vector.64" = type { %"struct.std::_Vector_base.65" }
%"struct.std::_Vector_base.65" = type { %"struct.std::_Vector_base<std::pair<const llvm::TargetRegisterClass *, llvm::MachineOperand *>, std::allocator<std::pair<const llvm::TargetRegisterClass *, llvm::MachineOperand *> > >::_Vector_impl" }
%"struct.std::_Vector_base<std::pair<const llvm::TargetRegisterClass *, llvm::MachineOperand *>, std::allocator<std::pair<const llvm::TargetRegisterClass *, llvm::MachineOperand *> > >::_Vector_impl" = type { %"struct.std::pair.69"*, %"struct.std::pair.69"*, %"struct.std::pair.69"* }
%"struct.std::pair.69" = type { %"class.llvm::TargetRegisterClass"*, %"class.llvm::MachineOperand"* }
%"class.llvm::MachineOperand" = type { i8, [3 x i8], %union.anon.72, %"class.llvm::MachineInstr"*, %union.anon.110 }
%union.anon.72 = type { i32 }
%"class.llvm::MachineInstr" = type { %"class.llvm::ilist_node.73", %"class.llvm::MCInstrDesc"*, %"class.llvm::MachineBasicBlock"*, %"class.llvm::MachineOperand"*, i32, %"class.llvm::ArrayRecycler<llvm::MachineOperand, 8>::Capacity", i8, i8, i8, %"class.llvm::MachineMemOperand"**, %"class.llvm::DebugLoc" }
%"class.llvm::ilist_node.73" = type { %"class.llvm::ilist_half_node.74", %"class.llvm::MachineInstr"* }
%"class.llvm::ilist_half_node.74" = type { %"class.llvm::MachineInstr"* }
%"class.llvm::MCInstrDesc" = type { i16, i16, i16, i16, i16, i32, i64, i16*, i16*, %"class.llvm::MCOperandInfo"*, i64, i1 (%"class.llvm::MCInst"*, %"class.llvm::MCSubtargetInfo"*, %"class.std::__cxx11::basic_string"*)* }
%"class.llvm::MCOperandInfo" = type { i16, i8, i8, i32 }
%"class.llvm::MCInst" = type { i32, %"class.llvm::SMLoc", %"class.llvm::SmallVector.75" }
%"class.llvm::SMLoc" = type { i8* }
%"class.llvm::SmallVector.75" = type { %"class.llvm::SmallVectorImpl.76", %"struct.llvm::SmallVectorStorage.81" }
%"class.llvm::SmallVectorImpl.76" = type { %"class.llvm::SmallVectorTemplateBase.77" }
%"class.llvm::SmallVectorTemplateBase.77" = type { %"class.llvm::SmallVectorTemplateCommon.78" }
%"class.llvm::SmallVectorTemplateCommon.78" = type { %"class.llvm::SmallVectorBase", %"struct.llvm::AlignedCharArrayUnion.79" }
%"struct.llvm::AlignedCharArrayUnion.79" = type { %"struct.llvm::AlignedCharArray.80" }
%"struct.llvm::AlignedCharArray.80" = type { [16 x i8] }
%"struct.llvm::SmallVectorStorage.81" = type { [7 x %"struct.llvm::AlignedCharArrayUnion.79"] }
%"class.llvm::MCSubtargetInfo" = type { %"class.std::__cxx11::basic_string", %"struct.llvm::SubtargetFeatureKV"*, %"struct.llvm::SubtargetFeatureKV"*, %"struct.llvm::SubtargetInfoKV"*, %"struct.llvm::MCWriteProcResEntry"*, %"struct.llvm::MCWriteLatencyEntry"*, %"struct.llvm::MCReadAdvanceEntry"*, %"class.llvm::MCSchedModel"*, %"struct.llvm::InstrStage"*, i32*, i32*, i32, i32, i64 }
%"struct.llvm::SubtargetFeatureKV" = type { i8*, i8*, i64, i64 }
%"struct.llvm::SubtargetInfoKV" = type { i8*, i8* }
%"struct.llvm::MCWriteProcResEntry" = type { i32, i32 }
%"struct.llvm::MCWriteLatencyEntry" = type { i32, i32 }
%"struct.llvm::MCReadAdvanceEntry" = type { i32, i32, i32 }
%"class.llvm::MCSchedModel" = type { i32, i32, i32, i32, i32, i8, i32, %"struct.llvm::MCProcResourceDesc"*, %"struct.llvm::MCSchedClassDesc"*, i32, i32, %"struct.llvm::InstrItinerary"* }
%"struct.llvm::MCProcResourceDesc" = type { i32, i32, i32 }
%"struct.llvm::MCSchedClassDesc" = type { i16, i8, i8, i32, i32, i32, i32, i32, i32 }
%"struct.llvm::InstrItinerary" = type { i32, i32, i32, i32, i32 }
%"struct.llvm::InstrStage" = type { i32, i32, i32, i32 }
%"class.llvm::MachineBasicBlock" = type { %"class.llvm::ilist_node.82", %"struct.llvm::ilist.84", %"class.llvm::BasicBlock"*, i32, %"class.llvm::MachineFunction"*, %"class.std::vector.100", %"class.std::vector.100", %"class.std::vector.105", %"class.std::vector.105", i32, i8, i8, %"class.llvm::MCSymbol"* }
%"class.llvm::ilist_node.82" = type { %"class.llvm::ilist_half_node.83", %"class.llvm::MachineBasicBlock"* }
%"class.llvm::ilist_half_node.83" = type { %"class.llvm::MachineBasicBlock"* }
%"struct.llvm::ilist.84" = type { %"class.llvm::iplist.85" }
%"class.llvm::iplist.85" = type { %"struct.llvm::ilist_traits.86", %"class.llvm::MachineInstr"* }
%"struct.llvm::ilist_traits.86" = type { %"class.llvm::ilist_half_node.74", %"class.llvm::MachineBasicBlock"* }
%"class.std::vector.105" = type { %"struct.std::_Vector_base.106" }
%"struct.std::_Vector_base.106" = type { %"struct.std::_Vector_base<unsigned int, std::allocator<unsigned int> >::_Vector_impl" }
%"struct.std::_Vector_base<unsigned int, std::allocator<unsigned int> >::_Vector_impl" = type { i32*, i32*, i32* }
%"class.llvm::MCSymbol" = type opaque
%"class.llvm::ArrayRecycler<llvm::MachineOperand, 8>::Capacity" = type { i8 }
%"class.llvm::MachineMemOperand" = type { %"struct.llvm::MachinePointerInfo", i64, i32, %"class.llvm::MDNode"*, %"class.llvm::MDNode"* }
%"struct.llvm::MachinePointerInfo" = type { %"class.llvm::Value"*, i64 }
%"class.llvm::MDNode" = type { %"class.llvm::Value", %"class.llvm::FoldingSetImpl::Node", i32, i32 }
%union.anon.110 = type { %struct.anon }
%struct.anon = type { %"class.llvm::MachineOperand"*, %"class.llvm::MachineOperand"* }
%"struct.llvm::VirtReg2IndexFunctor" = type { i8 }
%"class.llvm::IndexedMap.114" = type <{ %"class.std::vector.115", %"struct.std::pair.16", %"struct.llvm::VirtReg2IndexFunctor", [7 x i8] }>
%"class.llvm::BitVector" = type { i64*, i32, i32 }
%"class.std::vector.115" = type { %"struct.std::_Vector_base.116" }
%"struct.std::_Vector_base.116" = type { %"struct.std::_Vector_base<std::pair<unsigned int, unsigned int>, std::allocator<std::pair<unsigned int, unsigned int> > >::_Vector_impl" }
%"struct.std::_Vector_base<std::pair<unsigned int, unsigned int>, std::allocator<std::pair<unsigned int, unsigned int> > >::_Vector_impl" = type { %"struct.std::pair.16"*, %"struct.std::pair.16"*, %"struct.std::pair.16"* }
%"struct.llvm::MachineFunctionInfo" = type { i32 (...)** }
%"class.llvm::MachineFrameInfo" = type <{ %"class.llvm::TargetMachine"*, %"class.std::vector.121", i32, i8, i8, i8, i8, i64, i32, i32, i8, i8, [2 x i8], i32, i32, i32, %"class.std::vector.127", i8, [7 x i8], %"class.llvm::SmallVector.132", i64, i32, i8, i8, [2 x i8] }>
%"class.std::vector.121" = type { %"struct.std::_Vector_base.122" }
%"struct.std::_Vector_base.122" = type { %"struct.std::_Vector_base<llvm::MachineFrameInfo::StackObject, std::allocator<llvm::MachineFrameInfo::StackObject> >::_Vector_impl" }
%"struct.std::_Vector_base<llvm::MachineFrameInfo::StackObject, std::allocator<llvm::MachineFrameInfo::StackObject> >::_Vector_impl" = type { %"struct.llvm::MachineFrameInfo::StackObject"*, %"struct.llvm::MachineFrameInfo::StackObject"*, %"struct.llvm::MachineFrameInfo::StackObject"* }
%"struct.llvm::MachineFrameInfo::StackObject" = type <{ i64, i64, i32, i8, i8, i8, i8, %"class.llvm::AllocaInst"*, i8, [7 x i8] }>
%"class.llvm::AllocaInst" = type { %"class.llvm::UnaryInstruction" }
%"class.llvm::UnaryInstruction" = type { %"class.llvm::Instruction" }
%"class.std::vector.127" = type { %"struct.std::_Vector_base.128" }
%"struct.std::_Vector_base.128" = type { %"struct.std::_Vector_base<llvm::CalleeSavedInfo, std::allocator<llvm::CalleeSavedInfo> >::_Vector_impl" }
%"struct.std::_Vector_base<llvm::CalleeSavedInfo, std::allocator<llvm::CalleeSavedInfo> >::_Vector_impl" = type { %"class.llvm::CalleeSavedInfo"*, %"class.llvm::CalleeSavedInfo"*, %"class.llvm::CalleeSavedInfo"* }
%"class.llvm::CalleeSavedInfo" = type { i32, i32 }
%"class.llvm::SmallVector.132" = type { %"class.llvm::SmallVectorImpl.133", %"struct.llvm::SmallVectorStorage.137" }
%"class.llvm::SmallVectorImpl.133" = type { %"class.llvm::SmallVectorTemplateBase.134" }
%"class.llvm::SmallVectorTemplateBase.134" = type { %"class.llvm::SmallVectorTemplateCommon.135" }
%"class.llvm::SmallVectorTemplateCommon.135" = type { %"class.llvm::SmallVectorBase", %"struct.llvm::AlignedCharArrayUnion.136" }
%"struct.llvm::AlignedCharArrayUnion.136" = type { %"struct.llvm::AlignedCharArray.80" }
%"struct.llvm::SmallVectorStorage.137" = type { [31 x %"struct.llvm::AlignedCharArrayUnion.136"] }
%"class.llvm::MachineConstantPool" = type opaque
%"class.llvm::MachineJumpTableInfo" = type { i32, %"class.std::vector.138" }
%"class.std::vector.138" = type { %"struct.std::_Vector_base.139" }
%"struct.std::_Vector_base.139" = type { %"struct.std::_Vector_base<llvm::MachineJumpTableEntry, std::allocator<llvm::MachineJumpTableEntry> >::_Vector_impl" }
%"struct.std::_Vector_base<llvm::MachineJumpTableEntry, std::allocator<llvm::MachineJumpTableEntry> >::_Vector_impl" = type { %"struct.llvm::MachineJumpTableEntry"*, %"struct.llvm::MachineJumpTableEntry"*, %"struct.llvm::MachineJumpTableEntry"* }
%"struct.llvm::MachineJumpTableEntry" = type { %"class.std::vector.100" }
%"class.std::vector.100" = type { %"struct.std::_Vector_base.101" }
%"struct.std::_Vector_base.101" = type { %"struct.std::_Vector_base<llvm::MachineBasicBlock *, std::allocator<llvm::MachineBasicBlock *> >::_Vector_impl" }
%"struct.std::_Vector_base<llvm::MachineBasicBlock *, std::allocator<llvm::MachineBasicBlock *> >::_Vector_impl" = type { %"class.llvm::MachineBasicBlock"**, %"class.llvm::MachineBasicBlock"**, %"class.llvm::MachineBasicBlock"** }
%"class.llvm::Recycler" = type { %"class.llvm::iplist.143" }
%"class.llvm::iplist.143" = type { %"struct.llvm::ilist_traits.144", %"struct.llvm::RecyclerStruct"* }
%"struct.llvm::ilist_traits.144" = type { %"struct.llvm::RecyclerStruct" }
%"struct.llvm::RecyclerStruct" = type { %"struct.llvm::RecyclerStruct"*, %"struct.llvm::RecyclerStruct"* }
%"class.llvm::ArrayRecycler" = type { %"class.llvm::SmallVector.149" }
%"class.llvm::SmallVector.149" = type { %"class.llvm::SmallVectorImpl.150", %"struct.llvm::SmallVectorStorage.155" }
%"class.llvm::SmallVectorImpl.150" = type { %"class.llvm::SmallVectorTemplateBase.151" }
%"class.llvm::SmallVectorTemplateBase.151" = type { %"class.llvm::SmallVectorTemplateCommon.152" }
%"class.llvm::SmallVectorTemplateCommon.152" = type { %"class.llvm::SmallVectorBase", %"struct.llvm::AlignedCharArrayUnion.153" }
%"struct.llvm::AlignedCharArrayUnion.153" = type { %"struct.llvm::AlignedCharArray.154" }
%"struct.llvm::AlignedCharArray.154" = type { [8 x i8] }
%"struct.llvm::SmallVectorStorage.155" = type { [7 x %"struct.llvm::AlignedCharArrayUnion.153"] }
%"class.llvm::Recycler.156" = type { %"class.llvm::iplist.143" }
%"struct.llvm::ilist.157" = type { %"class.llvm::iplist.158" }
%"class.llvm::iplist.158" = type { %"struct.llvm::ilist_traits.159", %"class.llvm::MachineBasicBlock"* }
%"struct.llvm::ilist_traits.159" = type { %"class.llvm::ilist_half_node.83" }
%"class.llvm::LLVMContext" = type opaque
%"struct.llvm::ilist.181" = type { %"class.llvm::iplist.182" }
%"class.llvm::iplist.182" = type { %"struct.llvm::ilist_traits.183", %"class.llvm::SDNode"* }
%"struct.llvm::ilist_traits.183" = type { %"class.llvm::ilist_half_node" }
%"class.llvm::RecyclingAllocator" = type { %"class.llvm::Recycler.188", %"class.llvm::BumpPtrAllocator" }
%"class.llvm::Recycler.188" = type { %"class.llvm::iplist.143" }
%"class.llvm::FoldingSet" = type { %"class.llvm::FoldingSetImpl" }
%"class.llvm::FoldingSetImpl" = type { i32 (...)**, i8**, i32, i32 }
%"class.llvm::BumpPtrAllocator" = type { i64, i64, %"class.llvm::MallocSlabAllocator", %"class.llvm::SlabAllocator"*, %"class.llvm::MemSlab"*, i8*, i8*, i64 }
%"class.llvm::MallocSlabAllocator" = type <{ %"class.llvm::SlabAllocator", %"class.llvm::MallocAllocator", [7 x i8] }>
%"class.llvm::SlabAllocator" = type { i32 (...)** }
%"class.llvm::MallocAllocator" = type { i8 }
%"class.llvm::MemSlab" = type { i64, %"class.llvm::MemSlab"* }
%"class.llvm::SDDbgInfo" = type { %"class.llvm::SmallVector.189", %"class.llvm::SmallVector.189", %"class.llvm::DenseMap.195" }
%"class.llvm::SmallVector.189" = type { %"class.llvm::SmallVectorImpl.190", %"struct.llvm::SmallVectorStorage.194" }
%"class.llvm::SmallVectorImpl.190" = type { %"class.llvm::SmallVectorTemplateBase.191" }
%"class.llvm::SmallVectorTemplateBase.191" = type { %"class.llvm::SmallVectorTemplateCommon.192" }
%"class.llvm::SmallVectorTemplateCommon.192" = type { %"class.llvm::SmallVectorBase", %"struct.llvm::AlignedCharArrayUnion.193" }
%"struct.llvm::AlignedCharArrayUnion.193" = type { %"struct.llvm::AlignedCharArray.154" }
%"struct.llvm::SmallVectorStorage.194" = type { [31 x %"struct.llvm::AlignedCharArrayUnion.193"] }
%"class.llvm::DenseMap.195" = type <{ %"struct.std::pair.198"*, i32, i32, i32, [4 x i8] }>
%"struct.std::pair.198" = type { %"class.llvm::SDNode"*, %"class.llvm::SmallVector.201" }
%"class.llvm::SmallVector.201" = type { %"class.llvm::SmallVectorImpl.190", %"struct.llvm::SmallVectorStorage.202" }
%"struct.llvm::SmallVectorStorage.202" = type { [1 x %"struct.llvm::AlignedCharArrayUnion.193"] }
%"struct.llvm::SelectionDAG::DAGUpdateListener" = type { i32 (...)**, %"struct.llvm::SelectionDAG::DAGUpdateListener"*, %"class.llvm::SelectionDAG"* }
%"class.llvm::FoldingSet.204" = type { %"class.llvm::FoldingSetImpl" }
%"class.std::vector.205" = type { %"struct.std::_Vector_base.206" }
%"struct.std::_Vector_base.206" = type { %"struct.std::_Vector_base<llvm::CondCodeSDNode *, std::allocator<llvm::CondCodeSDNode *> >::_Vector_impl" }
%"struct.std::_Vector_base<llvm::CondCodeSDNode *, std::allocator<llvm::CondCodeSDNode *> >::_Vector_impl" = type { %"class.llvm::CondCodeSDNode"**, %"class.llvm::CondCodeSDNode"**, %"class.llvm::CondCodeSDNode"** }
%"class.llvm::CondCodeSDNode" = type <{ %"class.llvm::SDNode", i32, [4 x i8] }>
%"class.std::vector.210" = type { %"struct.std::_Vector_base.211" }
%"struct.std::_Vector_base.211" = type { %"struct.std::_Vector_base<llvm::SDNode *, std::allocator<llvm::SDNode *> >::_Vector_impl" }
%"struct.std::_Vector_base<llvm::SDNode *, std::allocator<llvm::SDNode *> >::_Vector_impl" = type { %"class.llvm::SDNode"**, %"class.llvm::SDNode"**, %"class.llvm::SDNode"** }
%"class.std::map.215" = type { %"class.std::_Rb_tree.216" }
%"class.std::_Rb_tree.216" = type { %"struct.std::_Rb_tree<llvm::EVT, std::pair<const llvm::EVT, llvm::SDNode *>, std::_Select1st<std::pair<const llvm::EVT, llvm::SDNode *> >, llvm::EVT::compareRawBits, std::allocator<std::pair<const llvm::EVT, llvm::SDNode *> > >::_Rb_tree_impl" }
%"struct.std::_Rb_tree<llvm::EVT, std::pair<const llvm::EVT, llvm::SDNode *>, std::_Select1st<std::pair<const llvm::EVT, llvm::SDNode *> >, llvm::EVT::compareRawBits, std::allocator<std::pair<const llvm::EVT, llvm::SDNode *> > >::_Rb_tree_impl" = type { %"struct.std::_Rb_tree_key_compare.220", %"struct.std::_Rb_tree_header" }
%"struct.std::_Rb_tree_key_compare.220" = type { %"struct.llvm::EVT::compareRawBits" }
%"struct.llvm::EVT::compareRawBits" = type { i8 }
%"class.llvm::StringMap" = type <{ %"class.llvm::StringMapImpl", %"class.llvm::MallocAllocator", [7 x i8] }>
%"class.llvm::StringMapImpl" = type { %"class.llvm::StringMapEntryBase"**, i32, i32, i32, i32 }
%"class.llvm::StringMapEntryBase" = type { i32 }
%"class.std::map.221" = type { %"class.std::_Rb_tree.222" }
%"class.std::_Rb_tree.222" = type { %"struct.std::_Rb_tree<std::pair<std::__cxx11::basic_string<char>, unsigned char>, std::pair<const std::pair<std::__cxx11::basic_string<char>, unsigned char>, llvm::SDNode *>, std::_Select1st<std::pair<const std::pair<std::__cxx11::basic_string<char>, unsigned char>, llvm::SDNode *> >, std::less<std::pair<std::__cxx11::basic_string<char>, unsigned char> >, std::allocator<std::pair<const std::pair<std::__cxx11::basic_string<char>, unsigned char>, llvm::SDNode *> > >::_Rb_tree_impl" }
%"struct.std::_Rb_tree<std::pair<std::__cxx11::basic_string<char>, unsigned char>, std::pair<const std::pair<std::__cxx11::basic_string<char>, unsigned char>, llvm::SDNode *>, std::_Select1st<std::pair<const std::pair<std::__cxx11::basic_string<char>, unsigned char>, llvm::SDNode *> >, std::less<std::pair<std::__cxx11::basic_string<char>, unsigned char> >, std::allocator<std::pair<const std::pair<std::__cxx11::basic_string<char>, unsigned char>, llvm::SDNode *> > >::_Rb_tree_impl" = type { %"struct.std::_Rb_tree_key_compare.226", %"struct.std::_Rb_tree_header" }
%"struct.std::_Rb_tree_key_compare.226" = type { %"struct.std::less.227" }
%"struct.std::less.227" = type { i8 }
%"class.llvm::Type" = type { %"class.llvm::LLVMContext"*, i32, i32, %"class.llvm::Type"** }
%"struct.llvm::TargetLowering::CallLoweringInfo" = type { %"class.llvm::SDValue", %"class.llvm::Type"*, i8, i8, i32, i32, [4 x i8], %"class.llvm::SDValue", %"class.std::vector.274"*, %"class.llvm::SelectionDAG"*, %"class.llvm::SDLoc", %"class.llvm::ImmutableCallSite"*, %"class.llvm::SmallVector.276", %"class.llvm::SmallVector.278", %"class.llvm::SmallVector.280" }
%"class.std::vector.274" = type opaque
%"class.llvm::SDLoc" = type <{ i8*, i32, [4 x i8] }>
%"class.llvm::ImmutableCallSite" = type { %"class.llvm::CallSiteBase" }
%"class.llvm::CallSiteBase" = type { %"class.llvm::PointerIntPair.275" }
%"class.llvm::PointerIntPair.275" = type { i64 }
%"class.llvm::SmallVector.276" = type { %"class.llvm::SmallVectorImpl.229", %"struct.llvm::SmallVectorStorage.277" }
%"class.llvm::SmallVectorImpl.229" = type { %"class.llvm::SmallVectorTemplateBase.230" }
%"class.llvm::SmallVectorTemplateBase.230" = type { %"class.llvm::SmallVectorTemplateCommon.231" }
%"class.llvm::SmallVectorTemplateCommon.231" = type { %"class.llvm::SmallVectorBase", %"struct.llvm::AlignedCharArrayUnion.232" }
%"struct.llvm::AlignedCharArrayUnion.232" = type { %"struct.llvm::AlignedCharArray.233" }
%"struct.llvm::AlignedCharArray.233" = type { [48 x i8] }
%"struct.llvm::SmallVectorStorage.277" = type { [31 x %"struct.llvm::AlignedCharArrayUnion.232"] }
%"class.llvm::SmallVector.278" = type { %"class.llvm::SmallVectorImpl.234", %"struct.llvm::SmallVectorStorage.279" }
%"class.llvm::SmallVectorImpl.234" = type { %"class.llvm::SmallVectorTemplateBase.235" }
%"class.llvm::SmallVectorTemplateBase.235" = type { %"class.llvm::SmallVectorTemplateCommon.236" }
%"class.llvm::SmallVectorTemplateCommon.236" = type { %"class.llvm::SmallVectorBase", %"struct.llvm::AlignedCharArrayUnion.237" }
%"struct.llvm::AlignedCharArrayUnion.237" = type { %"struct.llvm::AlignedCharArray.80" }
%"struct.llvm::SmallVectorStorage.279" = type { [31 x %"struct.llvm::AlignedCharArrayUnion.237"] }
%"class.llvm::SmallVector.280" = type { %"class.llvm::SmallVectorImpl.270", %"struct.llvm::SmallVectorStorage.281" }
%"class.llvm::SmallVectorImpl.270" = type { %"class.llvm::SmallVectorTemplateBase.271" }
%"class.llvm::SmallVectorTemplateBase.271" = type { %"class.llvm::SmallVectorTemplateCommon.272" }
%"class.llvm::SmallVectorTemplateCommon.272" = type { %"class.llvm::SmallVectorBase", %"struct.llvm::AlignedCharArrayUnion.273" }
%"struct.llvm::AlignedCharArrayUnion.273" = type { %"struct.llvm::AlignedCharArray.233" }
%"struct.llvm::SmallVectorStorage.281" = type { [31 x %"struct.llvm::AlignedCharArrayUnion.273"] }
%"class.llvm::CCState" = type { i32, i8, %"class.llvm::MachineFunction"*, %"class.llvm::TargetMachine"*, %"class.llvm::TargetRegisterInfo"*, %"class.llvm::SmallVectorImpl.239"*, %"class.llvm::LLVMContext"*, i32, [4 x i8], %"class.llvm::SmallVector.248", %"class.llvm::SmallVector.258", i32, i32 }
%"class.llvm::TargetRegisterInfo" = type <{ i32 (...)**, %"class.llvm::MCRegisterInfo", %"struct.llvm::TargetRegisterInfoDesc"*, i8**, i32*, %"class.llvm::TargetRegisterClass"**, %"class.llvm::TargetRegisterClass"**, i32, [4 x i8] }>
%"class.llvm::MCRegisterInfo" = type { %"struct.llvm::MCRegisterDesc"*, i32, i32, i32, %"class.llvm::MCRegisterClass"*, i32, i32, [2 x i16]*, i16*, i8*, i16*, %"struct.llvm::MCRegisterInfo::SubRegCoveredBits"*, i32, i16*, i32, i32, i32, i32, %"struct.llvm::MCRegisterInfo::DwarfLLVMRegPair"*, %"struct.llvm::MCRegisterInfo::DwarfLLVMRegPair"*, %"struct.llvm::MCRegisterInfo::DwarfLLVMRegPair"*, %"struct.llvm::MCRegisterInfo::DwarfLLVMRegPair"*, %"class.llvm::DenseMap.175" }
%"struct.llvm::MCRegisterDesc" = type { i32, i32, i32, i32, i32 }
%"struct.llvm::MCRegisterInfo::SubRegCoveredBits" = type { i16, i16 }
%"struct.llvm::MCRegisterInfo::DwarfLLVMRegPair" = type { i32, i32 }
%"class.llvm::DenseMap.175" = type <{ %"struct.std::pair.178"*, i32, i32, i32, [4 x i8] }>
%"struct.std::pair.178" = type { i32, i32 }
%"struct.llvm::TargetRegisterInfoDesc" = type { i32, i8 }
%"class.llvm::SmallVector.248" = type { %"class.llvm::SmallVectorImpl.base.256", %"struct.llvm::SmallVectorStorage.257" }
%"class.llvm::SmallVectorImpl.base.256" = type { %"class.llvm::SmallVectorTemplateBase.base.255" }
%"class.llvm::SmallVectorTemplateBase.base.255" = type { %"class.llvm::SmallVectorTemplateCommon.base.254" }
%"class.llvm::SmallVectorTemplateCommon.base.254" = type <{ %"class.llvm::SmallVectorBase", %"struct.llvm::AlignedCharArrayUnion.252" }>
%"struct.llvm::AlignedCharArrayUnion.252" = type { %"struct.llvm::AlignedCharArray.253" }
%"struct.llvm::AlignedCharArray.253" = type { [4 x i8] }
%"struct.llvm::SmallVectorStorage.257" = type { [15 x %"struct.llvm::AlignedCharArrayUnion.252"] }
%"class.llvm::SmallVector.258" = type { %"class.llvm::SmallVectorImpl.base.266", %"struct.llvm::SmallVectorStorage.267" }
%"class.llvm::SmallVectorImpl.base.266" = type { %"class.llvm::SmallVectorTemplateBase.base.265" }
%"class.llvm::SmallVectorTemplateBase.base.265" = type { %"class.llvm::SmallVectorTemplateCommon.base.264" }
%"class.llvm::SmallVectorTemplateCommon.base.264" = type <{ %"class.llvm::SmallVectorBase", %"struct.llvm::AlignedCharArrayUnion.262" }>
%"struct.llvm::AlignedCharArrayUnion.262" = type { %"struct.llvm::AlignedCharArray.263" }
%"struct.llvm::AlignedCharArray.263" = type { [12 x i8] }
%"struct.llvm::SmallVectorStorage.267" = type { [3 x %"struct.llvm::AlignedCharArrayUnion.262"] }
%"class.llvm::SmallVectorImpl.239" = type { %"class.llvm::SmallVectorTemplateBase.base.245", [4 x i8] }
%"class.llvm::SmallVectorTemplateBase.base.245" = type { %"class.llvm::SmallVectorTemplateCommon.base.244" }
%"class.llvm::SmallVectorTemplateCommon.base.244" = type <{ %"class.llvm::SmallVectorBase", %"struct.llvm::AlignedCharArrayUnion.242" }>
%"struct.llvm::AlignedCharArrayUnion.242" = type { %"struct.llvm::AlignedCharArray.243" }
%"struct.llvm::AlignedCharArray.243" = type { [20 x i8] }

@_ZN4llvm19flag_aligned_memcpyE = external local_unnamed_addr global i8, align 1
@.str.2 = external hidden unnamed_addr constant [54 x i8], align 1

declare { %"class.llvm::SDNode"*, i32 } @_ZN4llvm12SelectionDAG11getRegisterEjNS_3EVTE(%"class.llvm::SelectionDAG"*, i32, i32, %"class.llvm::Type"*) local_unnamed_addr #0

; Function Attrs: nounwind uwtable
define { %"class.llvm::SDNode"*, i32 } @_ZNK4llvm21HexagonTargetLowering9LowerCallERNS_14TargetLowering16CallLoweringInfoERNS_15SmallVectorImplINS_7SDValueEEE(%"struct.llvm::TargetLowering::CallLoweringInfo"* dereferenceable(3752) %CLI) unnamed_addr #1 align 2 !dbg !21019 {
entry:
  %0 = load %"class.llvm::SelectionDAG"*, %"class.llvm::SelectionDAG"** undef, align 8, !dbg !23584, !tbaa !23585
  %DL = getelementptr inbounds %"struct.llvm::TargetLowering::CallLoweringInfo", %"struct.llvm::TargetLowering::CallLoweringInfo"* %CLI, i64 0, i32 10, !dbg !23601
  %Chain.sroa.0.0..sroa_idx = getelementptr inbounds %"struct.llvm::TargetLowering::CallLoweringInfo", %"struct.llvm::TargetLowering::CallLoweringInfo"* %CLI, i64 0, i32 0, i32 0
  %Chain.sroa.0.0.copyload = load %"class.llvm::SDNode"*, %"class.llvm::SDNode"** %Chain.sroa.0.0..sroa_idx, align 8, !tbaa.struct !23602
  %Chain.sroa.22.0..sroa_idx1044 = getelementptr inbounds %"struct.llvm::TargetLowering::CallLoweringInfo", %"struct.llvm::TargetLowering::CallLoweringInfo"* %CLI, i64 0, i32 0, i32 1
  %Chain.sroa.22.0.copyload = load i32, i32* %Chain.sroa.22.0..sroa_idx1044, align 8, !tbaa.struct !23602
  %Chain.sroa.36.0.copyload = load i32, i32* undef, align 4, !tbaa.struct !23602
  br label %cond.end

cond.end:                                         ; preds = %entry
  switch i16 undef, label %if.end27 [
  ], !dbg !23605

if.end27:                                         ; preds = %cond.end
  br label %if.end34.if.end62_crit_edge

if.end34.if.end62_crit_edge:                      ; preds = %if.end27
  br label %if.end62, !dbg !23670

if.end62:                                         ; preds = %if.end34.if.end62_crit_edge
  %agg.tmp65.sroa.0.0..sroa_idx = getelementptr inbounds %"class.llvm::SDLoc", %"class.llvm::SDLoc"* %DL, i64 0, i32 0
  br i1 undef, label %for.cond.cleanup81, label %for.body82.lr.ph, !dbg !23671

for.body82.lr.ph:                                 ; preds = %if.end62
  br label %for.body82, !dbg !23671

for.cond.cleanup81:                               ; preds = %cleanup160, %if.end62
  br i1 undef, label %if.end179, label %if.then171, !dbg !23673

for.body82:                                       ; preds = %cleanup160.for.body82_crit_edge, %for.body82.lr.ph
  %indvars.iv1154 = phi i64 [ 0, %for.body82.lr.ph ], [ %indvars.iv.next1155, %cleanup160.for.body82_crit_edge ]
  %Arg.sroa.0.0..sroa_idx = getelementptr inbounds %"class.llvm::SDValue", %"class.llvm::SDValue"* undef, i64 %indvars.iv1154, i32 0, !dbg !23674
  switch i32 undef, label %sw.default [
    i32 0, label %sw.epilog
  ], !dbg !23677

sw.default:                                       ; preds = %for.body82
  unreachable, !dbg !23678

sw.epilog:                                        ; preds = %for.body82
  br label %if.then120

if.then120:                                       ; preds = %sw.epilog
  %agg.tmp127.sroa.0.0.copyload = load i8*, i8** %agg.tmp65.sroa.0.0..sroa_idx, align 8, !dbg !23680, !tbaa.struct !23602
  %call131 = call { %"class.llvm::SDNode"*, i32 } @_ZN4llvm12SelectionDAG7getNodeEjNS_5SDLocENS_3EVTENS_7SDValueES3_(%"class.llvm::SelectionDAG"* %0, i32 45, i8* %agg.tmp127.sroa.0.0.copyload, i32 undef, i32 4, %"class.llvm::Type"* null, %"class.llvm::SDValue"* nonnull byval(%"class.llvm::SDValue") align 8 undef, %"class.llvm::SDValue"* nonnull byval(%"class.llvm::SDValue") align 8 undef) #3, !dbg !23683
  br label %if.then133

if.then133:                                       ; preds = %if.then120
  br label %_ZN4llvm23SmallVectorTemplateBaseINS_7SDValueELb1EE9push_backERKS1_.exit857

_ZN4llvm23SmallVectorTemplateBaseINS_7SDValueELb1EE9push_backERKS1_.exit857: ; preds = %if.then133
  br label %cleanup160, !dbg !23684

cleanup160:                                       ; preds = %_ZN4llvm23SmallVectorTemplateBaseINS_7SDValueELb1EE9push_backERKS1_.exit857
  %indvars.iv.next1155 = add nuw nsw i64 %indvars.iv1154, 1, !dbg !23687
  %cmp80 = icmp eq i64 %indvars.iv.next1155, undef, !dbg !23688
  br i1 %cmp80, label %for.cond.cleanup81, label %cleanup160.for.body82_crit_edge, !dbg !23671, !llvm.loop !23689

cleanup160.for.body82_crit_edge:                  ; preds = %cleanup160
  br label %for.body82, !dbg !23671

if.then171:                                       ; preds = %for.cond.cleanup81
  br label %if.end179

if.end179:                                        ; preds = %if.then171, %for.cond.cleanup81
  %Chain.sroa.0.0 = phi %"class.llvm::SDNode"* [ %Chain.sroa.0.0.copyload, %for.cond.cleanup81 ], [ undef, %if.then171 ], !dbg !23691
  %Chain.sroa.22.0 = phi i32 [ %Chain.sroa.22.0.copyload, %for.cond.cleanup81 ], [ undef, %if.then171 ], !dbg !23691
  %1 = load i8, i8* undef, align 1, !tbaa !23692, !range !23693
  %tobool180 = icmp eq i8 %1, 0
  br i1 %tobool180, label %if.end196, label %if.then224

if.end196:                                        ; preds = %if.end179
  %call193 = call { %"class.llvm::SDNode"*, i32 } @_ZN4llvm12SelectionDAG11getConstantEmNS_3EVTEb(%"class.llvm::SelectionDAG"* %0, i64 undef, i32 undef, %"class.llvm::Type"* null, i1 zeroext true) #3, !dbg !23694
  %2 = extractvalue { %"class.llvm::SDNode"*, i32 } %call193, 0, !dbg !23694
  %call.i803 = call { %"struct.llvm::EVT"*, i32 } @_ZN4llvm12SelectionDAG9getVTListENS_3EVTES1_(%"class.llvm::SelectionDAG"* %0, i32 0, %"class.llvm::Type"* null, i32 55, %"class.llvm::Type"* null) #3, !dbg !23696
  store i32 %Chain.sroa.22.0, i32* undef, align 8, !dbg !23708, !tbaa.struct !23602
  store %"class.llvm::SDNode"* %2, %"class.llvm::SDNode"** undef, align 16, !tbaa.struct !23602
  %call5.i805 = call { %"class.llvm::SDNode"*, i32 } @_ZN4llvm12SelectionDAG7getNodeEjNS_5SDLocENS_8SDVTListEPKNS_7SDValueEj(%"class.llvm::SelectionDAG"* %0, i32 155, i8* undef, i32 undef, %"struct.llvm::EVT"* undef, i32 undef, %"class.llvm::SDValue"* nonnull undef, i32 2) #3
  %3 = extractvalue { %"class.llvm::SDNode"*, i32 } %call5.i805, 0
  %4 = extractvalue { %"class.llvm::SDNode"*, i32 } %call5.i805, 1
  call void @llvm.dbg.value(metadata %"class.llvm::SDNode"* %3, metadata !23333, metadata !DIExpression(DW_OP_LLVM_fragment, 0, 64)), !dbg !23691
  br i1 undef, label %if.then198, label %if.then224

if.then198:                                       ; preds = %if.end196
  br i1 undef, label %if.end252, label %for.body206.lr.ph, !dbg !23709

for.body206.lr.ph:                                ; preds = %if.then198
  br label %for.body206, !dbg !23709

for.body206:                                      ; preds = %for.body206.for.body206_crit_edge, %for.body206.lr.ph
  %Chain.sroa.0.21136 = phi %"class.llvm::SDNode"* [ %3, %for.body206.lr.ph ], [ %7, %for.body206.for.body206_crit_edge ]
  %agg.tmp209.sroa.0.0.copyload = load i8*, i8** %agg.tmp65.sroa.0.0..sroa_idx, align 8, !dbg !23713, !tbaa.struct !23602
  %agg.tmp209.sroa.2.0.copyload = load i32, i32* undef, align 8, !dbg !23713, !tbaa.struct !23602
  %call.i765 = call { %"struct.llvm::EVT"*, i32 } @_ZN4llvm12SelectionDAG9getVTListENS_3EVTES1_(%"class.llvm::SelectionDAG"* %0, i32 0, %"class.llvm::Type"* null, i32 55, %"class.llvm::Type"* null) #3, !dbg !23716
  %5 = extractvalue { %"struct.llvm::EVT"*, i32 } %call.i765, 0, !dbg !23716
  %6 = extractvalue { %"struct.llvm::EVT"*, i32 } %call.i765, 1, !dbg !23716
  store %"class.llvm::SDNode"* %Chain.sroa.0.21136, %"class.llvm::SDNode"** undef, align 16, !dbg !23729, !tbaa.struct !23602
  %call5.i777 = call { %"class.llvm::SDNode"*, i32 } @_ZN4llvm12SelectionDAG11getRegisterEjNS_3EVTE(%"class.llvm::SelectionDAG"* %0, i32 undef, i32 undef, %"class.llvm::Type"* undef) #3
  %call11.i783 = call { %"class.llvm::SDNode"*, i32 } @_ZN4llvm12SelectionDAG7getNodeEjNS_5SDLocENS_8SDVTListEPKNS_7SDValueEj(%"class.llvm::SelectionDAG"* %0, i32 39, i8* %agg.tmp209.sroa.0.0.copyload, i32 %agg.tmp209.sroa.2.0.copyload, %"struct.llvm::EVT"* %5, i32 %6, %"class.llvm::SDValue"* nonnull undef, i32 undef) #3
  %7 = extractvalue { %"class.llvm::SDNode"*, i32 } %call11.i783, 0, !dbg !23730
  %cmp204 = icmp eq i64 undef, undef, !dbg !23731
  br i1 %cmp204, label %if.end222, label %for.body206.for.body206_crit_edge, !dbg !23709, !llvm.loop !23732

for.body206.for.body206_crit_edge:                ; preds = %for.body206
  br label %for.body206, !dbg !23709

if.end222:                                        ; preds = %for.body206
  %8 = extractvalue { %"class.llvm::SDNode"*, i32 } %call11.i783, 0, !dbg !23730
  %9 = extractvalue { %"class.llvm::SDNode"*, i32 } %call11.i783, 1, !dbg !23730
  %.pr1109.pre = load i8, i8* undef, align 1, !dbg !23734, !tbaa !23692
  call void @llvm.dbg.value(metadata %"class.llvm::SDNode"* %8, metadata !23333, metadata !DIExpression(DW_OP_LLVM_fragment, 0, 64)), !dbg !23691
  %tobool223 = icmp eq i8 %.pr1109.pre, 0, !dbg !23734
  br i1 %tobool223, label %if.end252, label %if.then224, !dbg !23736

if.then224:                                       ; preds = %if.end222, %if.end196, %if.end179
  %Chain.sroa.22.31116 = phi i32 [ %9, %if.end222 ], [ %4, %if.end196 ], [ %Chain.sroa.22.0, %if.end179 ]
  %Chain.sroa.0.31115 = phi %"class.llvm::SDNode"* [ %8, %if.end222 ], [ %3, %if.end196 ], [ %Chain.sroa.0.0, %if.end179 ]
  br label %if.end252

for.body233:                                      ; preds = %for.body233.for.body233_crit_edge
  br label %for.body233.for.body233_crit_edge

for.body233.for.body233_crit_edge:                ; preds = %for.body233
  br label %for.body233

if.end252:                                        ; preds = %if.then224, %if.end222, %if.then198
  %InFlag.sroa.0.3 = phi %"class.llvm::SDNode"* [ %8, %if.end222 ], [ null, %if.then224 ], [ null, %if.then198 ], !dbg !23691
  %InFlag.sroa.14.3 = phi i32 [ 1, %if.end222 ], [ 0, %if.then224 ], [ 0, %if.then198 ], !dbg !23691
  %Chain.sroa.0.5 = phi %"class.llvm::SDNode"* [ %8, %if.end222 ], [ %Chain.sroa.0.31115, %if.then224 ], [ %3, %if.then198 ]
  %Chain.sroa.22.5 = phi i32 [ %9, %if.end222 ], [ %Chain.sroa.22.31116, %if.then224 ], [ %4, %if.then198 ]
  br label %if.else264

if.else264:                                       ; preds = %if.end252
  switch i16 undef, label %_ZN4llvm23SmallVectorTemplateBaseINS_7SDValueELb1EE9push_backERKS1_.exit700 [
  ], !dbg !23737

_ZN4llvm23SmallVectorTemplateBaseINS_7SDValueELb1EE9push_backERKS1_.exit700: ; preds = %if.else264
  %call298 = call { %"struct.llvm::EVT"*, i32 } @_ZN4llvm12SelectionDAG9getVTListENS_3EVTES1_(%"class.llvm::SelectionDAG"* %0, i32 0, %"class.llvm::Type"* null, i32 55, %"class.llvm::Type"* null) #3, !dbg !23747
  store %"class.llvm::SDNode"* %Chain.sroa.0.5, %"class.llvm::SDNode"** undef, align 8, !dbg !23748
  store i32 %Chain.sroa.22.5, i32* undef, align 8, !dbg !23748
  store i32 %Chain.sroa.36.0.copyload, i32* undef, align 4, !dbg !23748
  br label %for.cond.cleanup305

for.cond.cleanup305:                              ; preds = %_ZN4llvm23SmallVectorTemplateBaseINS_7SDValueELb1EE9push_backERKS1_.exit700
  %tobool321 = icmp eq %"class.llvm::SDNode"* %InFlag.sroa.0.3, null
  br i1 %tobool321, label %if.end323, label %if.then322

if.then322:                                       ; preds = %for.cond.cleanup305
  br label %_ZN4llvm23SmallVectorTemplateBaseINS_7SDValueELb1EE9push_backERKS1_.exit

_ZN4llvm23SmallVectorTemplateBaseINS_7SDValueELb1EE9push_backERKS1_.exit: ; preds = %if.then322
  store i32 %InFlag.sroa.14.3, i32* undef, align 8, !dbg !23760
  br label %if.end323, !dbg !23764

if.end323:                                        ; preds = %_ZN4llvm23SmallVectorTemplateBaseINS_7SDValueELb1EE9push_backERKS1_.exit, %for.cond.cleanup305
  br label %if.then325

if.then325:                                       ; preds = %if.end323
  br label %cleanup360, !dbg !23765

cleanup360:                                       ; preds = %if.then325
  br label %_ZN4llvm15SmallVectorImplINS_7SDValueEED2Ev.exit671

_ZN4llvm15SmallVectorImplINS_7SDValueEED2Ev.exit671: ; preds = %cleanup360
  br label %_ZN4llvm15SmallVectorImplINS_7SDValueEED2Ev.exit

_ZN4llvm15SmallVectorImplINS_7SDValueEED2Ev.exit: ; preds = %_ZN4llvm15SmallVectorImplINS_7SDValueEED2Ev.exit671
  br label %_ZN4llvm15SmallVectorImplISt4pairIjNS_7SDValueEEED2Ev.exit

_ZN4llvm15SmallVectorImplISt4pairIjNS_7SDValueEEED2Ev.exit: ; preds = %_ZN4llvm15SmallVectorImplINS_7SDValueEED2Ev.exit
  br label %_ZN4llvm15SmallVectorImplINS_7CCState9ByValInfoEED2Ev.exit.i

_ZN4llvm15SmallVectorImplINS_7CCState9ByValInfoEED2Ev.exit.i: ; preds = %_ZN4llvm15SmallVectorImplISt4pairIjNS_7SDValueEEED2Ev.exit
  br label %_ZN4llvm7CCStateD2Ev.exit

_ZN4llvm7CCStateD2Ev.exit:                        ; preds = %_ZN4llvm15SmallVectorImplINS_7CCState9ByValInfoEED2Ev.exit.i
  br label %_ZN4llvm15SmallVectorImplINS_11CCValAssignEED2Ev.exit

_ZN4llvm15SmallVectorImplINS_11CCValAssignEED2Ev.exit: ; preds = %_ZN4llvm7CCStateD2Ev.exit
  ret { %"class.llvm::SDNode"*, i32 } undef, !dbg !23767
}

declare { %"class.llvm::SDNode"*, i32 } @_ZN4llvm12SelectionDAG7getNodeEjNS_5SDLocENS_3EVTENS_7SDValueE(%"class.llvm::SelectionDAG"*, i32, i8*, i32, i32, %"class.llvm::Type"*, %"class.llvm::SDValue"* byval(%"class.llvm::SDValue") align 8) local_unnamed_addr #0

declare { %"class.llvm::SDNode"*, i32 } @_ZN4llvm12SelectionDAG11getConstantEmNS_3EVTEb(%"class.llvm::SelectionDAG"*, i64, i32, %"class.llvm::Type"*, i1 zeroext) local_unnamed_addr #0

declare { %"class.llvm::SDNode"*, i32 } @_ZN4llvm12SelectionDAG7getNodeEjNS_5SDLocENS_3EVTENS_7SDValueES3_(%"class.llvm::SelectionDAG"*, i32, i8*, i32, i32, %"class.llvm::Type"*, %"class.llvm::SDValue"* byval(%"class.llvm::SDValue") align 8, %"class.llvm::SDValue"* byval(%"class.llvm::SDValue") align 8) local_unnamed_addr #0

declare { %"class.llvm::SDNode"*, i32 } @_ZN4llvm12SelectionDAG23getTargetExternalSymbolEPKcNS_3EVTEh(%"class.llvm::SelectionDAG"*, i8*, i32, %"class.llvm::Type"*, i8 zeroext) local_unnamed_addr #0

declare { %"struct.llvm::EVT"*, i32 } @_ZN4llvm12SelectionDAG9getVTListENS_3EVTES1_(%"class.llvm::SelectionDAG"*, i32, %"class.llvm::Type"*, i32, %"class.llvm::Type"*) local_unnamed_addr #0

declare { %"class.llvm::SDNode"*, i32 } @_ZN4llvm12SelectionDAG7getNodeEjNS_5SDLocENS_8SDVTListEPKNS_7SDValueEj(%"class.llvm::SelectionDAG"*, i32, i8*, i32, %"struct.llvm::EVT"*, i32, %"class.llvm::SDValue"*, i32) local_unnamed_addr #0

declare void @_ZN4llvm7CCStateC2ENS_11CallingConv2IDEbRNS_15MachineFunctionERKNS_13TargetMachineERNS_15SmallVectorImplINS_11CCValAssignEEERNS_11LLVMContextE(%"class.llvm::CCState"*, i32, i1 zeroext, %"class.llvm::MachineFunction"* dereferenceable(338), %"class.llvm::TargetMachine"* dereferenceable(192), %"class.llvm::SmallVectorImpl.239"* dereferenceable(44), %"class.llvm::LLVMContext"* nonnull) unnamed_addr #0

; Function Attrs: nounwind readnone speculatable willreturn
declare void @llvm.dbg.value(metadata, metadata, metadata) #2

attributes #0 = { "correctly-rounded-divide-sqrt-fp-math"="false" "denormal-fp-math"="ieee,ieee" "denormal-fp-math-f32"="ieee,ieee" "disable-tail-calls"="false" "frame-pointer"="none" "less-precise-fpmad"="false" "no-infs-fp-math"="false" "no-nans-fp-math"="false" "no-signed-zeros-fp-math"="false" "no-trapping-math"="false" "stack-protector-buffer-size"="8" "target-cpu"="x86-64" "target-features"="+cx8,+fxsr,+mmx,+sse,+sse2,+x87" "unsafe-fp-math"="false" "use-soft-float"="false" }
attributes #1 = { nounwind uwtable "correctly-rounded-divide-sqrt-fp-math"="false" "denormal-fp-math"="ieee,ieee" "denormal-fp-math-f32"="ieee,ieee" "disable-tail-calls"="false" "frame-pointer"="none" "less-precise-fpmad"="false" "min-legal-vector-width"="0" "no-infs-fp-math"="false" "no-jump-tables"="false" "no-nans-fp-math"="false" "no-signed-zeros-fp-math"="false" "no-trapping-math"="false" "stack-protector-buffer-size"="8" "target-cpu"="x86-64" "target-features"="+cx8,+fxsr,+mmx,+sse,+sse2,+x87" "unsafe-fp-math"="false" "use-soft-float"="false" }
attributes #2 = { nounwind readnone speculatable willreturn }
attributes #3 = { nounwind }

!llvm.dbg.cu = !{!0}
!llvm.module.flags = !{!21014, !21015, !21016, !21017}
!llvm.ident = !{!21018}

!0 = distinct !DICompileUnit(language: DW_LANG_C_plus_plus_14, file: !1, producer: "clang version 11.0.0 (git@github.com:llvm/llvm-project 804e68485f4ea133b88c01fd24dcfbbb39797021)", isOptimized: true, runtimeVersion: 0, emissionKind: FullDebug, enums: !2, retainedTypes: !12383, globals: !226, imports: !19668, splitDebugInlining: false, nameTableKind: None)
!1 = !DIFile(filename: "/faster/fs/llvm34/lib/Target/Hexagon/HexagonISelLowering.cpp", directory: "/fast/fs/build34reldebinfo")
!2 = !{!3, !11, !19, !103, !1733, !1737, !1758, !1764, !9110, !9121, !9185, !9224, !9251, !3129, !10898, !10905, !10910, !10917, !10954, !11012, !11020, !11083, !11142, !11239, !11268, !11280, !11289, !11293, !11300, !11308, !11499, !11525, !11570, !11575, !11616, !11764, !11865, !7064, !11887, !12233, !12240, !12309, !12317, !12321, !12330, !12335, !12342, !12348, !12375}
!3 = distinct !DICompositeType(tag: DW_TAG_enumeration_type, name: "_Lock_policy", scope: !5, file: !4, line: 49, baseType: !6, size: 32, elements: !7, identifier: "_ZTSN9__gnu_cxx12_Lock_policyE")
!4 = !DIFile(filename: "/usr/lib/gcc/x86_64-linux-gnu/7.5.0/../../../../include/c++/7.5.0/ext/concurrence.h", directory: "")
!5 = !DINamespace(name: "__gnu_cxx", scope: null)
!6 = !DIBasicType(name: "unsigned int", size: 32, encoding: DW_ATE_unsigned)
!7 = !{!8, !9, !10}
!8 = !DIEnumerator(name: "_S_single", value: 0, isUnsigned: true)
!9 = !DIEnumerator(name: "_S_mutex", value: 1, isUnsigned: true)
!10 = !DIEnumerator(name: "_S_atomic", value: 2, isUnsigned: true)
!11 = distinct !DICompositeType(tag: DW_TAG_enumeration_type, name: "OptionHidden", scope: !13, file: !12, line: 107, baseType: !6, size: 32, elements: !15, identifier: "_ZTSN4llvm2cl12OptionHiddenE")
!12 = !DIFile(filename: "/faster/fs/llvm34/include/llvm/Support/CommandLine.h", directory: "")
!13 = !DINamespace(name: "cl", scope: !14)
!14 = !DINamespace(name: "llvm", scope: null)
!15 = !{!16, !17, !18}
!16 = !DIEnumerator(name: "NotHidden", value: 0, isUnsigned: true)
!17 = !DIEnumerator(name: "Hidden", value: 1, isUnsigned: true)
!18 = !DIEnumerator(name: "ReallyHidden", value: 2, isUnsigned: true)
!19 = distinct !DICompositeType(tag: DW_TAG_enumeration_type, name: "SimpleValueType", scope: !21, file: !20, line: 35, baseType: !202, size: 32, elements: !1655, identifier: "_ZTSN4llvm3MVT15SimpleValueTypeE")
!20 = !DIFile(filename: "/faster/fs/llvm34/include/llvm/CodeGen/ValueTypes.h", directory: "")
!21 = distinct !DICompositeType(tag: DW_TAG_class_type, name: "MVT", scope: !14, file: !20, line: 33, size: 32, flags: DIFlagTypePassByValue | DIFlagNonTrivial, elements: !22, identifier: "_ZTSN4llvm3MVTE")
!22 = !{!23, !24, !28, !31, !38, !39, !40, !41, !42, !43, !46, !47, !48, !49, !50, !51, !52, !53, !54, !55, !56, !59, !60, !61, !64, !65, !66, !67, !70, !71, !72, !73, !76, !77, !80}
!23 = !DIDerivedType(tag: DW_TAG_member, name: "SimpleTy", scope: !21, file: !20, line: 161, baseType: !19, size: 32, flags: DIFlagPublic)
!24 = !DISubprogram(name: "MVT", scope: !21, file: !20, line: 163, type: !25, scopeLine: 163, flags: DIFlagPublic | DIFlagPrototyped, spFlags: DISPFlagOptimized)
!25 = !DISubroutineType(types: !26)
!26 = !{null, !27}
!27 = !DIDerivedType(tag: DW_TAG_pointer_type, baseType: !21, size: 64, flags: DIFlagArtificial | DIFlagObjectPointer)
!28 = !DISubprogram(name: "MVT", scope: !21, file: !20, line: 164, type: !29, scopeLine: 164, flags: DIFlagPublic | DIFlagPrototyped, spFlags: DISPFlagOptimized)
!29 = !DISubroutineType(types: !30)
!30 = !{null, !27, !19}
!31 = !DISubprogram(name: "operator>", linkageName: "_ZNK4llvm3MVTgtERKS0_", scope: !21, file: !20, line: 166, type: !32, scopeLine: 166, flags: DIFlagPublic | DIFlagPrototyped, spFlags: DISPFlagOptimized)
!32 = !DISubroutineType(types: !33)
!33 = !{!34, !35, !37}
!34 = !DIBasicType(name: "bool", size: 8, encoding: DW_ATE_boolean)
!35 = !DIDerivedType(tag: DW_TAG_pointer_type, baseType: !36, size: 64, flags: DIFlagArtificial | DIFlagObjectPointer)
!36 = !DIDerivedType(tag: DW_TAG_const_type, baseType: !21)
!37 = !DIDerivedType(tag: DW_TAG_reference_type, baseType: !36, size: 64)
!38 = !DISubprogram(name: "operator<", linkageName: "_ZNK4llvm3MVTltERKS0_", scope: !21, file: !20, line: 167, type: !32, scopeLine: 167, flags: DIFlagPublic | DIFlagPrototyped, spFlags: DISPFlagOptimized)
!39 = !DISubprogram(name: "operator==", linkageName: "_ZNK4llvm3MVTeqERKS0_", scope: !21, file: !20, line: 168, type: !32, scopeLine: 168, flags: DIFlagPublic | DIFlagPrototyped, spFlags: DISPFlagOptimized)
!40 = !DISubprogram(name: "operator!=", linkageName: "_ZNK4llvm3MVTneERKS0_", scope: !21, file: !20, line: 169, type: !32, scopeLine: 169, flags: DIFlagPublic | DIFlagPrototyped, spFlags: DISPFlagOptimized)
!41 = !DISubprogram(name: "operator>=", linkageName: "_ZNK4llvm3MVTgeERKS0_", scope: !21, file: !20, line: 170, type: !32, scopeLine: 170, flags: DIFlagPublic | DIFlagPrototyped, spFlags: DISPFlagOptimized)
!42 = !DISubprogram(name: "operator<=", linkageName: "_ZNK4llvm3MVTleERKS0_", scope: !21, file: !20, line: 171, type: !32, scopeLine: 171, flags: DIFlagPublic | DIFlagPrototyped, spFlags: DISPFlagOptimized)
!43 = !DISubprogram(name: "isFloatingPoint", linkageName: "_ZNK4llvm3MVT15isFloatingPointEv", scope: !21, file: !20, line: 174, type: !44, scopeLine: 174, flags: DIFlagPublic | DIFlagPrototyped, spFlags: DISPFlagOptimized)
!44 = !DISubroutineType(types: !45)
!45 = !{!34, !35}
!46 = !DISubprogram(name: "isInteger", linkageName: "_ZNK4llvm3MVT9isIntegerEv", scope: !21, file: !20, line: 182, type: !44, scopeLine: 182, flags: DIFlagPublic | DIFlagPrototyped, spFlags: DISPFlagOptimized)
!47 = !DISubprogram(name: "isVector", linkageName: "_ZNK4llvm3MVT8isVectorEv", scope: !21, file: !20, line: 190, type: !44, scopeLine: 190, flags: DIFlagPublic | DIFlagPrototyped, spFlags: DISPFlagOptimized)
!48 = !DISubprogram(name: "is16BitVector", linkageName: "_ZNK4llvm3MVT13is16BitVectorEv", scope: !21, file: !20, line: 196, type: !44, scopeLine: 196, flags: DIFlagPublic | DIFlagPrototyped, spFlags: DISPFlagOptimized)
!49 = !DISubprogram(name: "is32BitVector", linkageName: "_ZNK4llvm3MVT13is32BitVectorEv", scope: !21, file: !20, line: 202, type: !44, scopeLine: 202, flags: DIFlagPublic | DIFlagPrototyped, spFlags: DISPFlagOptimized)
!50 = !DISubprogram(name: "is64BitVector", linkageName: "_ZNK4llvm3MVT13is64BitVectorEv", scope: !21, file: !20, line: 208, type: !44, scopeLine: 208, flags: DIFlagPublic | DIFlagPrototyped, spFlags: DISPFlagOptimized)
!51 = !DISubprogram(name: "is128BitVector", linkageName: "_ZNK4llvm3MVT14is128BitVectorEv", scope: !21, file: !20, line: 215, type: !44, scopeLine: 215, flags: DIFlagPublic | DIFlagPrototyped, spFlags: DISPFlagOptimized)
!52 = !DISubprogram(name: "is256BitVector", linkageName: "_ZNK4llvm3MVT14is256BitVectorEv", scope: !21, file: !20, line: 222, type: !44, scopeLine: 222, flags: DIFlagPublic | DIFlagPrototyped, spFlags: DISPFlagOptimized)
!53 = !DISubprogram(name: "is512BitVector", linkageName: "_ZNK4llvm3MVT14is512BitVectorEv", scope: !21, file: !20, line: 229, type: !44, scopeLine: 229, flags: DIFlagPublic | DIFlagPrototyped, spFlags: DISPFlagOptimized)
!54 = !DISubprogram(name: "is1024BitVector", linkageName: "_ZNK4llvm3MVT15is1024BitVectorEv", scope: !21, file: !20, line: 236, type: !44, scopeLine: 236, flags: DIFlagPublic | DIFlagPrototyped, spFlags: DISPFlagOptimized)
!55 = !DISubprogram(name: "isPow2VectorType", linkageName: "_ZNK4llvm3MVT16isPow2VectorTypeEv", scope: !21, file: !20, line: 241, type: !44, scopeLine: 241, flags: DIFlagPublic | DIFlagPrototyped, spFlags: DISPFlagOptimized)
!56 = !DISubprogram(name: "getPow2VectorType", linkageName: "_ZNK4llvm3MVT17getPow2VectorTypeEv", scope: !21, file: !20, line: 248, type: !57, scopeLine: 248, flags: DIFlagPublic | DIFlagPrototyped, spFlags: DISPFlagOptimized)
!57 = !DISubroutineType(types: !58)
!58 = !{!21, !35}
!59 = !DISubprogram(name: "getScalarType", linkageName: "_ZNK4llvm3MVT13getScalarTypeEv", scope: !21, file: !20, line: 259, type: !57, scopeLine: 259, flags: DIFlagPublic | DIFlagPrototyped, spFlags: DISPFlagOptimized)
!60 = !DISubprogram(name: "getVectorElementType", linkageName: "_ZNK4llvm3MVT20getVectorElementTypeEv", scope: !21, file: !20, line: 263, type: !57, scopeLine: 263, flags: DIFlagPublic | DIFlagPrototyped, spFlags: DISPFlagOptimized)
!61 = !DISubprogram(name: "getVectorNumElements", linkageName: "_ZNK4llvm3MVT20getVectorNumElementsEv", scope: !21, file: !20, line: 311, type: !62, scopeLine: 311, flags: DIFlagPublic | DIFlagPrototyped, spFlags: DISPFlagOptimized)
!62 = !DISubroutineType(types: !63)
!63 = !{!6, !35}
!64 = !DISubprogram(name: "getSizeInBits", linkageName: "_ZNK4llvm3MVT13getSizeInBitsEv", scope: !21, file: !20, line: 359, type: !62, scopeLine: 359, flags: DIFlagPublic | DIFlagPrototyped, spFlags: DISPFlagOptimized)
!65 = !DISubprogram(name: "getStoreSize", linkageName: "_ZNK4llvm3MVT12getStoreSizeEv", scope: !21, file: !20, line: 433, type: !62, scopeLine: 433, flags: DIFlagPublic | DIFlagPrototyped, spFlags: DISPFlagOptimized)
!66 = !DISubprogram(name: "getStoreSizeInBits", linkageName: "_ZNK4llvm3MVT18getStoreSizeInBitsEv", scope: !21, file: !20, line: 439, type: !62, scopeLine: 439, flags: DIFlagPublic | DIFlagPrototyped, spFlags: DISPFlagOptimized)
!67 = !DISubprogram(name: "bitsGT", linkageName: "_ZNK4llvm3MVT6bitsGTES0_", scope: !21, file: !20, line: 444, type: !68, scopeLine: 444, flags: DIFlagPublic | DIFlagPrototyped, spFlags: DISPFlagOptimized)
!68 = !DISubroutineType(types: !69)
!69 = !{!34, !35, !21}
!70 = !DISubprogram(name: "bitsGE", linkageName: "_ZNK4llvm3MVT6bitsGEES0_", scope: !21, file: !20, line: 449, type: !68, scopeLine: 449, flags: DIFlagPublic | DIFlagPrototyped, spFlags: DISPFlagOptimized)
!71 = !DISubprogram(name: "bitsLT", linkageName: "_ZNK4llvm3MVT6bitsLTES0_", scope: !21, file: !20, line: 454, type: !68, scopeLine: 454, flags: DIFlagPublic | DIFlagPrototyped, spFlags: DISPFlagOptimized)
!72 = !DISubprogram(name: "bitsLE", linkageName: "_ZNK4llvm3MVT6bitsLEES0_", scope: !21, file: !20, line: 459, type: !68, scopeLine: 459, flags: DIFlagPublic | DIFlagPrototyped, spFlags: DISPFlagOptimized)
!73 = !DISubprogram(name: "getFloatingPointVT", linkageName: "_ZN4llvm3MVT18getFloatingPointVTEj", scope: !21, file: !20, line: 464, type: !74, scopeLine: 464, flags: DIFlagPublic | DIFlagPrototyped | DIFlagStaticMember, spFlags: DISPFlagOptimized)
!74 = !DISubroutineType(types: !75)
!75 = !{!21, !6}
!76 = !DISubprogram(name: "getIntegerVT", linkageName: "_ZN4llvm3MVT12getIntegerVTEj", scope: !21, file: !20, line: 481, type: !74, scopeLine: 481, flags: DIFlagPublic | DIFlagPrototyped | DIFlagStaticMember, spFlags: DISPFlagOptimized)
!77 = !DISubprogram(name: "getVectorVT", linkageName: "_ZN4llvm3MVT11getVectorVTES0_j", scope: !21, file: !20, line: 500, type: !78, scopeLine: 500, flags: DIFlagPublic | DIFlagPrototyped | DIFlagStaticMember, spFlags: DISPFlagOptimized)
!78 = !DISubroutineType(types: !79)
!79 = !{!21, !21, !6}
!80 = !DISubprogram(name: "getVT", linkageName: "_ZN4llvm3MVT5getVTEPNS_4TypeEb", scope: !21, file: !20, line: 568, type: !81, scopeLine: 568, flags: DIFlagPublic | DIFlagPrototyped | DIFlagStaticMember, spFlags: DISPFlagOptimized)
!81 = !DISubroutineType(types: !82)
!82 = !{!21, !83, !34}
!83 = !DIDerivedType(tag: DW_TAG_pointer_type, baseType: !84, size: 64)
!84 = distinct !DICompositeType(tag: DW_TAG_class_type, name: "Type", scope: !14, file: !85, line: 44, size: 192, flags: DIFlagTypePassByReference | DIFlagNonTrivial, elements: !86, identifier: "_ZTSN4llvm4TypeE")
!85 = !DIFile(filename: "/faster/fs/llvm34/include/llvm/IR/Type.h", directory: "")
!86 = !{!87, !90, !95, !96, !99, !124, !127, !130, !135, !138, !144, !147, !150, !153, !156, !157, !158, !159, !160, !161, !162, !163, !170, !171, !172, !173, !174, !175, !178, !179, !180, !181, !182, !183, !184, !185, !188, !189, !190, !191, !192, !193, !194, !195, !196, !199, !203, !207, !210, !214, !215, !300, !301, !304, !305, !306, !307, !308, !309, !1491, !1492, !1493, !1496, !1499, !1500, !1501, !1502, !1503, !1504, !1507, !1510, !1511, !1512, !1513, !1514, !1515, !1516, !1517, !1518, !1519, !1550, !1553, !1554, !1555, !1556, !1557, !1637, !1638, !1639, !1640, !1641, !1642, !1643, !1646, !1647, !1648, !1649, !1650, !1651, !1654}
!87 = !DIDerivedType(tag: DW_TAG_member, name: "Context", scope: !84, file: !85, line: 82, baseType: !88, size: 64)
!88 = !DIDerivedType(tag: DW_TAG_reference_type, baseType: !89, size: 64)
!89 = distinct !DICompositeType(tag: DW_TAG_class_type, name: "LLVMContext", scope: !14, file: !20, line: 27, flags: DIFlagFwdDecl, identifier: "_ZTSN4llvm11LLVMContextE")
!90 = !DIDerivedType(tag: DW_TAG_member, name: "IDAndSubclassData", scope: !84, file: !85, line: 88, baseType: !91, size: 32, offset: 64)
!91 = !DIDerivedType(tag: DW_TAG_typedef, name: "uint32_t", file: !92, line: 26, baseType: !93)
!92 = !DIFile(filename: "/usr/include/x86_64-linux-gnu/bits/stdint-uintn.h", directory: "")
!93 = !DIDerivedType(tag: DW_TAG_typedef, name: "__uint32_t", file: !94, line: 41, baseType: !6)
!94 = !DIFile(filename: "/usr/include/x86_64-linux-gnu/bits/types.h", directory: "")
!95 = !DIDerivedType(tag: DW_TAG_member, name: "NumContainedTys", scope: !84, file: !85, line: 114, baseType: !6, size: 32, offset: 96, flags: DIFlagProtected)
!96 = !DIDerivedType(tag: DW_TAG_member, name: "ContainedTys", scope: !84, file: !85, line: 121, baseType: !97, size: 64, offset: 128, flags: DIFlagProtected)
!97 = !DIDerivedType(tag: DW_TAG_pointer_type, baseType: !98, size: 64)
!98 = !DIDerivedType(tag: DW_TAG_const_type, baseType: !83)
!99 = !DISubprogram(name: "Type", scope: !84, file: !85, line: 92, type: !100, scopeLine: 92, flags: DIFlagProtected | DIFlagExplicit | DIFlagPrototyped, spFlags: DISPFlagOptimized)
!100 = !DISubroutineType(types: !101)
!101 = !{null, !102, !88, !103}
!102 = !DIDerivedType(tag: DW_TAG_pointer_type, baseType: !84, size: 64, flags: DIFlagArtificial | DIFlagObjectPointer)
!103 = distinct !DICompositeType(tag: DW_TAG_enumeration_type, name: "TypeID", scope: !84, file: !85, line: 53, baseType: !6, size: 32, elements: !104, identifier: "_ZTSN4llvm4Type6TypeIDE")
!104 = !{!105, !106, !107, !108, !109, !110, !111, !112, !113, !114, !115, !116, !117, !118, !119, !120, !121, !122, !123}
!105 = !DIEnumerator(name: "VoidTyID", value: 0, isUnsigned: true)
!106 = !DIEnumerator(name: "HalfTyID", value: 1, isUnsigned: true)
!107 = !DIEnumerator(name: "FloatTyID", value: 2, isUnsigned: true)
!108 = !DIEnumerator(name: "DoubleTyID", value: 3, isUnsigned: true)
!109 = !DIEnumerator(name: "X86_FP80TyID", value: 4, isUnsigned: true)
!110 = !DIEnumerator(name: "FP128TyID", value: 5, isUnsigned: true)
!111 = !DIEnumerator(name: "PPC_FP128TyID", value: 6, isUnsigned: true)
!112 = !DIEnumerator(name: "LabelTyID", value: 7, isUnsigned: true)
!113 = !DIEnumerator(name: "MetadataTyID", value: 8, isUnsigned: true)
!114 = !DIEnumerator(name: "X86_MMXTyID", value: 9, isUnsigned: true)
!115 = !DIEnumerator(name: "IntegerTyID", value: 10, isUnsigned: true)
!116 = !DIEnumerator(name: "FunctionTyID", value: 11, isUnsigned: true)
!117 = !DIEnumerator(name: "StructTyID", value: 12, isUnsigned: true)
!118 = !DIEnumerator(name: "ArrayTyID", value: 13, isUnsigned: true)
!119 = !DIEnumerator(name: "PointerTyID", value: 14, isUnsigned: true)
!120 = !DIEnumerator(name: "VectorTyID", value: 15, isUnsigned: true)
!121 = !DIEnumerator(name: "NumTypeIDs", value: 16, isUnsigned: true)
!122 = !DIEnumerator(name: "LastPrimitiveTyID", value: 9, isUnsigned: true)
!123 = !DIEnumerator(name: "FirstDerivedTyID", value: 10, isUnsigned: true)
!124 = !DISubprogram(name: "~Type", scope: !84, file: !85, line: 97, type: !125, scopeLine: 97, flags: DIFlagProtected | DIFlagPrototyped, spFlags: DISPFlagOptimized)
!125 = !DISubroutineType(types: !126)
!126 = !{null, !102}
!127 = !DISubprogram(name: "setTypeID", linkageName: "_ZN4llvm4Type9setTypeIDENS0_6TypeIDE", scope: !84, file: !85, line: 99, type: !128, scopeLine: 99, flags: DIFlagProtected | DIFlagPrototyped, spFlags: DISPFlagOptimized)
!128 = !DISubroutineType(types: !129)
!129 = !{null, !102, !103}
!130 = !DISubprogram(name: "getSubclassData", linkageName: "_ZNK4llvm4Type15getSubclassDataEv", scope: !84, file: !85, line: 104, type: !131, scopeLine: 104, flags: DIFlagProtected | DIFlagPrototyped, spFlags: DISPFlagOptimized)
!131 = !DISubroutineType(types: !132)
!132 = !{!6, !133}
!133 = !DIDerivedType(tag: DW_TAG_pointer_type, baseType: !134, size: 64, flags: DIFlagArtificial | DIFlagObjectPointer)
!134 = !DIDerivedType(tag: DW_TAG_const_type, baseType: !84)
!135 = !DISubprogram(name: "setSubclassData", linkageName: "_ZN4llvm4Type15setSubclassDataEj", scope: !84, file: !85, line: 106, type: !136, scopeLine: 106, flags: DIFlagProtected | DIFlagPrototyped, spFlags: DISPFlagOptimized)
!136 = !DISubroutineType(types: !137)
!137 = !{null, !102, !6}
!138 = !DISubprogram(name: "print", linkageName: "_ZNK4llvm4Type5printERNS_11raw_ostreamE", scope: !84, file: !85, line: 124, type: !139, scopeLine: 124, flags: DIFlagPublic | DIFlagPrototyped, spFlags: DISPFlagOptimized)
!139 = !DISubroutineType(types: !140)
!140 = !{null, !133, !141}
!141 = !DIDerivedType(tag: DW_TAG_reference_type, baseType: !142, size: 64)
!142 = distinct !DICompositeType(tag: DW_TAG_class_type, name: "raw_ostream", scope: !14, file: !143, line: 31, flags: DIFlagFwdDecl, identifier: "_ZTSN4llvm11raw_ostreamE")
!143 = !DIFile(filename: "/faster/fs/llvm34/include/llvm/Support/raw_ostream.h", directory: "")
!144 = !DISubprogram(name: "dump", linkageName: "_ZNK4llvm4Type4dumpEv", scope: !84, file: !85, line: 125, type: !145, scopeLine: 125, flags: DIFlagPublic | DIFlagPrototyped, spFlags: DISPFlagOptimized)
!145 = !DISubroutineType(types: !146)
!146 = !{null, !133}
!147 = !DISubprogram(name: "getContext", linkageName: "_ZNK4llvm4Type10getContextEv", scope: !84, file: !85, line: 128, type: !148, scopeLine: 128, flags: DIFlagPublic | DIFlagPrototyped, spFlags: DISPFlagOptimized)
!148 = !DISubroutineType(types: !149)
!149 = !{!88, !133}
!150 = !DISubprogram(name: "getTypeID", linkageName: "_ZNK4llvm4Type9getTypeIDEv", scope: !84, file: !85, line: 137, type: !151, scopeLine: 137, flags: DIFlagPublic | DIFlagPrototyped, spFlags: DISPFlagOptimized)
!151 = !DISubroutineType(types: !152)
!152 = !{!103, !133}
!153 = !DISubprogram(name: "isVoidTy", linkageName: "_ZNK4llvm4Type8isVoidTyEv", scope: !84, file: !85, line: 140, type: !154, scopeLine: 140, flags: DIFlagPublic | DIFlagPrototyped, spFlags: DISPFlagOptimized)
!154 = !DISubroutineType(types: !155)
!155 = !{!34, !133}
!156 = !DISubprogram(name: "isHalfTy", linkageName: "_ZNK4llvm4Type8isHalfTyEv", scope: !84, file: !85, line: 143, type: !154, scopeLine: 143, flags: DIFlagPublic | DIFlagPrototyped, spFlags: DISPFlagOptimized)
!157 = !DISubprogram(name: "isFloatTy", linkageName: "_ZNK4llvm4Type9isFloatTyEv", scope: !84, file: !85, line: 146, type: !154, scopeLine: 146, flags: DIFlagPublic | DIFlagPrototyped, spFlags: DISPFlagOptimized)
!158 = !DISubprogram(name: "isDoubleTy", linkageName: "_ZNK4llvm4Type10isDoubleTyEv", scope: !84, file: !85, line: 149, type: !154, scopeLine: 149, flags: DIFlagPublic | DIFlagPrototyped, spFlags: DISPFlagOptimized)
!159 = !DISubprogram(name: "isX86_FP80Ty", linkageName: "_ZNK4llvm4Type12isX86_FP80TyEv", scope: !84, file: !85, line: 152, type: !154, scopeLine: 152, flags: DIFlagPublic | DIFlagPrototyped, spFlags: DISPFlagOptimized)
!160 = !DISubprogram(name: "isFP128Ty", linkageName: "_ZNK4llvm4Type9isFP128TyEv", scope: !84, file: !85, line: 155, type: !154, scopeLine: 155, flags: DIFlagPublic | DIFlagPrototyped, spFlags: DISPFlagOptimized)
!161 = !DISubprogram(name: "isPPC_FP128Ty", linkageName: "_ZNK4llvm4Type13isPPC_FP128TyEv", scope: !84, file: !85, line: 158, type: !154, scopeLine: 158, flags: DIFlagPublic | DIFlagPrototyped, spFlags: DISPFlagOptimized)
!162 = !DISubprogram(name: "isFloatingPointTy", linkageName: "_ZNK4llvm4Type17isFloatingPointTyEv", scope: !84, file: !85, line: 162, type: !154, scopeLine: 162, flags: DIFlagPublic | DIFlagPrototyped, spFlags: DISPFlagOptimized)
!163 = !DISubprogram(name: "getFltSemantics", linkageName: "_ZNK4llvm4Type15getFltSemanticsEv", scope: !84, file: !85, line: 169, type: !164, scopeLine: 169, flags: DIFlagPublic | DIFlagPrototyped, spFlags: DISPFlagOptimized)
!164 = !DISubroutineType(types: !165)
!165 = !{!166, !133}
!166 = !DIDerivedType(tag: DW_TAG_reference_type, baseType: !167, size: 64)
!167 = !DIDerivedType(tag: DW_TAG_const_type, baseType: !168)
!168 = distinct !DICompositeType(tag: DW_TAG_structure_type, name: "fltSemantics", scope: !14, file: !169, line: 24, flags: DIFlagFwdDecl, identifier: "_ZTSN4llvm12fltSemanticsE")
!169 = !DIFile(filename: "/faster/fs/llvm34/include/llvm/ADT/APFloat.h", directory: "")
!170 = !DISubprogram(name: "isX86_MMXTy", linkageName: "_ZNK4llvm4Type11isX86_MMXTyEv", scope: !84, file: !85, line: 182, type: !154, scopeLine: 182, flags: DIFlagPublic | DIFlagPrototyped, spFlags: DISPFlagOptimized)
!171 = !DISubprogram(name: "isFPOrFPVectorTy", linkageName: "_ZNK4llvm4Type16isFPOrFPVectorTyEv", scope: !84, file: !85, line: 186, type: !154, scopeLine: 186, flags: DIFlagPublic | DIFlagPrototyped, spFlags: DISPFlagOptimized)
!172 = !DISubprogram(name: "isLabelTy", linkageName: "_ZNK4llvm4Type9isLabelTyEv", scope: !84, file: !85, line: 189, type: !154, scopeLine: 189, flags: DIFlagPublic | DIFlagPrototyped, spFlags: DISPFlagOptimized)
!173 = !DISubprogram(name: "isMetadataTy", linkageName: "_ZNK4llvm4Type12isMetadataTyEv", scope: !84, file: !85, line: 192, type: !154, scopeLine: 192, flags: DIFlagPublic | DIFlagPrototyped, spFlags: DISPFlagOptimized)
!174 = !DISubprogram(name: "isIntegerTy", linkageName: "_ZNK4llvm4Type11isIntegerTyEv", scope: !84, file: !85, line: 196, type: !154, scopeLine: 196, flags: DIFlagPublic | DIFlagPrototyped, spFlags: DISPFlagOptimized)
!175 = !DISubprogram(name: "isIntegerTy", linkageName: "_ZNK4llvm4Type11isIntegerTyEj", scope: !84, file: !85, line: 199, type: !176, scopeLine: 199, flags: DIFlagPublic | DIFlagPrototyped, spFlags: DISPFlagOptimized)
!176 = !DISubroutineType(types: !177)
!177 = !{!34, !133, !6}
!178 = !DISubprogram(name: "isIntOrIntVectorTy", linkageName: "_ZNK4llvm4Type18isIntOrIntVectorTyEv", scope: !84, file: !85, line: 204, type: !154, scopeLine: 204, flags: DIFlagPublic | DIFlagPrototyped, spFlags: DISPFlagOptimized)
!179 = !DISubprogram(name: "isFunctionTy", linkageName: "_ZNK4llvm4Type12isFunctionTyEv", scope: !84, file: !85, line: 208, type: !154, scopeLine: 208, flags: DIFlagPublic | DIFlagPrototyped, spFlags: DISPFlagOptimized)
!180 = !DISubprogram(name: "isStructTy", linkageName: "_ZNK4llvm4Type10isStructTyEv", scope: !84, file: !85, line: 212, type: !154, scopeLine: 212, flags: DIFlagPublic | DIFlagPrototyped, spFlags: DISPFlagOptimized)
!181 = !DISubprogram(name: "isArrayTy", linkageName: "_ZNK4llvm4Type9isArrayTyEv", scope: !84, file: !85, line: 216, type: !154, scopeLine: 216, flags: DIFlagPublic | DIFlagPrototyped, spFlags: DISPFlagOptimized)
!182 = !DISubprogram(name: "isPointerTy", linkageName: "_ZNK4llvm4Type11isPointerTyEv", scope: !84, file: !85, line: 220, type: !154, scopeLine: 220, flags: DIFlagPublic | DIFlagPrototyped, spFlags: DISPFlagOptimized)
!183 = !DISubprogram(name: "isPtrOrPtrVectorTy", linkageName: "_ZNK4llvm4Type18isPtrOrPtrVectorTyEv", scope: !84, file: !85, line: 225, type: !154, scopeLine: 225, flags: DIFlagPublic | DIFlagPrototyped, spFlags: DISPFlagOptimized)
!184 = !DISubprogram(name: "isVectorTy", linkageName: "_ZNK4llvm4Type10isVectorTyEv", scope: !84, file: !85, line: 229, type: !154, scopeLine: 229, flags: DIFlagPublic | DIFlagPrototyped, spFlags: DISPFlagOptimized)
!185 = !DISubprogram(name: "canLosslesslyBitCastTo", linkageName: "_ZNK4llvm4Type22canLosslesslyBitCastToEPS0_", scope: !84, file: !85, line: 236, type: !186, scopeLine: 236, flags: DIFlagPublic | DIFlagPrototyped, spFlags: DISPFlagOptimized)
!186 = !DISubroutineType(types: !187)
!187 = !{!34, !133, !83}
!188 = !DISubprogram(name: "isEmptyTy", linkageName: "_ZNK4llvm4Type9isEmptyTyEv", scope: !84, file: !85, line: 240, type: !154, scopeLine: 240, flags: DIFlagPublic | DIFlagPrototyped, spFlags: DISPFlagOptimized)
!189 = !DISubprogram(name: "isPrimitiveType", linkageName: "_ZNK4llvm4Type15isPrimitiveTypeEv", scope: !84, file: !85, line: 245, type: !154, scopeLine: 245, flags: DIFlagPublic | DIFlagPrototyped, spFlags: DISPFlagOptimized)
!190 = !DISubprogram(name: "isDerivedType", linkageName: "_ZNK4llvm4Type13isDerivedTypeEv", scope: !84, file: !85, line: 246, type: !154, scopeLine: 246, flags: DIFlagPublic | DIFlagPrototyped, spFlags: DISPFlagOptimized)
!191 = !DISubprogram(name: "isFirstClassType", linkageName: "_ZNK4llvm4Type16isFirstClassTypeEv", scope: !84, file: !85, line: 251, type: !154, scopeLine: 251, flags: DIFlagPublic | DIFlagPrototyped, spFlags: DISPFlagOptimized)
!192 = !DISubprogram(name: "isSingleValueType", linkageName: "_ZNK4llvm4Type17isSingleValueTypeEv", scope: !84, file: !85, line: 259, type: !154, scopeLine: 259, flags: DIFlagPublic | DIFlagPrototyped, spFlags: DISPFlagOptimized)
!193 = !DISubprogram(name: "isAggregateType", linkageName: "_ZNK4llvm4Type15isAggregateTypeEv", scope: !84, file: !85, line: 270, type: !154, scopeLine: 270, flags: DIFlagPublic | DIFlagPrototyped, spFlags: DISPFlagOptimized)
!194 = !DISubprogram(name: "isSized", linkageName: "_ZNK4llvm4Type7isSizedEv", scope: !84, file: !85, line: 278, type: !154, scopeLine: 278, flags: DIFlagPublic | DIFlagPrototyped, spFlags: DISPFlagOptimized)
!195 = !DISubprogram(name: "getPrimitiveSizeInBits", linkageName: "_ZNK4llvm4Type22getPrimitiveSizeInBitsEv", scope: !84, file: !85, line: 303, type: !131, scopeLine: 303, flags: DIFlagPublic | DIFlagPrototyped, spFlags: DISPFlagOptimized)
!196 = !DISubprogram(name: "getScalarSizeInBits", linkageName: "_ZN4llvm4Type19getScalarSizeInBitsEv", scope: !84, file: !85, line: 308, type: !197, scopeLine: 308, flags: DIFlagPublic | DIFlagPrototyped, spFlags: DISPFlagOptimized)
!197 = !DISubroutineType(types: !198)
!198 = !{!6, !102}
!199 = !DISubprogram(name: "getFPMantissaWidth", linkageName: "_ZNK4llvm4Type18getFPMantissaWidthEv", scope: !84, file: !85, line: 313, type: !200, scopeLine: 313, flags: DIFlagPublic | DIFlagPrototyped, spFlags: DISPFlagOptimized)
!200 = !DISubroutineType(types: !201)
!201 = !{!202, !133}
!202 = !DIBasicType(name: "int", size: 32, encoding: DW_ATE_signed)
!203 = !DISubprogram(name: "getScalarType", linkageName: "_ZNK4llvm4Type13getScalarTypeEv", scope: !84, file: !85, line: 317, type: !204, scopeLine: 317, flags: DIFlagPublic | DIFlagPrototyped, spFlags: DISPFlagOptimized)
!204 = !DISubroutineType(types: !205)
!205 = !{!206, !133}
!206 = !DIDerivedType(tag: DW_TAG_pointer_type, baseType: !134, size: 64)
!207 = !DISubprogram(name: "getScalarType", linkageName: "_ZN4llvm4Type13getScalarTypeEv", scope: !84, file: !85, line: 318, type: !208, scopeLine: 318, flags: DIFlagPublic | DIFlagPrototyped, spFlags: DISPFlagOptimized)
!208 = !DISubroutineType(types: !209)
!209 = !{!83, !102}
!210 = !DISubprogram(name: "subtype_begin", linkageName: "_ZNK4llvm4Type13subtype_beginEv", scope: !84, file: !85, line: 324, type: !211, scopeLine: 324, flags: DIFlagPublic | DIFlagPrototyped, spFlags: DISPFlagOptimized)
!211 = !DISubroutineType(types: !212)
!212 = !{!213, !133}
!213 = !DIDerivedType(tag: DW_TAG_typedef, name: "subtype_iterator", scope: !84, file: !85, line: 323, baseType: !97)
!214 = !DISubprogram(name: "subtype_end", linkageName: "_ZNK4llvm4Type11subtype_endEv", scope: !84, file: !85, line: 325, type: !211, scopeLine: 325, flags: DIFlagPublic | DIFlagPrototyped, spFlags: DISPFlagOptimized)
!215 = !DISubprogram(name: "subtype_rbegin", linkageName: "_ZNK4llvm4Type14subtype_rbeginEv", scope: !84, file: !85, line: 328, type: !216, scopeLine: 328, flags: DIFlagPublic | DIFlagPrototyped, spFlags: DISPFlagOptimized)
!216 = !DISubroutineType(types: !217)
!217 = !{!218, !133}
!218 = !DIDerivedType(tag: DW_TAG_typedef, name: "subtype_reverse_iterator", scope: !84, file: !85, line: 327, baseType: !219)
!219 = distinct !DICompositeType(tag: DW_TAG_class_type, name: "reverse_iterator<llvm::Type *const *>", scope: !221, file: !220, line: 101, size: 64, flags: DIFlagTypePassByReference | DIFlagNonTrivial, elements: !222, templateParams: !269, identifier: "_ZTSSt16reverse_iteratorIPKPN4llvm4TypeEE")
!220 = !DIFile(filename: "/usr/lib/gcc/x86_64-linux-gnu/7.5.0/../../../../include/c++/7.5.0/bits/stl_iterator.h", directory: "")
!221 = !DINamespace(name: "std", scope: null)
!222 = !{!223, !245, !246, !250, !254, !259, !263, !271, !276, !280, !283, !284, !285, !292, !295, !296, !297}
!223 = !DIDerivedType(tag: DW_TAG_inheritance, scope: !219, baseType: !224, flags: DIFlagPublic, extraData: i32 0)
!224 = distinct !DICompositeType(tag: DW_TAG_structure_type, name: "iterator<std::random_access_iterator_tag, llvm::Type *, long, llvm::Type *const *, llvm::Type *const &>", scope: !221, file: !225, line: 118, size: 8, flags: DIFlagTypePassByValue, elements: !226, templateParams: !227, identifier: "_ZTSSt8iteratorISt26random_access_iterator_tagPN4llvm4TypeElPKS3_RS4_E")
!225 = !DIFile(filename: "/usr/lib/gcc/x86_64-linux-gnu/7.5.0/../../../../include/c++/7.5.0/bits/stl_iterator_base_types.h", directory: "")
!226 = !{}
!227 = !{!228, !239, !240, !242, !243}
!228 = !DITemplateTypeParameter(name: "_Category", type: !229)
!229 = distinct !DICompositeType(tag: DW_TAG_structure_type, name: "random_access_iterator_tag", scope: !221, file: !225, line: 103, size: 8, flags: DIFlagTypePassByValue, elements: !230, identifier: "_ZTSSt26random_access_iterator_tag")
!230 = !{!231}
!231 = !DIDerivedType(tag: DW_TAG_inheritance, scope: !229, baseType: !232, extraData: i32 0)
!232 = distinct !DICompositeType(tag: DW_TAG_structure_type, name: "bidirectional_iterator_tag", scope: !221, file: !225, line: 99, size: 8, flags: DIFlagTypePassByValue, elements: !233, identifier: "_ZTSSt26bidirectional_iterator_tag")
!233 = !{!234}
!234 = !DIDerivedType(tag: DW_TAG_inheritance, scope: !232, baseType: !235, extraData: i32 0)
!235 = distinct !DICompositeType(tag: DW_TAG_structure_type, name: "forward_iterator_tag", scope: !221, file: !225, line: 95, size: 8, flags: DIFlagTypePassByValue, elements: !236, identifier: "_ZTSSt20forward_iterator_tag")
!236 = !{!237}
!237 = !DIDerivedType(tag: DW_TAG_inheritance, scope: !235, baseType: !238, extraData: i32 0)
!238 = distinct !DICompositeType(tag: DW_TAG_structure_type, name: "input_iterator_tag", scope: !221, file: !225, line: 89, size: 8, flags: DIFlagTypePassByValue, elements: !226, identifier: "_ZTSSt18input_iterator_tag")
!239 = !DITemplateTypeParameter(name: "_Tp", type: !83)
!240 = !DITemplateTypeParameter(name: "_Distance", type: !241)
!241 = !DIBasicType(name: "long int", size: 64, encoding: DW_ATE_signed)
!242 = !DITemplateTypeParameter(name: "_Pointer", type: !97)
!243 = !DITemplateTypeParameter(name: "_Reference", type: !244)
!244 = !DIDerivedType(tag: DW_TAG_reference_type, baseType: !98, size: 64)
!245 = !DIDerivedType(tag: DW_TAG_member, name: "current", scope: !219, file: !220, line: 109, baseType: !97, size: 64, flags: DIFlagProtected)
!246 = !DISubprogram(name: "reverse_iterator", scope: !219, file: !220, line: 127, type: !247, scopeLine: 127, flags: DIFlagPublic | DIFlagPrototyped, spFlags: DISPFlagOptimized)
!247 = !DISubroutineType(types: !248)
!248 = !{null, !249}
!249 = !DIDerivedType(tag: DW_TAG_pointer_type, baseType: !219, size: 64, flags: DIFlagArtificial | DIFlagObjectPointer)
!250 = !DISubprogram(name: "reverse_iterator", scope: !219, file: !220, line: 133, type: !251, scopeLine: 133, flags: DIFlagPublic | DIFlagExplicit | DIFlagPrototyped, spFlags: DISPFlagOptimized)
!251 = !DISubroutineType(types: !252)
!252 = !{null, !249, !253}
!253 = !DIDerivedType(tag: DW_TAG_typedef, name: "iterator_type", scope: !219, file: !220, line: 114, baseType: !97)
!254 = !DISubprogram(name: "reverse_iterator", scope: !219, file: !220, line: 139, type: !255, scopeLine: 139, flags: DIFlagPublic | DIFlagPrototyped, spFlags: DISPFlagOptimized)
!255 = !DISubroutineType(types: !256)
!256 = !{null, !249, !257}
!257 = !DIDerivedType(tag: DW_TAG_reference_type, baseType: !258, size: 64)
!258 = !DIDerivedType(tag: DW_TAG_const_type, baseType: !219)
!259 = !DISubprogram(name: "base", linkageName: "_ZNKSt16reverse_iteratorIPKPN4llvm4TypeEE4baseEv", scope: !219, file: !220, line: 155, type: !260, scopeLine: 155, flags: DIFlagPublic | DIFlagPrototyped, spFlags: DISPFlagOptimized)
!260 = !DISubroutineType(types: !261)
!261 = !{!253, !262}
!262 = !DIDerivedType(tag: DW_TAG_pointer_type, baseType: !258, size: 64, flags: DIFlagArtificial | DIFlagObjectPointer)
!263 = !DISubprogram(name: "operator*", linkageName: "_ZNKSt16reverse_iteratorIPKPN4llvm4TypeEEdeEv", scope: !219, file: !220, line: 169, type: !264, scopeLine: 169, flags: DIFlagPublic | DIFlagPrototyped, spFlags: DISPFlagOptimized)
!264 = !DISubroutineType(types: !265)
!265 = !{!266, !262}
!266 = !DIDerivedType(tag: DW_TAG_typedef, name: "reference", scope: !219, file: !220, line: 117, baseType: !267)
!267 = !DIDerivedType(tag: DW_TAG_typedef, name: "reference", scope: !268, file: !225, line: 195, baseType: !244)
!268 = distinct !DICompositeType(tag: DW_TAG_structure_type, name: "iterator_traits<llvm::Type *const *>", scope: !221, file: !225, line: 189, size: 8, flags: DIFlagTypePassByValue, elements: !226, templateParams: !269, identifier: "_ZTSSt15iterator_traitsIPKPN4llvm4TypeEE")
!269 = !{!270}
!270 = !DITemplateTypeParameter(name: "_Iterator", type: !97)
!271 = !DISubprogram(name: "operator->", linkageName: "_ZNKSt16reverse_iteratorIPKPN4llvm4TypeEEptEv", scope: !219, file: !220, line: 183, type: !272, scopeLine: 183, flags: DIFlagPublic | DIFlagPrototyped, spFlags: DISPFlagOptimized)
!272 = !DISubroutineType(types: !273)
!273 = !{!274, !262}
!274 = !DIDerivedType(tag: DW_TAG_typedef, name: "pointer", scope: !219, file: !220, line: 116, baseType: !275)
!275 = !DIDerivedType(tag: DW_TAG_typedef, name: "pointer", scope: !268, file: !225, line: 194, baseType: !97)
!276 = !DISubprogram(name: "operator++", linkageName: "_ZNSt16reverse_iteratorIPKPN4llvm4TypeEEppEv", scope: !219, file: !220, line: 192, type: !277, scopeLine: 192, flags: DIFlagPublic | DIFlagPrototyped, spFlags: DISPFlagOptimized)
!277 = !DISubroutineType(types: !278)
!278 = !{!279, !249}
!279 = !DIDerivedType(tag: DW_TAG_reference_type, baseType: !219, size: 64)
!280 = !DISubprogram(name: "operator++", linkageName: "_ZNSt16reverse_iteratorIPKPN4llvm4TypeEEppEi", scope: !219, file: !220, line: 204, type: !281, scopeLine: 204, flags: DIFlagPublic | DIFlagPrototyped, spFlags: DISPFlagOptimized)
!281 = !DISubroutineType(types: !282)
!282 = !{!219, !249, !202}
!283 = !DISubprogram(name: "operator--", linkageName: "_ZNSt16reverse_iteratorIPKPN4llvm4TypeEEmmEv", scope: !219, file: !220, line: 217, type: !277, scopeLine: 217, flags: DIFlagPublic | DIFlagPrototyped, spFlags: DISPFlagOptimized)
!284 = !DISubprogram(name: "operator--", linkageName: "_ZNSt16reverse_iteratorIPKPN4llvm4TypeEEmmEi", scope: !219, file: !220, line: 229, type: !281, scopeLine: 229, flags: DIFlagPublic | DIFlagPrototyped, spFlags: DISPFlagOptimized)
!285 = !DISubprogram(name: "operator+", linkageName: "_ZNKSt16reverse_iteratorIPKPN4llvm4TypeEEplEl", scope: !219, file: !220, line: 242, type: !286, scopeLine: 242, flags: DIFlagPublic | DIFlagPrototyped, spFlags: DISPFlagOptimized)
!286 = !DISubroutineType(types: !287)
!287 = !{!219, !262, !288}
!288 = !DIDerivedType(tag: DW_TAG_typedef, name: "difference_type", scope: !219, file: !220, line: 115, baseType: !289)
!289 = !DIDerivedType(tag: DW_TAG_typedef, name: "difference_type", scope: !268, file: !225, line: 193, baseType: !290)
!290 = !DIDerivedType(tag: DW_TAG_typedef, name: "ptrdiff_t", scope: !221, file: !291, line: 232, baseType: !241)
!291 = !DIFile(filename: "/usr/lib/gcc/x86_64-linux-gnu/7.5.0/../../../../include/x86_64-linux-gnu/c++/7.5.0/bits/c++config.h", directory: "")
!292 = !DISubprogram(name: "operator+=", linkageName: "_ZNSt16reverse_iteratorIPKPN4llvm4TypeEEpLEl", scope: !219, file: !220, line: 252, type: !293, scopeLine: 252, flags: DIFlagPublic | DIFlagPrototyped, spFlags: DISPFlagOptimized)
!293 = !DISubroutineType(types: !294)
!294 = !{!279, !249, !288}
!295 = !DISubprogram(name: "operator-", linkageName: "_ZNKSt16reverse_iteratorIPKPN4llvm4TypeEEmiEl", scope: !219, file: !220, line: 264, type: !286, scopeLine: 264, flags: DIFlagPublic | DIFlagPrototyped, spFlags: DISPFlagOptimized)
!296 = !DISubprogram(name: "operator-=", linkageName: "_ZNSt16reverse_iteratorIPKPN4llvm4TypeEEmIEl", scope: !219, file: !220, line: 274, type: !293, scopeLine: 274, flags: DIFlagPublic | DIFlagPrototyped, spFlags: DISPFlagOptimized)
!297 = !DISubprogram(name: "operator[]", linkageName: "_ZNKSt16reverse_iteratorIPKPN4llvm4TypeEEixEl", scope: !219, file: !220, line: 286, type: !298, scopeLine: 286, flags: DIFlagPublic | DIFlagPrototyped, spFlags: DISPFlagOptimized)
!298 = !DISubroutineType(types: !299)
!299 = !{!266, !262, !288}
!300 = !DISubprogram(name: "subtype_rend", linkageName: "_ZNK4llvm4Type12subtype_rendEv", scope: !84, file: !85, line: 331, type: !216, scopeLine: 331, flags: DIFlagPublic | DIFlagPrototyped, spFlags: DISPFlagOptimized)
!301 = !DISubprogram(name: "getContainedType", linkageName: "_ZNK4llvm4Type16getContainedTypeEj", scope: !84, file: !85, line: 339, type: !302, scopeLine: 339, flags: DIFlagPublic | DIFlagPrototyped, spFlags: DISPFlagOptimized)
!302 = !DISubroutineType(types: !303)
!303 = !{!83, !133, !6}
!304 = !DISubprogram(name: "getNumContainedTypes", linkageName: "_ZNK4llvm4Type20getNumContainedTypesEv", scope: !84, file: !85, line: 346, type: !131, scopeLine: 346, flags: DIFlagPublic | DIFlagPrototyped, spFlags: DISPFlagOptimized)
!305 = !DISubprogram(name: "getIntegerBitWidth", linkageName: "_ZNK4llvm4Type18getIntegerBitWidthEv", scope: !84, file: !85, line: 355, type: !131, scopeLine: 355, flags: DIFlagPublic | DIFlagPrototyped, spFlags: DISPFlagOptimized)
!306 = !DISubprogram(name: "getFunctionParamType", linkageName: "_ZNK4llvm4Type20getFunctionParamTypeEj", scope: !84, file: !85, line: 357, type: !302, scopeLine: 357, flags: DIFlagPublic | DIFlagPrototyped, spFlags: DISPFlagOptimized)
!307 = !DISubprogram(name: "getFunctionNumParams", linkageName: "_ZNK4llvm4Type20getFunctionNumParamsEv", scope: !84, file: !85, line: 358, type: !131, scopeLine: 358, flags: DIFlagPublic | DIFlagPrototyped, spFlags: DISPFlagOptimized)
!308 = !DISubprogram(name: "isFunctionVarArg", linkageName: "_ZNK4llvm4Type16isFunctionVarArgEv", scope: !84, file: !85, line: 359, type: !154, scopeLine: 359, flags: DIFlagPublic | DIFlagPrototyped, spFlags: DISPFlagOptimized)
!309 = !DISubprogram(name: "getStructName", linkageName: "_ZNK4llvm4Type13getStructNameEv", scope: !84, file: !85, line: 361, type: !310, scopeLine: 361, flags: DIFlagPublic | DIFlagPrototyped, spFlags: DISPFlagOptimized)
!310 = !DISubroutineType(types: !311)
!311 = !{!312, !133}
!312 = distinct !DICompositeType(tag: DW_TAG_class_type, name: "StringRef", scope: !14, file: !313, line: 41, size: 128, flags: DIFlagTypePassByValue | DIFlagNonTrivial, elements: !314, identifier: "_ZTSN4llvm9StringRefE")
!313 = !DIFile(filename: "/faster/fs/llvm34/include/llvm/ADT/StringRef.h", directory: "")
!314 = !{!315, !320, !324, !325, !328, !329, !332, !336, !339, !342, !352, !358, !359, !362, !365, !368, !371, !372, !375, !376, !379, !380, !381, !384, !387, !390, !391, !392, !393, !394, !395, !398, !401, !402, !405, !406, !407, !408, !409, !410, !411, !412, !413, !416, !417, !1400, !1401, !1402, !1405, !1408, !1409, !1410, !1477, !1480, !1485, !1486, !1489, !1490}
!315 = !DIDerivedType(tag: DW_TAG_member, name: "npos", scope: !312, file: !313, line: 45, baseType: !316, flags: DIFlagPublic | DIFlagStaticMember, extraData: i64 -1)
!316 = !DIDerivedType(tag: DW_TAG_const_type, baseType: !317)
!317 = !DIDerivedType(tag: DW_TAG_typedef, name: "size_t", file: !318, line: 46, baseType: !319)
!318 = !DIFile(filename: "llvm-project/build/lib/clang/11.0.0/include/stddef.h", directory: "/fast/fs")
!319 = !DIBasicType(name: "long unsigned int", size: 64, encoding: DW_ATE_unsigned)
!320 = !DIDerivedType(tag: DW_TAG_member, name: "Data", scope: !312, file: !313, line: 50, baseType: !321, size: 64)
!321 = !DIDerivedType(tag: DW_TAG_pointer_type, baseType: !322, size: 64)
!322 = !DIDerivedType(tag: DW_TAG_const_type, baseType: !323)
!323 = !DIBasicType(name: "char", size: 8, encoding: DW_ATE_signed_char)
!324 = !DIDerivedType(tag: DW_TAG_member, name: "Length", scope: !312, file: !313, line: 53, baseType: !317, size: 64, offset: 64)
!325 = !DISubprogram(name: "min", linkageName: "_ZN4llvm9StringRef3minEmm", scope: !312, file: !313, line: 58, type: !326, scopeLine: 58, flags: DIFlagPrototyped | DIFlagStaticMember, spFlags: DISPFlagOptimized)
!326 = !DISubroutineType(types: !327)
!327 = !{!317, !317, !317}
!328 = !DISubprogram(name: "max", linkageName: "_ZN4llvm9StringRef3maxEmm", scope: !312, file: !313, line: 59, type: !326, scopeLine: 59, flags: DIFlagPrototyped | DIFlagStaticMember, spFlags: DISPFlagOptimized)
!329 = !DISubprogram(name: "compareMemory", linkageName: "_ZN4llvm9StringRef13compareMemoryEPKcS2_m", scope: !312, file: !313, line: 63, type: !330, scopeLine: 63, flags: DIFlagPrototyped | DIFlagStaticMember, spFlags: DISPFlagOptimized)
!330 = !DISubroutineType(types: !331)
!331 = !{!202, !321, !321, !317}
!332 = !DISubprogram(name: "StringRef", scope: !312, file: !313, line: 73, type: !333, scopeLine: 73, flags: DIFlagPublic | DIFlagPrototyped, spFlags: DISPFlagOptimized)
!333 = !DISubroutineType(types: !334)
!334 = !{null, !335}
!335 = !DIDerivedType(tag: DW_TAG_pointer_type, baseType: !312, size: 64, flags: DIFlagArtificial | DIFlagObjectPointer)
!336 = !DISubprogram(name: "StringRef", scope: !312, file: !313, line: 76, type: !337, scopeLine: 76, flags: DIFlagPublic | DIFlagPrototyped, spFlags: DISPFlagOptimized)
!337 = !DISubroutineType(types: !338)
!338 = !{null, !335, !321}
!339 = !DISubprogram(name: "StringRef", scope: !312, file: !313, line: 83, type: !340, scopeLine: 83, flags: DIFlagPublic | DIFlagPrototyped, spFlags: DISPFlagOptimized)
!340 = !DISubroutineType(types: !341)
!341 = !{null, !335, !321, !317}
!342 = !DISubprogram(name: "StringRef", scope: !312, file: !313, line: 90, type: !343, scopeLine: 90, flags: DIFlagPublic | DIFlagPrototyped, spFlags: DISPFlagOptimized)
!343 = !DISubroutineType(types: !344)
!344 = !{null, !335, !345}
!345 = !DIDerivedType(tag: DW_TAG_reference_type, baseType: !346, size: 64)
!346 = !DIDerivedType(tag: DW_TAG_const_type, baseType: !347)
!347 = !DIDerivedType(tag: DW_TAG_typedef, name: "string", scope: !349, file: !348, line: 74, baseType: !350)
!348 = !DIFile(filename: "/usr/lib/gcc/x86_64-linux-gnu/7.5.0/../../../../include/c++/7.5.0/bits/stringfwd.h", directory: "")
!349 = !DINamespace(name: "__cxx11", scope: !221, exportSymbols: true)
!350 = distinct !DICompositeType(tag: DW_TAG_class_type, name: "basic_string<char, std::char_traits<char>, std::allocator<char> >", scope: !349, file: !351, line: 1607, flags: DIFlagFwdDecl, identifier: "_ZTSNSt7__cxx1112basic_stringIcSt11char_traitsIcESaIcEEE")
!351 = !DIFile(filename: "/usr/lib/gcc/x86_64-linux-gnu/7.5.0/../../../../include/c++/7.5.0/bits/basic_string.tcc", directory: "")
!352 = !DISubprogram(name: "begin", linkageName: "_ZNK4llvm9StringRef5beginEv", scope: !312, file: !313, line: 97, type: !353, scopeLine: 97, flags: DIFlagPublic | DIFlagPrototyped, spFlags: DISPFlagOptimized)
!353 = !DISubroutineType(types: !354)
!354 = !{!355, !356}
!355 = !DIDerivedType(tag: DW_TAG_typedef, name: "iterator", scope: !312, file: !313, line: 43, baseType: !321)
!356 = !DIDerivedType(tag: DW_TAG_pointer_type, baseType: !357, size: 64, flags: DIFlagArtificial | DIFlagObjectPointer)
!357 = !DIDerivedType(tag: DW_TAG_const_type, baseType: !312)
!358 = !DISubprogram(name: "end", linkageName: "_ZNK4llvm9StringRef3endEv", scope: !312, file: !313, line: 99, type: !353, scopeLine: 99, flags: DIFlagPublic | DIFlagPrototyped, spFlags: DISPFlagOptimized)
!359 = !DISubprogram(name: "data", linkageName: "_ZNK4llvm9StringRef4dataEv", scope: !312, file: !313, line: 107, type: !360, scopeLine: 107, flags: DIFlagPublic | DIFlagPrototyped, spFlags: DISPFlagOptimized)
!360 = !DISubroutineType(types: !361)
!361 = !{!321, !356}
!362 = !DISubprogram(name: "empty", linkageName: "_ZNK4llvm9StringRef5emptyEv", scope: !312, file: !313, line: 110, type: !363, scopeLine: 110, flags: DIFlagPublic | DIFlagPrototyped, spFlags: DISPFlagOptimized)
!363 = !DISubroutineType(types: !364)
!364 = !{!34, !356}
!365 = !DISubprogram(name: "size", linkageName: "_ZNK4llvm9StringRef4sizeEv", scope: !312, file: !313, line: 113, type: !366, scopeLine: 113, flags: DIFlagPublic | DIFlagPrototyped, spFlags: DISPFlagOptimized)
!366 = !DISubroutineType(types: !367)
!367 = !{!317, !356}
!368 = !DISubprogram(name: "front", linkageName: "_ZNK4llvm9StringRef5frontEv", scope: !312, file: !313, line: 116, type: !369, scopeLine: 116, flags: DIFlagPublic | DIFlagPrototyped, spFlags: DISPFlagOptimized)
!369 = !DISubroutineType(types: !370)
!370 = !{!323, !356}
!371 = !DISubprogram(name: "back", linkageName: "_ZNK4llvm9StringRef4backEv", scope: !312, file: !313, line: 122, type: !369, scopeLine: 122, flags: DIFlagPublic | DIFlagPrototyped, spFlags: DISPFlagOptimized)
!372 = !DISubprogram(name: "equals", linkageName: "_ZNK4llvm9StringRef6equalsES0_", scope: !312, file: !313, line: 129, type: !373, scopeLine: 129, flags: DIFlagPublic | DIFlagPrototyped, spFlags: DISPFlagOptimized)
!373 = !DISubroutineType(types: !374)
!374 = !{!34, !356, !312}
!375 = !DISubprogram(name: "equals_lower", linkageName: "_ZNK4llvm9StringRef12equals_lowerES0_", scope: !312, file: !313, line: 135, type: !373, scopeLine: 135, flags: DIFlagPublic | DIFlagPrototyped, spFlags: DISPFlagOptimized)
!376 = !DISubprogram(name: "compare", linkageName: "_ZNK4llvm9StringRef7compareES0_", scope: !312, file: !313, line: 141, type: !377, scopeLine: 141, flags: DIFlagPublic | DIFlagPrototyped, spFlags: DISPFlagOptimized)
!377 = !DISubroutineType(types: !378)
!378 = !{!202, !356, !312}
!379 = !DISubprogram(name: "compare_lower", linkageName: "_ZNK4llvm9StringRef13compare_lowerES0_", scope: !312, file: !313, line: 153, type: !377, scopeLine: 153, flags: DIFlagPublic | DIFlagPrototyped, spFlags: DISPFlagOptimized)
!380 = !DISubprogram(name: "compare_numeric", linkageName: "_ZNK4llvm9StringRef15compare_numericES0_", scope: !312, file: !313, line: 157, type: !377, scopeLine: 157, flags: DIFlagPublic | DIFlagPrototyped, spFlags: DISPFlagOptimized)
!381 = !DISubprogram(name: "edit_distance", linkageName: "_ZNK4llvm9StringRef13edit_distanceES0_bj", scope: !312, file: !313, line: 177, type: !382, scopeLine: 177, flags: DIFlagPublic | DIFlagPrototyped, spFlags: DISPFlagOptimized)
!382 = !DISubroutineType(types: !383)
!383 = !{!6, !356, !312, !34, !6}
!384 = !DISubprogram(name: "str", linkageName: "_ZNK4llvm9StringRef3strB5cxx11Ev", scope: !312, file: !313, line: 181, type: !385, scopeLine: 181, flags: DIFlagPublic | DIFlagPrototyped, spFlags: DISPFlagOptimized)
!385 = !DISubroutineType(types: !386)
!386 = !{!347, !356}
!387 = !DISubprogram(name: "operator[]", linkageName: "_ZNK4llvm9StringRefixEm", scope: !312, file: !313, line: 190, type: !388, scopeLine: 190, flags: DIFlagPublic | DIFlagPrototyped, spFlags: DISPFlagOptimized)
!388 = !DISubroutineType(types: !389)
!389 = !{!323, !356, !317}
!390 = !DISubprogram(name: "operator basic_string", linkageName: "_ZNK4llvm9StringRefcvNSt7__cxx1112basic_stringIcSt11char_traitsIcESaIcEEEEv", scope: !312, file: !313, line: 199, type: !385, scopeLine: 199, flags: DIFlagPublic | DIFlagPrototyped, spFlags: DISPFlagOptimized)
!391 = !DISubprogram(name: "startswith", linkageName: "_ZNK4llvm9StringRef10startswithES0_", scope: !312, file: !313, line: 208, type: !373, scopeLine: 208, flags: DIFlagPublic | DIFlagPrototyped, spFlags: DISPFlagOptimized)
!392 = !DISubprogram(name: "startswith_lower", linkageName: "_ZNK4llvm9StringRef16startswith_lowerES0_", scope: !312, file: !313, line: 214, type: !373, scopeLine: 214, flags: DIFlagPublic | DIFlagPrototyped, spFlags: DISPFlagOptimized)
!393 = !DISubprogram(name: "endswith", linkageName: "_ZNK4llvm9StringRef8endswithES0_", scope: !312, file: !313, line: 217, type: !373, scopeLine: 217, flags: DIFlagPublic | DIFlagPrototyped, spFlags: DISPFlagOptimized)
!394 = !DISubprogram(name: "endswith_lower", linkageName: "_ZNK4llvm9StringRef14endswith_lowerES0_", scope: !312, file: !313, line: 223, type: !373, scopeLine: 223, flags: DIFlagPublic | DIFlagPrototyped, spFlags: DISPFlagOptimized)
!395 = !DISubprogram(name: "find", linkageName: "_ZNK4llvm9StringRef4findEcm", scope: !312, file: !313, line: 233, type: !396, scopeLine: 233, flags: DIFlagPublic | DIFlagPrototyped, spFlags: DISPFlagOptimized)
!396 = !DISubroutineType(types: !397)
!397 = !{!317, !356, !323, !317}
!398 = !DISubprogram(name: "find", linkageName: "_ZNK4llvm9StringRef4findES0_m", scope: !312, file: !313, line: 244, type: !399, scopeLine: 244, flags: DIFlagPublic | DIFlagPrototyped, spFlags: DISPFlagOptimized)
!399 = !DISubroutineType(types: !400)
!400 = !{!317, !356, !312, !317}
!401 = !DISubprogram(name: "rfind", linkageName: "_ZNK4llvm9StringRef5rfindEcm", scope: !312, file: !313, line: 250, type: !396, scopeLine: 250, flags: DIFlagPublic | DIFlagPrototyped, spFlags: DISPFlagOptimized)
!402 = !DISubprogram(name: "rfind", linkageName: "_ZNK4llvm9StringRef5rfindES0_", scope: !312, file: !313, line: 265, type: !403, scopeLine: 265, flags: DIFlagPublic | DIFlagPrototyped, spFlags: DISPFlagOptimized)
!403 = !DISubroutineType(types: !404)
!404 = !{!317, !356, !312}
!405 = !DISubprogram(name: "find_first_of", linkageName: "_ZNK4llvm9StringRef13find_first_ofEcm", scope: !312, file: !313, line: 269, type: !396, scopeLine: 269, flags: DIFlagPublic | DIFlagPrototyped, spFlags: DISPFlagOptimized)
!406 = !DISubprogram(name: "find_first_of", linkageName: "_ZNK4llvm9StringRef13find_first_ofES0_m", scope: !312, file: !313, line: 277, type: !399, scopeLine: 277, flags: DIFlagPublic | DIFlagPrototyped, spFlags: DISPFlagOptimized)
!407 = !DISubprogram(name: "find_first_not_of", linkageName: "_ZNK4llvm9StringRef17find_first_not_ofEcm", scope: !312, file: !313, line: 281, type: !396, scopeLine: 281, flags: DIFlagPublic | DIFlagPrototyped, spFlags: DISPFlagOptimized)
!408 = !DISubprogram(name: "find_first_not_of", linkageName: "_ZNK4llvm9StringRef17find_first_not_ofES0_m", scope: !312, file: !313, line: 287, type: !399, scopeLine: 287, flags: DIFlagPublic | DIFlagPrototyped, spFlags: DISPFlagOptimized)
!409 = !DISubprogram(name: "find_last_of", linkageName: "_ZNK4llvm9StringRef12find_last_ofEcm", scope: !312, file: !313, line: 291, type: !396, scopeLine: 291, flags: DIFlagPublic | DIFlagPrototyped, spFlags: DISPFlagOptimized)
!410 = !DISubprogram(name: "find_last_of", linkageName: "_ZNK4llvm9StringRef12find_last_ofES0_m", scope: !312, file: !313, line: 299, type: !399, scopeLine: 299, flags: DIFlagPublic | DIFlagPrototyped, spFlags: DISPFlagOptimized)
!411 = !DISubprogram(name: "find_last_not_of", linkageName: "_ZNK4llvm9StringRef16find_last_not_ofEcm", scope: !312, file: !313, line: 303, type: !396, scopeLine: 303, flags: DIFlagPublic | DIFlagPrototyped, spFlags: DISPFlagOptimized)
!412 = !DISubprogram(name: "find_last_not_of", linkageName: "_ZNK4llvm9StringRef16find_last_not_ofES0_m", scope: !312, file: !313, line: 309, type: !399, scopeLine: 309, flags: DIFlagPublic | DIFlagPrototyped, spFlags: DISPFlagOptimized)
!413 = !DISubprogram(name: "count", linkageName: "_ZNK4llvm9StringRef5countEc", scope: !312, file: !313, line: 316, type: !414, scopeLine: 316, flags: DIFlagPublic | DIFlagPrototyped, spFlags: DISPFlagOptimized)
!414 = !DISubroutineType(types: !415)
!415 = !{!317, !356, !323}
!416 = !DISubprogram(name: "count", linkageName: "_ZNK4llvm9StringRef5countES0_", scope: !312, file: !313, line: 326, type: !403, scopeLine: 326, flags: DIFlagPublic | DIFlagPrototyped, spFlags: DISPFlagOptimized)
!417 = !DISubprogram(name: "getAsInteger", linkageName: "_ZNK4llvm9StringRef12getAsIntegerEjRNS_5APIntE", scope: !312, file: !313, line: 367, type: !418, scopeLine: 367, flags: DIFlagPublic | DIFlagPrototyped, spFlags: DISPFlagOptimized)
!418 = !DISubroutineType(types: !419)
!419 = !{!34, !356, !6, !420}
!420 = !DIDerivedType(tag: DW_TAG_reference_type, baseType: !421, size: 64)
!421 = distinct !DICompositeType(tag: DW_TAG_class_type, name: "APInt", scope: !14, file: !422, line: 75, size: 128, flags: DIFlagTypePassByReference | DIFlagNonTrivial, elements: !423, identifier: "_ZTSN4llvm5APIntE")
!422 = !DIFile(filename: "/faster/fs/llvm34/include/llvm/ADT/APInt.h", directory: "")
!423 = !{!424, !425, !433, !437, !442, !445, !446, !449, !452, !455, !461, !466, !469, !474, !477, !480, !483, !484, !485, !488, !491, !494, !497, !498, !499, !500, !503, !508, !509, !510, !514, !517, !518, !519, !923, !924, !925, !926, !927, !928, !929, !930, !931, !934, !935, !936, !937, !938, !941, !944, !945, !946, !947, !948, !949, !950, !951, !952, !955, !958, !959, !960, !963, !966, !969, !972, !973, !974, !975, !978, !979, !980, !981, !984, !987, !988, !989, !990, !991, !992, !993, !994, !997, !998, !999, !1000, !1001, !1002, !1003, !1004, !1005, !1008, !1009, !1010, !1011, !1012, !1013, !1014, !1015, !1016, !1017, !1018, !1019, !1020, !1021, !1022, !1023, !1024, !1025, !1026, !1029, !1030, !1034, !1035, !1036, !1037, !1038, !1039, !1040, !1043, !1044, !1045, !1046, !1047, !1048, !1049, !1050, !1051, !1052, !1053, !1054, !1055, !1056, !1057, !1058, !1059, !1060, !1061, !1062, !1063, !1064, !1065, !1066, !1067, !1068, !1069, !1070, !1071, !1072, !1073, !1074, !1075, !1078, !1079, !1080, !1081, !1082, !1083, !1084, !1085, !1086, !1087, !1088, !1091, !1097, !1100, !1101, !1102, !1103, !1104, !1105, !1106, !1109, !1292, !1295, !1296, !1299, !1300, !1304, !1307, !1308, !1309, !1313, !1316, !1319, !1320, !1321, !1326, !1327, !1328, !1329, !1333, !1337, !1342, !1347, !1350, !1353, !1356, !1359, !1360, !1363, !1364, !1365, !1368, !1369, !1372, !1375, !1378, !1381, !1384, !1385, !1386, !1387, !1388, !1389, !1392, !1395, !1396, !1397}
!424 = !DIDerivedType(tag: DW_TAG_member, name: "BitWidth", scope: !421, file: !422, line: 76, baseType: !6, size: 32)
!425 = !DIDerivedType(tag: DW_TAG_member, scope: !421, file: !422, line: 80, baseType: !426, size: 64, offset: 64)
!426 = distinct !DICompositeType(tag: DW_TAG_union_type, scope: !421, file: !422, line: 80, size: 64, flags: DIFlagExportSymbols | DIFlagTypePassByValue, elements: !427, identifier: "_ZTSN4llvm5APIntUt_E")
!427 = !{!428, !431}
!428 = !DIDerivedType(tag: DW_TAG_member, name: "VAL", scope: !426, file: !422, line: 81, baseType: !429, size: 64)
!429 = !DIDerivedType(tag: DW_TAG_typedef, name: "uint64_t", file: !92, line: 27, baseType: !430)
!430 = !DIDerivedType(tag: DW_TAG_typedef, name: "__uint64_t", file: !94, line: 44, baseType: !319)
!431 = !DIDerivedType(tag: DW_TAG_member, name: "pVal", scope: !426, file: !422, line: 82, baseType: !432, size: 64)
!432 = !DIDerivedType(tag: DW_TAG_pointer_type, baseType: !429, size: 64)
!433 = !DISubprogram(name: "APInt", scope: !421, file: !422, line: 98, type: !434, scopeLine: 98, flags: DIFlagPrototyped, spFlags: DISPFlagOptimized)
!434 = !DISubroutineType(types: !435)
!435 = !{null, !436, !432, !6}
!436 = !DIDerivedType(tag: DW_TAG_pointer_type, baseType: !421, size: 64, flags: DIFlagArtificial | DIFlagObjectPointer)
!437 = !DISubprogram(name: "isSingleWord", linkageName: "_ZNK4llvm5APInt12isSingleWordEv", scope: !421, file: !422, line: 103, type: !438, scopeLine: 103, flags: DIFlagPrototyped, spFlags: DISPFlagOptimized)
!438 = !DISubroutineType(types: !439)
!439 = !{!34, !440}
!440 = !DIDerivedType(tag: DW_TAG_pointer_type, baseType: !441, size: 64, flags: DIFlagArtificial | DIFlagObjectPointer)
!441 = !DIDerivedType(tag: DW_TAG_const_type, baseType: !421)
!442 = !DISubprogram(name: "whichWord", linkageName: "_ZN4llvm5APInt9whichWordEj", scope: !421, file: !422, line: 108, type: !443, scopeLine: 108, flags: DIFlagPrototyped | DIFlagStaticMember, spFlags: DISPFlagOptimized)
!443 = !DISubroutineType(types: !444)
!444 = !{!6, !6}
!445 = !DISubprogram(name: "whichBit", linkageName: "_ZN4llvm5APInt8whichBitEj", scope: !421, file: !422, line: 116, type: !443, scopeLine: 116, flags: DIFlagPrototyped | DIFlagStaticMember, spFlags: DISPFlagOptimized)
!446 = !DISubprogram(name: "maskBit", linkageName: "_ZN4llvm5APInt7maskBitEj", scope: !421, file: !422, line: 126, type: !447, scopeLine: 126, flags: DIFlagPrototyped | DIFlagStaticMember, spFlags: DISPFlagOptimized)
!447 = !DISubroutineType(types: !448)
!448 = !{!429, !6}
!449 = !DISubprogram(name: "clearUnusedBits", linkageName: "_ZN4llvm5APInt15clearUnusedBitsEv", scope: !421, file: !422, line: 136, type: !450, scopeLine: 136, flags: DIFlagPrototyped, spFlags: DISPFlagOptimized)
!450 = !DISubroutineType(types: !451)
!451 = !{!420, !436}
!452 = !DISubprogram(name: "getWord", linkageName: "_ZNK4llvm5APInt7getWordEj", scope: !421, file: !422, line: 156, type: !453, scopeLine: 156, flags: DIFlagPrototyped, spFlags: DISPFlagOptimized)
!453 = !DISubroutineType(types: !454)
!454 = !{!429, !440, !6}
!455 = !DISubprogram(name: "fromString", linkageName: "_ZN4llvm5APInt10fromStringEjNS_9StringRefEh", scope: !421, file: !422, line: 172, type: !456, scopeLine: 172, flags: DIFlagPrototyped, spFlags: DISPFlagOptimized)
!456 = !DISubroutineType(types: !457)
!457 = !{null, !436, !6, !312, !458}
!458 = !DIDerivedType(tag: DW_TAG_typedef, name: "uint8_t", file: !92, line: 24, baseType: !459)
!459 = !DIDerivedType(tag: DW_TAG_typedef, name: "__uint8_t", file: !94, line: 37, baseType: !460)
!460 = !DIBasicType(name: "unsigned char", size: 8, encoding: DW_ATE_unsigned_char)
!461 = !DISubprogram(name: "divide", linkageName: "_ZN4llvm5APInt6divideES0_jRKS0_jPS0_S3_", scope: !421, file: !422, line: 180, type: !462, scopeLine: 180, flags: DIFlagPrototyped | DIFlagStaticMember, spFlags: DISPFlagOptimized)
!462 = !DISubroutineType(types: !463)
!463 = !{null, !441, !6, !464, !6, !465, !465}
!464 = !DIDerivedType(tag: DW_TAG_reference_type, baseType: !441, size: 64)
!465 = !DIDerivedType(tag: DW_TAG_pointer_type, baseType: !421, size: 64)
!466 = !DISubprogram(name: "initSlowCase", linkageName: "_ZN4llvm5APInt12initSlowCaseEjmb", scope: !421, file: !422, line: 184, type: !467, scopeLine: 184, flags: DIFlagPrototyped, spFlags: DISPFlagOptimized)
!467 = !DISubroutineType(types: !468)
!468 = !{null, !436, !6, !429, !34}
!469 = !DISubprogram(name: "initFromArray", linkageName: "_ZN4llvm5APInt13initFromArrayENS_8ArrayRefImEE", scope: !421, file: !422, line: 187, type: !470, scopeLine: 187, flags: DIFlagPrototyped, spFlags: DISPFlagOptimized)
!470 = !DISubroutineType(types: !471)
!471 = !{null, !436, !472}
!472 = distinct !DICompositeType(tag: DW_TAG_class_type, name: "ArrayRef<unsigned long>", scope: !14, file: !473, line: 31, flags: DIFlagFwdDecl, identifier: "_ZTSN4llvm8ArrayRefImEE")
!473 = !DIFile(filename: "/faster/fs/llvm34/include/llvm/ADT/ArrayRef.h", directory: "")
!474 = !DISubprogram(name: "initSlowCase", linkageName: "_ZN4llvm5APInt12initSlowCaseERKS0_", scope: !421, file: !422, line: 190, type: !475, scopeLine: 190, flags: DIFlagPrototyped, spFlags: DISPFlagOptimized)
!475 = !DISubroutineType(types: !476)
!476 = !{null, !436, !464}
!477 = !DISubprogram(name: "shlSlowCase", linkageName: "_ZNK4llvm5APInt11shlSlowCaseEj", scope: !421, file: !422, line: 193, type: !478, scopeLine: 193, flags: DIFlagPrototyped, spFlags: DISPFlagOptimized)
!478 = !DISubroutineType(types: !479)
!479 = !{!421, !440, !6}
!480 = !DISubprogram(name: "AndSlowCase", linkageName: "_ZNK4llvm5APInt11AndSlowCaseERKS0_", scope: !421, file: !422, line: 196, type: !481, scopeLine: 196, flags: DIFlagPrototyped, spFlags: DISPFlagOptimized)
!481 = !DISubroutineType(types: !482)
!482 = !{!421, !440, !464}
!483 = !DISubprogram(name: "OrSlowCase", linkageName: "_ZNK4llvm5APInt10OrSlowCaseERKS0_", scope: !421, file: !422, line: 199, type: !481, scopeLine: 199, flags: DIFlagPrototyped, spFlags: DISPFlagOptimized)
!484 = !DISubprogram(name: "XorSlowCase", linkageName: "_ZNK4llvm5APInt11XorSlowCaseERKS0_", scope: !421, file: !422, line: 202, type: !481, scopeLine: 202, flags: DIFlagPrototyped, spFlags: DISPFlagOptimized)
!485 = !DISubprogram(name: "AssignSlowCase", linkageName: "_ZN4llvm5APInt14AssignSlowCaseERKS0_", scope: !421, file: !422, line: 205, type: !486, scopeLine: 205, flags: DIFlagPrototyped, spFlags: DISPFlagOptimized)
!486 = !DISubroutineType(types: !487)
!487 = !{!420, !436, !464}
!488 = !DISubprogram(name: "EqualSlowCase", linkageName: "_ZNK4llvm5APInt13EqualSlowCaseERKS0_", scope: !421, file: !422, line: 208, type: !489, scopeLine: 208, flags: DIFlagPrototyped, spFlags: DISPFlagOptimized)
!489 = !DISubroutineType(types: !490)
!490 = !{!34, !440, !464}
!491 = !DISubprogram(name: "EqualSlowCase", linkageName: "_ZNK4llvm5APInt13EqualSlowCaseEm", scope: !421, file: !422, line: 211, type: !492, scopeLine: 211, flags: DIFlagPrototyped, spFlags: DISPFlagOptimized)
!492 = !DISubroutineType(types: !493)
!493 = !{!34, !440, !429}
!494 = !DISubprogram(name: "countLeadingZerosSlowCase", linkageName: "_ZNK4llvm5APInt25countLeadingZerosSlowCaseEv", scope: !421, file: !422, line: 214, type: !495, scopeLine: 214, flags: DIFlagPrototyped, spFlags: DISPFlagOptimized)
!495 = !DISubroutineType(types: !496)
!496 = !{!6, !440}
!497 = !DISubprogram(name: "countTrailingOnesSlowCase", linkageName: "_ZNK4llvm5APInt25countTrailingOnesSlowCaseEv", scope: !421, file: !422, line: 217, type: !495, scopeLine: 217, flags: DIFlagPrototyped, spFlags: DISPFlagOptimized)
!498 = !DISubprogram(name: "countPopulationSlowCase", linkageName: "_ZNK4llvm5APInt23countPopulationSlowCaseEv", scope: !421, file: !422, line: 220, type: !495, scopeLine: 220, flags: DIFlagPrototyped, spFlags: DISPFlagOptimized)
!499 = !DISubprogram(name: "APInt", scope: !421, file: !422, line: 236, type: !467, scopeLine: 236, flags: DIFlagPublic | DIFlagPrototyped, spFlags: DISPFlagOptimized)
!500 = !DISubprogram(name: "APInt", scope: !421, file: !422, line: 253, type: !501, scopeLine: 253, flags: DIFlagPublic | DIFlagPrototyped, spFlags: DISPFlagOptimized)
!501 = !DISubroutineType(types: !502)
!502 = !{null, !436, !6, !472}
!503 = !DISubprogram(name: "APInt", scope: !421, file: !422, line: 262, type: !504, scopeLine: 262, flags: DIFlagPublic | DIFlagPrototyped, spFlags: DISPFlagOptimized)
!504 = !DISubroutineType(types: !505)
!505 = !{null, !436, !6, !6, !506}
!506 = !DIDerivedType(tag: DW_TAG_pointer_type, baseType: !507, size: 64)
!507 = !DIDerivedType(tag: DW_TAG_const_type, baseType: !429)
!508 = !DISubprogram(name: "APInt", scope: !421, file: !422, line: 275, type: !456, scopeLine: 275, flags: DIFlagPublic | DIFlagPrototyped, spFlags: DISPFlagOptimized)
!509 = !DISubprogram(name: "APInt", scope: !421, file: !422, line: 279, type: !475, scopeLine: 279, flags: DIFlagPublic | DIFlagPrototyped, spFlags: DISPFlagOptimized)
!510 = !DISubprogram(name: "APInt", scope: !421, file: !422, line: 289, type: !511, scopeLine: 289, flags: DIFlagPublic | DIFlagPrototyped, spFlags: DISPFlagOptimized)
!511 = !DISubroutineType(types: !512)
!512 = !{null, !436, !513}
!513 = !DIDerivedType(tag: DW_TAG_rvalue_reference_type, baseType: !421, size: 64)
!514 = !DISubprogram(name: "~APInt", scope: !421, file: !422, line: 295, type: !515, scopeLine: 295, flags: DIFlagPublic | DIFlagPrototyped, spFlags: DISPFlagOptimized)
!515 = !DISubroutineType(types: !516)
!516 = !{null, !436}
!517 = !DISubprogram(name: "APInt", scope: !421, file: !422, line: 304, type: !515, scopeLine: 304, flags: DIFlagPublic | DIFlagExplicit | DIFlagPrototyped, spFlags: DISPFlagOptimized)
!518 = !DISubprogram(name: "needsCleanup", linkageName: "_ZNK4llvm5APInt12needsCleanupEv", scope: !421, file: !422, line: 307, type: !438, scopeLine: 307, flags: DIFlagPublic | DIFlagPrototyped, spFlags: DISPFlagOptimized)
!519 = !DISubprogram(name: "Profile", linkageName: "_ZNK4llvm5APInt7ProfileERNS_16FoldingSetNodeIDE", scope: !421, file: !422, line: 311, type: !520, scopeLine: 311, flags: DIFlagPublic | DIFlagPrototyped, spFlags: DISPFlagOptimized)
!520 = !DISubroutineType(types: !521)
!521 = !{null, !440, !522}
!522 = !DIDerivedType(tag: DW_TAG_reference_type, baseType: !523, size: 64)
!523 = distinct !DICompositeType(tag: DW_TAG_class_type, name: "FoldingSetNodeID", scope: !14, file: !524, line: 294, size: 1216, flags: DIFlagTypePassByReference | DIFlagNonTrivial, elements: !525, identifier: "_ZTSN4llvm16FoldingSetNodeIDE")
!524 = !DIFile(filename: "/faster/fs/llvm34/include/llvm/ADT/FoldingSet.h", directory: "")
!525 = !{!526, !777, !781, !810, !815, !818, !821, !824, !827, !831, !835, !838, !841, !846, !847, !851, !854, !857, !858, !859}
!526 = !DIDerivedType(tag: DW_TAG_member, name: "Bits", scope: !523, file: !524, line: 297, baseType: !527, size: 1216)
!527 = distinct !DICompositeType(tag: DW_TAG_class_type, name: "SmallVector<unsigned int, 32>", scope: !14, file: !528, line: 880, size: 1216, flags: DIFlagTypePassByReference | DIFlagNonTrivial, elements: !529, templateParams: !753, identifier: "_ZTSN4llvm11SmallVectorIjLj32EEE")
!528 = !DIFile(filename: "/faster/fs/llvm34/include/llvm/ADT/SmallVector.h", directory: "")
!529 = !{!530, !746, !755, !759, !762, !767, !770, !774}
!530 = !DIDerivedType(tag: DW_TAG_inheritance, scope: !527, baseType: !531, flags: DIFlagPublic, extraData: i32 0)
!531 = distinct !DICompositeType(tag: DW_TAG_class_type, name: "SmallVectorImpl<unsigned int>", scope: !14, file: !528, line: 371, size: 256, flags: DIFlagTypePassByReference | DIFlagNonTrivial, elements: !532, templateParams: !745, identifier: "_ZTSN4llvm15SmallVectorImplIjEE")
!532 = !{!533, !683, !689, !692, !695, !696, !697, !700, !701, !704, !708, !713, !714, !718, !721, !725, !728, !731, !734, !738, !742, !743, !744}
!533 = !DIDerivedType(tag: DW_TAG_inheritance, scope: !531, baseType: !534, flags: DIFlagPublic, extraData: i32 0)
!534 = distinct !DICompositeType(tag: DW_TAG_class_type, name: "SmallVectorTemplateBase<unsigned int, true>", scope: !14, file: !528, line: 296, size: 256, flags: DIFlagTypePassByValue | DIFlagNonTrivial, elements: !535, templateParams: !681, identifier: "_ZTSN4llvm23SmallVectorTemplateBaseIjLb1EEE")
!535 = !{!536, !667, !671, !674, !675, !678}
!536 = !DIDerivedType(tag: DW_TAG_inheritance, scope: !534, baseType: !537, flags: DIFlagPublic, extraData: i32 0)
!537 = distinct !DICompositeType(tag: DW_TAG_class_type, name: "SmallVectorTemplateCommon<unsigned int, void>", scope: !14, file: !528, line: 66, size: 256, flags: DIFlagTypePassByValue | DIFlagNonTrivial, elements: !538, templateParams: !664, identifier: "_ZTSN4llvm25SmallVectorTemplateCommonIjvEE")
!538 = !{!539, !562, !585, !589, !592, !597, !600, !604, !608, !614, !615, !616, !617, !618, !623, !628, !629, !630, !634, !635, !638, !642, !646, !651, !656, !659, !662, !663}
!539 = !DIDerivedType(tag: DW_TAG_inheritance, scope: !537, baseType: !540, flags: DIFlagPublic, extraData: i32 0)
!540 = distinct !DICompositeType(tag: DW_TAG_class_type, name: "SmallVectorBase", scope: !14, file: !528, line: 33, size: 192, flags: DIFlagTypePassByValue | DIFlagNonTrivial, elements: !541, identifier: "_ZTSN4llvm15SmallVectorBaseE")
!541 = !{!542, !544, !545, !546, !550, !553, !558, !559}
!542 = !DIDerivedType(tag: DW_TAG_member, name: "BeginX", scope: !540, file: !528, line: 35, baseType: !543, size: 64, flags: DIFlagProtected)
!543 = !DIDerivedType(tag: DW_TAG_pointer_type, baseType: null, size: 64)
!544 = !DIDerivedType(tag: DW_TAG_member, name: "EndX", scope: !540, file: !528, line: 35, baseType: !543, size: 64, offset: 64, flags: DIFlagProtected)
!545 = !DIDerivedType(tag: DW_TAG_member, name: "CapacityX", scope: !540, file: !528, line: 35, baseType: !543, size: 64, offset: 128, flags: DIFlagProtected)
!546 = !DISubprogram(name: "SmallVectorBase", scope: !540, file: !528, line: 38, type: !547, scopeLine: 38, flags: DIFlagProtected | DIFlagPrototyped, spFlags: DISPFlagOptimized)
!547 = !DISubroutineType(types: !548)
!548 = !{null, !549, !543, !317}
!549 = !DIDerivedType(tag: DW_TAG_pointer_type, baseType: !540, size: 64, flags: DIFlagArtificial | DIFlagObjectPointer)
!550 = !DISubprogram(name: "grow_pod", linkageName: "_ZN4llvm15SmallVectorBase8grow_podEPvmm", scope: !540, file: !528, line: 43, type: !551, scopeLine: 43, flags: DIFlagProtected | DIFlagPrototyped, spFlags: DISPFlagOptimized)
!551 = !DISubroutineType(types: !552)
!552 = !{null, !549, !543, !317, !317}
!553 = !DISubprogram(name: "size_in_bytes", linkageName: "_ZNK4llvm15SmallVectorBase13size_in_bytesEv", scope: !540, file: !528, line: 47, type: !554, scopeLine: 47, flags: DIFlagPublic | DIFlagPrototyped, spFlags: DISPFlagOptimized)
!554 = !DISubroutineType(types: !555)
!555 = !{!317, !556}
!556 = !DIDerivedType(tag: DW_TAG_pointer_type, baseType: !557, size: 64, flags: DIFlagArtificial | DIFlagObjectPointer)
!557 = !DIDerivedType(tag: DW_TAG_const_type, baseType: !540)
!558 = !DISubprogram(name: "capacity_in_bytes", linkageName: "_ZNK4llvm15SmallVectorBase17capacity_in_bytesEv", scope: !540, file: !528, line: 52, type: !554, scopeLine: 52, flags: DIFlagPublic | DIFlagPrototyped, spFlags: DISPFlagOptimized)
!559 = !DISubprogram(name: "empty", linkageName: "_ZNK4llvm15SmallVectorBase5emptyEv", scope: !540, file: !528, line: 56, type: !560, scopeLine: 56, flags: DIFlagPublic | DIFlagPrototyped, spFlags: DISPFlagOptimized)
!560 = !DISubroutineType(types: !561)
!561 = !{!34, !556}
!562 = !DIDerivedType(tag: DW_TAG_member, name: "FirstEl", scope: !537, file: !528, line: 74, baseType: !563, size: 32, offset: 192)
!563 = !DIDerivedType(tag: DW_TAG_typedef, name: "U", scope: !537, file: !528, line: 73, baseType: !564)
!564 = distinct !DICompositeType(tag: DW_TAG_structure_type, name: "AlignedCharArrayUnion<unsigned int, char, char, char, char, char, char>", scope: !14, file: !565, line: 199, size: 32, flags: DIFlagTypePassByValue, elements: !566, templateParams: !577, identifier: "_ZTSN4llvm21AlignedCharArrayUnionIjccccccEE")
!565 = !DIFile(filename: "/faster/fs/llvm34/include/llvm/Support/AlignOf.h", directory: "")
!566 = !{!567}
!567 = !DIDerivedType(tag: DW_TAG_inheritance, scope: !564, baseType: !568, extraData: i32 0)
!568 = distinct !DICompositeType(tag: DW_TAG_structure_type, name: "AlignedCharArray<4, 4>", scope: !14, file: !565, line: 75, size: 32, flags: DIFlagTypePassByValue, elements: !569, templateParams: !574, identifier: "_ZTSN4llvm16AlignedCharArrayILm4ELm4EEE")
!569 = !{!570}
!570 = !DIDerivedType(tag: DW_TAG_member, name: "buffer", scope: !568, file: !565, line: 76, baseType: !571, size: 32, align: 32)
!571 = !DICompositeType(tag: DW_TAG_array_type, baseType: !323, size: 32, elements: !572)
!572 = !{!573}
!573 = !DISubrange(count: 4)
!574 = !{!575, !576}
!575 = !DITemplateValueParameter(name: "Alignment", type: !319, value: i64 4)
!576 = !DITemplateValueParameter(name: "Size", type: !319, value: i64 4)
!577 = !{!578, !579, !580, !581, !582, !583, !584}
!578 = !DITemplateTypeParameter(name: "T1", type: !6)
!579 = !DITemplateTypeParameter(name: "T2", type: !323, defaulted: true)
!580 = !DITemplateTypeParameter(name: "T3", type: !323, defaulted: true)
!581 = !DITemplateTypeParameter(name: "T4", type: !323, defaulted: true)
!582 = !DITemplateTypeParameter(name: "T5", type: !323, defaulted: true)
!583 = !DITemplateTypeParameter(name: "T6", type: !323, defaulted: true)
!584 = !DITemplateTypeParameter(name: "T7", type: !323, defaulted: true)
!585 = !DISubprogram(name: "SmallVectorTemplateCommon", scope: !537, file: !528, line: 78, type: !586, scopeLine: 78, flags: DIFlagProtected | DIFlagPrototyped, spFlags: DISPFlagOptimized)
!586 = !DISubroutineType(types: !587)
!587 = !{null, !588, !317}
!588 = !DIDerivedType(tag: DW_TAG_pointer_type, baseType: !537, size: 64, flags: DIFlagArtificial | DIFlagObjectPointer)
!589 = !DISubprogram(name: "grow_pod", linkageName: "_ZN4llvm25SmallVectorTemplateCommonIjvE8grow_podEmm", scope: !537, file: !528, line: 80, type: !590, scopeLine: 80, flags: DIFlagProtected | DIFlagPrototyped, spFlags: DISPFlagOptimized)
!590 = !DISubroutineType(types: !591)
!591 = !{null, !588, !317, !317}
!592 = !DISubprogram(name: "isSmall", linkageName: "_ZNK4llvm25SmallVectorTemplateCommonIjvE7isSmallEv", scope: !537, file: !528, line: 86, type: !593, scopeLine: 86, flags: DIFlagProtected | DIFlagPrototyped, spFlags: DISPFlagOptimized)
!593 = !DISubroutineType(types: !594)
!594 = !{!34, !595}
!595 = !DIDerivedType(tag: DW_TAG_pointer_type, baseType: !596, size: 64, flags: DIFlagArtificial | DIFlagObjectPointer)
!596 = !DIDerivedType(tag: DW_TAG_const_type, baseType: !537)
!597 = !DISubprogram(name: "resetToSmall", linkageName: "_ZN4llvm25SmallVectorTemplateCommonIjvE12resetToSmallEv", scope: !537, file: !528, line: 91, type: !598, scopeLine: 91, flags: DIFlagProtected | DIFlagPrototyped, spFlags: DISPFlagOptimized)
!598 = !DISubroutineType(types: !599)
!599 = !{null, !588}
!600 = !DISubprogram(name: "setEnd", linkageName: "_ZN4llvm25SmallVectorTemplateCommonIjvE6setEndEPj", scope: !537, file: !528, line: 95, type: !601, scopeLine: 95, flags: DIFlagProtected | DIFlagPrototyped, spFlags: DISPFlagOptimized)
!601 = !DISubroutineType(types: !602)
!602 = !{null, !588, !603}
!603 = !DIDerivedType(tag: DW_TAG_pointer_type, baseType: !6, size: 64)
!604 = !DISubprogram(name: "begin", linkageName: "_ZN4llvm25SmallVectorTemplateCommonIjvE5beginEv", scope: !537, file: !528, line: 112, type: !605, scopeLine: 112, flags: DIFlagPublic | DIFlagPrototyped, spFlags: DISPFlagOptimized)
!605 = !DISubroutineType(types: !606)
!606 = !{!607, !588}
!607 = !DIDerivedType(tag: DW_TAG_typedef, name: "iterator", scope: !537, file: !528, line: 100, baseType: !603)
!608 = !DISubprogram(name: "begin", linkageName: "_ZNK4llvm25SmallVectorTemplateCommonIjvE5beginEv", scope: !537, file: !528, line: 113, type: !609, scopeLine: 113, flags: DIFlagPublic | DIFlagPrototyped, spFlags: DISPFlagOptimized)
!609 = !DISubroutineType(types: !610)
!610 = !{!611, !595}
!611 = !DIDerivedType(tag: DW_TAG_typedef, name: "const_iterator", scope: !537, file: !528, line: 101, baseType: !612)
!612 = !DIDerivedType(tag: DW_TAG_pointer_type, baseType: !613, size: 64)
!613 = !DIDerivedType(tag: DW_TAG_const_type, baseType: !6)
!614 = !DISubprogram(name: "end", linkageName: "_ZN4llvm25SmallVectorTemplateCommonIjvE3endEv", scope: !537, file: !528, line: 114, type: !605, scopeLine: 114, flags: DIFlagPublic | DIFlagPrototyped, spFlags: DISPFlagOptimized)
!615 = !DISubprogram(name: "end", linkageName: "_ZNK4llvm25SmallVectorTemplateCommonIjvE3endEv", scope: !537, file: !528, line: 115, type: !609, scopeLine: 115, flags: DIFlagPublic | DIFlagPrototyped, spFlags: DISPFlagOptimized)
!616 = !DISubprogram(name: "capacity_ptr", linkageName: "_ZN4llvm25SmallVectorTemplateCommonIjvE12capacity_ptrEv", scope: !537, file: !528, line: 117, type: !605, scopeLine: 117, flags: DIFlagProtected | DIFlagPrototyped, spFlags: DISPFlagOptimized)
!617 = !DISubprogram(name: "capacity_ptr", linkageName: "_ZNK4llvm25SmallVectorTemplateCommonIjvE12capacity_ptrEv", scope: !537, file: !528, line: 118, type: !609, scopeLine: 118, flags: DIFlagProtected | DIFlagPrototyped, spFlags: DISPFlagOptimized)
!618 = !DISubprogram(name: "rbegin", linkageName: "_ZN4llvm25SmallVectorTemplateCommonIjvE6rbeginEv", scope: !537, file: !528, line: 122, type: !619, scopeLine: 122, flags: DIFlagPublic | DIFlagPrototyped, spFlags: DISPFlagOptimized)
!619 = !DISubroutineType(types: !620)
!620 = !{!621, !588}
!621 = !DIDerivedType(tag: DW_TAG_typedef, name: "reverse_iterator", scope: !537, file: !528, line: 104, baseType: !622)
!622 = distinct !DICompositeType(tag: DW_TAG_class_type, name: "reverse_iterator<unsigned int *>", scope: !221, file: !220, line: 101, flags: DIFlagFwdDecl, identifier: "_ZTSSt16reverse_iteratorIPjE")
!623 = !DISubprogram(name: "rbegin", linkageName: "_ZNK4llvm25SmallVectorTemplateCommonIjvE6rbeginEv", scope: !537, file: !528, line: 123, type: !624, scopeLine: 123, flags: DIFlagPublic | DIFlagPrototyped, spFlags: DISPFlagOptimized)
!624 = !DISubroutineType(types: !625)
!625 = !{!626, !595}
!626 = !DIDerivedType(tag: DW_TAG_typedef, name: "const_reverse_iterator", scope: !537, file: !528, line: 103, baseType: !627)
!627 = distinct !DICompositeType(tag: DW_TAG_class_type, name: "reverse_iterator<const unsigned int *>", scope: !221, file: !220, line: 101, flags: DIFlagFwdDecl, identifier: "_ZTSSt16reverse_iteratorIPKjE")
!628 = !DISubprogram(name: "rend", linkageName: "_ZN4llvm25SmallVectorTemplateCommonIjvE4rendEv", scope: !537, file: !528, line: 124, type: !619, scopeLine: 124, flags: DIFlagPublic | DIFlagPrototyped, spFlags: DISPFlagOptimized)
!629 = !DISubprogram(name: "rend", linkageName: "_ZNK4llvm25SmallVectorTemplateCommonIjvE4rendEv", scope: !537, file: !528, line: 125, type: !624, scopeLine: 125, flags: DIFlagPublic | DIFlagPrototyped, spFlags: DISPFlagOptimized)
!630 = !DISubprogram(name: "size", linkageName: "_ZNK4llvm25SmallVectorTemplateCommonIjvE4sizeEv", scope: !537, file: !528, line: 127, type: !631, scopeLine: 127, flags: DIFlagPublic | DIFlagPrototyped, spFlags: DISPFlagOptimized)
!631 = !DISubroutineType(types: !632)
!632 = !{!633, !595}
!633 = !DIDerivedType(tag: DW_TAG_typedef, name: "size_type", file: !528, line: 97, baseType: !317)
!634 = !DISubprogram(name: "max_size", linkageName: "_ZNK4llvm25SmallVectorTemplateCommonIjvE8max_sizeEv", scope: !537, file: !528, line: 128, type: !631, scopeLine: 128, flags: DIFlagPublic | DIFlagPrototyped, spFlags: DISPFlagOptimized)
!635 = !DISubprogram(name: "capacity", linkageName: "_ZNK4llvm25SmallVectorTemplateCommonIjvE8capacityEv", scope: !537, file: !528, line: 132, type: !636, scopeLine: 132, flags: DIFlagPublic | DIFlagPrototyped, spFlags: DISPFlagOptimized)
!636 = !DISubroutineType(types: !637)
!637 = !{!317, !595}
!638 = !DISubprogram(name: "data", linkageName: "_ZN4llvm25SmallVectorTemplateCommonIjvE4dataEv", scope: !537, file: !528, line: 135, type: !639, scopeLine: 135, flags: DIFlagPublic | DIFlagPrototyped, spFlags: DISPFlagOptimized)
!639 = !DISubroutineType(types: !640)
!640 = !{!641, !588}
!641 = !DIDerivedType(tag: DW_TAG_typedef, name: "pointer", scope: !537, file: !528, line: 108, baseType: !603)
!642 = !DISubprogram(name: "data", linkageName: "_ZNK4llvm25SmallVectorTemplateCommonIjvE4dataEv", scope: !537, file: !528, line: 137, type: !643, scopeLine: 137, flags: DIFlagPublic | DIFlagPrototyped, spFlags: DISPFlagOptimized)
!643 = !DISubroutineType(types: !644)
!644 = !{!645, !595}
!645 = !DIDerivedType(tag: DW_TAG_typedef, name: "const_pointer", scope: !537, file: !528, line: 109, baseType: !612)
!646 = !DISubprogram(name: "operator[]", linkageName: "_ZN4llvm25SmallVectorTemplateCommonIjvEixEj", scope: !537, file: !528, line: 139, type: !647, scopeLine: 139, flags: DIFlagPublic | DIFlagPrototyped, spFlags: DISPFlagOptimized)
!647 = !DISubroutineType(types: !648)
!648 = !{!649, !588, !6}
!649 = !DIDerivedType(tag: DW_TAG_typedef, name: "reference", scope: !537, file: !528, line: 106, baseType: !650)
!650 = !DIDerivedType(tag: DW_TAG_reference_type, baseType: !6, size: 64)
!651 = !DISubprogram(name: "operator[]", linkageName: "_ZNK4llvm25SmallVectorTemplateCommonIjvEixEj", scope: !537, file: !528, line: 143, type: !652, scopeLine: 143, flags: DIFlagPublic | DIFlagPrototyped, spFlags: DISPFlagOptimized)
!652 = !DISubroutineType(types: !653)
!653 = !{!654, !595, !6}
!654 = !DIDerivedType(tag: DW_TAG_typedef, name: "const_reference", scope: !537, file: !528, line: 107, baseType: !655)
!655 = !DIDerivedType(tag: DW_TAG_reference_type, baseType: !613, size: 64)
!656 = !DISubprogram(name: "front", linkageName: "_ZN4llvm25SmallVectorTemplateCommonIjvE5frontEv", scope: !537, file: !528, line: 148, type: !657, scopeLine: 148, flags: DIFlagPublic | DIFlagPrototyped, spFlags: DISPFlagOptimized)
!657 = !DISubroutineType(types: !658)
!658 = !{!649, !588}
!659 = !DISubprogram(name: "front", linkageName: "_ZNK4llvm25SmallVectorTemplateCommonIjvE5frontEv", scope: !537, file: !528, line: 152, type: !660, scopeLine: 152, flags: DIFlagPublic | DIFlagPrototyped, spFlags: DISPFlagOptimized)
!660 = !DISubroutineType(types: !661)
!661 = !{!654, !595}
!662 = !DISubprogram(name: "back", linkageName: "_ZN4llvm25SmallVectorTemplateCommonIjvE4backEv", scope: !537, file: !528, line: 157, type: !657, scopeLine: 157, flags: DIFlagPublic | DIFlagPrototyped, spFlags: DISPFlagOptimized)
!663 = !DISubprogram(name: "back", linkageName: "_ZNK4llvm25SmallVectorTemplateCommonIjvE4backEv", scope: !537, file: !528, line: 161, type: !660, scopeLine: 161, flags: DIFlagPublic | DIFlagPrototyped, spFlags: DISPFlagOptimized)
!664 = !{!665, !666}
!665 = !DITemplateTypeParameter(name: "T", type: !6)
!666 = !DITemplateTypeParameter(type: null, defaulted: true)
!667 = !DISubprogram(name: "SmallVectorTemplateBase", scope: !534, file: !528, line: 298, type: !668, scopeLine: 298, flags: DIFlagProtected | DIFlagPrototyped, spFlags: DISPFlagOptimized)
!668 = !DISubroutineType(types: !669)
!669 = !{null, !670, !317}
!670 = !DIDerivedType(tag: DW_TAG_pointer_type, baseType: !534, size: 64, flags: DIFlagArtificial | DIFlagObjectPointer)
!671 = !DISubprogram(name: "destroy_range", linkageName: "_ZN4llvm23SmallVectorTemplateBaseIjLb1EE13destroy_rangeEPjS2_", scope: !534, file: !528, line: 301, type: !672, scopeLine: 301, flags: DIFlagProtected | DIFlagPrototyped | DIFlagStaticMember, spFlags: DISPFlagOptimized)
!672 = !DISubroutineType(types: !673)
!673 = !{null, !603, !603}
!674 = !DISubprogram(name: "grow", linkageName: "_ZN4llvm23SmallVectorTemplateBaseIjLb1EE4growEm", scope: !534, file: !528, line: 346, type: !668, scopeLine: 346, flags: DIFlagProtected | DIFlagPrototyped, spFlags: DISPFlagOptimized)
!675 = !DISubprogram(name: "push_back", linkageName: "_ZN4llvm23SmallVectorTemplateBaseIjLb1EE9push_backERKj", scope: !534, file: !528, line: 350, type: !676, scopeLine: 350, flags: DIFlagPublic | DIFlagPrototyped, spFlags: DISPFlagOptimized)
!676 = !DISubroutineType(types: !677)
!677 = !{null, !670, !655}
!678 = !DISubprogram(name: "pop_back", linkageName: "_ZN4llvm23SmallVectorTemplateBaseIjLb1EE8pop_backEv", scope: !534, file: !528, line: 361, type: !679, scopeLine: 361, flags: DIFlagPublic | DIFlagPrototyped, spFlags: DISPFlagOptimized)
!679 = !DISubroutineType(types: !680)
!680 = !{null, !670}
!681 = !{!665, !682}
!682 = !DITemplateValueParameter(name: "isPodLike", type: !34, value: i8 1)
!683 = !DISubprogram(name: "SmallVectorImpl", scope: !531, file: !528, line: 374, type: !684, scopeLine: 374, flags: DIFlagPrototyped, spFlags: DISPFlagOptimized | DISPFlagDeleted)
!684 = !DISubroutineType(types: !685)
!685 = !{null, !686, !687}
!686 = !DIDerivedType(tag: DW_TAG_pointer_type, baseType: !531, size: 64, flags: DIFlagArtificial | DIFlagObjectPointer)
!687 = !DIDerivedType(tag: DW_TAG_reference_type, baseType: !688, size: 64)
!688 = !DIDerivedType(tag: DW_TAG_const_type, baseType: !531)
!689 = !DISubprogram(name: "SmallVectorImpl", scope: !531, file: !528, line: 381, type: !690, scopeLine: 381, flags: DIFlagProtected | DIFlagExplicit | DIFlagPrototyped, spFlags: DISPFlagOptimized)
!690 = !DISubroutineType(types: !691)
!691 = !{null, !686, !6}
!692 = !DISubprogram(name: "~SmallVectorImpl", scope: !531, file: !528, line: 386, type: !693, scopeLine: 386, flags: DIFlagPublic | DIFlagPrototyped, spFlags: DISPFlagOptimized)
!693 = !DISubroutineType(types: !694)
!694 = !{null, !686}
!695 = !DISubprogram(name: "clear", linkageName: "_ZN4llvm15SmallVectorImplIjE5clearEv", scope: !531, file: !528, line: 396, type: !693, scopeLine: 396, flags: DIFlagPublic | DIFlagPrototyped, spFlags: DISPFlagOptimized)
!696 = !DISubprogram(name: "resize", linkageName: "_ZN4llvm15SmallVectorImplIjE6resizeEj", scope: !531, file: !528, line: 401, type: !690, scopeLine: 401, flags: DIFlagPublic | DIFlagPrototyped, spFlags: DISPFlagOptimized)
!697 = !DISubprogram(name: "resize", linkageName: "_ZN4llvm15SmallVectorImplIjE6resizeEjRKj", scope: !531, file: !528, line: 413, type: !698, scopeLine: 413, flags: DIFlagPublic | DIFlagPrototyped, spFlags: DISPFlagOptimized)
!698 = !DISubroutineType(types: !699)
!699 = !{null, !686, !6, !655}
!700 = !DISubprogram(name: "reserve", linkageName: "_ZN4llvm15SmallVectorImplIjE7reserveEj", scope: !531, file: !528, line: 425, type: !690, scopeLine: 425, flags: DIFlagPublic | DIFlagPrototyped, spFlags: DISPFlagOptimized)
!701 = !DISubprogram(name: "pop_back_val", linkageName: "_ZN4llvm15SmallVectorImplIjE12pop_back_valEv", scope: !531, file: !528, line: 430, type: !702, scopeLine: 430, flags: DIFlagPublic | DIFlagPrototyped, spFlags: DISPFlagOptimized)
!702 = !DISubroutineType(types: !703)
!703 = !{!6, !686}
!704 = !DISubprogram(name: "swap", linkageName: "_ZN4llvm15SmallVectorImplIjE4swapERS1_", scope: !531, file: !528, line: 440, type: !705, scopeLine: 440, flags: DIFlagPublic | DIFlagPrototyped, spFlags: DISPFlagOptimized)
!705 = !DISubroutineType(types: !706)
!706 = !{null, !686, !707}
!707 = !DIDerivedType(tag: DW_TAG_reference_type, baseType: !531, size: 64)
!708 = !DISubprogram(name: "append", linkageName: "_ZN4llvm15SmallVectorImplIjE6appendEmRKj", scope: !531, file: !528, line: 460, type: !709, scopeLine: 460, flags: DIFlagPublic | DIFlagPrototyped, spFlags: DISPFlagOptimized)
!709 = !DISubroutineType(types: !710)
!710 = !{null, !686, !711, !655}
!711 = !DIDerivedType(tag: DW_TAG_typedef, name: "size_type", scope: !531, file: !528, line: 377, baseType: !712)
!712 = !DIDerivedType(tag: DW_TAG_typedef, name: "size_type", scope: !537, file: !528, line: 97, baseType: !317)
!713 = !DISubprogram(name: "assign", linkageName: "_ZN4llvm15SmallVectorImplIjE6assignEjRKj", scope: !531, file: !528, line: 470, type: !698, scopeLine: 470, flags: DIFlagPublic | DIFlagPrototyped, spFlags: DISPFlagOptimized)
!714 = !DISubprogram(name: "erase", linkageName: "_ZN4llvm15SmallVectorImplIjE5eraseEPj", scope: !531, file: !528, line: 478, type: !715, scopeLine: 478, flags: DIFlagPublic | DIFlagPrototyped, spFlags: DISPFlagOptimized)
!715 = !DISubroutineType(types: !716)
!716 = !{!717, !686, !717}
!717 = !DIDerivedType(tag: DW_TAG_typedef, name: "iterator", scope: !531, file: !528, line: 376, baseType: !607)
!718 = !DISubprogram(name: "erase", linkageName: "_ZN4llvm15SmallVectorImplIjE5eraseEPjS2_", scope: !531, file: !528, line: 490, type: !719, scopeLine: 490, flags: DIFlagPublic | DIFlagPrototyped, spFlags: DISPFlagOptimized)
!719 = !DISubroutineType(types: !720)
!720 = !{!717, !686, !717, !717}
!721 = !DISubprogram(name: "insert", linkageName: "_ZN4llvm15SmallVectorImplIjE6insertEPjOj", scope: !531, file: !528, line: 505, type: !722, scopeLine: 505, flags: DIFlagPublic | DIFlagPrototyped, spFlags: DISPFlagOptimized)
!722 = !DISubroutineType(types: !723)
!723 = !{!717, !686, !717, !724}
!724 = !DIDerivedType(tag: DW_TAG_rvalue_reference_type, baseType: !6, size: 64)
!725 = !DISubprogram(name: "insert", linkageName: "_ZN4llvm15SmallVectorImplIjE6insertEPjRKj", scope: !531, file: !528, line: 537, type: !726, scopeLine: 537, flags: DIFlagPublic | DIFlagPrototyped, spFlags: DISPFlagOptimized)
!726 = !DISubroutineType(types: !727)
!727 = !{!717, !686, !717, !655}
!728 = !DISubprogram(name: "insert", linkageName: "_ZN4llvm15SmallVectorImplIjE6insertEPjmRKj", scope: !531, file: !528, line: 568, type: !729, scopeLine: 568, flags: DIFlagPublic | DIFlagPrototyped, spFlags: DISPFlagOptimized)
!729 = !DISubroutineType(types: !730)
!730 = !{!717, !686, !717, !711, !655}
!731 = !DISubprogram(name: "operator=", linkageName: "_ZN4llvm15SmallVectorImplIjEaSERKS1_", scope: !531, file: !528, line: 674, type: !732, scopeLine: 674, flags: DIFlagPublic | DIFlagPrototyped, spFlags: DISPFlagOptimized)
!732 = !DISubroutineType(types: !733)
!733 = !{!707, !686, !687}
!734 = !DISubprogram(name: "operator=", linkageName: "_ZN4llvm15SmallVectorImplIjEaSEOS1_", scope: !531, file: !528, line: 677, type: !735, scopeLine: 677, flags: DIFlagPublic | DIFlagPrototyped, spFlags: DISPFlagOptimized)
!735 = !DISubroutineType(types: !736)
!736 = !{!707, !686, !737}
!737 = !DIDerivedType(tag: DW_TAG_rvalue_reference_type, baseType: !531, size: 64)
!738 = !DISubprogram(name: "operator==", linkageName: "_ZNK4llvm15SmallVectorImplIjEeqERKS1_", scope: !531, file: !528, line: 680, type: !739, scopeLine: 680, flags: DIFlagPublic | DIFlagPrototyped, spFlags: DISPFlagOptimized)
!739 = !DISubroutineType(types: !740)
!740 = !{!34, !741, !687}
!741 = !DIDerivedType(tag: DW_TAG_pointer_type, baseType: !688, size: 64, flags: DIFlagArtificial | DIFlagObjectPointer)
!742 = !DISubprogram(name: "operator!=", linkageName: "_ZNK4llvm15SmallVectorImplIjEneERKS1_", scope: !531, file: !528, line: 684, type: !739, scopeLine: 684, flags: DIFlagPublic | DIFlagPrototyped, spFlags: DISPFlagOptimized)
!743 = !DISubprogram(name: "operator<", linkageName: "_ZNK4llvm15SmallVectorImplIjEltERKS1_", scope: !531, file: !528, line: 688, type: !739, scopeLine: 688, flags: DIFlagPublic | DIFlagPrototyped, spFlags: DISPFlagOptimized)
!744 = !DISubprogram(name: "set_size", linkageName: "_ZN4llvm15SmallVectorImplIjE8set_sizeEj", scope: !531, file: !528, line: 702, type: !690, scopeLine: 702, flags: DIFlagPublic | DIFlagPrototyped, spFlags: DISPFlagOptimized)
!745 = !{!665}
!746 = !DIDerivedType(tag: DW_TAG_member, name: "Storage", scope: !527, file: !528, line: 882, baseType: !747, size: 992, offset: 224)
!747 = distinct !DICompositeType(tag: DW_TAG_structure_type, name: "SmallVectorStorage<unsigned int, 32>", scope: !14, file: !528, line: 865, size: 992, flags: DIFlagTypePassByValue, elements: !748, templateParams: !753, identifier: "_ZTSN4llvm18SmallVectorStorageIjLj32EEE")
!748 = !{!749}
!749 = !DIDerivedType(tag: DW_TAG_member, name: "InlineElts", scope: !747, file: !528, line: 866, baseType: !750, size: 992)
!750 = !DICompositeType(tag: DW_TAG_array_type, baseType: !563, size: 992, elements: !751)
!751 = !{!752}
!752 = !DISubrange(count: 31)
!753 = !{!665, !754}
!754 = !DITemplateValueParameter(name: "N", type: !6, value: i32 32)
!755 = !DISubprogram(name: "SmallVector", scope: !527, file: !528, line: 884, type: !756, scopeLine: 884, flags: DIFlagPublic | DIFlagPrototyped, spFlags: DISPFlagOptimized)
!756 = !DISubroutineType(types: !757)
!757 = !{null, !758}
!758 = !DIDerivedType(tag: DW_TAG_pointer_type, baseType: !527, size: 64, flags: DIFlagArtificial | DIFlagObjectPointer)
!759 = !DISubprogram(name: "SmallVector", scope: !527, file: !528, line: 887, type: !760, scopeLine: 887, flags: DIFlagPublic | DIFlagExplicit | DIFlagPrototyped, spFlags: DISPFlagOptimized)
!760 = !DISubroutineType(types: !761)
!761 = !{null, !758, !6, !655}
!762 = !DISubprogram(name: "SmallVector", scope: !527, file: !528, line: 897, type: !763, scopeLine: 897, flags: DIFlagPublic | DIFlagPrototyped, spFlags: DISPFlagOptimized)
!763 = !DISubroutineType(types: !764)
!764 = !{null, !758, !765}
!765 = !DIDerivedType(tag: DW_TAG_reference_type, baseType: !766, size: 64)
!766 = !DIDerivedType(tag: DW_TAG_const_type, baseType: !527)
!767 = !DISubprogram(name: "operator=", linkageName: "_ZN4llvm11SmallVectorIjLj32EEaSERKS1_", scope: !527, file: !528, line: 902, type: !768, scopeLine: 902, flags: DIFlagPublic | DIFlagPrototyped, spFlags: DISPFlagOptimized)
!768 = !DISubroutineType(types: !769)
!769 = !{!765, !758, !765}
!770 = !DISubprogram(name: "SmallVector", scope: !527, file: !528, line: 908, type: !771, scopeLine: 908, flags: DIFlagPublic | DIFlagPrototyped, spFlags: DISPFlagOptimized)
!771 = !DISubroutineType(types: !772)
!772 = !{null, !758, !773}
!773 = !DIDerivedType(tag: DW_TAG_rvalue_reference_type, baseType: !527, size: 64)
!774 = !DISubprogram(name: "operator=", linkageName: "_ZN4llvm11SmallVectorIjLj32EEaSEOS1_", scope: !527, file: !528, line: 913, type: !775, scopeLine: 913, flags: DIFlagPublic | DIFlagPrototyped, spFlags: DISPFlagOptimized)
!775 = !DISubroutineType(types: !776)
!776 = !{!765, !758, !773}
!777 = !DISubprogram(name: "FoldingSetNodeID", scope: !523, file: !524, line: 300, type: !778, scopeLine: 300, flags: DIFlagPublic | DIFlagPrototyped, spFlags: DISPFlagOptimized)
!778 = !DISubroutineType(types: !779)
!779 = !{null, !780}
!780 = !DIDerivedType(tag: DW_TAG_pointer_type, baseType: !523, size: 64, flags: DIFlagArtificial | DIFlagObjectPointer)
!781 = !DISubprogram(name: "FoldingSetNodeID", scope: !523, file: !524, line: 302, type: !782, scopeLine: 302, flags: DIFlagPublic | DIFlagPrototyped, spFlags: DISPFlagOptimized)
!782 = !DISubroutineType(types: !783)
!783 = !{null, !780, !784}
!784 = distinct !DICompositeType(tag: DW_TAG_class_type, name: "FoldingSetNodeIDRef", scope: !14, file: !524, line: 268, size: 128, flags: DIFlagTypePassByValue | DIFlagNonTrivial, elements: !785, identifier: "_ZTSN4llvm19FoldingSetNodeIDRefE")
!785 = !{!786, !787, !788, !792, !795, !800, !803, !804, !807}
!786 = !DIDerivedType(tag: DW_TAG_member, name: "Data", scope: !784, file: !524, line: 269, baseType: !612, size: 64)
!787 = !DIDerivedType(tag: DW_TAG_member, name: "Size", scope: !784, file: !524, line: 270, baseType: !317, size: 64, offset: 64)
!788 = !DISubprogram(name: "FoldingSetNodeIDRef", scope: !784, file: !524, line: 272, type: !789, scopeLine: 272, flags: DIFlagPublic | DIFlagPrototyped, spFlags: DISPFlagOptimized)
!789 = !DISubroutineType(types: !790)
!790 = !{null, !791}
!791 = !DIDerivedType(tag: DW_TAG_pointer_type, baseType: !784, size: 64, flags: DIFlagArtificial | DIFlagObjectPointer)
!792 = !DISubprogram(name: "FoldingSetNodeIDRef", scope: !784, file: !524, line: 273, type: !793, scopeLine: 273, flags: DIFlagPublic | DIFlagPrototyped, spFlags: DISPFlagOptimized)
!793 = !DISubroutineType(types: !794)
!794 = !{null, !791, !612, !317}
!795 = !DISubprogram(name: "ComputeHash", linkageName: "_ZNK4llvm19FoldingSetNodeIDRef11ComputeHashEv", scope: !784, file: !524, line: 277, type: !796, scopeLine: 277, flags: DIFlagPublic | DIFlagPrototyped, spFlags: DISPFlagOptimized)
!796 = !DISubroutineType(types: !797)
!797 = !{!6, !798}
!798 = !DIDerivedType(tag: DW_TAG_pointer_type, baseType: !799, size: 64, flags: DIFlagArtificial | DIFlagObjectPointer)
!799 = !DIDerivedType(tag: DW_TAG_const_type, baseType: !784)
!800 = !DISubprogram(name: "operator==", linkageName: "_ZNK4llvm19FoldingSetNodeIDRefeqES0_", scope: !784, file: !524, line: 279, type: !801, scopeLine: 279, flags: DIFlagPublic | DIFlagPrototyped, spFlags: DISPFlagOptimized)
!801 = !DISubroutineType(types: !802)
!802 = !{!34, !798, !784}
!803 = !DISubprogram(name: "operator<", linkageName: "_ZNK4llvm19FoldingSetNodeIDRefltES0_", scope: !784, file: !524, line: 283, type: !801, scopeLine: 283, flags: DIFlagPublic | DIFlagPrototyped, spFlags: DISPFlagOptimized)
!804 = !DISubprogram(name: "getData", linkageName: "_ZNK4llvm19FoldingSetNodeIDRef7getDataEv", scope: !784, file: !524, line: 285, type: !805, scopeLine: 285, flags: DIFlagPublic | DIFlagPrototyped, spFlags: DISPFlagOptimized)
!805 = !DISubroutineType(types: !806)
!806 = !{!612, !798}
!807 = !DISubprogram(name: "getSize", linkageName: "_ZNK4llvm19FoldingSetNodeIDRef7getSizeEv", scope: !784, file: !524, line: 286, type: !808, scopeLine: 286, flags: DIFlagPublic | DIFlagPrototyped, spFlags: DISPFlagOptimized)
!808 = !DISubroutineType(types: !809)
!809 = !{!317, !798}
!810 = !DISubprogram(name: "AddPointer", linkageName: "_ZN4llvm16FoldingSetNodeID10AddPointerEPKv", scope: !523, file: !524, line: 307, type: !811, scopeLine: 307, flags: DIFlagPublic | DIFlagPrototyped, spFlags: DISPFlagOptimized)
!811 = !DISubroutineType(types: !812)
!812 = !{null, !780, !813}
!813 = !DIDerivedType(tag: DW_TAG_pointer_type, baseType: !814, size: 64)
!814 = !DIDerivedType(tag: DW_TAG_const_type, baseType: null)
!815 = !DISubprogram(name: "AddInteger", linkageName: "_ZN4llvm16FoldingSetNodeID10AddIntegerEi", scope: !523, file: !524, line: 308, type: !816, scopeLine: 308, flags: DIFlagPublic | DIFlagPrototyped, spFlags: DISPFlagOptimized)
!816 = !DISubroutineType(types: !817)
!817 = !{null, !780, !202}
!818 = !DISubprogram(name: "AddInteger", linkageName: "_ZN4llvm16FoldingSetNodeID10AddIntegerEj", scope: !523, file: !524, line: 309, type: !819, scopeLine: 309, flags: DIFlagPublic | DIFlagPrototyped, spFlags: DISPFlagOptimized)
!819 = !DISubroutineType(types: !820)
!820 = !{null, !780, !6}
!821 = !DISubprogram(name: "AddInteger", linkageName: "_ZN4llvm16FoldingSetNodeID10AddIntegerEl", scope: !523, file: !524, line: 310, type: !822, scopeLine: 310, flags: DIFlagPublic | DIFlagPrototyped, spFlags: DISPFlagOptimized)
!822 = !DISubroutineType(types: !823)
!823 = !{null, !780, !241}
!824 = !DISubprogram(name: "AddInteger", linkageName: "_ZN4llvm16FoldingSetNodeID10AddIntegerEm", scope: !523, file: !524, line: 311, type: !825, scopeLine: 311, flags: DIFlagPublic | DIFlagPrototyped, spFlags: DISPFlagOptimized)
!825 = !DISubroutineType(types: !826)
!826 = !{null, !780, !319}
!827 = !DISubprogram(name: "AddInteger", linkageName: "_ZN4llvm16FoldingSetNodeID10AddIntegerEx", scope: !523, file: !524, line: 312, type: !828, scopeLine: 312, flags: DIFlagPublic | DIFlagPrototyped, spFlags: DISPFlagOptimized)
!828 = !DISubroutineType(types: !829)
!829 = !{null, !780, !830}
!830 = !DIBasicType(name: "long long int", size: 64, encoding: DW_ATE_signed)
!831 = !DISubprogram(name: "AddInteger", linkageName: "_ZN4llvm16FoldingSetNodeID10AddIntegerEy", scope: !523, file: !524, line: 313, type: !832, scopeLine: 313, flags: DIFlagPublic | DIFlagPrototyped, spFlags: DISPFlagOptimized)
!832 = !DISubroutineType(types: !833)
!833 = !{null, !780, !834}
!834 = !DIBasicType(name: "long long unsigned int", size: 64, encoding: DW_ATE_unsigned)
!835 = !DISubprogram(name: "AddBoolean", linkageName: "_ZN4llvm16FoldingSetNodeID10AddBooleanEb", scope: !523, file: !524, line: 314, type: !836, scopeLine: 314, flags: DIFlagPublic | DIFlagPrototyped, spFlags: DISPFlagOptimized)
!836 = !DISubroutineType(types: !837)
!837 = !{null, !780, !34}
!838 = !DISubprogram(name: "AddString", linkageName: "_ZN4llvm16FoldingSetNodeID9AddStringENS_9StringRefE", scope: !523, file: !524, line: 315, type: !839, scopeLine: 315, flags: DIFlagPublic | DIFlagPrototyped, spFlags: DISPFlagOptimized)
!839 = !DISubroutineType(types: !840)
!840 = !{null, !780, !312}
!841 = !DISubprogram(name: "AddNodeID", linkageName: "_ZN4llvm16FoldingSetNodeID9AddNodeIDERKS0_", scope: !523, file: !524, line: 316, type: !842, scopeLine: 316, flags: DIFlagPublic | DIFlagPrototyped, spFlags: DISPFlagOptimized)
!842 = !DISubroutineType(types: !843)
!843 = !{null, !780, !844}
!844 = !DIDerivedType(tag: DW_TAG_reference_type, baseType: !845, size: 64)
!845 = !DIDerivedType(tag: DW_TAG_const_type, baseType: !523)
!846 = !DISubprogram(name: "clear", linkageName: "_ZN4llvm16FoldingSetNodeID5clearEv", scope: !523, file: !524, line: 323, type: !778, scopeLine: 323, flags: DIFlagPublic | DIFlagPrototyped, spFlags: DISPFlagOptimized)
!847 = !DISubprogram(name: "ComputeHash", linkageName: "_ZNK4llvm16FoldingSetNodeID11ComputeHashEv", scope: !523, file: !524, line: 327, type: !848, scopeLine: 327, flags: DIFlagPublic | DIFlagPrototyped, spFlags: DISPFlagOptimized)
!848 = !DISubroutineType(types: !849)
!849 = !{!6, !850}
!850 = !DIDerivedType(tag: DW_TAG_pointer_type, baseType: !845, size: 64, flags: DIFlagArtificial | DIFlagObjectPointer)
!851 = !DISubprogram(name: "operator==", linkageName: "_ZNK4llvm16FoldingSetNodeIDeqERKS0_", scope: !523, file: !524, line: 331, type: !852, scopeLine: 331, flags: DIFlagPublic | DIFlagPrototyped, spFlags: DISPFlagOptimized)
!852 = !DISubroutineType(types: !853)
!853 = !{!34, !850, !844}
!854 = !DISubprogram(name: "operator==", linkageName: "_ZNK4llvm16FoldingSetNodeIDeqENS_19FoldingSetNodeIDRefE", scope: !523, file: !524, line: 332, type: !855, scopeLine: 332, flags: DIFlagPublic | DIFlagPrototyped, spFlags: DISPFlagOptimized)
!855 = !DISubroutineType(types: !856)
!856 = !{!34, !850, !799}
!857 = !DISubprogram(name: "operator<", linkageName: "_ZNK4llvm16FoldingSetNodeIDltERKS0_", scope: !523, file: !524, line: 336, type: !852, scopeLine: 336, flags: DIFlagPublic | DIFlagPrototyped, spFlags: DISPFlagOptimized)
!858 = !DISubprogram(name: "operator<", linkageName: "_ZNK4llvm16FoldingSetNodeIDltENS_19FoldingSetNodeIDRefE", scope: !523, file: !524, line: 337, type: !855, scopeLine: 337, flags: DIFlagPublic | DIFlagPrototyped, spFlags: DISPFlagOptimized)
!859 = !DISubprogram(name: "Intern", linkageName: "_ZNK4llvm16FoldingSetNodeID6InternERNS_16BumpPtrAllocatorE", scope: !523, file: !524, line: 342, type: !860, scopeLine: 342, flags: DIFlagPublic | DIFlagPrototyped, spFlags: DISPFlagOptimized)
!860 = !DISubroutineType(types: !861)
!861 = !{!784, !850, !862}
!862 = !DIDerivedType(tag: DW_TAG_reference_type, baseType: !863, size: 64)
!863 = distinct !DICompositeType(tag: DW_TAG_class_type, name: "BumpPtrAllocator", scope: !14, file: !864, line: 90, size: 576, flags: DIFlagTypePassByReference | DIFlagNonTrivial, elements: !865, identifier: "_ZTSN4llvm16BumpPtrAllocatorE")
!864 = !DIFile(filename: "/faster/fs/llvm34/include/llvm/Support/Allocator.h", directory: "")
!865 = !{!866, !867, !868, !870, !873, !879, !881, !882, !883, !889, !890, !893, !896, !899, !902, !905, !906, !907, !910, !913, !917, !920}
!866 = !DIDerivedType(tag: DW_TAG_member, name: "SlabSize", scope: !863, file: !864, line: 96, baseType: !317, size: 64)
!867 = !DIDerivedType(tag: DW_TAG_member, name: "SizeThreshold", scope: !863, file: !864, line: 100, baseType: !317, size: 64, offset: 64)
!868 = !DIDerivedType(tag: DW_TAG_member, name: "DefaultSlabAllocator", scope: !863, file: !864, line: 103, baseType: !869, size: 128, offset: 128)
!869 = distinct !DICompositeType(tag: DW_TAG_class_type, name: "MallocSlabAllocator", scope: !14, file: !864, line: 74, flags: DIFlagFwdDecl, identifier: "_ZTSN4llvm19MallocSlabAllocatorE")
!870 = !DIDerivedType(tag: DW_TAG_member, name: "Allocator", scope: !863, file: !864, line: 108, baseType: !871, size: 64, offset: 256)
!871 = !DIDerivedType(tag: DW_TAG_reference_type, baseType: !872, size: 64)
!872 = distinct !DICompositeType(tag: DW_TAG_class_type, name: "SlabAllocator", scope: !14, file: !864, line: 64, flags: DIFlagFwdDecl, identifier: "_ZTSN4llvm13SlabAllocatorE")
!873 = !DIDerivedType(tag: DW_TAG_member, name: "CurSlab", scope: !863, file: !864, line: 112, baseType: !874, size: 64, offset: 320)
!874 = !DIDerivedType(tag: DW_TAG_pointer_type, baseType: !875, size: 64)
!875 = distinct !DICompositeType(tag: DW_TAG_class_type, name: "MemSlab", scope: !14, file: !864, line: 53, size: 128, flags: DIFlagTypePassByValue, elements: !876, identifier: "_ZTSN4llvm7MemSlabE")
!876 = !{!877, !878}
!877 = !DIDerivedType(tag: DW_TAG_member, name: "Size", scope: !875, file: !864, line: 55, baseType: !317, size: 64, flags: DIFlagPublic)
!878 = !DIDerivedType(tag: DW_TAG_member, name: "NextPtr", scope: !875, file: !864, line: 56, baseType: !874, size: 64, offset: 64, flags: DIFlagPublic)
!879 = !DIDerivedType(tag: DW_TAG_member, name: "CurPtr", scope: !863, file: !864, line: 116, baseType: !880, size: 64, offset: 384)
!880 = !DIDerivedType(tag: DW_TAG_pointer_type, baseType: !323, size: 64)
!881 = !DIDerivedType(tag: DW_TAG_member, name: "End", scope: !863, file: !864, line: 120, baseType: !880, size: 64, offset: 448)
!882 = !DIDerivedType(tag: DW_TAG_member, name: "BytesAllocated", scope: !863, file: !864, line: 124, baseType: !317, size: 64, offset: 512)
!883 = !DISubprogram(name: "BumpPtrAllocator", scope: !863, file: !864, line: 91, type: !884, scopeLine: 91, flags: DIFlagPrototyped, spFlags: DISPFlagOptimized | DISPFlagDeleted)
!884 = !DISubroutineType(types: !885)
!885 = !{null, !886, !887}
!886 = !DIDerivedType(tag: DW_TAG_pointer_type, baseType: !863, size: 64, flags: DIFlagArtificial | DIFlagObjectPointer)
!887 = !DIDerivedType(tag: DW_TAG_reference_type, baseType: !888, size: 64)
!888 = !DIDerivedType(tag: DW_TAG_const_type, baseType: !863)
!889 = !DISubprogram(name: "operator=", linkageName: "_ZN4llvm16BumpPtrAllocatoraSERKS0_", scope: !863, file: !864, line: 92, type: !884, scopeLine: 92, flags: DIFlagPrototyped, spFlags: DISPFlagOptimized | DISPFlagDeleted)
!890 = !DISubprogram(name: "AlignPtr", linkageName: "_ZN4llvm16BumpPtrAllocator8AlignPtrEPcm", scope: !863, file: !864, line: 129, type: !891, scopeLine: 129, flags: DIFlagPrototyped | DIFlagStaticMember, spFlags: DISPFlagOptimized)
!891 = !DISubroutineType(types: !892)
!892 = !{!880, !880, !317}
!893 = !DISubprogram(name: "StartNewSlab", linkageName: "_ZN4llvm16BumpPtrAllocator12StartNewSlabEv", scope: !863, file: !864, line: 133, type: !894, scopeLine: 133, flags: DIFlagPrototyped, spFlags: DISPFlagOptimized)
!894 = !DISubroutineType(types: !895)
!895 = !{null, !886}
!896 = !DISubprogram(name: "DeallocateSlabs", linkageName: "_ZN4llvm16BumpPtrAllocator15DeallocateSlabsEPNS_7MemSlabE", scope: !863, file: !864, line: 137, type: !897, scopeLine: 137, flags: DIFlagPrototyped, spFlags: DISPFlagOptimized)
!897 = !DISubroutineType(types: !898)
!898 = !{null, !886, !874}
!899 = !DISubprogram(name: "BumpPtrAllocator", scope: !863, file: !864, line: 141, type: !900, scopeLine: 141, flags: DIFlagPublic | DIFlagPrototyped, spFlags: DISPFlagOptimized)
!900 = !DISubroutineType(types: !901)
!901 = !{null, !886, !317, !317}
!902 = !DISubprogram(name: "BumpPtrAllocator", scope: !863, file: !864, line: 142, type: !903, scopeLine: 142, flags: DIFlagPublic | DIFlagPrototyped, spFlags: DISPFlagOptimized)
!903 = !DISubroutineType(types: !904)
!904 = !{null, !886, !317, !317, !871}
!905 = !DISubprogram(name: "~BumpPtrAllocator", scope: !863, file: !864, line: 143, type: !894, scopeLine: 143, flags: DIFlagPublic | DIFlagPrototyped, spFlags: DISPFlagOptimized)
!906 = !DISubprogram(name: "Reset", linkageName: "_ZN4llvm16BumpPtrAllocator5ResetEv", scope: !863, file: !864, line: 147, type: !894, scopeLine: 147, flags: DIFlagPublic | DIFlagPrototyped, spFlags: DISPFlagOptimized)
!907 = !DISubprogram(name: "Allocate", linkageName: "_ZN4llvm16BumpPtrAllocator8AllocateEmm", scope: !863, file: !864, line: 151, type: !908, scopeLine: 151, flags: DIFlagPublic | DIFlagPrototyped, spFlags: DISPFlagOptimized)
!908 = !DISubroutineType(types: !909)
!909 = !{!543, !886, !317, !317}
!910 = !DISubprogram(name: "Deallocate", linkageName: "_ZN4llvm16BumpPtrAllocator10DeallocateEPKv", scope: !863, file: !864, line: 176, type: !911, scopeLine: 176, flags: DIFlagPublic | DIFlagPrototyped, spFlags: DISPFlagOptimized)
!911 = !DISubroutineType(types: !912)
!912 = !{null, !886, !813}
!913 = !DISubprogram(name: "GetNumSlabs", linkageName: "_ZNK4llvm16BumpPtrAllocator11GetNumSlabsEv", scope: !863, file: !864, line: 178, type: !914, scopeLine: 178, flags: DIFlagPublic | DIFlagPrototyped, spFlags: DISPFlagOptimized)
!914 = !DISubroutineType(types: !915)
!915 = !{!6, !916}
!916 = !DIDerivedType(tag: DW_TAG_pointer_type, baseType: !888, size: 64, flags: DIFlagArtificial | DIFlagObjectPointer)
!917 = !DISubprogram(name: "PrintStats", linkageName: "_ZNK4llvm16BumpPtrAllocator10PrintStatsEv", scope: !863, file: !864, line: 180, type: !918, scopeLine: 180, flags: DIFlagPublic | DIFlagPrototyped, spFlags: DISPFlagOptimized)
!918 = !DISubroutineType(types: !919)
!919 = !{null, !916}
!920 = !DISubprogram(name: "getTotalMemory", linkageName: "_ZNK4llvm16BumpPtrAllocator14getTotalMemoryEv", scope: !863, file: !864, line: 183, type: !921, scopeLine: 183, flags: DIFlagPublic | DIFlagPrototyped, spFlags: DISPFlagOptimized)
!921 = !DISubroutineType(types: !922)
!922 = !{!317, !916}
!923 = !DISubprogram(name: "isNegative", linkageName: "_ZNK4llvm5APInt10isNegativeEv", scope: !421, file: !422, line: 322, type: !438, scopeLine: 322, flags: DIFlagPublic | DIFlagPrototyped, spFlags: DISPFlagOptimized)
!924 = !DISubprogram(name: "isNonNegative", linkageName: "_ZNK4llvm5APInt13isNonNegativeEv", scope: !421, file: !422, line: 327, type: !438, scopeLine: 327, flags: DIFlagPublic | DIFlagPrototyped, spFlags: DISPFlagOptimized)
!925 = !DISubprogram(name: "isStrictlyPositive", linkageName: "_ZNK4llvm5APInt18isStrictlyPositiveEv", scope: !421, file: !422, line: 335, type: !438, scopeLine: 335, flags: DIFlagPublic | DIFlagPrototyped, spFlags: DISPFlagOptimized)
!926 = !DISubprogram(name: "isAllOnesValue", linkageName: "_ZNK4llvm5APInt14isAllOnesValueEv", scope: !421, file: !422, line: 340, type: !438, scopeLine: 340, flags: DIFlagPublic | DIFlagPrototyped, spFlags: DISPFlagOptimized)
!927 = !DISubprogram(name: "isMaxValue", linkageName: "_ZNK4llvm5APInt10isMaxValueEv", scope: !421, file: !422, line: 350, type: !438, scopeLine: 350, flags: DIFlagPublic | DIFlagPrototyped, spFlags: DISPFlagOptimized)
!928 = !DISubprogram(name: "isMaxSignedValue", linkageName: "_ZNK4llvm5APInt16isMaxSignedValueEv", scope: !421, file: !422, line: 356, type: !438, scopeLine: 356, flags: DIFlagPublic | DIFlagPrototyped, spFlags: DISPFlagOptimized)
!929 = !DISubprogram(name: "isMinValue", linkageName: "_ZNK4llvm5APInt10isMinValueEv", scope: !421, file: !422, line: 365, type: !438, scopeLine: 365, flags: DIFlagPublic | DIFlagPrototyped, spFlags: DISPFlagOptimized)
!930 = !DISubprogram(name: "isMinSignedValue", linkageName: "_ZNK4llvm5APInt16isMinSignedValueEv", scope: !421, file: !422, line: 371, type: !438, scopeLine: 371, flags: DIFlagPublic | DIFlagPrototyped, spFlags: DISPFlagOptimized)
!931 = !DISubprogram(name: "isIntN", linkageName: "_ZNK4llvm5APInt6isIntNEj", scope: !421, file: !422, line: 376, type: !932, scopeLine: 376, flags: DIFlagPublic | DIFlagPrototyped, spFlags: DISPFlagOptimized)
!932 = !DISubroutineType(types: !933)
!933 = !{!34, !440, !6}
!934 = !DISubprogram(name: "isSignedIntN", linkageName: "_ZNK4llvm5APInt12isSignedIntNEj", scope: !421, file: !422, line: 382, type: !932, scopeLine: 382, flags: DIFlagPublic | DIFlagPrototyped, spFlags: DISPFlagOptimized)
!935 = !DISubprogram(name: "isPowerOf2", linkageName: "_ZNK4llvm5APInt10isPowerOf2Ev", scope: !421, file: !422, line: 390, type: !438, scopeLine: 390, flags: DIFlagPublic | DIFlagPrototyped, spFlags: DISPFlagOptimized)
!936 = !DISubprogram(name: "isSignBit", linkageName: "_ZNK4llvm5APInt9isSignBitEv", scope: !421, file: !422, line: 399, type: !438, scopeLine: 399, flags: DIFlagPublic | DIFlagPrototyped, spFlags: DISPFlagOptimized)
!937 = !DISubprogram(name: "getBoolValue", linkageName: "_ZNK4llvm5APInt12getBoolValueEv", scope: !421, file: !422, line: 404, type: !438, scopeLine: 404, flags: DIFlagPublic | DIFlagPrototyped, spFlags: DISPFlagOptimized)
!938 = !DISubprogram(name: "getLimitedValue", linkageName: "_ZNK4llvm5APInt15getLimitedValueEm", scope: !421, file: !422, line: 408, type: !939, scopeLine: 408, flags: DIFlagPublic | DIFlagPrototyped, spFlags: DISPFlagOptimized)
!939 = !DISubroutineType(types: !940)
!940 = !{!429, !440, !429}
!941 = !DISubprogram(name: "getMaxValue", linkageName: "_ZN4llvm5APInt11getMaxValueEj", scope: !421, file: !422, line: 418, type: !942, scopeLine: 418, flags: DIFlagPublic | DIFlagPrototyped | DIFlagStaticMember, spFlags: DISPFlagOptimized)
!942 = !DISubroutineType(types: !943)
!943 = !{!421, !6}
!944 = !DISubprogram(name: "getSignedMaxValue", linkageName: "_ZN4llvm5APInt17getSignedMaxValueEj", scope: !421, file: !422, line: 423, type: !942, scopeLine: 423, flags: DIFlagPublic | DIFlagPrototyped | DIFlagStaticMember, spFlags: DISPFlagOptimized)
!945 = !DISubprogram(name: "getMinValue", linkageName: "_ZN4llvm5APInt11getMinValueEj", scope: !421, file: !422, line: 430, type: !942, scopeLine: 430, flags: DIFlagPublic | DIFlagPrototyped | DIFlagStaticMember, spFlags: DISPFlagOptimized)
!946 = !DISubprogram(name: "getSignedMinValue", linkageName: "_ZN4llvm5APInt17getSignedMinValueEj", scope: !421, file: !422, line: 433, type: !942, scopeLine: 433, flags: DIFlagPublic | DIFlagPrototyped | DIFlagStaticMember, spFlags: DISPFlagOptimized)
!947 = !DISubprogram(name: "getSignBit", linkageName: "_ZN4llvm5APInt10getSignBitEj", scope: !421, file: !422, line: 443, type: !942, scopeLine: 443, flags: DIFlagPublic | DIFlagPrototyped | DIFlagStaticMember, spFlags: DISPFlagOptimized)
!948 = !DISubprogram(name: "getAllOnesValue", linkageName: "_ZN4llvm5APInt15getAllOnesValueEj", scope: !421, file: !422, line: 450, type: !942, scopeLine: 450, flags: DIFlagPublic | DIFlagPrototyped | DIFlagStaticMember, spFlags: DISPFlagOptimized)
!949 = !DISubprogram(name: "getNullValue", linkageName: "_ZN4llvm5APInt12getNullValueEj", scope: !421, file: !422, line: 457, type: !942, scopeLine: 457, flags: DIFlagPublic | DIFlagPrototyped | DIFlagStaticMember, spFlags: DISPFlagOptimized)
!950 = !DISubprogram(name: "getHiBits", linkageName: "_ZNK4llvm5APInt9getHiBitsEj", scope: !421, file: !422, line: 465, type: !478, scopeLine: 465, flags: DIFlagPublic | DIFlagPrototyped, spFlags: DISPFlagOptimized)
!951 = !DISubprogram(name: "getLoBits", linkageName: "_ZNK4llvm5APInt9getLoBitsEj", scope: !421, file: !422, line: 473, type: !478, scopeLine: 473, flags: DIFlagPublic | DIFlagPrototyped, spFlags: DISPFlagOptimized)
!952 = !DISubprogram(name: "getOneBitSet", linkageName: "_ZN4llvm5APInt12getOneBitSetEjj", scope: !421, file: !422, line: 476, type: !953, scopeLine: 476, flags: DIFlagPublic | DIFlagPrototyped | DIFlagStaticMember, spFlags: DISPFlagOptimized)
!953 = !DISubroutineType(types: !954)
!954 = !{!421, !6, !6}
!955 = !DISubprogram(name: "getBitsSet", linkageName: "_ZN4llvm5APInt10getBitsSetEjjj", scope: !421, file: !422, line: 495, type: !956, scopeLine: 495, flags: DIFlagPublic | DIFlagPrototyped | DIFlagStaticMember, spFlags: DISPFlagOptimized)
!956 = !DISubroutineType(types: !957)
!957 = !{!421, !6, !6, !6}
!958 = !DISubprogram(name: "getHighBitsSet", linkageName: "_ZN4llvm5APInt14getHighBitsSetEjj", scope: !421, file: !422, line: 510, type: !953, scopeLine: 510, flags: DIFlagPublic | DIFlagPrototyped | DIFlagStaticMember, spFlags: DISPFlagOptimized)
!959 = !DISubprogram(name: "getLowBitsSet", linkageName: "_ZN4llvm5APInt13getLowBitsSetEjj", scope: !421, file: !422, line: 528, type: !953, scopeLine: 528, flags: DIFlagPublic | DIFlagPrototyped | DIFlagStaticMember, spFlags: DISPFlagOptimized)
!960 = !DISubprogram(name: "getSplat", linkageName: "_ZN4llvm5APInt8getSplatEjRKS0_", scope: !421, file: !422, line: 542, type: !961, scopeLine: 542, flags: DIFlagPublic | DIFlagPrototyped | DIFlagStaticMember, spFlags: DISPFlagOptimized)
!961 = !DISubroutineType(types: !962)
!962 = !{!421, !6, !464}
!963 = !DISubprogram(name: "isSameValue", linkageName: "_ZN4llvm5APInt11isSameValueERKS0_S2_", scope: !421, file: !422, line: 554, type: !964, scopeLine: 554, flags: DIFlagPublic | DIFlagPrototyped | DIFlagStaticMember, spFlags: DISPFlagOptimized)
!964 = !DISubroutineType(types: !965)
!965 = !{!34, !464, !464}
!966 = !DISubprogram(name: "getRawData", linkageName: "_ZNK4llvm5APInt10getRawDataEv", scope: !421, file: !422, line: 570, type: !967, scopeLine: 570, flags: DIFlagPublic | DIFlagPrototyped, spFlags: DISPFlagOptimized)
!967 = !DISubroutineType(types: !968)
!968 = !{!506, !440}
!969 = !DISubprogram(name: "operator++", linkageName: "_ZN4llvm5APIntppEi", scope: !421, file: !422, line: 583, type: !970, scopeLine: 583, flags: DIFlagPublic | DIFlagPrototyped, spFlags: DISPFlagOptimized)
!970 = !DISubroutineType(types: !971)
!971 = !{!441, !436, !202}
!972 = !DISubprogram(name: "operator++", linkageName: "_ZN4llvm5APIntppEv", scope: !421, file: !422, line: 592, type: !450, scopeLine: 592, flags: DIFlagPublic | DIFlagPrototyped, spFlags: DISPFlagOptimized)
!973 = !DISubprogram(name: "operator--", linkageName: "_ZN4llvm5APIntmmEi", scope: !421, file: !422, line: 597, type: !970, scopeLine: 597, flags: DIFlagPublic | DIFlagPrototyped, spFlags: DISPFlagOptimized)
!974 = !DISubprogram(name: "operator--", linkageName: "_ZN4llvm5APIntmmEv", scope: !421, file: !422, line: 606, type: !450, scopeLine: 606, flags: DIFlagPublic | DIFlagPrototyped, spFlags: DISPFlagOptimized)
!975 = !DISubprogram(name: "operator~", linkageName: "_ZNK4llvm5APIntcoEv", scope: !421, file: !422, line: 613, type: !976, scopeLine: 613, flags: DIFlagPublic | DIFlagPrototyped, spFlags: DISPFlagOptimized)
!976 = !DISubroutineType(types: !977)
!977 = !{!421, !440}
!978 = !DISubprogram(name: "operator-", linkageName: "_ZNK4llvm5APIntngEv", scope: !421, file: !422, line: 624, type: !976, scopeLine: 624, flags: DIFlagPublic | DIFlagPrototyped, spFlags: DISPFlagOptimized)
!979 = !DISubprogram(name: "operator!", linkageName: "_ZNK4llvm5APIntntEv", scope: !421, file: !422, line: 631, type: !438, scopeLine: 631, flags: DIFlagPublic | DIFlagPrototyped, spFlags: DISPFlagOptimized)
!980 = !DISubprogram(name: "operator=", linkageName: "_ZN4llvm5APIntaSERKS0_", scope: !421, file: !422, line: 648, type: !486, scopeLine: 648, flags: DIFlagPublic | DIFlagPrototyped, spFlags: DISPFlagOptimized)
!981 = !DISubprogram(name: "operator=", linkageName: "_ZN4llvm5APIntaSEOS0_", scope: !421, file: !422, line: 661, type: !982, scopeLine: 661, flags: DIFlagPublic | DIFlagPrototyped, spFlags: DISPFlagOptimized)
!982 = !DISubroutineType(types: !983)
!983 = !{!420, !436, !513}
!984 = !DISubprogram(name: "operator=", linkageName: "_ZN4llvm5APIntaSEm", scope: !421, file: !422, line: 681, type: !985, scopeLine: 681, flags: DIFlagPublic | DIFlagPrototyped, spFlags: DISPFlagOptimized)
!985 = !DISubroutineType(types: !986)
!986 = !{!420, !436, !429}
!987 = !DISubprogram(name: "operator&=", linkageName: "_ZN4llvm5APIntaNERKS0_", scope: !421, file: !422, line: 689, type: !486, scopeLine: 689, flags: DIFlagPublic | DIFlagPrototyped, spFlags: DISPFlagOptimized)
!988 = !DISubprogram(name: "operator|=", linkageName: "_ZN4llvm5APIntoRERKS0_", scope: !421, file: !422, line: 697, type: !486, scopeLine: 697, flags: DIFlagPublic | DIFlagPrototyped, spFlags: DISPFlagOptimized)
!989 = !DISubprogram(name: "operator|=", linkageName: "_ZN4llvm5APIntoREm", scope: !421, file: !422, line: 704, type: !985, scopeLine: 704, flags: DIFlagPublic | DIFlagPrototyped, spFlags: DISPFlagOptimized)
!990 = !DISubprogram(name: "operator^=", linkageName: "_ZN4llvm5APInteOERKS0_", scope: !421, file: !422, line: 720, type: !486, scopeLine: 720, flags: DIFlagPublic | DIFlagPrototyped, spFlags: DISPFlagOptimized)
!991 = !DISubprogram(name: "operator*=", linkageName: "_ZN4llvm5APIntmLERKS0_", scope: !421, file: !422, line: 727, type: !486, scopeLine: 727, flags: DIFlagPublic | DIFlagPrototyped, spFlags: DISPFlagOptimized)
!992 = !DISubprogram(name: "operator+=", linkageName: "_ZN4llvm5APIntpLERKS0_", scope: !421, file: !422, line: 734, type: !486, scopeLine: 734, flags: DIFlagPublic | DIFlagPrototyped, spFlags: DISPFlagOptimized)
!993 = !DISubprogram(name: "operator-=", linkageName: "_ZN4llvm5APIntmIERKS0_", scope: !421, file: !422, line: 741, type: !486, scopeLine: 741, flags: DIFlagPublic | DIFlagPrototyped, spFlags: DISPFlagOptimized)
!994 = !DISubprogram(name: "operator<<=", linkageName: "_ZN4llvm5APIntlSEj", scope: !421, file: !422, line: 748, type: !995, scopeLine: 748, flags: DIFlagPublic | DIFlagPrototyped, spFlags: DISPFlagOptimized)
!995 = !DISubroutineType(types: !996)
!996 = !{!420, !436, !6}
!997 = !DISubprogram(name: "operator&", linkageName: "_ZNK4llvm5APIntanERKS0_", scope: !421, file: !422, line: 762, type: !481, scopeLine: 762, flags: DIFlagPublic | DIFlagPrototyped, spFlags: DISPFlagOptimized)
!998 = !DISubprogram(name: "And", linkageName: "_ZNK4llvm5APInt3AndERKS0_", scope: !421, file: !422, line: 768, type: !481, scopeLine: 768, flags: DIFlagPublic | DIFlagPrototyped, spFlags: DISPFlagOptimized)
!999 = !DISubprogram(name: "operator|", linkageName: "_ZNK4llvm5APIntorERKS0_", scope: !421, file: !422, line: 777, type: !481, scopeLine: 777, flags: DIFlagPublic | DIFlagPrototyped, spFlags: DISPFlagOptimized)
!1000 = !DISubprogram(name: "Or", linkageName: "_ZNK4llvm5APInt2OrERKS0_", scope: !421, file: !422, line: 790, type: !481, scopeLine: 790, flags: DIFlagPublic | DIFlagPrototyped, spFlags: DISPFlagOptimized)
!1001 = !DISubprogram(name: "operator^", linkageName: "_ZNK4llvm5APInteoERKS0_", scope: !421, file: !422, line: 799, type: !481, scopeLine: 799, flags: DIFlagPublic | DIFlagPrototyped, spFlags: DISPFlagOptimized)
!1002 = !DISubprogram(name: "Xor", linkageName: "_ZNK4llvm5APInt3XorERKS0_", scope: !421, file: !422, line: 812, type: !481, scopeLine: 812, flags: DIFlagPublic | DIFlagPrototyped, spFlags: DISPFlagOptimized)
!1003 = !DISubprogram(name: "operator*", linkageName: "_ZNK4llvm5APIntmlERKS0_", scope: !421, file: !422, line: 819, type: !481, scopeLine: 819, flags: DIFlagPublic | DIFlagPrototyped, spFlags: DISPFlagOptimized)
!1004 = !DISubprogram(name: "operator+", linkageName: "_ZNK4llvm5APIntplERKS0_", scope: !421, file: !422, line: 824, type: !481, scopeLine: 824, flags: DIFlagPublic | DIFlagPrototyped, spFlags: DISPFlagOptimized)
!1005 = !DISubprogram(name: "operator+", linkageName: "_ZNK4llvm5APIntplEm", scope: !421, file: !422, line: 825, type: !1006, scopeLine: 825, flags: DIFlagPublic | DIFlagPrototyped, spFlags: DISPFlagOptimized)
!1006 = !DISubroutineType(types: !1007)
!1007 = !{!421, !440, !429}
!1008 = !DISubprogram(name: "operator-", linkageName: "_ZNK4llvm5APIntmiERKS0_", scope: !421, file: !422, line: 830, type: !481, scopeLine: 830, flags: DIFlagPublic | DIFlagPrototyped, spFlags: DISPFlagOptimized)
!1009 = !DISubprogram(name: "operator-", linkageName: "_ZNK4llvm5APIntmiEm", scope: !421, file: !422, line: 831, type: !1006, scopeLine: 831, flags: DIFlagPublic | DIFlagPrototyped, spFlags: DISPFlagOptimized)
!1010 = !DISubprogram(name: "operator<<", linkageName: "_ZNK4llvm5APIntlsEj", scope: !421, file: !422, line: 836, type: !478, scopeLine: 836, flags: DIFlagPublic | DIFlagPrototyped, spFlags: DISPFlagOptimized)
!1011 = !DISubprogram(name: "operator<<", linkageName: "_ZNK4llvm5APIntlsERKS0_", scope: !421, file: !422, line: 841, type: !481, scopeLine: 841, flags: DIFlagPublic | DIFlagPrototyped, spFlags: DISPFlagOptimized)
!1012 = !DISubprogram(name: "ashr", linkageName: "_ZNK4llvm5APInt4ashrEj", scope: !421, file: !422, line: 846, type: !478, scopeLine: 846, flags: DIFlagPublic | DIFlagPrototyped, spFlags: DISPFlagOptimized)
!1013 = !DISubprogram(name: "lshr", linkageName: "_ZNK4llvm5APInt4lshrEj", scope: !421, file: !422, line: 851, type: !478, scopeLine: 851, flags: DIFlagPublic | DIFlagPrototyped, spFlags: DISPFlagOptimized)
!1014 = !DISubprogram(name: "shl", linkageName: "_ZNK4llvm5APInt3shlEj", scope: !421, file: !422, line: 856, type: !478, scopeLine: 856, flags: DIFlagPublic | DIFlagPrototyped, spFlags: DISPFlagOptimized)
!1015 = !DISubprogram(name: "rotl", linkageName: "_ZNK4llvm5APInt4rotlEj", scope: !421, file: !422, line: 867, type: !478, scopeLine: 867, flags: DIFlagPublic | DIFlagPrototyped, spFlags: DISPFlagOptimized)
!1016 = !DISubprogram(name: "rotr", linkageName: "_ZNK4llvm5APInt4rotrEj", scope: !421, file: !422, line: 870, type: !478, scopeLine: 870, flags: DIFlagPublic | DIFlagPrototyped, spFlags: DISPFlagOptimized)
!1017 = !DISubprogram(name: "ashr", linkageName: "_ZNK4llvm5APInt4ashrERKS0_", scope: !421, file: !422, line: 875, type: !481, scopeLine: 875, flags: DIFlagPublic | DIFlagPrototyped, spFlags: DISPFlagOptimized)
!1018 = !DISubprogram(name: "lshr", linkageName: "_ZNK4llvm5APInt4lshrERKS0_", scope: !421, file: !422, line: 880, type: !481, scopeLine: 880, flags: DIFlagPublic | DIFlagPrototyped, spFlags: DISPFlagOptimized)
!1019 = !DISubprogram(name: "shl", linkageName: "_ZNK4llvm5APInt3shlERKS0_", scope: !421, file: !422, line: 885, type: !481, scopeLine: 885, flags: DIFlagPublic | DIFlagPrototyped, spFlags: DISPFlagOptimized)
!1020 = !DISubprogram(name: "rotl", linkageName: "_ZNK4llvm5APInt4rotlERKS0_", scope: !421, file: !422, line: 888, type: !481, scopeLine: 888, flags: DIFlagPublic | DIFlagPrototyped, spFlags: DISPFlagOptimized)
!1021 = !DISubprogram(name: "rotr", linkageName: "_ZNK4llvm5APInt4rotrERKS0_", scope: !421, file: !422, line: 891, type: !481, scopeLine: 891, flags: DIFlagPublic | DIFlagPrototyped, spFlags: DISPFlagOptimized)
!1022 = !DISubprogram(name: "udiv", linkageName: "_ZNK4llvm5APInt4udivERKS0_", scope: !421, file: !422, line: 899, type: !481, scopeLine: 899, flags: DIFlagPublic | DIFlagPrototyped, spFlags: DISPFlagOptimized)
!1023 = !DISubprogram(name: "sdiv", linkageName: "_ZNK4llvm5APInt4sdivERKS0_", scope: !421, file: !422, line: 904, type: !481, scopeLine: 904, flags: DIFlagPublic | DIFlagPrototyped, spFlags: DISPFlagOptimized)
!1024 = !DISubprogram(name: "urem", linkageName: "_ZNK4llvm5APInt4uremERKS0_", scope: !421, file: !422, line: 915, type: !481, scopeLine: 915, flags: DIFlagPublic | DIFlagPrototyped, spFlags: DISPFlagOptimized)
!1025 = !DISubprogram(name: "srem", linkageName: "_ZNK4llvm5APInt4sremERKS0_", scope: !421, file: !422, line: 920, type: !481, scopeLine: 920, flags: DIFlagPublic | DIFlagPrototyped, spFlags: DISPFlagOptimized)
!1026 = !DISubprogram(name: "udivrem", linkageName: "_ZN4llvm5APInt7udivremERKS0_S2_RS0_S3_", scope: !421, file: !422, line: 929, type: !1027, scopeLine: 929, flags: DIFlagPublic | DIFlagPrototyped | DIFlagStaticMember, spFlags: DISPFlagOptimized)
!1027 = !DISubroutineType(types: !1028)
!1028 = !{null, !464, !464, !420, !420}
!1029 = !DISubprogram(name: "sdivrem", linkageName: "_ZN4llvm5APInt7sdivremERKS0_S2_RS0_S3_", scope: !421, file: !422, line: 932, type: !1027, scopeLine: 932, flags: DIFlagPublic | DIFlagPrototyped | DIFlagStaticMember, spFlags: DISPFlagOptimized)
!1030 = !DISubprogram(name: "sadd_ov", linkageName: "_ZNK4llvm5APInt7sadd_ovERKS0_Rb", scope: !421, file: !422, line: 936, type: !1031, scopeLine: 936, flags: DIFlagPublic | DIFlagPrototyped, spFlags: DISPFlagOptimized)
!1031 = !DISubroutineType(types: !1032)
!1032 = !{!421, !440, !464, !1033}
!1033 = !DIDerivedType(tag: DW_TAG_reference_type, baseType: !34, size: 64)
!1034 = !DISubprogram(name: "uadd_ov", linkageName: "_ZNK4llvm5APInt7uadd_ovERKS0_Rb", scope: !421, file: !422, line: 937, type: !1031, scopeLine: 937, flags: DIFlagPublic | DIFlagPrototyped, spFlags: DISPFlagOptimized)
!1035 = !DISubprogram(name: "ssub_ov", linkageName: "_ZNK4llvm5APInt7ssub_ovERKS0_Rb", scope: !421, file: !422, line: 938, type: !1031, scopeLine: 938, flags: DIFlagPublic | DIFlagPrototyped, spFlags: DISPFlagOptimized)
!1036 = !DISubprogram(name: "usub_ov", linkageName: "_ZNK4llvm5APInt7usub_ovERKS0_Rb", scope: !421, file: !422, line: 939, type: !1031, scopeLine: 939, flags: DIFlagPublic | DIFlagPrototyped, spFlags: DISPFlagOptimized)
!1037 = !DISubprogram(name: "sdiv_ov", linkageName: "_ZNK4llvm5APInt7sdiv_ovERKS0_Rb", scope: !421, file: !422, line: 940, type: !1031, scopeLine: 940, flags: DIFlagPublic | DIFlagPrototyped, spFlags: DISPFlagOptimized)
!1038 = !DISubprogram(name: "smul_ov", linkageName: "_ZNK4llvm5APInt7smul_ovERKS0_Rb", scope: !421, file: !422, line: 941, type: !1031, scopeLine: 941, flags: DIFlagPublic | DIFlagPrototyped, spFlags: DISPFlagOptimized)
!1039 = !DISubprogram(name: "umul_ov", linkageName: "_ZNK4llvm5APInt7umul_ovERKS0_Rb", scope: !421, file: !422, line: 942, type: !1031, scopeLine: 942, flags: DIFlagPublic | DIFlagPrototyped, spFlags: DISPFlagOptimized)
!1040 = !DISubprogram(name: "sshl_ov", linkageName: "_ZNK4llvm5APInt7sshl_ovEjRb", scope: !421, file: !422, line: 943, type: !1041, scopeLine: 943, flags: DIFlagPublic | DIFlagPrototyped, spFlags: DISPFlagOptimized)
!1041 = !DISubroutineType(types: !1042)
!1042 = !{!421, !440, !6, !1033}
!1043 = !DISubprogram(name: "operator[]", linkageName: "_ZNK4llvm5APIntixEj", scope: !421, file: !422, line: 948, type: !932, scopeLine: 948, flags: DIFlagPublic | DIFlagPrototyped, spFlags: DISPFlagOptimized)
!1044 = !DISubprogram(name: "operator==", linkageName: "_ZNK4llvm5APInteqERKS0_", scope: !421, file: !422, line: 963, type: !489, scopeLine: 963, flags: DIFlagPublic | DIFlagPrototyped, spFlags: DISPFlagOptimized)
!1045 = !DISubprogram(name: "operator==", linkageName: "_ZNK4llvm5APInteqEm", scope: !421, file: !422, line: 976, type: !492, scopeLine: 976, flags: DIFlagPublic | DIFlagPrototyped, spFlags: DISPFlagOptimized)
!1046 = !DISubprogram(name: "eq", linkageName: "_ZNK4llvm5APInt2eqERKS0_", scope: !421, file: !422, line: 988, type: !489, scopeLine: 988, flags: DIFlagPublic | DIFlagPrototyped, spFlags: DISPFlagOptimized)
!1047 = !DISubprogram(name: "operator!=", linkageName: "_ZNK4llvm5APIntneERKS0_", scope: !421, file: !422, line: 996, type: !489, scopeLine: 996, flags: DIFlagPublic | DIFlagPrototyped, spFlags: DISPFlagOptimized)
!1048 = !DISubprogram(name: "operator!=", linkageName: "_ZNK4llvm5APIntneEm", scope: !421, file: !422, line: 1004, type: !492, scopeLine: 1004, flags: DIFlagPublic | DIFlagPrototyped, spFlags: DISPFlagOptimized)
!1049 = !DISubprogram(name: "ne", linkageName: "_ZNK4llvm5APInt2neERKS0_", scope: !421, file: !422, line: 1012, type: !489, scopeLine: 1012, flags: DIFlagPublic | DIFlagPrototyped, spFlags: DISPFlagOptimized)
!1050 = !DISubprogram(name: "ult", linkageName: "_ZNK4llvm5APInt3ultERKS0_", scope: !421, file: !422, line: 1020, type: !489, scopeLine: 1020, flags: DIFlagPublic | DIFlagPrototyped, spFlags: DISPFlagOptimized)
!1051 = !DISubprogram(name: "ult", linkageName: "_ZNK4llvm5APInt3ultEm", scope: !421, file: !422, line: 1028, type: !492, scopeLine: 1028, flags: DIFlagPublic | DIFlagPrototyped, spFlags: DISPFlagOptimized)
!1052 = !DISubprogram(name: "slt", linkageName: "_ZNK4llvm5APInt3sltERKS0_", scope: !421, file: !422, line: 1036, type: !489, scopeLine: 1036, flags: DIFlagPublic | DIFlagPrototyped, spFlags: DISPFlagOptimized)
!1053 = !DISubprogram(name: "slt", linkageName: "_ZNK4llvm5APInt3sltEm", scope: !421, file: !422, line: 1044, type: !492, scopeLine: 1044, flags: DIFlagPublic | DIFlagPrototyped, spFlags: DISPFlagOptimized)
!1054 = !DISubprogram(name: "ule", linkageName: "_ZNK4llvm5APInt3uleERKS0_", scope: !421, file: !422, line: 1052, type: !489, scopeLine: 1052, flags: DIFlagPublic | DIFlagPrototyped, spFlags: DISPFlagOptimized)
!1055 = !DISubprogram(name: "ule", linkageName: "_ZNK4llvm5APInt3uleEm", scope: !421, file: !422, line: 1060, type: !492, scopeLine: 1060, flags: DIFlagPublic | DIFlagPrototyped, spFlags: DISPFlagOptimized)
!1056 = !DISubprogram(name: "sle", linkageName: "_ZNK4llvm5APInt3sleERKS0_", scope: !421, file: !422, line: 1068, type: !489, scopeLine: 1068, flags: DIFlagPublic | DIFlagPrototyped, spFlags: DISPFlagOptimized)
!1057 = !DISubprogram(name: "sle", linkageName: "_ZNK4llvm5APInt3sleEm", scope: !421, file: !422, line: 1076, type: !492, scopeLine: 1076, flags: DIFlagPublic | DIFlagPrototyped, spFlags: DISPFlagOptimized)
!1058 = !DISubprogram(name: "ugt", linkageName: "_ZNK4llvm5APInt3ugtERKS0_", scope: !421, file: !422, line: 1084, type: !489, scopeLine: 1084, flags: DIFlagPublic | DIFlagPrototyped, spFlags: DISPFlagOptimized)
!1059 = !DISubprogram(name: "ugt", linkageName: "_ZNK4llvm5APInt3ugtEm", scope: !421, file: !422, line: 1092, type: !492, scopeLine: 1092, flags: DIFlagPublic | DIFlagPrototyped, spFlags: DISPFlagOptimized)
!1060 = !DISubprogram(name: "sgt", linkageName: "_ZNK4llvm5APInt3sgtERKS0_", scope: !421, file: !422, line: 1100, type: !489, scopeLine: 1100, flags: DIFlagPublic | DIFlagPrototyped, spFlags: DISPFlagOptimized)
!1061 = !DISubprogram(name: "sgt", linkageName: "_ZNK4llvm5APInt3sgtEm", scope: !421, file: !422, line: 1108, type: !492, scopeLine: 1108, flags: DIFlagPublic | DIFlagPrototyped, spFlags: DISPFlagOptimized)
!1062 = !DISubprogram(name: "uge", linkageName: "_ZNK4llvm5APInt3ugeERKS0_", scope: !421, file: !422, line: 1116, type: !489, scopeLine: 1116, flags: DIFlagPublic | DIFlagPrototyped, spFlags: DISPFlagOptimized)
!1063 = !DISubprogram(name: "uge", linkageName: "_ZNK4llvm5APInt3ugeEm", scope: !421, file: !422, line: 1124, type: !492, scopeLine: 1124, flags: DIFlagPublic | DIFlagPrototyped, spFlags: DISPFlagOptimized)
!1064 = !DISubprogram(name: "sge", linkageName: "_ZNK4llvm5APInt3sgeERKS0_", scope: !421, file: !422, line: 1132, type: !489, scopeLine: 1132, flags: DIFlagPublic | DIFlagPrototyped, spFlags: DISPFlagOptimized)
!1065 = !DISubprogram(name: "sge", linkageName: "_ZNK4llvm5APInt3sgeEm", scope: !421, file: !422, line: 1140, type: !492, scopeLine: 1140, flags: DIFlagPublic | DIFlagPrototyped, spFlags: DISPFlagOptimized)
!1066 = !DISubprogram(name: "intersects", linkageName: "_ZNK4llvm5APInt10intersectsERKS0_", scope: !421, file: !422, line: 1144, type: !489, scopeLine: 1144, flags: DIFlagPublic | DIFlagPrototyped, spFlags: DISPFlagOptimized)
!1067 = !DISubprogram(name: "trunc", linkageName: "_ZNK4llvm5APInt5truncEj", scope: !421, file: !422, line: 1154, type: !478, scopeLine: 1154, flags: DIFlagPublic | DIFlagPrototyped, spFlags: DISPFlagOptimized)
!1068 = !DISubprogram(name: "sext", linkageName: "_ZNK4llvm5APInt4sextEj", scope: !421, file: !422, line: 1162, type: !478, scopeLine: 1162, flags: DIFlagPublic | DIFlagPrototyped, spFlags: DISPFlagOptimized)
!1069 = !DISubprogram(name: "zext", linkageName: "_ZNK4llvm5APInt4zextEj", scope: !421, file: !422, line: 1169, type: !478, scopeLine: 1169, flags: DIFlagPublic | DIFlagPrototyped, spFlags: DISPFlagOptimized)
!1070 = !DISubprogram(name: "sextOrTrunc", linkageName: "_ZNK4llvm5APInt11sextOrTruncEj", scope: !421, file: !422, line: 1175, type: !478, scopeLine: 1175, flags: DIFlagPublic | DIFlagPrototyped, spFlags: DISPFlagOptimized)
!1071 = !DISubprogram(name: "zextOrTrunc", linkageName: "_ZNK4llvm5APInt11zextOrTruncEj", scope: !421, file: !422, line: 1181, type: !478, scopeLine: 1181, flags: DIFlagPublic | DIFlagPrototyped, spFlags: DISPFlagOptimized)
!1072 = !DISubprogram(name: "sextOrSelf", linkageName: "_ZNK4llvm5APInt10sextOrSelfEj", scope: !421, file: !422, line: 1187, type: !478, scopeLine: 1187, flags: DIFlagPublic | DIFlagPrototyped, spFlags: DISPFlagOptimized)
!1073 = !DISubprogram(name: "zextOrSelf", linkageName: "_ZNK4llvm5APInt10zextOrSelfEj", scope: !421, file: !422, line: 1193, type: !478, scopeLine: 1193, flags: DIFlagPublic | DIFlagPrototyped, spFlags: DISPFlagOptimized)
!1074 = !DISubprogram(name: "setAllBits", linkageName: "_ZN4llvm5APInt10setAllBitsEv", scope: !421, file: !422, line: 1200, type: !515, scopeLine: 1200, flags: DIFlagPublic | DIFlagPrototyped, spFlags: DISPFlagOptimized)
!1075 = !DISubprogram(name: "setBit", linkageName: "_ZN4llvm5APInt6setBitEj", scope: !421, file: !422, line: 1215, type: !1076, scopeLine: 1215, flags: DIFlagPublic | DIFlagPrototyped, spFlags: DISPFlagOptimized)
!1076 = !DISubroutineType(types: !1077)
!1077 = !{null, !436, !6}
!1078 = !DISubprogram(name: "clearAllBits", linkageName: "_ZN4llvm5APInt12clearAllBitsEv", scope: !421, file: !422, line: 1218, type: !515, scopeLine: 1218, flags: DIFlagPublic | DIFlagPrototyped, spFlags: DISPFlagOptimized)
!1079 = !DISubprogram(name: "clearBit", linkageName: "_ZN4llvm5APInt8clearBitEj", scope: !421, file: !422, line: 1228, type: !1076, scopeLine: 1228, flags: DIFlagPublic | DIFlagPrototyped, spFlags: DISPFlagOptimized)
!1080 = !DISubprogram(name: "flipAllBits", linkageName: "_ZN4llvm5APInt11flipAllBitsEv", scope: !421, file: !422, line: 1231, type: !515, scopeLine: 1231, flags: DIFlagPublic | DIFlagPrototyped, spFlags: DISPFlagOptimized)
!1081 = !DISubprogram(name: "flipBit", linkageName: "_ZN4llvm5APInt7flipBitEj", scope: !421, file: !422, line: 1245, type: !1076, scopeLine: 1245, flags: DIFlagPublic | DIFlagPrototyped, spFlags: DISPFlagOptimized)
!1082 = !DISubprogram(name: "getBitWidth", linkageName: "_ZNK4llvm5APInt11getBitWidthEv", scope: !421, file: !422, line: 1252, type: !495, scopeLine: 1252, flags: DIFlagPublic | DIFlagPrototyped, spFlags: DISPFlagOptimized)
!1083 = !DISubprogram(name: "getNumWords", linkageName: "_ZNK4llvm5APInt11getNumWordsEv", scope: !421, file: !422, line: 1259, type: !495, scopeLine: 1259, flags: DIFlagPublic | DIFlagPrototyped, spFlags: DISPFlagOptimized)
!1084 = !DISubprogram(name: "getNumWords", linkageName: "_ZN4llvm5APInt11getNumWordsEj", scope: !421, file: !422, line: 1267, type: !443, scopeLine: 1267, flags: DIFlagPublic | DIFlagPrototyped | DIFlagStaticMember, spFlags: DISPFlagOptimized)
!1085 = !DISubprogram(name: "getActiveBits", linkageName: "_ZNK4llvm5APInt13getActiveBitsEv", scope: !421, file: !422, line: 1276, type: !495, scopeLine: 1276, flags: DIFlagPublic | DIFlagPrototyped, spFlags: DISPFlagOptimized)
!1086 = !DISubprogram(name: "getActiveWords", linkageName: "_ZNK4llvm5APInt14getActiveWordsEv", scope: !421, file: !422, line: 1282, type: !495, scopeLine: 1282, flags: DIFlagPublic | DIFlagPrototyped, spFlags: DISPFlagOptimized)
!1087 = !DISubprogram(name: "getMinSignedBits", linkageName: "_ZNK4llvm5APInt16getMinSignedBitsEv", scope: !421, file: !422, line: 1295, type: !495, scopeLine: 1295, flags: DIFlagPublic | DIFlagPrototyped, spFlags: DISPFlagOptimized)
!1088 = !DISubprogram(name: "getZExtValue", linkageName: "_ZNK4llvm5APInt12getZExtValueEv", scope: !421, file: !422, line: 1306, type: !1089, scopeLine: 1306, flags: DIFlagPublic | DIFlagPrototyped, spFlags: DISPFlagOptimized)
!1089 = !DISubroutineType(types: !1090)
!1090 = !{!429, !440}
!1091 = !DISubprogram(name: "getSExtValue", linkageName: "_ZNK4llvm5APInt12getSExtValueEv", scope: !421, file: !422, line: 1318, type: !1092, scopeLine: 1318, flags: DIFlagPublic | DIFlagPrototyped, spFlags: DISPFlagOptimized)
!1092 = !DISubroutineType(types: !1093)
!1093 = !{!1094, !440}
!1094 = !DIDerivedType(tag: DW_TAG_typedef, name: "int64_t", file: !1095, line: 27, baseType: !1096)
!1095 = !DIFile(filename: "/usr/include/x86_64-linux-gnu/bits/stdint-intn.h", directory: "")
!1096 = !DIDerivedType(tag: DW_TAG_typedef, name: "__int64_t", file: !94, line: 43, baseType: !241)
!1097 = !DISubprogram(name: "getBitsNeeded", linkageName: "_ZN4llvm5APInt13getBitsNeededENS_9StringRefEh", scope: !421, file: !422, line: 1330, type: !1098, scopeLine: 1330, flags: DIFlagPublic | DIFlagPrototyped | DIFlagStaticMember, spFlags: DISPFlagOptimized)
!1098 = !DISubroutineType(types: !1099)
!1099 = !{!6, !312, !458}
!1100 = !DISubprogram(name: "countLeadingZeros", linkageName: "_ZNK4llvm5APInt17countLeadingZerosEv", scope: !421, file: !422, line: 1340, type: !495, scopeLine: 1340, flags: DIFlagPublic | DIFlagPrototyped, spFlags: DISPFlagOptimized)
!1101 = !DISubprogram(name: "countLeadingOnes", linkageName: "_ZNK4llvm5APInt16countLeadingOnesEv", scope: !421, file: !422, line: 1356, type: !495, scopeLine: 1356, flags: DIFlagPublic | DIFlagPrototyped, spFlags: DISPFlagOptimized)
!1102 = !DISubprogram(name: "getNumSignBits", linkageName: "_ZNK4llvm5APInt14getNumSignBitsEv", scope: !421, file: !422, line: 1360, type: !495, scopeLine: 1360, flags: DIFlagPublic | DIFlagPrototyped, spFlags: DISPFlagOptimized)
!1103 = !DISubprogram(name: "countTrailingZeros", linkageName: "_ZNK4llvm5APInt18countTrailingZerosEv", scope: !421, file: !422, line: 1372, type: !495, scopeLine: 1372, flags: DIFlagPublic | DIFlagPrototyped, spFlags: DISPFlagOptimized)
!1104 = !DISubprogram(name: "countTrailingOnes", linkageName: "_ZNK4llvm5APInt17countTrailingOnesEv", scope: !421, file: !422, line: 1382, type: !495, scopeLine: 1382, flags: DIFlagPublic | DIFlagPrototyped, spFlags: DISPFlagOptimized)
!1105 = !DISubprogram(name: "countPopulation", linkageName: "_ZNK4llvm5APInt15countPopulationEv", scope: !421, file: !422, line: 1394, type: !495, scopeLine: 1394, flags: DIFlagPublic | DIFlagPrototyped, spFlags: DISPFlagOptimized)
!1106 = !DISubprogram(name: "print", linkageName: "_ZNK4llvm5APInt5printERNS_11raw_ostreamEb", scope: !421, file: !422, line: 1403, type: !1107, scopeLine: 1403, flags: DIFlagPublic | DIFlagPrototyped, spFlags: DISPFlagOptimized)
!1107 = !DISubroutineType(types: !1108)
!1108 = !{null, !440, !141, !34}
!1109 = !DISubprogram(name: "toString", linkageName: "_ZNK4llvm5APInt8toStringERNS_15SmallVectorImplIcEEjbb", scope: !421, file: !422, line: 1407, type: !1110, scopeLine: 1407, flags: DIFlagPublic | DIFlagPrototyped, spFlags: DISPFlagOptimized)
!1110 = !DISubroutineType(types: !1111)
!1111 = !{null, !440, !1112, !6, !34, !34}
!1112 = !DIDerivedType(tag: DW_TAG_reference_type, baseType: !1113, size: 64)
!1113 = distinct !DICompositeType(tag: DW_TAG_class_type, name: "SmallVectorImpl<char>", scope: !14, file: !528, line: 371, size: 256, flags: DIFlagTypePassByReference | DIFlagNonTrivial, elements: !1114, templateParams: !1291, identifier: "_ZTSN4llvm15SmallVectorImplIcEE")
!1114 = !{!1115, !1230, !1236, !1239, !1242, !1243, !1244, !1247, !1248, !1251, !1254, !1259, !1260, !1264, !1267, !1271, !1274, !1277, !1280, !1284, !1288, !1289, !1290}
!1115 = !DIDerivedType(tag: DW_TAG_inheritance, scope: !1113, baseType: !1116, flags: DIFlagPublic, extraData: i32 0)
!1116 = distinct !DICompositeType(tag: DW_TAG_class_type, name: "SmallVectorTemplateBase<char, true>", scope: !14, file: !528, line: 296, size: 256, flags: DIFlagTypePassByValue | DIFlagNonTrivial, elements: !1117, templateParams: !1229, identifier: "_ZTSN4llvm23SmallVectorTemplateBaseIcLb1EEE")
!1117 = !{!1118, !1215, !1219, !1222, !1223, !1226}
!1118 = !DIDerivedType(tag: DW_TAG_inheritance, scope: !1116, baseType: !1119, flags: DIFlagPublic, extraData: i32 0)
!1119 = distinct !DICompositeType(tag: DW_TAG_class_type, name: "SmallVectorTemplateCommon<char, void>", scope: !14, file: !528, line: 66, size: 256, flags: DIFlagTypePassByValue | DIFlagNonTrivial, elements: !1120, templateParams: !1213, identifier: "_ZTSN4llvm25SmallVectorTemplateCommonIcvEE")
!1120 = !{!1121, !1122, !1138, !1142, !1145, !1150, !1153, !1156, !1160, !1164, !1165, !1166, !1167, !1168, !1173, !1178, !1179, !1180, !1183, !1184, !1187, !1191, !1195, !1200, !1205, !1208, !1211, !1212}
!1121 = !DIDerivedType(tag: DW_TAG_inheritance, scope: !1119, baseType: !540, flags: DIFlagPublic, extraData: i32 0)
!1122 = !DIDerivedType(tag: DW_TAG_member, name: "FirstEl", scope: !1119, file: !528, line: 74, baseType: !1123, size: 8, offset: 192)
!1123 = !DIDerivedType(tag: DW_TAG_typedef, name: "U", scope: !1119, file: !528, line: 73, baseType: !1124)
!1124 = distinct !DICompositeType(tag: DW_TAG_structure_type, name: "AlignedCharArrayUnion<char, char, char, char, char, char, char>", scope: !14, file: !565, line: 199, size: 8, flags: DIFlagTypePassByValue, elements: !1125, templateParams: !1136, identifier: "_ZTSN4llvm21AlignedCharArrayUnionIcccccccEE")
!1125 = !{!1126}
!1126 = !DIDerivedType(tag: DW_TAG_inheritance, scope: !1124, baseType: !1127, extraData: i32 0)
!1127 = distinct !DICompositeType(tag: DW_TAG_structure_type, name: "AlignedCharArray<1, 1>", scope: !14, file: !565, line: 75, size: 8, flags: DIFlagTypePassByValue, elements: !1128, templateParams: !1133, identifier: "_ZTSN4llvm16AlignedCharArrayILm1ELm1EEE")
!1128 = !{!1129}
!1129 = !DIDerivedType(tag: DW_TAG_member, name: "buffer", scope: !1127, file: !565, line: 76, baseType: !1130, size: 8, align: 8)
!1130 = !DICompositeType(tag: DW_TAG_array_type, baseType: !323, size: 8, elements: !1131)
!1131 = !{!1132}
!1132 = !DISubrange(count: 1)
!1133 = !{!1134, !1135}
!1134 = !DITemplateValueParameter(name: "Alignment", type: !319, value: i64 1)
!1135 = !DITemplateValueParameter(name: "Size", type: !319, value: i64 1)
!1136 = !{!1137, !579, !580, !581, !582, !583, !584}
!1137 = !DITemplateTypeParameter(name: "T1", type: !323)
!1138 = !DISubprogram(name: "SmallVectorTemplateCommon", scope: !1119, file: !528, line: 78, type: !1139, scopeLine: 78, flags: DIFlagProtected | DIFlagPrototyped, spFlags: DISPFlagOptimized)
!1139 = !DISubroutineType(types: !1140)
!1140 = !{null, !1141, !317}
!1141 = !DIDerivedType(tag: DW_TAG_pointer_type, baseType: !1119, size: 64, flags: DIFlagArtificial | DIFlagObjectPointer)
!1142 = !DISubprogram(name: "grow_pod", linkageName: "_ZN4llvm25SmallVectorTemplateCommonIcvE8grow_podEmm", scope: !1119, file: !528, line: 80, type: !1143, scopeLine: 80, flags: DIFlagProtected | DIFlagPrototyped, spFlags: DISPFlagOptimized)
!1143 = !DISubroutineType(types: !1144)
!1144 = !{null, !1141, !317, !317}
!1145 = !DISubprogram(name: "isSmall", linkageName: "_ZNK4llvm25SmallVectorTemplateCommonIcvE7isSmallEv", scope: !1119, file: !528, line: 86, type: !1146, scopeLine: 86, flags: DIFlagProtected | DIFlagPrototyped, spFlags: DISPFlagOptimized)
!1146 = !DISubroutineType(types: !1147)
!1147 = !{!34, !1148}
!1148 = !DIDerivedType(tag: DW_TAG_pointer_type, baseType: !1149, size: 64, flags: DIFlagArtificial | DIFlagObjectPointer)
!1149 = !DIDerivedType(tag: DW_TAG_const_type, baseType: !1119)
!1150 = !DISubprogram(name: "resetToSmall", linkageName: "_ZN4llvm25SmallVectorTemplateCommonIcvE12resetToSmallEv", scope: !1119, file: !528, line: 91, type: !1151, scopeLine: 91, flags: DIFlagProtected | DIFlagPrototyped, spFlags: DISPFlagOptimized)
!1151 = !DISubroutineType(types: !1152)
!1152 = !{null, !1141}
!1153 = !DISubprogram(name: "setEnd", linkageName: "_ZN4llvm25SmallVectorTemplateCommonIcvE6setEndEPc", scope: !1119, file: !528, line: 95, type: !1154, scopeLine: 95, flags: DIFlagProtected | DIFlagPrototyped, spFlags: DISPFlagOptimized)
!1154 = !DISubroutineType(types: !1155)
!1155 = !{null, !1141, !880}
!1156 = !DISubprogram(name: "begin", linkageName: "_ZN4llvm25SmallVectorTemplateCommonIcvE5beginEv", scope: !1119, file: !528, line: 112, type: !1157, scopeLine: 112, flags: DIFlagPublic | DIFlagPrototyped, spFlags: DISPFlagOptimized)
!1157 = !DISubroutineType(types: !1158)
!1158 = !{!1159, !1141}
!1159 = !DIDerivedType(tag: DW_TAG_typedef, name: "iterator", scope: !1119, file: !528, line: 100, baseType: !880)
!1160 = !DISubprogram(name: "begin", linkageName: "_ZNK4llvm25SmallVectorTemplateCommonIcvE5beginEv", scope: !1119, file: !528, line: 113, type: !1161, scopeLine: 113, flags: DIFlagPublic | DIFlagPrototyped, spFlags: DISPFlagOptimized)
!1161 = !DISubroutineType(types: !1162)
!1162 = !{!1163, !1148}
!1163 = !DIDerivedType(tag: DW_TAG_typedef, name: "const_iterator", scope: !1119, file: !528, line: 101, baseType: !321)
!1164 = !DISubprogram(name: "end", linkageName: "_ZN4llvm25SmallVectorTemplateCommonIcvE3endEv", scope: !1119, file: !528, line: 114, type: !1157, scopeLine: 114, flags: DIFlagPublic | DIFlagPrototyped, spFlags: DISPFlagOptimized)
!1165 = !DISubprogram(name: "end", linkageName: "_ZNK4llvm25SmallVectorTemplateCommonIcvE3endEv", scope: !1119, file: !528, line: 115, type: !1161, scopeLine: 115, flags: DIFlagPublic | DIFlagPrototyped, spFlags: DISPFlagOptimized)
!1166 = !DISubprogram(name: "capacity_ptr", linkageName: "_ZN4llvm25SmallVectorTemplateCommonIcvE12capacity_ptrEv", scope: !1119, file: !528, line: 117, type: !1157, scopeLine: 117, flags: DIFlagProtected | DIFlagPrototyped, spFlags: DISPFlagOptimized)
!1167 = !DISubprogram(name: "capacity_ptr", linkageName: "_ZNK4llvm25SmallVectorTemplateCommonIcvE12capacity_ptrEv", scope: !1119, file: !528, line: 118, type: !1161, scopeLine: 118, flags: DIFlagProtected | DIFlagPrototyped, spFlags: DISPFlagOptimized)
!1168 = !DISubprogram(name: "rbegin", linkageName: "_ZN4llvm25SmallVectorTemplateCommonIcvE6rbeginEv", scope: !1119, file: !528, line: 122, type: !1169, scopeLine: 122, flags: DIFlagPublic | DIFlagPrototyped, spFlags: DISPFlagOptimized)
!1169 = !DISubroutineType(types: !1170)
!1170 = !{!1171, !1141}
!1171 = !DIDerivedType(tag: DW_TAG_typedef, name: "reverse_iterator", scope: !1119, file: !528, line: 104, baseType: !1172)
!1172 = distinct !DICompositeType(tag: DW_TAG_class_type, name: "reverse_iterator<char *>", scope: !221, file: !220, line: 101, flags: DIFlagFwdDecl, identifier: "_ZTSSt16reverse_iteratorIPcE")
!1173 = !DISubprogram(name: "rbegin", linkageName: "_ZNK4llvm25SmallVectorTemplateCommonIcvE6rbeginEv", scope: !1119, file: !528, line: 123, type: !1174, scopeLine: 123, flags: DIFlagPublic | DIFlagPrototyped, spFlags: DISPFlagOptimized)
!1174 = !DISubroutineType(types: !1175)
!1175 = !{!1176, !1148}
!1176 = !DIDerivedType(tag: DW_TAG_typedef, name: "const_reverse_iterator", scope: !1119, file: !528, line: 103, baseType: !1177)
!1177 = distinct !DICompositeType(tag: DW_TAG_class_type, name: "reverse_iterator<const char *>", scope: !221, file: !220, line: 101, flags: DIFlagFwdDecl, identifier: "_ZTSSt16reverse_iteratorIPKcE")
!1178 = !DISubprogram(name: "rend", linkageName: "_ZN4llvm25SmallVectorTemplateCommonIcvE4rendEv", scope: !1119, file: !528, line: 124, type: !1169, scopeLine: 124, flags: DIFlagPublic | DIFlagPrototyped, spFlags: DISPFlagOptimized)
!1179 = !DISubprogram(name: "rend", linkageName: "_ZNK4llvm25SmallVectorTemplateCommonIcvE4rendEv", scope: !1119, file: !528, line: 125, type: !1174, scopeLine: 125, flags: DIFlagPublic | DIFlagPrototyped, spFlags: DISPFlagOptimized)
!1180 = !DISubprogram(name: "size", linkageName: "_ZNK4llvm25SmallVectorTemplateCommonIcvE4sizeEv", scope: !1119, file: !528, line: 127, type: !1181, scopeLine: 127, flags: DIFlagPublic | DIFlagPrototyped, spFlags: DISPFlagOptimized)
!1181 = !DISubroutineType(types: !1182)
!1182 = !{!633, !1148}
!1183 = !DISubprogram(name: "max_size", linkageName: "_ZNK4llvm25SmallVectorTemplateCommonIcvE8max_sizeEv", scope: !1119, file: !528, line: 128, type: !1181, scopeLine: 128, flags: DIFlagPublic | DIFlagPrototyped, spFlags: DISPFlagOptimized)
!1184 = !DISubprogram(name: "capacity", linkageName: "_ZNK4llvm25SmallVectorTemplateCommonIcvE8capacityEv", scope: !1119, file: !528, line: 132, type: !1185, scopeLine: 132, flags: DIFlagPublic | DIFlagPrototyped, spFlags: DISPFlagOptimized)
!1185 = !DISubroutineType(types: !1186)
!1186 = !{!317, !1148}
!1187 = !DISubprogram(name: "data", linkageName: "_ZN4llvm25SmallVectorTemplateCommonIcvE4dataEv", scope: !1119, file: !528, line: 135, type: !1188, scopeLine: 135, flags: DIFlagPublic | DIFlagPrototyped, spFlags: DISPFlagOptimized)
!1188 = !DISubroutineType(types: !1189)
!1189 = !{!1190, !1141}
!1190 = !DIDerivedType(tag: DW_TAG_typedef, name: "pointer", scope: !1119, file: !528, line: 108, baseType: !880)
!1191 = !DISubprogram(name: "data", linkageName: "_ZNK4llvm25SmallVectorTemplateCommonIcvE4dataEv", scope: !1119, file: !528, line: 137, type: !1192, scopeLine: 137, flags: DIFlagPublic | DIFlagPrototyped, spFlags: DISPFlagOptimized)
!1192 = !DISubroutineType(types: !1193)
!1193 = !{!1194, !1148}
!1194 = !DIDerivedType(tag: DW_TAG_typedef, name: "const_pointer", scope: !1119, file: !528, line: 109, baseType: !321)
!1195 = !DISubprogram(name: "operator[]", linkageName: "_ZN4llvm25SmallVectorTemplateCommonIcvEixEj", scope: !1119, file: !528, line: 139, type: !1196, scopeLine: 139, flags: DIFlagPublic | DIFlagPrototyped, spFlags: DISPFlagOptimized)
!1196 = !DISubroutineType(types: !1197)
!1197 = !{!1198, !1141, !6}
!1198 = !DIDerivedType(tag: DW_TAG_typedef, name: "reference", scope: !1119, file: !528, line: 106, baseType: !1199)
!1199 = !DIDerivedType(tag: DW_TAG_reference_type, baseType: !323, size: 64)
!1200 = !DISubprogram(name: "operator[]", linkageName: "_ZNK4llvm25SmallVectorTemplateCommonIcvEixEj", scope: !1119, file: !528, line: 143, type: !1201, scopeLine: 143, flags: DIFlagPublic | DIFlagPrototyped, spFlags: DISPFlagOptimized)
!1201 = !DISubroutineType(types: !1202)
!1202 = !{!1203, !1148, !6}
!1203 = !DIDerivedType(tag: DW_TAG_typedef, name: "const_reference", scope: !1119, file: !528, line: 107, baseType: !1204)
!1204 = !DIDerivedType(tag: DW_TAG_reference_type, baseType: !322, size: 64)
!1205 = !DISubprogram(name: "front", linkageName: "_ZN4llvm25SmallVectorTemplateCommonIcvE5frontEv", scope: !1119, file: !528, line: 148, type: !1206, scopeLine: 148, flags: DIFlagPublic | DIFlagPrototyped, spFlags: DISPFlagOptimized)
!1206 = !DISubroutineType(types: !1207)
!1207 = !{!1198, !1141}
!1208 = !DISubprogram(name: "front", linkageName: "_ZNK4llvm25SmallVectorTemplateCommonIcvE5frontEv", scope: !1119, file: !528, line: 152, type: !1209, scopeLine: 152, flags: DIFlagPublic | DIFlagPrototyped, spFlags: DISPFlagOptimized)
!1209 = !DISubroutineType(types: !1210)
!1210 = !{!1203, !1148}
!1211 = !DISubprogram(name: "back", linkageName: "_ZN4llvm25SmallVectorTemplateCommonIcvE4backEv", scope: !1119, file: !528, line: 157, type: !1206, scopeLine: 157, flags: DIFlagPublic | DIFlagPrototyped, spFlags: DISPFlagOptimized)
!1212 = !DISubprogram(name: "back", linkageName: "_ZNK4llvm25SmallVectorTemplateCommonIcvE4backEv", scope: !1119, file: !528, line: 161, type: !1209, scopeLine: 161, flags: DIFlagPublic | DIFlagPrototyped, spFlags: DISPFlagOptimized)
!1213 = !{!1214, !666}
!1214 = !DITemplateTypeParameter(name: "T", type: !323)
!1215 = !DISubprogram(name: "SmallVectorTemplateBase", scope: !1116, file: !528, line: 298, type: !1216, scopeLine: 298, flags: DIFlagProtected | DIFlagPrototyped, spFlags: DISPFlagOptimized)
!1216 = !DISubroutineType(types: !1217)
!1217 = !{null, !1218, !317}
!1218 = !DIDerivedType(tag: DW_TAG_pointer_type, baseType: !1116, size: 64, flags: DIFlagArtificial | DIFlagObjectPointer)
!1219 = !DISubprogram(name: "destroy_range", linkageName: "_ZN4llvm23SmallVectorTemplateBaseIcLb1EE13destroy_rangeEPcS2_", scope: !1116, file: !528, line: 301, type: !1220, scopeLine: 301, flags: DIFlagProtected | DIFlagPrototyped | DIFlagStaticMember, spFlags: DISPFlagOptimized)
!1220 = !DISubroutineType(types: !1221)
!1221 = !{null, !880, !880}
!1222 = !DISubprogram(name: "grow", linkageName: "_ZN4llvm23SmallVectorTemplateBaseIcLb1EE4growEm", scope: !1116, file: !528, line: 346, type: !1216, scopeLine: 346, flags: DIFlagProtected | DIFlagPrototyped, spFlags: DISPFlagOptimized)
!1223 = !DISubprogram(name: "push_back", linkageName: "_ZN4llvm23SmallVectorTemplateBaseIcLb1EE9push_backERKc", scope: !1116, file: !528, line: 350, type: !1224, scopeLine: 350, flags: DIFlagPublic | DIFlagPrototyped, spFlags: DISPFlagOptimized)
!1224 = !DISubroutineType(types: !1225)
!1225 = !{null, !1218, !1204}
!1226 = !DISubprogram(name: "pop_back", linkageName: "_ZN4llvm23SmallVectorTemplateBaseIcLb1EE8pop_backEv", scope: !1116, file: !528, line: 361, type: !1227, scopeLine: 361, flags: DIFlagPublic | DIFlagPrototyped, spFlags: DISPFlagOptimized)
!1227 = !DISubroutineType(types: !1228)
!1228 = !{null, !1218}
!1229 = !{!1214, !682}
!1230 = !DISubprogram(name: "SmallVectorImpl", scope: !1113, file: !528, line: 374, type: !1231, scopeLine: 374, flags: DIFlagPrototyped, spFlags: DISPFlagOptimized | DISPFlagDeleted)
!1231 = !DISubroutineType(types: !1232)
!1232 = !{null, !1233, !1234}
!1233 = !DIDerivedType(tag: DW_TAG_pointer_type, baseType: !1113, size: 64, flags: DIFlagArtificial | DIFlagObjectPointer)
!1234 = !DIDerivedType(tag: DW_TAG_reference_type, baseType: !1235, size: 64)
!1235 = !DIDerivedType(tag: DW_TAG_const_type, baseType: !1113)
!1236 = !DISubprogram(name: "SmallVectorImpl", scope: !1113, file: !528, line: 381, type: !1237, scopeLine: 381, flags: DIFlagProtected | DIFlagExplicit | DIFlagPrototyped, spFlags: DISPFlagOptimized)
!1237 = !DISubroutineType(types: !1238)
!1238 = !{null, !1233, !6}
!1239 = !DISubprogram(name: "~SmallVectorImpl", scope: !1113, file: !528, line: 386, type: !1240, scopeLine: 386, flags: DIFlagPublic | DIFlagPrototyped, spFlags: DISPFlagOptimized)
!1240 = !DISubroutineType(types: !1241)
!1241 = !{null, !1233}
!1242 = !DISubprogram(name: "clear", linkageName: "_ZN4llvm15SmallVectorImplIcE5clearEv", scope: !1113, file: !528, line: 396, type: !1240, scopeLine: 396, flags: DIFlagPublic | DIFlagPrototyped, spFlags: DISPFlagOptimized)
!1243 = !DISubprogram(name: "resize", linkageName: "_ZN4llvm15SmallVectorImplIcE6resizeEj", scope: !1113, file: !528, line: 401, type: !1237, scopeLine: 401, flags: DIFlagPublic | DIFlagPrototyped, spFlags: DISPFlagOptimized)
!1244 = !DISubprogram(name: "resize", linkageName: "_ZN4llvm15SmallVectorImplIcE6resizeEjRKc", scope: !1113, file: !528, line: 413, type: !1245, scopeLine: 413, flags: DIFlagPublic | DIFlagPrototyped, spFlags: DISPFlagOptimized)
!1245 = !DISubroutineType(types: !1246)
!1246 = !{null, !1233, !6, !1204}
!1247 = !DISubprogram(name: "reserve", linkageName: "_ZN4llvm15SmallVectorImplIcE7reserveEj", scope: !1113, file: !528, line: 425, type: !1237, scopeLine: 425, flags: DIFlagPublic | DIFlagPrototyped, spFlags: DISPFlagOptimized)
!1248 = !DISubprogram(name: "pop_back_val", linkageName: "_ZN4llvm15SmallVectorImplIcE12pop_back_valEv", scope: !1113, file: !528, line: 430, type: !1249, scopeLine: 430, flags: DIFlagPublic | DIFlagPrototyped, spFlags: DISPFlagOptimized)
!1249 = !DISubroutineType(types: !1250)
!1250 = !{!323, !1233}
!1251 = !DISubprogram(name: "swap", linkageName: "_ZN4llvm15SmallVectorImplIcE4swapERS1_", scope: !1113, file: !528, line: 440, type: !1252, scopeLine: 440, flags: DIFlagPublic | DIFlagPrototyped, spFlags: DISPFlagOptimized)
!1252 = !DISubroutineType(types: !1253)
!1253 = !{null, !1233, !1112}
!1254 = !DISubprogram(name: "append", linkageName: "_ZN4llvm15SmallVectorImplIcE6appendEmRKc", scope: !1113, file: !528, line: 460, type: !1255, scopeLine: 460, flags: DIFlagPublic | DIFlagPrototyped, spFlags: DISPFlagOptimized)
!1255 = !DISubroutineType(types: !1256)
!1256 = !{null, !1233, !1257, !1204}
!1257 = !DIDerivedType(tag: DW_TAG_typedef, name: "size_type", scope: !1113, file: !528, line: 377, baseType: !1258)
!1258 = !DIDerivedType(tag: DW_TAG_typedef, name: "size_type", scope: !1119, file: !528, line: 97, baseType: !317)
!1259 = !DISubprogram(name: "assign", linkageName: "_ZN4llvm15SmallVectorImplIcE6assignEjRKc", scope: !1113, file: !528, line: 470, type: !1245, scopeLine: 470, flags: DIFlagPublic | DIFlagPrototyped, spFlags: DISPFlagOptimized)
!1260 = !DISubprogram(name: "erase", linkageName: "_ZN4llvm15SmallVectorImplIcE5eraseEPc", scope: !1113, file: !528, line: 478, type: !1261, scopeLine: 478, flags: DIFlagPublic | DIFlagPrototyped, spFlags: DISPFlagOptimized)
!1261 = !DISubroutineType(types: !1262)
!1262 = !{!1263, !1233, !1263}
!1263 = !DIDerivedType(tag: DW_TAG_typedef, name: "iterator", scope: !1113, file: !528, line: 376, baseType: !1159)
!1264 = !DISubprogram(name: "erase", linkageName: "_ZN4llvm15SmallVectorImplIcE5eraseEPcS2_", scope: !1113, file: !528, line: 490, type: !1265, scopeLine: 490, flags: DIFlagPublic | DIFlagPrototyped, spFlags: DISPFlagOptimized)
!1265 = !DISubroutineType(types: !1266)
!1266 = !{!1263, !1233, !1263, !1263}
!1267 = !DISubprogram(name: "insert", linkageName: "_ZN4llvm15SmallVectorImplIcE6insertEPcOc", scope: !1113, file: !528, line: 505, type: !1268, scopeLine: 505, flags: DIFlagPublic | DIFlagPrototyped, spFlags: DISPFlagOptimized)
!1268 = !DISubroutineType(types: !1269)
!1269 = !{!1263, !1233, !1263, !1270}
!1270 = !DIDerivedType(tag: DW_TAG_rvalue_reference_type, baseType: !323, size: 64)
!1271 = !DISubprogram(name: "insert", linkageName: "_ZN4llvm15SmallVectorImplIcE6insertEPcRKc", scope: !1113, file: !528, line: 537, type: !1272, scopeLine: 537, flags: DIFlagPublic | DIFlagPrototyped, spFlags: DISPFlagOptimized)
!1272 = !DISubroutineType(types: !1273)
!1273 = !{!1263, !1233, !1263, !1204}
!1274 = !DISubprogram(name: "insert", linkageName: "_ZN4llvm15SmallVectorImplIcE6insertEPcmRKc", scope: !1113, file: !528, line: 568, type: !1275, scopeLine: 568, flags: DIFlagPublic | DIFlagPrototyped, spFlags: DISPFlagOptimized)
!1275 = !DISubroutineType(types: !1276)
!1276 = !{!1263, !1233, !1263, !1257, !1204}
!1277 = !DISubprogram(name: "operator=", linkageName: "_ZN4llvm15SmallVectorImplIcEaSERKS1_", scope: !1113, file: !528, line: 674, type: !1278, scopeLine: 674, flags: DIFlagPublic | DIFlagPrototyped, spFlags: DISPFlagOptimized)
!1278 = !DISubroutineType(types: !1279)
!1279 = !{!1112, !1233, !1234}
!1280 = !DISubprogram(name: "operator=", linkageName: "_ZN4llvm15SmallVectorImplIcEaSEOS1_", scope: !1113, file: !528, line: 677, type: !1281, scopeLine: 677, flags: DIFlagPublic | DIFlagPrototyped, spFlags: DISPFlagOptimized)
!1281 = !DISubroutineType(types: !1282)
!1282 = !{!1112, !1233, !1283}
!1283 = !DIDerivedType(tag: DW_TAG_rvalue_reference_type, baseType: !1113, size: 64)
!1284 = !DISubprogram(name: "operator==", linkageName: "_ZNK4llvm15SmallVectorImplIcEeqERKS1_", scope: !1113, file: !528, line: 680, type: !1285, scopeLine: 680, flags: DIFlagPublic | DIFlagPrototyped, spFlags: DISPFlagOptimized)
!1285 = !DISubroutineType(types: !1286)
!1286 = !{!34, !1287, !1234}
!1287 = !DIDerivedType(tag: DW_TAG_pointer_type, baseType: !1235, size: 64, flags: DIFlagArtificial | DIFlagObjectPointer)
!1288 = !DISubprogram(name: "operator!=", linkageName: "_ZNK4llvm15SmallVectorImplIcEneERKS1_", scope: !1113, file: !528, line: 684, type: !1285, scopeLine: 684, flags: DIFlagPublic | DIFlagPrototyped, spFlags: DISPFlagOptimized)
!1289 = !DISubprogram(name: "operator<", linkageName: "_ZNK4llvm15SmallVectorImplIcEltERKS1_", scope: !1113, file: !528, line: 688, type: !1285, scopeLine: 688, flags: DIFlagPublic | DIFlagPrototyped, spFlags: DISPFlagOptimized)
!1290 = !DISubprogram(name: "set_size", linkageName: "_ZN4llvm15SmallVectorImplIcE8set_sizeEj", scope: !1113, file: !528, line: 702, type: !1237, scopeLine: 702, flags: DIFlagPublic | DIFlagPrototyped, spFlags: DISPFlagOptimized)
!1291 = !{!1214}
!1292 = !DISubprogram(name: "toStringUnsigned", linkageName: "_ZNK4llvm5APInt16toStringUnsignedERNS_15SmallVectorImplIcEEj", scope: !421, file: !422, line: 1412, type: !1293, scopeLine: 1412, flags: DIFlagPublic | DIFlagPrototyped, spFlags: DISPFlagOptimized)
!1293 = !DISubroutineType(types: !1294)
!1294 = !{null, !440, !1112, !6}
!1295 = !DISubprogram(name: "toStringSigned", linkageName: "_ZNK4llvm5APInt14toStringSignedERNS_15SmallVectorImplIcEEj", scope: !421, file: !422, line: 1418, type: !1293, scopeLine: 1418, flags: DIFlagPublic | DIFlagPrototyped, spFlags: DISPFlagOptimized)
!1296 = !DISubprogram(name: "toString", linkageName: "_ZNK4llvm5APInt8toStringB5cxx11Ejb", scope: !421, file: !422, line: 1427, type: !1297, scopeLine: 1427, flags: DIFlagPublic | DIFlagPrototyped, spFlags: DISPFlagOptimized)
!1297 = !DISubroutineType(types: !1298)
!1298 = !{!347, !440, !6, !34}
!1299 = !DISubprogram(name: "byteSwap", linkageName: "_ZNK4llvm5APInt8byteSwapEv", scope: !421, file: !422, line: 1430, type: !976, scopeLine: 1430, flags: DIFlagPublic | DIFlagPrototyped, spFlags: DISPFlagOptimized)
!1300 = !DISubprogram(name: "roundToDouble", linkageName: "_ZNK4llvm5APInt13roundToDoubleEb", scope: !421, file: !422, line: 1433, type: !1301, scopeLine: 1433, flags: DIFlagPublic | DIFlagPrototyped, spFlags: DISPFlagOptimized)
!1301 = !DISubroutineType(types: !1302)
!1302 = !{!1303, !440, !34}
!1303 = !DIBasicType(name: "double", size: 64, encoding: DW_ATE_float)
!1304 = !DISubprogram(name: "roundToDouble", linkageName: "_ZNK4llvm5APInt13roundToDoubleEv", scope: !421, file: !422, line: 1436, type: !1305, scopeLine: 1436, flags: DIFlagPublic | DIFlagPrototyped, spFlags: DISPFlagOptimized)
!1305 = !DISubroutineType(types: !1306)
!1306 = !{!1303, !440}
!1307 = !DISubprogram(name: "signedRoundToDouble", linkageName: "_ZNK4llvm5APInt19signedRoundToDoubleEv", scope: !421, file: !422, line: 1439, type: !1305, scopeLine: 1439, flags: DIFlagPublic | DIFlagPrototyped, spFlags: DISPFlagOptimized)
!1308 = !DISubprogram(name: "bitsToDouble", linkageName: "_ZNK4llvm5APInt12bitsToDoubleEv", scope: !421, file: !422, line: 1446, type: !1305, scopeLine: 1446, flags: DIFlagPublic | DIFlagPrototyped, spFlags: DISPFlagOptimized)
!1309 = !DISubprogram(name: "bitsToFloat", linkageName: "_ZNK4llvm5APInt11bitsToFloatEv", scope: !421, file: !422, line: 1460, type: !1310, scopeLine: 1460, flags: DIFlagPublic | DIFlagPrototyped, spFlags: DISPFlagOptimized)
!1310 = !DISubroutineType(types: !1311)
!1311 = !{!1312, !440}
!1312 = !DIBasicType(name: "float", size: 32, encoding: DW_ATE_float)
!1313 = !DISubprogram(name: "doubleToBits", linkageName: "_ZN4llvm5APInt12doubleToBitsEd", scope: !421, file: !422, line: 1473, type: !1314, scopeLine: 1473, flags: DIFlagPublic | DIFlagPrototyped | DIFlagStaticMember, spFlags: DISPFlagOptimized)
!1314 = !DISubroutineType(types: !1315)
!1315 = !{!421, !1303}
!1316 = !DISubprogram(name: "floatToBits", linkageName: "_ZN4llvm5APInt11floatToBitsEf", scope: !421, file: !422, line: 1486, type: !1317, scopeLine: 1486, flags: DIFlagPublic | DIFlagPrototyped | DIFlagStaticMember, spFlags: DISPFlagOptimized)
!1317 = !DISubroutineType(types: !1318)
!1318 = !{!421, !1312}
!1319 = !DISubprogram(name: "logBase2", linkageName: "_ZNK4llvm5APInt8logBase2Ev", scope: !421, file: !422, line: 1500, type: !495, scopeLine: 1500, flags: DIFlagPublic | DIFlagPrototyped, spFlags: DISPFlagOptimized)
!1320 = !DISubprogram(name: "ceilLogBase2", linkageName: "_ZNK4llvm5APInt12ceilLogBase2Ev", scope: !421, file: !422, line: 1503, type: !495, scopeLine: 1503, flags: DIFlagPublic | DIFlagPrototyped, spFlags: DISPFlagOptimized)
!1321 = !DISubprogram(name: "exactLogBase2", linkageName: "_ZNK4llvm5APInt13exactLogBase2Ev", scope: !421, file: !422, line: 1509, type: !1322, scopeLine: 1509, flags: DIFlagPublic | DIFlagPrototyped, spFlags: DISPFlagOptimized)
!1322 = !DISubroutineType(types: !1323)
!1323 = !{!1324, !440}
!1324 = !DIDerivedType(tag: DW_TAG_typedef, name: "int32_t", file: !1095, line: 26, baseType: !1325)
!1325 = !DIDerivedType(tag: DW_TAG_typedef, name: "__int32_t", file: !94, line: 40, baseType: !202)
!1326 = !DISubprogram(name: "sqrt", linkageName: "_ZNK4llvm5APInt4sqrtEv", scope: !421, file: !422, line: 1516, type: !976, scopeLine: 1516, flags: DIFlagPublic | DIFlagPrototyped, spFlags: DISPFlagOptimized)
!1327 = !DISubprogram(name: "abs", linkageName: "_ZNK4llvm5APInt3absEv", scope: !421, file: !422, line: 1521, type: !976, scopeLine: 1521, flags: DIFlagPublic | DIFlagPrototyped, spFlags: DISPFlagOptimized)
!1328 = !DISubprogram(name: "multiplicativeInverse", linkageName: "_ZNK4llvm5APInt21multiplicativeInverseERKS0_", scope: !421, file: !422, line: 1528, type: !481, scopeLine: 1528, flags: DIFlagPublic | DIFlagPrototyped, spFlags: DISPFlagOptimized)
!1329 = !DISubprogram(name: "magic", linkageName: "_ZNK4llvm5APInt5magicEv", scope: !421, file: !422, line: 1536, type: !1330, scopeLine: 1536, flags: DIFlagPublic | DIFlagPrototyped, spFlags: DISPFlagOptimized)
!1330 = !DISubroutineType(types: !1331)
!1331 = !{!1332, !440}
!1332 = distinct !DICompositeType(tag: DW_TAG_structure_type, name: "ms", scope: !421, file: !422, line: 1672, flags: DIFlagFwdDecl, identifier: "_ZTSN4llvm5APInt2msE")
!1333 = !DISubprogram(name: "magicu", linkageName: "_ZNK4llvm5APInt6magicuEj", scope: !421, file: !422, line: 1540, type: !1334, scopeLine: 1540, flags: DIFlagPublic | DIFlagPrototyped, spFlags: DISPFlagOptimized)
!1334 = !DISubroutineType(types: !1335)
!1335 = !{!1336, !440, !6}
!1336 = distinct !DICompositeType(tag: DW_TAG_structure_type, name: "mu", scope: !421, file: !422, line: 1678, flags: DIFlagFwdDecl, identifier: "_ZTSN4llvm5APInt2muE")
!1337 = !DISubprogram(name: "tcSet", linkageName: "_ZN4llvm5APInt5tcSetEPmmj", scope: !421, file: !422, line: 1554, type: !1338, scopeLine: 1554, flags: DIFlagPublic | DIFlagPrototyped | DIFlagStaticMember, spFlags: DISPFlagOptimized)
!1338 = !DISubroutineType(types: !1339)
!1339 = !{null, !1340, !1341, !6}
!1340 = !DIDerivedType(tag: DW_TAG_pointer_type, baseType: !1341, size: 64)
!1341 = !DIDerivedType(tag: DW_TAG_typedef, name: "integerPart", scope: !14, file: !422, line: 39, baseType: !429)
!1342 = !DISubprogram(name: "tcAssign", linkageName: "_ZN4llvm5APInt8tcAssignEPmPKmj", scope: !421, file: !422, line: 1557, type: !1343, scopeLine: 1557, flags: DIFlagPublic | DIFlagPrototyped | DIFlagStaticMember, spFlags: DISPFlagOptimized)
!1343 = !DISubroutineType(types: !1344)
!1344 = !{null, !1340, !1345, !6}
!1345 = !DIDerivedType(tag: DW_TAG_pointer_type, baseType: !1346, size: 64)
!1346 = !DIDerivedType(tag: DW_TAG_const_type, baseType: !1341)
!1347 = !DISubprogram(name: "tcIsZero", linkageName: "_ZN4llvm5APInt8tcIsZeroEPKmj", scope: !421, file: !422, line: 1560, type: !1348, scopeLine: 1560, flags: DIFlagPublic | DIFlagPrototyped | DIFlagStaticMember, spFlags: DISPFlagOptimized)
!1348 = !DISubroutineType(types: !1349)
!1349 = !{!34, !1345, !6}
!1350 = !DISubprogram(name: "tcExtractBit", linkageName: "_ZN4llvm5APInt12tcExtractBitEPKmj", scope: !421, file: !422, line: 1563, type: !1351, scopeLine: 1563, flags: DIFlagPublic | DIFlagPrototyped | DIFlagStaticMember, spFlags: DISPFlagOptimized)
!1351 = !DISubroutineType(types: !1352)
!1352 = !{!202, !1345, !6}
!1353 = !DISubprogram(name: "tcExtract", linkageName: "_ZN4llvm5APInt9tcExtractEPmjPKmjj", scope: !421, file: !422, line: 1569, type: !1354, scopeLine: 1569, flags: DIFlagPublic | DIFlagPrototyped | DIFlagStaticMember, spFlags: DISPFlagOptimized)
!1354 = !DISubroutineType(types: !1355)
!1355 = !{null, !1340, !6, !1345, !6, !6}
!1356 = !DISubprogram(name: "tcSetBit", linkageName: "_ZN4llvm5APInt8tcSetBitEPmj", scope: !421, file: !422, line: 1574, type: !1357, scopeLine: 1574, flags: DIFlagPublic | DIFlagPrototyped | DIFlagStaticMember, spFlags: DISPFlagOptimized)
!1357 = !DISubroutineType(types: !1358)
!1358 = !{null, !1340, !6}
!1359 = !DISubprogram(name: "tcClearBit", linkageName: "_ZN4llvm5APInt10tcClearBitEPmj", scope: !421, file: !422, line: 1577, type: !1357, scopeLine: 1577, flags: DIFlagPublic | DIFlagPrototyped | DIFlagStaticMember, spFlags: DISPFlagOptimized)
!1360 = !DISubprogram(name: "tcLSB", linkageName: "_ZN4llvm5APInt5tcLSBEPKmj", scope: !421, file: !422, line: 1581, type: !1361, scopeLine: 1581, flags: DIFlagPublic | DIFlagPrototyped | DIFlagStaticMember, spFlags: DISPFlagOptimized)
!1361 = !DISubroutineType(types: !1362)
!1362 = !{!6, !1345, !6}
!1363 = !DISubprogram(name: "tcMSB", linkageName: "_ZN4llvm5APInt5tcMSBEPKmj", scope: !421, file: !422, line: 1582, type: !1361, scopeLine: 1582, flags: DIFlagPublic | DIFlagPrototyped | DIFlagStaticMember, spFlags: DISPFlagOptimized)
!1364 = !DISubprogram(name: "tcNegate", linkageName: "_ZN4llvm5APInt8tcNegateEPmj", scope: !421, file: !422, line: 1585, type: !1357, scopeLine: 1585, flags: DIFlagPublic | DIFlagPrototyped | DIFlagStaticMember, spFlags: DISPFlagOptimized)
!1365 = !DISubprogram(name: "tcAdd", linkageName: "_ZN4llvm5APInt5tcAddEPmPKmmj", scope: !421, file: !422, line: 1588, type: !1366, scopeLine: 1588, flags: DIFlagPublic | DIFlagPrototyped | DIFlagStaticMember, spFlags: DISPFlagOptimized)
!1366 = !DISubroutineType(types: !1367)
!1367 = !{!1341, !1340, !1345, !1341, !6}
!1368 = !DISubprogram(name: "tcSubtract", linkageName: "_ZN4llvm5APInt10tcSubtractEPmPKmmj", scope: !421, file: !422, line: 1592, type: !1366, scopeLine: 1592, flags: DIFlagPublic | DIFlagPrototyped | DIFlagStaticMember, spFlags: DISPFlagOptimized)
!1369 = !DISubprogram(name: "tcMultiplyPart", linkageName: "_ZN4llvm5APInt14tcMultiplyPartEPmPKmmmjjb", scope: !421, file: !422, line: 1605, type: !1370, scopeLine: 1605, flags: DIFlagPublic | DIFlagPrototyped | DIFlagStaticMember, spFlags: DISPFlagOptimized)
!1370 = !DISubroutineType(types: !1371)
!1371 = !{!202, !1340, !1345, !1341, !1341, !6, !6, !34}
!1372 = !DISubprogram(name: "tcMultiply", linkageName: "_ZN4llvm5APInt10tcMultiplyEPmPKmS3_j", scope: !421, file: !422, line: 1614, type: !1373, scopeLine: 1614, flags: DIFlagPublic | DIFlagPrototyped | DIFlagStaticMember, spFlags: DISPFlagOptimized)
!1373 = !DISubroutineType(types: !1374)
!1374 = !{!202, !1340, !1345, !1345, !6}
!1375 = !DISubprogram(name: "tcFullMultiply", linkageName: "_ZN4llvm5APInt14tcFullMultiplyEPmPKmS3_jj", scope: !421, file: !422, line: 1620, type: !1376, scopeLine: 1620, flags: DIFlagPublic | DIFlagPrototyped | DIFlagStaticMember, spFlags: DISPFlagOptimized)
!1376 = !DISubroutineType(types: !1377)
!1377 = !{!6, !1340, !1345, !1345, !6, !6}
!1378 = !DISubprogram(name: "tcDivide", linkageName: "_ZN4llvm5APInt8tcDivideEPmPKmS1_S1_j", scope: !421, file: !422, line: 1632, type: !1379, scopeLine: 1632, flags: DIFlagPublic | DIFlagPrototyped | DIFlagStaticMember, spFlags: DISPFlagOptimized)
!1379 = !DISubroutineType(types: !1380)
!1380 = !{!202, !1340, !1345, !1340, !1340, !6}
!1381 = !DISubprogram(name: "tcShiftLeft", linkageName: "_ZN4llvm5APInt11tcShiftLeftEPmjj", scope: !421, file: !422, line: 1638, type: !1382, scopeLine: 1638, flags: DIFlagPublic | DIFlagPrototyped | DIFlagStaticMember, spFlags: DISPFlagOptimized)
!1382 = !DISubroutineType(types: !1383)
!1383 = !{null, !1340, !6, !6}
!1384 = !DISubprogram(name: "tcShiftRight", linkageName: "_ZN4llvm5APInt12tcShiftRightEPmjj", scope: !421, file: !422, line: 1643, type: !1382, scopeLine: 1643, flags: DIFlagPublic | DIFlagPrototyped | DIFlagStaticMember, spFlags: DISPFlagOptimized)
!1385 = !DISubprogram(name: "tcAnd", linkageName: "_ZN4llvm5APInt5tcAndEPmPKmj", scope: !421, file: !422, line: 1647, type: !1343, scopeLine: 1647, flags: DIFlagPublic | DIFlagPrototyped | DIFlagStaticMember, spFlags: DISPFlagOptimized)
!1386 = !DISubprogram(name: "tcOr", linkageName: "_ZN4llvm5APInt4tcOrEPmPKmj", scope: !421, file: !422, line: 1648, type: !1343, scopeLine: 1648, flags: DIFlagPublic | DIFlagPrototyped | DIFlagStaticMember, spFlags: DISPFlagOptimized)
!1387 = !DISubprogram(name: "tcXor", linkageName: "_ZN4llvm5APInt5tcXorEPmPKmj", scope: !421, file: !422, line: 1649, type: !1343, scopeLine: 1649, flags: DIFlagPublic | DIFlagPrototyped | DIFlagStaticMember, spFlags: DISPFlagOptimized)
!1388 = !DISubprogram(name: "tcComplement", linkageName: "_ZN4llvm5APInt12tcComplementEPmj", scope: !421, file: !422, line: 1650, type: !1357, scopeLine: 1650, flags: DIFlagPublic | DIFlagPrototyped | DIFlagStaticMember, spFlags: DISPFlagOptimized)
!1389 = !DISubprogram(name: "tcCompare", linkageName: "_ZN4llvm5APInt9tcCompareEPKmS2_j", scope: !421, file: !422, line: 1653, type: !1390, scopeLine: 1653, flags: DIFlagPublic | DIFlagPrototyped | DIFlagStaticMember, spFlags: DISPFlagOptimized)
!1390 = !DISubroutineType(types: !1391)
!1391 = !{!202, !1345, !1345, !6}
!1392 = !DISubprogram(name: "tcIncrement", linkageName: "_ZN4llvm5APInt11tcIncrementEPmj", scope: !421, file: !422, line: 1656, type: !1393, scopeLine: 1656, flags: DIFlagPublic | DIFlagPrototyped | DIFlagStaticMember, spFlags: DISPFlagOptimized)
!1393 = !DISubroutineType(types: !1394)
!1394 = !{!1341, !1340, !6}
!1395 = !DISubprogram(name: "tcDecrement", linkageName: "_ZN4llvm5APInt11tcDecrementEPmj", scope: !421, file: !422, line: 1659, type: !1393, scopeLine: 1659, flags: DIFlagPublic | DIFlagPrototyped | DIFlagStaticMember, spFlags: DISPFlagOptimized)
!1396 = !DISubprogram(name: "tcSetLeastSignificantBits", linkageName: "_ZN4llvm5APInt25tcSetLeastSignificantBitsEPmjj", scope: !421, file: !422, line: 1662, type: !1382, scopeLine: 1662, flags: DIFlagPublic | DIFlagPrototyped | DIFlagStaticMember, spFlags: DISPFlagOptimized)
!1397 = !DISubprogram(name: "dump", linkageName: "_ZNK4llvm5APInt4dumpEv", scope: !421, file: !422, line: 1666, type: !1398, scopeLine: 1666, flags: DIFlagPublic | DIFlagPrototyped, spFlags: DISPFlagOptimized)
!1398 = !DISubroutineType(types: !1399)
!1399 = !{null, !440}
!1400 = !DISubprogram(name: "lower", linkageName: "_ZNK4llvm9StringRef5lowerB5cxx11Ev", scope: !312, file: !313, line: 374, type: !385, scopeLine: 374, flags: DIFlagPublic | DIFlagPrototyped, spFlags: DISPFlagOptimized)
!1401 = !DISubprogram(name: "upper", linkageName: "_ZNK4llvm9StringRef5upperB5cxx11Ev", scope: !312, file: !313, line: 377, type: !385, scopeLine: 377, flags: DIFlagPublic | DIFlagPrototyped, spFlags: DISPFlagOptimized)
!1402 = !DISubprogram(name: "substr", linkageName: "_ZNK4llvm9StringRef6substrEmm", scope: !312, file: !313, line: 392, type: !1403, scopeLine: 392, flags: DIFlagPublic | DIFlagPrototyped, spFlags: DISPFlagOptimized)
!1403 = !DISubroutineType(types: !1404)
!1404 = !{!312, !356, !317, !317}
!1405 = !DISubprogram(name: "drop_front", linkageName: "_ZNK4llvm9StringRef10drop_frontEm", scope: !312, file: !313, line: 399, type: !1406, scopeLine: 399, flags: DIFlagPublic | DIFlagPrototyped, spFlags: DISPFlagOptimized)
!1406 = !DISubroutineType(types: !1407)
!1407 = !{!312, !356, !317}
!1408 = !DISubprogram(name: "drop_back", linkageName: "_ZNK4llvm9StringRef9drop_backEm", scope: !312, file: !313, line: 406, type: !1406, scopeLine: 406, flags: DIFlagPublic | DIFlagPrototyped, spFlags: DISPFlagOptimized)
!1409 = !DISubprogram(name: "slice", linkageName: "_ZNK4llvm9StringRef5sliceEmm", scope: !312, file: !313, line: 421, type: !1403, scopeLine: 421, flags: DIFlagPublic | DIFlagPrototyped, spFlags: DISPFlagOptimized)
!1410 = !DISubprogram(name: "split", linkageName: "_ZNK4llvm9StringRef5splitEc", scope: !312, file: !313, line: 437, type: !1411, scopeLine: 437, flags: DIFlagPublic | DIFlagPrototyped, spFlags: DISPFlagOptimized)
!1411 = !DISubroutineType(types: !1412)
!1412 = !{!1413, !356, !323}
!1413 = distinct !DICompositeType(tag: DW_TAG_structure_type, name: "pair<llvm::StringRef, llvm::StringRef>", scope: !221, file: !1414, line: 208, size: 256, flags: DIFlagTypePassByValue | DIFlagNonTrivial, elements: !1415, templateParams: !1474, identifier: "_ZTSSt4pairIN4llvm9StringRefES1_E")
!1414 = !DIFile(filename: "/usr/lib/gcc/x86_64-linux-gnu/7.5.0/../../../../include/c++/7.5.0/bits/stl_pair.h", directory: "")
!1415 = !{!1416, !1436, !1437, !1438, !1444, !1448, !1462, !1471}
!1416 = !DIDerivedType(tag: DW_TAG_inheritance, scope: !1413, baseType: !1417, flags: DIFlagPrivate, extraData: i32 0)
!1417 = distinct !DICompositeType(tag: DW_TAG_class_type, name: "__pair_base<llvm::StringRef, llvm::StringRef>", scope: !221, file: !1414, line: 190, size: 8, flags: DIFlagTypePassByValue, elements: !1418, templateParams: !1433, identifier: "_ZTSSt11__pair_baseIN4llvm9StringRefES1_E")
!1418 = !{!1419, !1423, !1424, !1429}
!1419 = !DISubprogram(name: "__pair_base", scope: !1417, file: !1414, line: 194, type: !1420, scopeLine: 194, flags: DIFlagPrototyped, spFlags: DISPFlagOptimized)
!1420 = !DISubroutineType(types: !1421)
!1421 = !{null, !1422}
!1422 = !DIDerivedType(tag: DW_TAG_pointer_type, baseType: !1417, size: 64, flags: DIFlagArtificial | DIFlagObjectPointer)
!1423 = !DISubprogram(name: "~__pair_base", scope: !1417, file: !1414, line: 195, type: !1420, scopeLine: 195, flags: DIFlagPrototyped, spFlags: DISPFlagOptimized)
!1424 = !DISubprogram(name: "__pair_base", scope: !1417, file: !1414, line: 196, type: !1425, scopeLine: 196, flags: DIFlagPrototyped, spFlags: DISPFlagOptimized)
!1425 = !DISubroutineType(types: !1426)
!1426 = !{null, !1422, !1427}
!1427 = !DIDerivedType(tag: DW_TAG_reference_type, baseType: !1428, size: 64)
!1428 = !DIDerivedType(tag: DW_TAG_const_type, baseType: !1417)
!1429 = !DISubprogram(name: "operator=", linkageName: "_ZNSt11__pair_baseIN4llvm9StringRefES1_EaSERKS2_", scope: !1417, file: !1414, line: 197, type: !1430, scopeLine: 197, flags: DIFlagPrototyped, spFlags: DISPFlagOptimized | DISPFlagDeleted)
!1430 = !DISubroutineType(types: !1431)
!1431 = !{!1432, !1422, !1427}
!1432 = !DIDerivedType(tag: DW_TAG_reference_type, baseType: !1417, size: 64)
!1433 = !{!1434, !1435}
!1434 = !DITemplateTypeParameter(name: "_U1", type: !312)
!1435 = !DITemplateTypeParameter(name: "_U2", type: !312)
!1436 = !DIDerivedType(tag: DW_TAG_member, name: "first", scope: !1413, file: !1414, line: 214, baseType: !312, size: 128)
!1437 = !DIDerivedType(tag: DW_TAG_member, name: "second", scope: !1413, file: !1414, line: 215, baseType: !312, size: 128, offset: 128)
!1438 = !DISubprogram(name: "pair", scope: !1413, file: !1414, line: 303, type: !1439, scopeLine: 303, flags: DIFlagPrototyped, spFlags: DISPFlagOptimized)
!1439 = !DISubroutineType(types: !1440)
!1440 = !{null, !1441, !1442}
!1441 = !DIDerivedType(tag: DW_TAG_pointer_type, baseType: !1413, size: 64, flags: DIFlagArtificial | DIFlagObjectPointer)
!1442 = !DIDerivedType(tag: DW_TAG_reference_type, baseType: !1443, size: 64)
!1443 = !DIDerivedType(tag: DW_TAG_const_type, baseType: !1413)
!1444 = !DISubprogram(name: "pair", scope: !1413, file: !1414, line: 304, type: !1445, scopeLine: 304, flags: DIFlagPrototyped, spFlags: DISPFlagOptimized)
!1445 = !DISubroutineType(types: !1446)
!1446 = !{null, !1441, !1447}
!1447 = !DIDerivedType(tag: DW_TAG_rvalue_reference_type, baseType: !1413, size: 64)
!1448 = !DISubprogram(name: "operator=", linkageName: "_ZNSt4pairIN4llvm9StringRefES1_EaSERKS2_", scope: !1413, file: !1414, line: 378, type: !1449, scopeLine: 378, flags: DIFlagPrototyped, spFlags: DISPFlagOptimized)
!1449 = !DISubroutineType(types: !1450)
!1450 = !{!1451, !1441, !1452}
!1451 = !DIDerivedType(tag: DW_TAG_reference_type, baseType: !1413, size: 64)
!1452 = !DIDerivedType(tag: DW_TAG_typedef, name: "type", scope: !1454, file: !1453, line: 2166, baseType: !1442)
!1453 = !DIFile(filename: "/usr/lib/gcc/x86_64-linux-gnu/7.5.0/../../../../include/c++/7.5.0/type_traits", directory: "")
!1454 = distinct !DICompositeType(tag: DW_TAG_structure_type, name: "conditional<true, const std::pair<llvm::StringRef, llvm::StringRef> &, const std::__nonesuch_no_braces &>", scope: !221, file: !1453, line: 2165, size: 8, flags: DIFlagTypePassByValue, elements: !226, templateParams: !1455, identifier: "_ZTSSt11conditionalILb1ERKSt4pairIN4llvm9StringRefES2_ERKSt20__nonesuch_no_bracesE")
!1455 = !{!1456, !1457, !1458}
!1456 = !DITemplateValueParameter(name: "_Cond", type: !34, value: i8 1)
!1457 = !DITemplateTypeParameter(name: "_Iftrue", type: !1442)
!1458 = !DITemplateTypeParameter(name: "_Iffalse", type: !1459)
!1459 = !DIDerivedType(tag: DW_TAG_reference_type, baseType: !1460, size: 64)
!1460 = !DIDerivedType(tag: DW_TAG_const_type, baseType: !1461)
!1461 = distinct !DICompositeType(tag: DW_TAG_structure_type, name: "__nonesuch_no_braces", scope: !221, file: !1414, line: 185, flags: DIFlagFwdDecl, identifier: "_ZTSSt20__nonesuch_no_braces")
!1462 = !DISubprogram(name: "operator=", linkageName: "_ZNSt4pairIN4llvm9StringRefES1_EaSEOS2_", scope: !1413, file: !1414, line: 389, type: !1463, scopeLine: 389, flags: DIFlagPrototyped, spFlags: DISPFlagOptimized)
!1463 = !DISubroutineType(types: !1464)
!1464 = !{!1451, !1441, !1465}
!1465 = !DIDerivedType(tag: DW_TAG_typedef, name: "type", scope: !1466, file: !1453, line: 2166, baseType: !1447)
!1466 = distinct !DICompositeType(tag: DW_TAG_structure_type, name: "conditional<true, std::pair<llvm::StringRef, llvm::StringRef> &&, std::__nonesuch_no_braces &&>", scope: !221, file: !1453, line: 2165, size: 8, flags: DIFlagTypePassByValue, elements: !226, templateParams: !1467, identifier: "_ZTSSt11conditionalILb1EOSt4pairIN4llvm9StringRefES2_EOSt20__nonesuch_no_bracesE")
!1467 = !{!1456, !1468, !1469}
!1468 = !DITemplateTypeParameter(name: "_Iftrue", type: !1447)
!1469 = !DITemplateTypeParameter(name: "_Iffalse", type: !1470)
!1470 = !DIDerivedType(tag: DW_TAG_rvalue_reference_type, baseType: !1461, size: 64)
!1471 = !DISubprogram(name: "swap", linkageName: "_ZNSt4pairIN4llvm9StringRefES1_E4swapERS2_", scope: !1413, file: !1414, line: 424, type: !1472, scopeLine: 424, flags: DIFlagPrototyped, spFlags: DISPFlagOptimized)
!1472 = !DISubroutineType(types: !1473)
!1473 = !{null, !1441, !1451}
!1474 = !{!1475, !1476}
!1475 = !DITemplateTypeParameter(name: "_T1", type: !312)
!1476 = !DITemplateTypeParameter(name: "_T2", type: !312)
!1477 = !DISubprogram(name: "split", linkageName: "_ZNK4llvm9StringRef5splitES0_", scope: !312, file: !313, line: 454, type: !1478, scopeLine: 454, flags: DIFlagPublic | DIFlagPrototyped, spFlags: DISPFlagOptimized)
!1478 = !DISubroutineType(types: !1479)
!1479 = !{!1413, !356, !312}
!1480 = !DISubprogram(name: "split", linkageName: "_ZNK4llvm9StringRef5splitERNS_15SmallVectorImplIS0_EES0_ib", scope: !312, file: !313, line: 475, type: !1481, scopeLine: 475, flags: DIFlagPublic | DIFlagPrototyped, spFlags: DISPFlagOptimized)
!1481 = !DISubroutineType(types: !1482)
!1482 = !{null, !356, !1483, !312, !202, !34}
!1483 = !DIDerivedType(tag: DW_TAG_reference_type, baseType: !1484, size: 64)
!1484 = distinct !DICompositeType(tag: DW_TAG_class_type, name: "SmallVectorImpl<llvm::StringRef>", scope: !14, file: !313, line: 23, flags: DIFlagFwdDecl, identifier: "_ZTSN4llvm15SmallVectorImplINS_9StringRefEEE")
!1485 = !DISubprogram(name: "rsplit", linkageName: "_ZNK4llvm9StringRef6rsplitEc", scope: !312, file: !313, line: 489, type: !1411, scopeLine: 489, flags: DIFlagPublic | DIFlagPrototyped, spFlags: DISPFlagOptimized)
!1486 = !DISubprogram(name: "ltrim", linkageName: "_ZNK4llvm9StringRef5ltrimES0_", scope: !312, file: !313, line: 498, type: !1487, scopeLine: 498, flags: DIFlagPublic | DIFlagPrototyped, spFlags: DISPFlagOptimized)
!1487 = !DISubroutineType(types: !1488)
!1488 = !{!312, !356, !312}
!1489 = !DISubprogram(name: "rtrim", linkageName: "_ZNK4llvm9StringRef5rtrimES0_", scope: !312, file: !313, line: 504, type: !1487, scopeLine: 504, flags: DIFlagPublic | DIFlagPrototyped, spFlags: DISPFlagOptimized)
!1490 = !DISubprogram(name: "trim", linkageName: "_ZNK4llvm9StringRef4trimES0_", scope: !312, file: !313, line: 510, type: !1487, scopeLine: 510, flags: DIFlagPublic | DIFlagPrototyped, spFlags: DISPFlagOptimized)
!1491 = !DISubprogram(name: "getStructNumElements", linkageName: "_ZNK4llvm4Type20getStructNumElementsEv", scope: !84, file: !85, line: 362, type: !131, scopeLine: 362, flags: DIFlagPublic | DIFlagPrototyped, spFlags: DISPFlagOptimized)
!1492 = !DISubprogram(name: "getStructElementType", linkageName: "_ZNK4llvm4Type20getStructElementTypeEj", scope: !84, file: !85, line: 363, type: !302, scopeLine: 363, flags: DIFlagPublic | DIFlagPrototyped, spFlags: DISPFlagOptimized)
!1493 = !DISubprogram(name: "getSequentialElementType", linkageName: "_ZNK4llvm4Type24getSequentialElementTypeEv", scope: !84, file: !85, line: 365, type: !1494, scopeLine: 365, flags: DIFlagPublic | DIFlagPrototyped, spFlags: DISPFlagOptimized)
!1494 = !DISubroutineType(types: !1495)
!1495 = !{!83, !133}
!1496 = !DISubprogram(name: "getArrayNumElements", linkageName: "_ZNK4llvm4Type19getArrayNumElementsEv", scope: !84, file: !85, line: 367, type: !1497, scopeLine: 367, flags: DIFlagPublic | DIFlagPrototyped, spFlags: DISPFlagOptimized)
!1497 = !DISubroutineType(types: !1498)
!1498 = !{!429, !133}
!1499 = !DISubprogram(name: "getArrayElementType", linkageName: "_ZNK4llvm4Type19getArrayElementTypeEv", scope: !84, file: !85, line: 368, type: !1494, scopeLine: 368, flags: DIFlagPublic | DIFlagPrototyped, spFlags: DISPFlagOptimized)
!1500 = !DISubprogram(name: "getVectorNumElements", linkageName: "_ZNK4llvm4Type20getVectorNumElementsEv", scope: !84, file: !85, line: 370, type: !131, scopeLine: 370, flags: DIFlagPublic | DIFlagPrototyped, spFlags: DISPFlagOptimized)
!1501 = !DISubprogram(name: "getVectorElementType", linkageName: "_ZNK4llvm4Type20getVectorElementTypeEv", scope: !84, file: !85, line: 371, type: !1494, scopeLine: 371, flags: DIFlagPublic | DIFlagPrototyped, spFlags: DISPFlagOptimized)
!1502 = !DISubprogram(name: "getPointerElementType", linkageName: "_ZNK4llvm4Type21getPointerElementTypeEv", scope: !84, file: !85, line: 373, type: !1494, scopeLine: 373, flags: DIFlagPublic | DIFlagPrototyped, spFlags: DISPFlagOptimized)
!1503 = !DISubprogram(name: "getPointerAddressSpace", linkageName: "_ZNK4llvm4Type22getPointerAddressSpaceEv", scope: !84, file: !85, line: 376, type: !131, scopeLine: 376, flags: DIFlagPublic | DIFlagPrototyped, spFlags: DISPFlagOptimized)
!1504 = !DISubprogram(name: "getPrimitiveType", linkageName: "_ZN4llvm4Type16getPrimitiveTypeERNS_11LLVMContextENS0_6TypeIDE", scope: !84, file: !85, line: 384, type: !1505, scopeLine: 384, flags: DIFlagPublic | DIFlagPrototyped | DIFlagStaticMember, spFlags: DISPFlagOptimized)
!1505 = !DISubroutineType(types: !1506)
!1506 = !{!83, !88, !103}
!1507 = !DISubprogram(name: "getVoidTy", linkageName: "_ZN4llvm4Type9getVoidTyERNS_11LLVMContextE", scope: !84, file: !85, line: 389, type: !1508, scopeLine: 389, flags: DIFlagPublic | DIFlagPrototyped | DIFlagStaticMember, spFlags: DISPFlagOptimized)
!1508 = !DISubroutineType(types: !1509)
!1509 = !{!83, !88}
!1510 = !DISubprogram(name: "getLabelTy", linkageName: "_ZN4llvm4Type10getLabelTyERNS_11LLVMContextE", scope: !84, file: !85, line: 390, type: !1508, scopeLine: 390, flags: DIFlagPublic | DIFlagPrototyped | DIFlagStaticMember, spFlags: DISPFlagOptimized)
!1511 = !DISubprogram(name: "getHalfTy", linkageName: "_ZN4llvm4Type9getHalfTyERNS_11LLVMContextE", scope: !84, file: !85, line: 391, type: !1508, scopeLine: 391, flags: DIFlagPublic | DIFlagPrototyped | DIFlagStaticMember, spFlags: DISPFlagOptimized)
!1512 = !DISubprogram(name: "getFloatTy", linkageName: "_ZN4llvm4Type10getFloatTyERNS_11LLVMContextE", scope: !84, file: !85, line: 392, type: !1508, scopeLine: 392, flags: DIFlagPublic | DIFlagPrototyped | DIFlagStaticMember, spFlags: DISPFlagOptimized)
!1513 = !DISubprogram(name: "getDoubleTy", linkageName: "_ZN4llvm4Type11getDoubleTyERNS_11LLVMContextE", scope: !84, file: !85, line: 393, type: !1508, scopeLine: 393, flags: DIFlagPublic | DIFlagPrototyped | DIFlagStaticMember, spFlags: DISPFlagOptimized)
!1514 = !DISubprogram(name: "getMetadataTy", linkageName: "_ZN4llvm4Type13getMetadataTyERNS_11LLVMContextE", scope: !84, file: !85, line: 394, type: !1508, scopeLine: 394, flags: DIFlagPublic | DIFlagPrototyped | DIFlagStaticMember, spFlags: DISPFlagOptimized)
!1515 = !DISubprogram(name: "getX86_FP80Ty", linkageName: "_ZN4llvm4Type13getX86_FP80TyERNS_11LLVMContextE", scope: !84, file: !85, line: 395, type: !1508, scopeLine: 395, flags: DIFlagPublic | DIFlagPrototyped | DIFlagStaticMember, spFlags: DISPFlagOptimized)
!1516 = !DISubprogram(name: "getFP128Ty", linkageName: "_ZN4llvm4Type10getFP128TyERNS_11LLVMContextE", scope: !84, file: !85, line: 396, type: !1508, scopeLine: 396, flags: DIFlagPublic | DIFlagPrototyped | DIFlagStaticMember, spFlags: DISPFlagOptimized)
!1517 = !DISubprogram(name: "getPPC_FP128Ty", linkageName: "_ZN4llvm4Type14getPPC_FP128TyERNS_11LLVMContextE", scope: !84, file: !85, line: 397, type: !1508, scopeLine: 397, flags: DIFlagPublic | DIFlagPrototyped | DIFlagStaticMember, spFlags: DISPFlagOptimized)
!1518 = !DISubprogram(name: "getX86_MMXTy", linkageName: "_ZN4llvm4Type12getX86_MMXTyERNS_11LLVMContextE", scope: !84, file: !85, line: 398, type: !1508, scopeLine: 398, flags: DIFlagPublic | DIFlagPrototyped | DIFlagStaticMember, spFlags: DISPFlagOptimized)
!1519 = !DISubprogram(name: "getIntNTy", linkageName: "_ZN4llvm4Type9getIntNTyERNS_11LLVMContextEj", scope: !84, file: !85, line: 399, type: !1520, scopeLine: 399, flags: DIFlagPublic | DIFlagPrototyped | DIFlagStaticMember, spFlags: DISPFlagOptimized)
!1520 = !DISubroutineType(types: !1521)
!1521 = !{!1522, !88, !6}
!1522 = !DIDerivedType(tag: DW_TAG_pointer_type, baseType: !1523, size: 64)
!1523 = distinct !DICompositeType(tag: DW_TAG_class_type, name: "IntegerType", scope: !14, file: !1524, line: 37, size: 192, flags: DIFlagTypePassByReference | DIFlagNonTrivial, elements: !1525, identifier: "_ZTSN4llvm11IntegerTypeE")
!1524 = !DIFile(filename: "/faster/fs/llvm34/include/llvm/IR/DerivedTypes.h", directory: "")
!1525 = !{!1526, !1527, !1531, !1532, !1537, !1540, !1541, !1544, !1547}
!1526 = !DIDerivedType(tag: DW_TAG_inheritance, scope: !1523, baseType: !84, flags: DIFlagPublic, extraData: i32 0)
!1527 = !DISubprogram(name: "IntegerType", scope: !1523, file: !1524, line: 41, type: !1528, scopeLine: 41, flags: DIFlagProtected | DIFlagExplicit | DIFlagPrototyped, spFlags: DISPFlagOptimized)
!1528 = !DISubroutineType(types: !1529)
!1529 = !{null, !1530, !88, !6}
!1530 = !DIDerivedType(tag: DW_TAG_pointer_type, baseType: !1523, size: 64, flags: DIFlagArtificial | DIFlagObjectPointer)
!1531 = !DISubprogram(name: "get", linkageName: "_ZN4llvm11IntegerType3getERNS_11LLVMContextEj", scope: !1523, file: !1524, line: 58, type: !1520, scopeLine: 58, flags: DIFlagPublic | DIFlagPrototyped | DIFlagStaticMember, spFlags: DISPFlagOptimized)
!1532 = !DISubprogram(name: "getBitWidth", linkageName: "_ZNK4llvm11IntegerType11getBitWidthEv", scope: !1523, file: !1524, line: 61, type: !1533, scopeLine: 61, flags: DIFlagPublic | DIFlagPrototyped, spFlags: DISPFlagOptimized)
!1533 = !DISubroutineType(types: !1534)
!1534 = !{!6, !1535}
!1535 = !DIDerivedType(tag: DW_TAG_pointer_type, baseType: !1536, size: 64, flags: DIFlagArtificial | DIFlagObjectPointer)
!1536 = !DIDerivedType(tag: DW_TAG_const_type, baseType: !1523)
!1537 = !DISubprogram(name: "getBitMask", linkageName: "_ZNK4llvm11IntegerType10getBitMaskEv", scope: !1523, file: !1524, line: 66, type: !1538, scopeLine: 66, flags: DIFlagPublic | DIFlagPrototyped, spFlags: DISPFlagOptimized)
!1538 = !DISubroutineType(types: !1539)
!1539 = !{!429, !1535}
!1540 = !DISubprogram(name: "getSignBit", linkageName: "_ZNK4llvm11IntegerType10getSignBitEv", scope: !1523, file: !1524, line: 72, type: !1538, scopeLine: 72, flags: DIFlagPublic | DIFlagPrototyped, spFlags: DISPFlagOptimized)
!1541 = !DISubprogram(name: "getMask", linkageName: "_ZNK4llvm11IntegerType7getMaskEv", scope: !1523, file: !1524, line: 79, type: !1542, scopeLine: 79, flags: DIFlagPublic | DIFlagPrototyped, spFlags: DISPFlagOptimized)
!1542 = !DISubroutineType(types: !1543)
!1543 = !{!421, !1535}
!1544 = !DISubprogram(name: "isPowerOf2ByteWidth", linkageName: "_ZNK4llvm11IntegerType19isPowerOf2ByteWidthEv", scope: !1523, file: !1524, line: 85, type: !1545, scopeLine: 85, flags: DIFlagPublic | DIFlagPrototyped, spFlags: DISPFlagOptimized)
!1545 = !DISubroutineType(types: !1546)
!1546 = !{!34, !1535}
!1547 = !DISubprogram(name: "classof", linkageName: "_ZN4llvm11IntegerType7classofEPKNS_4TypeE", scope: !1523, file: !1524, line: 88, type: !1548, scopeLine: 88, flags: DIFlagPublic | DIFlagPrototyped | DIFlagStaticMember, spFlags: DISPFlagOptimized)
!1548 = !DISubroutineType(types: !1549)
!1549 = !{!34, !206}
!1550 = !DISubprogram(name: "getInt1Ty", linkageName: "_ZN4llvm4Type9getInt1TyERNS_11LLVMContextE", scope: !84, file: !85, line: 400, type: !1551, scopeLine: 400, flags: DIFlagPublic | DIFlagPrototyped | DIFlagStaticMember, spFlags: DISPFlagOptimized)
!1551 = !DISubroutineType(types: !1552)
!1552 = !{!1522, !88}
!1553 = !DISubprogram(name: "getInt8Ty", linkageName: "_ZN4llvm4Type9getInt8TyERNS_11LLVMContextE", scope: !84, file: !85, line: 401, type: !1551, scopeLine: 401, flags: DIFlagPublic | DIFlagPrototyped | DIFlagStaticMember, spFlags: DISPFlagOptimized)
