; ModuleID = '<stdin>'
source_filename = "/fast/fs/llvm-project/llvm/utils/unittest/googletest/src/gtest-all.cc"
target datalayout = "e-m:e-p270:32:32-p271:32:32-p272:64:64-i64:64-f80:128-n8:16:32:64-S128"
target triple = "x86_64-unknown-linux-gnu"

%"class.testing::internal::FilePath" = type { %"class.std::__cxx11::basic_string" }
%"class.std::__cxx11::basic_string" = type { %"struct.std::__cxx11::basic_string<char, std::char_traits<char>, std::allocator<char> >::_Alloc_hider", i64, %union.anon }
%"struct.std::__cxx11::basic_string<char, std::char_traits<char>, std::allocator<char> >::_Alloc_hider" = type { i8* }
%union.anon = type { i64, [8 x i8] }
%struct.stat = type { i64, i64, i64, i32, i32, i32, i32, i64, i64, i64, i64, %struct.timespec, %struct.timespec, %struct.timespec, [3 x i64] }
%struct.timespec = type { i64, i64 }
%"class.std::allocator" = type { i8 }
; Function Attrs: nounwind readnone speculatable willreturn
declare void @llvm.dbg.declare(metadata, metadata, metadata) #0
; Function Attrs: argmemonly nounwind willreturn
declare void @llvm.lifetime.start.p0i8(i64 immarg, i8* nocapture) #1
declare i32 @__gxx_personality_v0(...)
; Function Attrs: argmemonly nounwind willreturn
declare void @llvm.lifetime.end.p0i8(i64 immarg, i8* nocapture) #1
; Function Attrs: nobuiltin nounwind
declare !dbg !8799 void @_ZdlPv(i8*) local_unnamed_addr #2
; Function Attrs: uwtable
define void @_ZN7testing8internal8FilePath22GenerateUniqueFileNameERKS1_S3_PKc(%"class.testing::internal::FilePath"* noalias sret %0, %"class.testing::internal::FilePath"* dereferenceable(32) %1, %"class.testing::internal::FilePath"* dereferenceable(32) %2, i8* %3) local_unnamed_addr #3 align 2 personality i8* bitcast (i32 (...)* @__gxx_personality_v0 to i8*) !dbg !15272 {
  %5 = alloca %struct.stat, align 8
  call void @llvm.dbg.declare(metadata %struct.stat* %5, metadata !15279, metadata !DIExpression()), !dbg !15319
  %6 = alloca %"class.testing::internal::FilePath", align 8
  call void @llvm.dbg.value(metadata i8* undef, metadata !15277, metadata !DIExpression(DW_OP_deref)), !dbg !15321
  call void @llvm.dbg.value(metadata %"class.testing::internal::FilePath"* %1, metadata !15274, metadata !DIExpression()), !dbg !15321
  call void @llvm.dbg.value(metadata %"class.testing::internal::FilePath"* %2, metadata !15275, metadata !DIExpression()), !dbg !15321
  call void @llvm.dbg.value(metadata i8* %3, metadata !15276, metadata !DIExpression()), !dbg !15321
  call void @llvm.dbg.value(metadata %"class.testing::internal::FilePath"* %0, metadata !15322, metadata !DIExpression()), !dbg !15326
  call void @llvm.dbg.value(metadata %"class.testing::internal::FilePath"* %0, metadata !15328, metadata !DIExpression()), !dbg !15337
  call void @llvm.dbg.value(metadata !213, metadata !15335, metadata !DIExpression()), !dbg !15337
  call void @llvm.dbg.value(metadata %"class.std::allocator"* undef, metadata !15336, metadata !DIExpression()), !dbg !15337
  call void @llvm.dbg.value(metadata %"class.testing::internal::FilePath"* %0, metadata !15339, metadata !DIExpression()), !dbg !15347
  %7 = getelementptr inbounds %"class.testing::internal::FilePath", %"class.testing::internal::FilePath"* %0, i64 0, i32 0, i32 2, !dbg !15349
  call void @llvm.dbg.value(metadata %"class.testing::internal::FilePath"* %0, metadata !15350, metadata !DIExpression()), !dbg !15375
  call void @llvm.dbg.value(metadata %union.anon* %7, metadata !15372, metadata !DIExpression()), !dbg !15375
  call void @llvm.dbg.value(metadata %"class.std::allocator"* undef, metadata !15373, metadata !DIExpression()), !dbg !15375
  %8 = bitcast %"class.testing::internal::FilePath"* %0 to %union.anon**, !dbg !15377
  store %union.anon* %7, %union.anon** %8, align 8, !dbg !15377, !tbaa !15378
  call void @llvm.dbg.value(metadata %"class.testing::internal::FilePath"* %0, metadata !15383, metadata !DIExpression()), !dbg !15393
  call void @llvm.dbg.value(metadata !213, metadata !15391, metadata !DIExpression()), !dbg !15393
  call void @llvm.dbg.value(metadata i8* inttoptr (i64 -1 to i8*), metadata !15392, metadata !DIExpression()), !dbg !15393
  call void @llvm.dbg.value(metadata %"class.testing::internal::FilePath"* %0, metadata !15396, metadata !DIExpression()), !dbg !15407
  call void @llvm.dbg.value(metadata !213, metadata !15404, metadata !DIExpression()), !dbg !15407
  call void @llvm.dbg.value(metadata i8* inttoptr (i64 -1 to i8*), metadata !15405, metadata !DIExpression()), !dbg !15407
  call void @llvm.dbg.value(metadata %"class.testing::internal::FilePath"* %0, metadata !15409, metadata !DIExpression()), !dbg !15421
  call void @llvm.dbg.value(metadata !213, metadata !15417, metadata !DIExpression()), !dbg !15421
  call void @llvm.dbg.value(metadata i8* inttoptr (i64 -1 to i8*), metadata !15418, metadata !DIExpression()), !dbg !15421
  call void @llvm.dbg.value(metadata i64 0, metadata !15420, metadata !DIExpression()), !dbg !15421
  call void @llvm.dbg.value(metadata i64 0, metadata !15420, metadata !DIExpression()), !dbg !15421
  call void @llvm.dbg.value(metadata i64 0, metadata !15423, metadata !DIExpression()), !dbg !15430
  call void @llvm.dbg.value(metadata i64 0, metadata !15432, metadata !DIExpression()), !dbg !15437
  %9 = getelementptr inbounds %"class.testing::internal::FilePath", %"class.testing::internal::FilePath"* %0, i64 0, i32 0, i32 1, !dbg !15439
  store i64 0, i64* %9, align 8, !dbg !15440, !tbaa !15441
  %10 = bitcast %union.anon* %7 to i8*, !dbg !15444
  call void @llvm.dbg.value(metadata i8* %10, metadata !15453, metadata !DIExpression()), !dbg !15457
  store i8 0, i8* %10, align 8, !dbg !15459, !tbaa !15460
  call void @llvm.dbg.value(metadata i32 0, metadata !15278, metadata !DIExpression()), !dbg !15321
  %11 = bitcast %"class.testing::internal::FilePath"* %6 to i8*, !dbg !15461
  %12 = getelementptr inbounds %"class.testing::internal::FilePath", %"class.testing::internal::FilePath"* %6, i64 0, i32 0, !dbg !15463
  %13 = getelementptr inbounds %"class.testing::internal::FilePath", %"class.testing::internal::FilePath"* %0, i64 0, i32 0, !dbg !15463
  %14 = getelementptr inbounds %"class.testing::internal::FilePath", %"class.testing::internal::FilePath"* %6, i64 0, i32 0, i32 0, i32 0, !dbg !15469
  %15 = getelementptr inbounds %"class.testing::internal::FilePath", %"class.testing::internal::FilePath"* %6, i64 0, i32 0, i32 2, !dbg !15498
  %16 = bitcast %union.anon* %15 to i8*, !dbg !15498
  %17 = bitcast %struct.stat* %5 to i8*, !dbg !15509
  %18 = getelementptr inbounds %"class.testing::internal::FilePath", %"class.testing::internal::FilePath"* %0, i64 0, i32 0, i32 0, i32 0, !dbg !15510
  br label %19, !dbg !15519

19:                                               ; preds = %27, %4
  %20 = phi i32 [ 0, %4 ], [ %21, %27 ], !dbg !15321
  call void @llvm.dbg.value(metadata i32 %20, metadata !15278, metadata !DIExpression()), !dbg !15321
  call void @llvm.lifetime.start.p0i8(i64 32, i8* nonnull %11) #6, !dbg !15520
  %21 = add nuw nsw i32 %20, 1, !dbg !15521
  call void @llvm.dbg.value(metadata i32 %21, metadata !15278, metadata !DIExpression()), !dbg !15321
  invoke void @_ZN7testing8internal8FilePath12MakeFileNameERKS1_S3_iPKc(%"class.testing::internal::FilePath"* nonnull sret %6, %"class.testing::internal::FilePath"* nonnull dereferenceable(32) %1, %"class.testing::internal::FilePath"* nonnull dereferenceable(32) %2, i32 %20, i8* %3)
          to label %22 unwind label %31, !dbg !15520

22:                                               ; preds = %19
  call void @llvm.dbg.value(metadata %"class.testing::internal::FilePath"* %0, metadata !15466, metadata !DIExpression()), !dbg !15463
  call void @llvm.dbg.value(metadata %"class.testing::internal::FilePath"* %6, metadata !15467, metadata !DIExpression()), !dbg !15463
  call void @llvm.dbg.value(metadata %"class.std::__cxx11::basic_string"* %13, metadata !15522, metadata !DIExpression()), !dbg !15529
  call void @llvm.dbg.value(metadata %"class.std::__cxx11::basic_string"* %12, metadata !15528, metadata !DIExpression()), !dbg !15529
  call void @llvm.dbg.value(metadata %"class.std::__cxx11::basic_string"* %13, metadata !15531, metadata !DIExpression()), !dbg !15536
  call void @llvm.dbg.value(metadata %"class.std::__cxx11::basic_string"* %12, metadata !15535, metadata !DIExpression()), !dbg !15536
  invoke void @_ZNSt7__cxx1112basic_stringIcSt11char_traitsIcESaIcEE9_M_assignERKS4_(%"class.std::__cxx11::basic_string"* %13, %"class.std::__cxx11::basic_string"* nonnull dereferenceable(32) %12)
          to label %23 unwind label %35, !dbg !15538

23:                                               ; preds = %22
  call void @llvm.dbg.value(metadata %"class.testing::internal::FilePath"* %6, metadata !15496, metadata !DIExpression()) #6, !dbg !15539
  call void @llvm.dbg.value(metadata %"class.testing::internal::FilePath"* %6, metadata !15490, metadata !DIExpression()) #6, !dbg !15540
  call void @llvm.dbg.value(metadata %"class.testing::internal::FilePath"* %6, metadata !15484, metadata !DIExpression()) #6, !dbg !15541
  call void @llvm.dbg.value(metadata %"class.testing::internal::FilePath"* %6, metadata !15476, metadata !DIExpression()) #6, !dbg !15542
  call void @llvm.dbg.value(metadata %"class.testing::internal::FilePath"* %6, metadata !15451, metadata !DIExpression()) #6, !dbg !15469
  %24 = load i8*, i8** %14, align 8, !dbg !15543, !tbaa !15544
  call void @llvm.dbg.value(metadata %"class.testing::internal::FilePath"* %6, metadata !15507, metadata !DIExpression()) #6, !dbg !15498
  %25 = icmp eq i8* %24, %16, !dbg !15545
  br i1 %25, label %27, label %26, !dbg !15546

26:                                               ; preds = %23
  call void @llvm.dbg.value(metadata %"class.testing::internal::FilePath"* %6, metadata !15547, metadata !DIExpression()) #6, !dbg !15552
  call void @llvm.dbg.value(metadata i64 undef, metadata !15551, metadata !DIExpression()) #6, !dbg !15552
  call void @llvm.dbg.value(metadata %"class.testing::internal::FilePath"* %6, metadata !15451, metadata !DIExpression()) #6, !dbg !15554
  call void @llvm.dbg.value(metadata %"class.testing::internal::FilePath"* %6, metadata !15556, metadata !DIExpression()) #6, !dbg !15561
  call void @llvm.dbg.value(metadata i8* %24, metadata !15559, metadata !DIExpression()) #6, !dbg !15561
  call void @llvm.dbg.value(metadata i64 undef, metadata !15560, metadata !DIExpression(DW_OP_plus_uconst, 1, DW_OP_stack_value)) #6, !dbg !15561
  call void @llvm.dbg.value(metadata %"class.testing::internal::FilePath"* %6, metadata !15563, metadata !DIExpression()) #6, !dbg !15601
  call void @llvm.dbg.value(metadata i8* %24, metadata !15598, metadata !DIExpression()) #6, !dbg !15601
  call void @llvm.dbg.value(metadata i64 undef, metadata !15599, metadata !DIExpression(DW_OP_plus_uconst, 1, DW_OP_stack_value)) #6, !dbg !15601
  call void @_ZdlPv(i8* %24) #6, !dbg !15603
  br label %27, !dbg !15604

27:                                               ; preds = %26, %23
  call void @llvm.lifetime.end.p0i8(i64 32, i8* nonnull %11) #6, !dbg !15605
  call void @llvm.dbg.value(metadata %"class.testing::internal::FilePath"* %0, metadata !15282, metadata !DIExpression()) #6, !dbg !15509
  call void @llvm.lifetime.start.p0i8(i64 144, i8* nonnull %17) #6, !dbg !15606
  call void @llvm.dbg.value(metadata %"class.testing::internal::FilePath"* %0, metadata !15517, metadata !DIExpression()) #6, !dbg !15607
  call void @llvm.dbg.value(metadata %"class.testing::internal::FilePath"* %0, metadata !15451, metadata !DIExpression()) #6, !dbg !15510
  %28 = load i8*, i8** %18, align 8, !dbg !15608, !tbaa !15544
  call void @llvm.dbg.value(metadata i8* %28, metadata !15609, metadata !DIExpression()) #6, !dbg !15616
  call void @llvm.dbg.value(metadata %struct.stat* %5, metadata !15615, metadata !DIExpression()) #6, !dbg !15616
  call void @llvm.dbg.value(metadata i8* %28, metadata !15618, metadata !DIExpression()) #6, !dbg !15625
  call void @llvm.dbg.value(metadata %struct.stat* %5, metadata !15624, metadata !DIExpression()) #6, !dbg !15625
  %29 = call i32 @__xstat(i32 1, i8* nonnull %28, %struct.stat* nonnull %5) #6, !dbg !15627
  %30 = icmp eq i32 %29, 0, !dbg !15628
  call void @llvm.lifetime.end.p0i8(i64 144, i8* nonnull %17) #6, !dbg !15629
  br i1 %30, label %19, label %51, !dbg !15630, !llvm.loop !15631

31:                                               ; preds = %19
  %32 = landingpad { i8*, i32 }
          cleanup, !dbg !15633
  %33 = extractvalue { i8*, i32 } %32, 0, !dbg !15633
  %34 = extractvalue { i8*, i32 } %32, 1, !dbg !15633
  br label %42, !dbg !15633

35:                                               ; preds = %22
  %36 = landingpad { i8*, i32 }
          cleanup, !dbg !15633
  %37 = extractvalue { i8*, i32 } %36, 0, !dbg !15633
  %38 = extractvalue { i8*, i32 } %36, 1, !dbg !15633
  call void @llvm.dbg.value(metadata %"class.testing::internal::FilePath"* %6, metadata !15496, metadata !DIExpression()) #6, !dbg !15634
  call void @llvm.dbg.value(metadata %"class.testing::internal::FilePath"* %6, metadata !15490, metadata !DIExpression()) #6, !dbg !15636
  call void @llvm.dbg.value(metadata %"class.testing::internal::FilePath"* %6, metadata !15484, metadata !DIExpression()) #6, !dbg !15638
  call void @llvm.dbg.value(metadata %"class.testing::internal::FilePath"* %6, metadata !15476, metadata !DIExpression()) #6, !dbg !15640
  call void @llvm.dbg.value(metadata %"class.testing::internal::FilePath"* %6, metadata !15451, metadata !DIExpression()) #6, !dbg !15642
  %39 = load i8*, i8** %14, align 8, !dbg !15644, !tbaa !15544
  call void @llvm.dbg.value(metadata %"class.testing::internal::FilePath"* %6, metadata !15507, metadata !DIExpression()) #6, !dbg !15645
  %40 = icmp eq i8* %39, %16, !dbg !15647
  br i1 %40, label %42, label %41, !dbg !15648

41:                                               ; preds = %35
  call void @llvm.dbg.value(metadata %"class.testing::internal::FilePath"* %6, metadata !15547, metadata !DIExpression()) #6, !dbg !15649
  call void @llvm.dbg.value(metadata i64 undef, metadata !15551, metadata !DIExpression()) #6, !dbg !15649
  call void @llvm.dbg.value(metadata %"class.testing::internal::FilePath"* %6, metadata !15451, metadata !DIExpression()) #6, !dbg !15651
  call void @llvm.dbg.value(metadata %"class.testing::internal::FilePath"* %6, metadata !15556, metadata !DIExpression()) #6, !dbg !15653
  call void @llvm.dbg.value(metadata i8* %39, metadata !15559, metadata !DIExpression()) #6, !dbg !15653
  call void @llvm.dbg.value(metadata i64 undef, metadata !15560, metadata !DIExpression(DW_OP_plus_uconst, 1, DW_OP_stack_value)) #6, !dbg !15653
  call void @llvm.dbg.value(metadata %"class.testing::internal::FilePath"* %6, metadata !15563, metadata !DIExpression()) #6, !dbg !15655
  call void @llvm.dbg.value(metadata i8* %39, metadata !15598, metadata !DIExpression()) #6, !dbg !15655
  call void @llvm.dbg.value(metadata i64 undef, metadata !15599, metadata !DIExpression(DW_OP_plus_uconst, 1, DW_OP_stack_value)) #6, !dbg !15655
  call void @_ZdlPv(i8* %39) #6, !dbg !15657
  br label %42, !dbg !15658

42:                                               ; preds = %41, %35, %31
  %43 = phi i8* [ %33, %31 ], [ %37, %35 ], [ %37, %41 ], !dbg !15633
  %44 = phi i32 [ %34, %31 ], [ %38, %35 ], [ %38, %41 ], !dbg !15633
  call void @llvm.lifetime.end.p0i8(i64 32, i8* nonnull %11) #6, !dbg !15605
  call void @llvm.dbg.value(metadata %"class.testing::internal::FilePath"* %0, metadata !15496, metadata !DIExpression()) #6, !dbg !15659
  call void @llvm.dbg.value(metadata %"class.testing::internal::FilePath"* %0, metadata !15490, metadata !DIExpression()) #6, !dbg !15661
  call void @llvm.dbg.value(metadata %"class.testing::internal::FilePath"* %0, metadata !15484, metadata !DIExpression()) #6, !dbg !15663
  call void @llvm.dbg.value(metadata %"class.testing::internal::FilePath"* %0, metadata !15476, metadata !DIExpression()) #6, !dbg !15665
  call void @llvm.dbg.value(metadata %"class.testing::internal::FilePath"* %0, metadata !15451, metadata !DIExpression()) #6, !dbg !15667
  %45 = load i8*, i8** %18, align 8, !dbg !15669, !tbaa !15544
  call void @llvm.dbg.value(metadata %"class.testing::internal::FilePath"* %0, metadata !15507, metadata !DIExpression()) #6, !dbg !15670
  %46 = icmp eq i8* %45, %10, !dbg !15672
  br i1 %46, label %48, label %47, !dbg !15673

47:                                               ; preds = %42
  call void @llvm.dbg.value(metadata %"class.testing::internal::FilePath"* %0, metadata !15547, metadata !DIExpression()) #6, !dbg !15674
  call void @llvm.dbg.value(metadata i64 undef, metadata !15551, metadata !DIExpression()) #6, !dbg !15674
  call void @llvm.dbg.value(metadata %"class.testing::internal::FilePath"* %0, metadata !15451, metadata !DIExpression()) #6, !dbg !15676
  call void @llvm.dbg.value(metadata %"class.testing::internal::FilePath"* %0, metadata !15556, metadata !DIExpression()) #6, !dbg !15678
  call void @llvm.dbg.value(metadata i8* %45, metadata !15559, metadata !DIExpression()) #6, !dbg !15678
  call void @llvm.dbg.value(metadata i64 undef, metadata !15560, metadata !DIExpression(DW_OP_plus_uconst, 1, DW_OP_stack_value)) #6, !dbg !15678
  call void @llvm.dbg.value(metadata %"class.testing::internal::FilePath"* %0, metadata !15563, metadata !DIExpression()) #6, !dbg !15680
  call void @llvm.dbg.value(metadata i8* %45, metadata !15598, metadata !DIExpression()) #6, !dbg !15680
  call void @llvm.dbg.value(metadata i64 undef, metadata !15599, metadata !DIExpression(DW_OP_plus_uconst, 1, DW_OP_stack_value)) #6, !dbg !15680
  call void @_ZdlPv(i8* %45) #6, !dbg !15682
  br label %48, !dbg !15683

48:                                               ; preds = %47, %42
  %49 = insertvalue { i8*, i32 } undef, i8* %43, 0, !dbg !15684
  %50 = insertvalue { i8*, i32 } %49, i32 %44, 1, !dbg !15684
  resume { i8*, i32 } %50, !dbg !15684

51:                                               ; preds = %27
  ret void, !dbg !15684
}
; Function Attrs: uwtable
declare void @_ZN7testing8internal8FilePath12MakeFileNameERKS1_S3_iPKc(%"class.testing::internal::FilePath"* noalias sret, %"class.testing::internal::FilePath"* dereferenceable(32), %"class.testing::internal::FilePath"* dereferenceable(32), i32, i8*) local_unnamed_addr #3 align 2
; Function Attrs: nounwind
declare i32 @__xstat(i32, i8*, %struct.stat*) local_unnamed_addr #4
declare void @_ZNSt7__cxx1112basic_stringIcSt11char_traitsIcESaIcEE9_M_assignERKS4_(%"class.std::__cxx11::basic_string"*, %"class.std::__cxx11::basic_string"* dereferenceable(32)) local_unnamed_addr #5
; Function Attrs: nounwind readnone speculatable willreturn
declare void @llvm.dbg.value(metadata, metadata, metadata) #0

attributes #0 = { nounwind readnone speculatable willreturn }
attributes #1 = { argmemonly nounwind willreturn }
attributes #2 = { nobuiltin nounwind "correctly-rounded-divide-sqrt-fp-math"="false" "disable-tail-calls"="false" "frame-pointer"="none" "less-precise-fpmad"="false" "no-infs-fp-math"="false" "no-nans-fp-math"="false" "no-signed-zeros-fp-math"="false" "no-trapping-math"="false" "stack-protector-buffer-size"="8" "target-cpu"="x86-64" "target-features"="+cx8,+fxsr,+mmx,+sse,+sse2,+x87" "unsafe-fp-math"="false" "use-soft-float"="false" }
attributes #3 = { uwtable "correctly-rounded-divide-sqrt-fp-math"="false" "disable-tail-calls"="false" "frame-pointer"="none" "less-precise-fpmad"="false" "min-legal-vector-width"="0" "no-infs-fp-math"="false" "no-jump-tables"="false" "no-nans-fp-math"="false" "no-signed-zeros-fp-math"="false" "no-trapping-math"="false" "stack-protector-buffer-size"="8" "target-cpu"="x86-64" "target-features"="+cx8,+fxsr,+mmx,+sse,+sse2,+x87" "unsafe-fp-math"="false" "use-soft-float"="false" }
attributes #4 = { nounwind "correctly-rounded-divide-sqrt-fp-math"="false" "disable-tail-calls"="false" "frame-pointer"="none" "less-precise-fpmad"="false" "no-infs-fp-math"="false" "no-nans-fp-math"="false" "no-signed-zeros-fp-math"="false" "no-trapping-math"="false" "stack-protector-buffer-size"="8" "target-cpu"="x86-64" "target-features"="+cx8,+fxsr,+mmx,+sse,+sse2,+x87" "unsafe-fp-math"="false" "use-soft-float"="false" }
attributes #5 = { "correctly-rounded-divide-sqrt-fp-math"="false" "disable-tail-calls"="false" "frame-pointer"="none" "less-precise-fpmad"="false" "no-infs-fp-math"="false" "no-nans-fp-math"="false" "no-signed-zeros-fp-math"="false" "no-trapping-math"="false" "stack-protector-buffer-size"="8" "target-cpu"="x86-64" "target-features"="+cx8,+fxsr,+mmx,+sse,+sse2,+x87" "unsafe-fp-math"="false" "use-soft-float"="false" }
attributes #6 = { nounwind }

!llvm.dbg.cu = !{!0}
!llvm.module.flags = !{!15267, !15268, !15269, !15270}
!llvm.ident = !{!15271}

!0 = distinct !DICompileUnit(language: DW_LANG_C_plus_plus_14, file: !1, producer: "clang version 11.0.0 (git@github.com:llvm/llvm-project 75188b01e9af3a89639d84be912f84610d6885ba)", isOptimized: true, runtimeVersion: 0, emissionKind: FullDebug, enums: !2, retainedTypes: !5860, globals: !13482, imports: !13510, splitDebugInlining: false, nameTableKind: None)
!1 = !DIFile(filename: "/fast/fs/llvm-project/llvm/utils/unittest/googletest/src/gtest-all.cc", directory: "/fast/fs/llvm-project")
!2 = !{!3, !13, !13, !63, !661, !667, !674, !682, !687, !694, !706, !5794, !5081, !5068, !5802, !5814, !5837, !5841, !5850, !5854}
!3 = !DICompositeType(tag: DW_TAG_enumeration_type, name: "GTestLogSeverity", scope: !5, file: !4, line: 1253, baseType: !7, size: 32, elements: !8, identifier: "_ZTSN7testing8internal16GTestLogSeverityE")
!4 = !DIFile(filename: "llvm/utils/unittest/googletest/include/gtest/internal/gtest-port.h", directory: "/fast/fs/llvm-project")
!5 = !DINamespace(name: "internal", scope: !6)
!6 = !DINamespace(name: "testing", scope: null)
!7 = !DIBasicType(name: "unsigned int", size: 32, encoding: DW_ATE_unsigned)
!8 = !{!9, !10, !11, !12}
!9 = !DIEnumerator(name: "GTEST_INFO", value: 0, isUnsigned: true)
!10 = !DIEnumerator(name: "GTEST_WARNING", value: 1, isUnsigned: true)
!11 = !DIEnumerator(name: "GTEST_ERROR", value: 2, isUnsigned: true)
!12 = !DIEnumerator(name: "GTEST_FATAL", value: 3, isUnsigned: true)
!13 = !DICompositeType(tag: DW_TAG_enumeration_type, name: "Type", scope: !15, file: !14, line: 51, baseType: !7, size: 32, elements: !59, identifier: "_ZTSN7testing14TestPartResult4TypeE")
!14 = !DIFile(filename: "llvm/utils/unittest/googletest/include/gtest/gtest-test-part.h", directory: "/fast/fs/llvm-project")
!15 = distinct !DICompositeType(tag: DW_TAG_class_type, name: "TestPartResult", scope: !6, file: !14, line: 47, size: 896, flags: DIFlagTypePassByReference | DIFlagNonTrivial, elements: !16, identifier: "_ZTSN7testing14TestPartResultE")
!16 = !{!17, !18, !25, !27, !28, !29, !36, !41, !44, !47, !48, !49, !53, !54, !55, !56}
!17 = !DIDerivedType(tag: DW_TAG_member, name: "type_", scope: !15, file: !14, line: 103, baseType: !13, size: 32)
!18 = !DIDerivedType(tag: DW_TAG_member, name: "file_name_", scope: !15, file: !14, line: 111, baseType: !19, size: 256, offset: 64)
!19 = !DIDerivedType(tag: DW_TAG_typedef, name: "string", scope: !21, file: !20, line: 74, baseType: !23)
!20 = !DIFile(filename: "/usr/lib/gcc/x86_64-linux-gnu/7.4.0/../../../../include/c++/7.4.0/bits/stringfwd.h", directory: "")
!21 = !DINamespace(name: "__cxx11", scope: !22, exportSymbols: true)
!22 = !DINamespace(name: "std", scope: null)
!23 = !DICompositeType(tag: DW_TAG_class_type, name: "basic_string<char, std::char_traits<char>, std::allocator<char> >", scope: !21, file: !24, line: 1607, flags: DIFlagFwdDecl, identifier: "_ZTSNSt7__cxx1112basic_stringIcSt11char_traitsIcESaIcEEE")
!24 = !DIFile(filename: "/usr/lib/gcc/x86_64-linux-gnu/7.4.0/../../../../include/c++/7.4.0/bits/basic_string.tcc", directory: "")
!25 = !DIDerivedType(tag: DW_TAG_member, name: "line_number_", scope: !15, file: !14, line: 114, baseType: !26, size: 32, offset: 320)
!26 = !DIBasicType(name: "int", size: 32, encoding: DW_ATE_signed)
!27 = !DIDerivedType(tag: DW_TAG_member, name: "summary_", scope: !15, file: !14, line: 115, baseType: !19, size: 256, offset: 384)
!28 = !DIDerivedType(tag: DW_TAG_member, name: "message_", scope: !15, file: !14, line: 116, baseType: !19, size: 256, offset: 640)
!29 = !DISubprogram(name: "TestPartResult", scope: !15, file: !14, line: 60, type: !30, scopeLine: 60, flags: DIFlagPublic | DIFlagPrototyped, spFlags: DISPFlagOptimized)
!30 = !DISubroutineType(types: !31)
!31 = !{null, !32, !13, !33, !26, !33}
!32 = !DIDerivedType(tag: DW_TAG_pointer_type, baseType: !15, size: 64, flags: DIFlagArtificial | DIFlagObjectPointer)
!33 = !DIDerivedType(tag: DW_TAG_pointer_type, baseType: !34, size: 64)
!34 = !DIDerivedType(tag: DW_TAG_const_type, baseType: !35)
!35 = !DIBasicType(name: "char", size: 8, encoding: DW_ATE_signed_char)
!36 = !DISubprogram(name: "type", linkageName: "_ZNK7testing14TestPartResult4typeEv", scope: !15, file: !14, line: 72, type: !37, scopeLine: 72, flags: DIFlagPublic | DIFlagPrototyped, spFlags: DISPFlagOptimized)
!37 = !DISubroutineType(types: !38)
!38 = !{!13, !39}
!39 = !DIDerivedType(tag: DW_TAG_pointer_type, baseType: !40, size: 64, flags: DIFlagArtificial | DIFlagObjectPointer)
!40 = !DIDerivedType(tag: DW_TAG_const_type, baseType: !15)
!41 = !DISubprogram(name: "file_name", linkageName: "_ZNK7testing14TestPartResult9file_nameEv", scope: !15, file: !14, line: 76, type: !42, scopeLine: 76, flags: DIFlagPublic | DIFlagPrototyped, spFlags: DISPFlagOptimized)
!42 = !DISubroutineType(types: !43)
!43 = !{!33, !39}
!44 = !DISubprogram(name: "line_number", linkageName: "_ZNK7testing14TestPartResult11line_numberEv", scope: !15, file: !14, line: 82, type: !45, scopeLine: 82, flags: DIFlagPublic | DIFlagPrototyped, spFlags: DISPFlagOptimized)
!45 = !DISubroutineType(types: !46)
!46 = !{!26, !39}
!47 = !DISubprogram(name: "summary", linkageName: "_ZNK7testing14TestPartResult7summaryEv", scope: !15, file: !14, line: 85, type: !42, scopeLine: 85, flags: DIFlagPublic | DIFlagPrototyped, spFlags: DISPFlagOptimized)
!48 = !DISubprogram(name: "message", linkageName: "_ZNK7testing14TestPartResult7messageEv", scope: !15, file: !14, line: 88, type: !42, scopeLine: 88, flags: DIFlagPublic | DIFlagPrototyped, spFlags: DISPFlagOptimized)
!49 = !DISubprogram(name: "passed", linkageName: "_ZNK7testing14TestPartResult6passedEv", scope: !15, file: !14, line: 91, type: !50, scopeLine: 91, flags: DIFlagPublic | DIFlagPrototyped, spFlags: DISPFlagOptimized)
!50 = !DISubroutineType(types: !51)
!51 = !{!52, !39}
!52 = !DIBasicType(name: "bool", size: 8, encoding: DW_ATE_boolean)
!53 = !DISubprogram(name: "failed", linkageName: "_ZNK7testing14TestPartResult6failedEv", scope: !15, file: !14, line: 94, type: !50, scopeLine: 94, flags: DIFlagPublic | DIFlagPrototyped, spFlags: DISPFlagOptimized)
!54 = !DISubprogram(name: "nonfatally_failed", linkageName: "_ZNK7testing14TestPartResult17nonfatally_failedEv", scope: !15, file: !14, line: 97, type: !50, scopeLine: 97, flags: DIFlagPublic | DIFlagPrototyped, spFlags: DISPFlagOptimized)
!55 = !DISubprogram(name: "fatally_failed", linkageName: "_ZNK7testing14TestPartResult14fatally_failedEv", scope: !15, file: !14, line: 100, type: !50, scopeLine: 100, flags: DIFlagPublic | DIFlagPrototyped, spFlags: DISPFlagOptimized)
!56 = !DISubprogram(name: "ExtractSummary", linkageName: "_ZN7testing14TestPartResult14ExtractSummaryB5cxx11EPKc", scope: !15, file: !14, line: 107, type: !57, scopeLine: 107, flags: DIFlagPrototyped | DIFlagStaticMember, spFlags: DISPFlagOptimized)
!57 = !DISubroutineType(types: !58)
!58 = !{!19, !33}
!59 = !{!60, !61, !62}
!60 = !DIEnumerator(name: "kSuccess", value: 0, isUnsigned: true)
!61 = !DIEnumerator(name: "kNonFatalFailure", value: 1, isUnsigned: true)
!62 = !DIEnumerator(name: "kFatalFailure", value: 2, isUnsigned: true)
!63 = !DICompositeType(tag: DW_TAG_enumeration_type, name: "InterceptMode", scope: !65, file: !64, line: 55, baseType: !7, size: 32, elements: !658, identifier: "_ZTSN7testing32ScopedFakeTestPartResultReporter13InterceptModeE")
!64 = !DIFile(filename: "llvm/utils/unittest/googletest/include/gtest/gtest-spi.h", directory: "/fast/fs/llvm-project")
!65 = distinct !DICompositeType(tag: DW_TAG_class_type, name: "ScopedFakeTestPartResultReporter", scope: !6, file: !64, line: 51, size: 256, flags: DIFlagTypePassByReference | DIFlagNonTrivial, elements: !66, vtableHolder: !68)
!66 = !{!67, !83, !85, !87, !638, !642, !645, !648, !651, !652, !657}
!67 = !DIDerivedType(tag: DW_TAG_inheritance, scope: !65, baseType: !68, flags: DIFlagPublic, extraData: i32 0)
!68 = distinct !DICompositeType(tag: DW_TAG_class_type, name: "TestPartResultReporterInterface", scope: !6, file: !14, line: 146, size: 64, flags: DIFlagTypePassByReference | DIFlagNonTrivial, elements: !69, vtableHolder: !68, identifier: "_ZTSN7testing31TestPartResultReporterInterfaceE")
!69 = !{!70, !75, !79}
!70 = !DIDerivedType(tag: DW_TAG_member, name: "_vptr$TestPartResultReporterInterface", scope: !14, file: !14, baseType: !71, size: 64, flags: DIFlagArtificial)
!71 = !DIDerivedType(tag: DW_TAG_pointer_type, baseType: !72, size: 64)
!72 = !DIDerivedType(tag: DW_TAG_pointer_type, name: "__vtbl_ptr_type", baseType: !73, size: 64)
!73 = !DISubroutineType(types: !74)
!74 = !{!26}
!75 = !DISubprogram(name: "~TestPartResultReporterInterface", scope: !68, file: !14, line: 148, type: !76, scopeLine: 148, containingType: !68, virtualIndex: 0, flags: DIFlagPublic | DIFlagPrototyped, spFlags: DISPFlagVirtual | DISPFlagOptimized)
!76 = !DISubroutineType(types: !77)
!77 = !{null, !78}
!78 = !DIDerivedType(tag: DW_TAG_pointer_type, baseType: !68, size: 64, flags: DIFlagArtificial | DIFlagObjectPointer)
!79 = !DISubprogram(name: "ReportTestPartResult", linkageName: "_ZN7testing31TestPartResultReporterInterface20ReportTestPartResultERKNS_14TestPartResultE", scope: !68, file: !14, line: 150, type: !80, scopeLine: 150, containingType: !68, virtualIndex: 2, flags: DIFlagPublic | DIFlagPrototyped, spFlags: DISPFlagPureVirtual | DISPFlagOptimized)
!80 = !DISubroutineType(types: !81)
!81 = !{null, !78, !82}
!82 = !DIDerivedType(tag: DW_TAG_reference_type, baseType: !40, size: 64)
!83 = !DIDerivedType(tag: DW_TAG_member, name: "intercept_mode_", scope: !65, file: !64, line: 82, baseType: !84, size: 32, offset: 64)
!84 = !DIDerivedType(tag: DW_TAG_const_type, baseType: !63)
!85 = !DIDerivedType(tag: DW_TAG_member, name: "old_reporter_", scope: !65, file: !64, line: 83, baseType: !86, size: 64, offset: 128)
!86 = !DIDerivedType(tag: DW_TAG_pointer_type, baseType: !68, size: 64)
!87 = !DIDerivedType(tag: DW_TAG_member, name: "result_", scope: !65, file: !64, line: 84, baseType: !88, size: 64, offset: 192)
!88 = !DIDerivedType(tag: DW_TAG_const_type, baseType: !89)
!89 = !DIDerivedType(tag: DW_TAG_pointer_type, baseType: !90, size: 64)
!90 = distinct !DICompositeType(tag: DW_TAG_class_type, name: "TestPartResultArray", scope: !6, file: !14, line: 126, size: 192, flags: DIFlagTypePassByReference | DIFlagNonTrivial, elements: !91, identifier: "_ZTSN7testing19TestPartResultArrayE")
!91 = !{!92, !618, !622, !625, !630, !633, !637}
!92 = !DIDerivedType(tag: DW_TAG_member, name: "array_", scope: !90, file: !14, line: 140, baseType: !93, size: 192)
!93 = distinct !DICompositeType(tag: DW_TAG_class_type, name: "vector<testing::TestPartResult, std::allocator<testing::TestPartResult> >", scope: !22, file: !94, line: 216, size: 192, flags: DIFlagTypePassByReference | DIFlagNonTrivial, elements: !95, templateParams: !283, identifier: "_ZTSSt6vectorIN7testing14TestPartResultESaIS1_EE")
!94 = !DIFile(filename: "/usr/lib/gcc/x86_64-linux-gnu/7.4.0/../../../../include/c++/7.4.0/bits/stl_vector.h", directory: "")
!95 = !{!96, !284, !288, !294, !298, !304, !309, !313, !316, !319, !324, !325, !329, !332, !335, !338, !341, !403, !461, !462, !463, !468, !473, !474, !475, !476, !477, !478, !479, !482, !483, !486, !487, !488, !489, !492, !493, !501, !508, !511, !512, !513, !516, !519, !520, !521, !524, !527, !530, !534, !535, !538, !541, !544, !547, !550, !553, !556, !557, !558, !559, !560, !563, !564, !567, !568, !569, !573, !577, !580, !583, !602}
!96 = !DIDerivedType(tag: DW_TAG_inheritance, scope: !93, baseType: !97, flags: DIFlagProtected, extraData: i32 0)
!97 = distinct !DICompositeType(tag: DW_TAG_structure_type, name: "_Vector_base<testing::TestPartResult, std::allocator<testing::TestPartResult> >", scope: !22, file: !94, line: 74, size: 192, flags: DIFlagTypePassByReference | DIFlagNonTrivial, elements: !98, templateParams: !283, identifier: "_ZTSSt12_Vector_baseIN7testing14TestPartResultESaIS1_EE")
!98 = !{!99, !237, !242, !247, !251, !254, !259, !262, !265, !268, !272, !275, !276, !279, !282}
!99 = !DIDerivedType(tag: DW_TAG_member, name: "_M_impl", scope: !97, file: !94, line: 166, baseType: !100, size: 192)
!100 = distinct !DICompositeType(tag: DW_TAG_structure_type, name: "_Vector_impl", scope: !97, file: !94, line: 81, size: 192, flags: DIFlagTypePassByReference | DIFlagNonTrivial, elements: !101, identifier: "_ZTSNSt12_Vector_baseIN7testing14TestPartResultESaIS1_EE12_Vector_implE")
!101 = !{!102, !215, !218, !219, !220, !224, !229, !233}
!102 = !DIDerivedType(tag: DW_TAG_inheritance, scope: !100, baseType: !103, extraData: i32 0)
!103 = !DIDerivedType(tag: DW_TAG_typedef, name: "_Tp_alloc_type", scope: !97, file: !94, line: 77, baseType: !104)
!104 = !DIDerivedType(tag: DW_TAG_typedef, name: "other", scope: !106, file: !105, line: 117, baseType: !214)
!105 = !DIFile(filename: "/usr/lib/gcc/x86_64-linux-gnu/7.4.0/../../../../include/c++/7.4.0/ext/alloc_traits.h", directory: "")
!106 = distinct !DICompositeType(tag: DW_TAG_structure_type, name: "rebind<testing::TestPartResult>", scope: !107, file: !105, line: 116, size: 8, flags: DIFlagTypePassByValue, elements: !213, templateParams: !168, identifier: "_ZTSN9__gnu_cxx14__alloc_traitsISaIN7testing14TestPartResultEEE6rebindIS2_EE")
!107 = distinct !DICompositeType(tag: DW_TAG_structure_type, name: "__alloc_traits<std::allocator<testing::TestPartResult> >", scope: !108, file: !105, line: 50, size: 8, flags: DIFlagTypePassByValue, elements: !109, templateParams: !197, identifier: "_ZTSN9__gnu_cxx14__alloc_traitsISaIN7testing14TestPartResultEEEE")
!108 = !DINamespace(name: "__gnu_cxx", scope: null)
!109 = !{!110, !199, !202, !206, !209, !210, !211, !212}
!110 = !DIDerivedType(tag: DW_TAG_inheritance, scope: !107, baseType: !111, extraData: i32 0)
!111 = distinct !DICompositeType(tag: DW_TAG_structure_type, name: "allocator_traits<std::allocator<testing::TestPartResult> >", scope: !22, file: !112, line: 384, size: 8, flags: DIFlagTypePassByValue, elements: !113, templateParams: !197, identifier: "_ZTSSt16allocator_traitsISaIN7testing14TestPartResultEEE")
!112 = !DIFile(filename: "/usr/lib/gcc/x86_64-linux-gnu/7.4.0/../../../../include/c++/7.4.0/bits/alloc_traits.h", directory: "")
!113 = !{!114, !181, !185, !188, !194}
!114 = !DISubprogram(name: "allocate", linkageName: "_ZNSt16allocator_traitsISaIN7testing14TestPartResultEEE8allocateERS2_m", scope: !111, file: !112, line: 435, type: !115, scopeLine: 435, flags: DIFlagPrototyped | DIFlagStaticMember, spFlags: DISPFlagOptimized)
!115 = !DISubroutineType(types: !116)
!116 = !{!117, !119, !180}
!117 = !DIDerivedType(tag: DW_TAG_typedef, name: "pointer", scope: !111, file: !112, line: 392, baseType: !118)
!118 = !DIDerivedType(tag: DW_TAG_pointer_type, baseType: !15, size: 64)
!119 = !DIDerivedType(tag: DW_TAG_reference_type, baseType: !120, size: 64)
!120 = !DIDerivedType(tag: DW_TAG_typedef, name: "allocator_type", scope: !111, file: !112, line: 387, baseType: !121)
!121 = distinct !DICompositeType(tag: DW_TAG_class_type, name: "allocator<testing::TestPartResult>", scope: !22, file: !122, line: 108, size: 8, flags: DIFlagTypePassByReference | DIFlagNonTrivial, elements: !123, templateParams: !168, identifier: "_ZTSSaIN7testing14TestPartResultEE")
!122 = !DIFile(filename: "/usr/lib/gcc/x86_64-linux-gnu/7.4.0/../../../../include/c++/7.4.0/bits/allocator.h", directory: "")
!123 = !{!124, !170, !174, !179}
!124 = !DIDerivedType(tag: DW_TAG_inheritance, scope: !121, baseType: !125, flags: DIFlagPublic, extraData: i32 0)
!125 = !DIDerivedType(tag: DW_TAG_typedef, name: "__allocator_base<testing::TestPartResult>", scope: !22, file: !126, line: 48, baseType: !127)
!126 = !DIFile(filename: "/usr/lib/gcc/x86_64-linux-gnu/7.4.0/../../../../include/x86_64-linux-gnu/c++/7.4.0/bits/c++allocator.h", directory: "")
!127 = distinct !DICompositeType(tag: DW_TAG_class_type, name: "new_allocator<testing::TestPartResult>", scope: !108, file: !128, line: 58, size: 8, flags: DIFlagTypePassByReference | DIFlagNonTrivial, elements: !129, templateParams: !168, identifier: "_ZTSN9__gnu_cxx13new_allocatorIN7testing14TestPartResultEEE")
!128 = !DIFile(filename: "/usr/lib/gcc/x86_64-linux-gnu/7.4.0/../../../../include/c++/7.4.0/ext/new_allocator.h", directory: "")
!129 = !{!130, !134, !139, !140, !147, !153, !162, !165}
!130 = !DISubprogram(name: "new_allocator", scope: !127, file: !128, line: 79, type: !131, scopeLine: 79, flags: DIFlagPublic | DIFlagPrototyped, spFlags: DISPFlagOptimized)
!131 = !DISubroutineType(types: !132)
!132 = !{null, !133}
!133 = !DIDerivedType(tag: DW_TAG_pointer_type, baseType: !127, size: 64, flags: DIFlagArtificial | DIFlagObjectPointer)
!134 = !DISubprogram(name: "new_allocator", scope: !127, file: !128, line: 81, type: !135, scopeLine: 81, flags: DIFlagPublic | DIFlagPrototyped, spFlags: DISPFlagOptimized)
!135 = !DISubroutineType(types: !136)
!136 = !{null, !133, !137}
!137 = !DIDerivedType(tag: DW_TAG_reference_type, baseType: !138, size: 64)
!138 = !DIDerivedType(tag: DW_TAG_const_type, baseType: !127)
!139 = !DISubprogram(name: "~new_allocator", scope: !127, file: !128, line: 86, type: !131, scopeLine: 86, flags: DIFlagPublic | DIFlagPrototyped, spFlags: DISPFlagOptimized)
!140 = !DISubprogram(name: "address", linkageName: "_ZNK9__gnu_cxx13new_allocatorIN7testing14TestPartResultEE7addressERS2_", scope: !127, file: !128, line: 89, type: !141, scopeLine: 89, flags: DIFlagPublic | DIFlagPrototyped, spFlags: DISPFlagOptimized)
!141 = !DISubroutineType(types: !142)
!142 = !{!143, !144, !145}
!143 = !DIDerivedType(tag: DW_TAG_typedef, name: "pointer", scope: !127, file: !128, line: 63, baseType: !118)
!144 = !DIDerivedType(tag: DW_TAG_pointer_type, baseType: !138, size: 64, flags: DIFlagArtificial | DIFlagObjectPointer)
!145 = !DIDerivedType(tag: DW_TAG_typedef, name: "reference", scope: !127, file: !128, line: 65, baseType: !146)
!146 = !DIDerivedType(tag: DW_TAG_reference_type, baseType: !15, size: 64)
!147 = !DISubprogram(name: "address", linkageName: "_ZNK9__gnu_cxx13new_allocatorIN7testing14TestPartResultEE7addressERKS2_", scope: !127, file: !128, line: 93, type: !148, scopeLine: 93, flags: DIFlagPublic | DIFlagPrototyped, spFlags: DISPFlagOptimized)
!148 = !DISubroutineType(types: !149)
!149 = !{!150, !144, !152}
!150 = !DIDerivedType(tag: DW_TAG_typedef, name: "const_pointer", scope: !127, file: !128, line: 64, baseType: !151)
!151 = !DIDerivedType(tag: DW_TAG_pointer_type, baseType: !40, size: 64)
!152 = !DIDerivedType(tag: DW_TAG_typedef, name: "const_reference", scope: !127, file: !128, line: 66, baseType: !82)
!153 = !DISubprogram(name: "allocate", linkageName: "_ZN9__gnu_cxx13new_allocatorIN7testing14TestPartResultEE8allocateEmPKv", scope: !127, file: !128, line: 99, type: !154, scopeLine: 99, flags: DIFlagPublic | DIFlagPrototyped, spFlags: DISPFlagOptimized)
!154 = !DISubroutineType(types: !155)
!155 = !{!143, !133, !156, !160}
!156 = !DIDerivedType(tag: DW_TAG_typedef, name: "size_type", file: !128, line: 61, baseType: !157)
!157 = !DIDerivedType(tag: DW_TAG_typedef, name: "size_t", scope: !22, file: !158, line: 231, baseType: !159)
!158 = !DIFile(filename: "/usr/lib/gcc/x86_64-linux-gnu/7.4.0/../../../../include/x86_64-linux-gnu/c++/7.4.0/bits/c++config.h", directory: "")
!159 = !DIBasicType(name: "long unsigned int", size: 64, encoding: DW_ATE_unsigned)
!160 = !DIDerivedType(tag: DW_TAG_pointer_type, baseType: !161, size: 64)
!161 = !DIDerivedType(tag: DW_TAG_const_type, baseType: null)
!162 = !DISubprogram(name: "deallocate", linkageName: "_ZN9__gnu_cxx13new_allocatorIN7testing14TestPartResultEE10deallocateEPS2_m", scope: !127, file: !128, line: 116, type: !163, scopeLine: 116, flags: DIFlagPublic | DIFlagPrototyped, spFlags: DISPFlagOptimized)
!163 = !DISubroutineType(types: !164)
!164 = !{null, !133, !143, !156}
!165 = !DISubprogram(name: "max_size", linkageName: "_ZNK9__gnu_cxx13new_allocatorIN7testing14TestPartResultEE8max_sizeEv", scope: !127, file: !128, line: 129, type: !166, scopeLine: 129, flags: DIFlagPublic | DIFlagPrototyped, spFlags: DISPFlagOptimized)
!166 = !DISubroutineType(types: !167)
!167 = !{!156, !144}
!168 = !{!169}
!169 = !DITemplateTypeParameter(name: "_Tp", type: !15)
!170 = !DISubprogram(name: "allocator", scope: !121, file: !122, line: 131, type: !171, scopeLine: 131, flags: DIFlagPublic | DIFlagPrototyped, spFlags: DISPFlagOptimized)
!171 = !DISubroutineType(types: !172)
!172 = !{null, !173}
!173 = !DIDerivedType(tag: DW_TAG_pointer_type, baseType: !121, size: 64, flags: DIFlagArtificial | DIFlagObjectPointer)
!174 = !DISubprogram(name: "allocator", scope: !121, file: !122, line: 133, type: !175, scopeLine: 133, flags: DIFlagPublic | DIFlagPrototyped, spFlags: DISPFlagOptimized)
!175 = !DISubroutineType(types: !176)
!176 = !{null, !173, !177}
!177 = !DIDerivedType(tag: DW_TAG_reference_type, baseType: !178, size: 64)
!178 = !DIDerivedType(tag: DW_TAG_const_type, baseType: !121)
!179 = !DISubprogram(name: "~allocator", scope: !121, file: !122, line: 139, type: !171, scopeLine: 139, flags: DIFlagPublic | DIFlagPrototyped, spFlags: DISPFlagOptimized)
!180 = !DIDerivedType(tag: DW_TAG_typedef, name: "size_type", file: !112, line: 407, baseType: !157)
!181 = !DISubprogram(name: "allocate", linkageName: "_ZNSt16allocator_traitsISaIN7testing14TestPartResultEEE8allocateERS2_mPKv", scope: !111, file: !112, line: 449, type: !182, scopeLine: 449, flags: DIFlagPrototyped | DIFlagStaticMember, spFlags: DISPFlagOptimized)
!182 = !DISubroutineType(types: !183)
!183 = !{!117, !119, !180, !184}
!184 = !DIDerivedType(tag: DW_TAG_typedef, name: "const_void_pointer", file: !112, line: 401, baseType: !160)
!185 = !DISubprogram(name: "deallocate", linkageName: "_ZNSt16allocator_traitsISaIN7testing14TestPartResultEEE10deallocateERS2_PS1_m", scope: !111, file: !112, line: 461, type: !186, scopeLine: 461, flags: DIFlagPrototyped | DIFlagStaticMember, spFlags: DISPFlagOptimized)
!186 = !DISubroutineType(types: !187)
!187 = !{null, !119, !117, !180}
!188 = !DISubprogram(name: "max_size", linkageName: "_ZNSt16allocator_traitsISaIN7testing14TestPartResultEEE8max_sizeERKS2_", scope: !111, file: !112, line: 495, type: !189, scopeLine: 495, flags: DIFlagPrototyped | DIFlagStaticMember, spFlags: DISPFlagOptimized)
!189 = !DISubroutineType(types: !190)
!190 = !{!191, !192}
!191 = !DIDerivedType(tag: DW_TAG_typedef, name: "size_type", scope: !111, file: !112, line: 407, baseType: !157)
!192 = !DIDerivedType(tag: DW_TAG_reference_type, baseType: !193, size: 64)
!193 = !DIDerivedType(tag: DW_TAG_const_type, baseType: !120)
!194 = !DISubprogram(name: "select_on_container_copy_construction", linkageName: "_ZNSt16allocator_traitsISaIN7testing14TestPartResultEEE37select_on_container_copy_constructionERKS2_", scope: !111, file: !112, line: 504, type: !195, scopeLine: 504, flags: DIFlagPrototyped | DIFlagStaticMember, spFlags: DISPFlagOptimized)
!195 = !DISubroutineType(types: !196)
!196 = !{!120, !192}
!197 = !{!198}
!198 = !DITemplateTypeParameter(name: "_Alloc", type: !121)
!199 = !DISubprogram(name: "_S_select_on_copy", linkageName: "_ZN9__gnu_cxx14__alloc_traitsISaIN7testing14TestPartResultEEE17_S_select_on_copyERKS3_", scope: !107, file: !105, line: 94, type: !200, scopeLine: 94, flags: DIFlagPrototyped | DIFlagStaticMember, spFlags: DISPFlagOptimized)
!200 = !DISubroutineType(types: !201)
!201 = !{!121, !177}
!202 = !DISubprogram(name: "_S_on_swap", linkageName: "_ZN9__gnu_cxx14__alloc_traitsISaIN7testing14TestPartResultEEE10_S_on_swapERS3_S5_", scope: !107, file: !105, line: 97, type: !203, scopeLine: 97, flags: DIFlagPrototyped | DIFlagStaticMember, spFlags: DISPFlagOptimized)
!203 = !DISubroutineType(types: !204)
!204 = !{null, !205, !205}
!205 = !DIDerivedType(tag: DW_TAG_reference_type, baseType: !121, size: 64)
!206 = !DISubprogram(name: "_S_propagate_on_copy_assign", linkageName: "_ZN9__gnu_cxx14__alloc_traitsISaIN7testing14TestPartResultEEE27_S_propagate_on_copy_assignEv", scope: !107, file: !105, line: 100, type: !207, scopeLine: 100, flags: DIFlagPrototyped | DIFlagStaticMember, spFlags: DISPFlagOptimized)
!207 = !DISubroutineType(types: !208)
!208 = !{!52}
!209 = !DISubprogram(name: "_S_propagate_on_move_assign", linkageName: "_ZN9__gnu_cxx14__alloc_traitsISaIN7testing14TestPartResultEEE27_S_propagate_on_move_assignEv", scope: !107, file: !105, line: 103, type: !207, scopeLine: 103, flags: DIFlagPrototyped | DIFlagStaticMember, spFlags: DISPFlagOptimized)
!210 = !DISubprogram(name: "_S_propagate_on_swap", linkageName: "_ZN9__gnu_cxx14__alloc_traitsISaIN7testing14TestPartResultEEE20_S_propagate_on_swapEv", scope: !107, file: !105, line: 106, type: !207, scopeLine: 106, flags: DIFlagPrototyped | DIFlagStaticMember, spFlags: DISPFlagOptimized)
!211 = !DISubprogram(name: "_S_always_equal", linkageName: "_ZN9__gnu_cxx14__alloc_traitsISaIN7testing14TestPartResultEEE15_S_always_equalEv", scope: !107, file: !105, line: 109, type: !207, scopeLine: 109, flags: DIFlagPrototyped | DIFlagStaticMember, spFlags: DISPFlagOptimized)
!212 = !DISubprogram(name: "_S_nothrow_move", linkageName: "_ZN9__gnu_cxx14__alloc_traitsISaIN7testing14TestPartResultEEE15_S_nothrow_moveEv", scope: !107, file: !105, line: 112, type: !207, scopeLine: 112, flags: DIFlagPrototyped | DIFlagStaticMember, spFlags: DISPFlagOptimized)
!213 = !{}
!214 = !DIDerivedType(tag: DW_TAG_typedef, name: "rebind_alloc<testing::TestPartResult>", scope: !111, file: !112, line: 422, baseType: !121)
!215 = !DIDerivedType(tag: DW_TAG_member, name: "_M_start", scope: !100, file: !94, line: 84, baseType: !216, size: 64)
!216 = !DIDerivedType(tag: DW_TAG_typedef, name: "pointer", scope: !97, file: !94, line: 79, baseType: !217)
!217 = !DIDerivedType(tag: DW_TAG_typedef, name: "pointer", scope: !107, file: !105, line: 59, baseType: !117)
!218 = !DIDerivedType(tag: DW_TAG_member, name: "_M_finish", scope: !100, file: !94, line: 85, baseType: !216, size: 64, offset: 64)
!219 = !DIDerivedType(tag: DW_TAG_member, name: "_M_end_of_storage", scope: !100, file: !94, line: 86, baseType: !216, size: 64, offset: 128)
!220 = !DISubprogram(name: "_Vector_impl", scope: !100, file: !94, line: 88, type: !221, scopeLine: 88, flags: DIFlagPrototyped, spFlags: DISPFlagOptimized)
!221 = !DISubroutineType(types: !222)
!222 = !{null, !223}
!223 = !DIDerivedType(tag: DW_TAG_pointer_type, baseType: !100, size: 64, flags: DIFlagArtificial | DIFlagObjectPointer)
!224 = !DISubprogram(name: "_Vector_impl", scope: !100, file: !94, line: 92, type: !225, scopeLine: 92, flags: DIFlagPrototyped, spFlags: DISPFlagOptimized)
!225 = !DISubroutineType(types: !226)
!226 = !{null, !223, !227}
!227 = !DIDerivedType(tag: DW_TAG_reference_type, baseType: !228, size: 64)
!228 = !DIDerivedType(tag: DW_TAG_const_type, baseType: !103)
!229 = !DISubprogram(name: "_Vector_impl", scope: !100, file: !94, line: 97, type: !230, scopeLine: 97, flags: DIFlagPrototyped, spFlags: DISPFlagOptimized)
!230 = !DISubroutineType(types: !231)
!231 = !{null, !223, !232}
!232 = !DIDerivedType(tag: DW_TAG_rvalue_reference_type, baseType: !103, size: 64)
!233 = !DISubprogram(name: "_M_swap_data", linkageName: "_ZNSt12_Vector_baseIN7testing14TestPartResultESaIS1_EE12_Vector_impl12_M_swap_dataERS4_", scope: !100, file: !94, line: 103, type: !234, scopeLine: 103, flags: DIFlagPrototyped, spFlags: DISPFlagOptimized)
!234 = !DISubroutineType(types: !235)
!235 = !{null, !223, !236}
!236 = !DIDerivedType(tag: DW_TAG_reference_type, baseType: !100, size: 64)
!237 = !DISubprogram(name: "_M_get_Tp_allocator", linkageName: "_ZNSt12_Vector_baseIN7testing14TestPartResultESaIS1_EE19_M_get_Tp_allocatorEv", scope: !97, file: !94, line: 115, type: !238, scopeLine: 115, flags: DIFlagPrototyped, spFlags: DISPFlagOptimized)
!238 = !DISubroutineType(types: !239)
!239 = !{!240, !241}
!240 = !DIDerivedType(tag: DW_TAG_reference_type, baseType: !103, size: 64)
!241 = !DIDerivedType(tag: DW_TAG_pointer_type, baseType: !97, size: 64, flags: DIFlagArtificial | DIFlagObjectPointer)
!242 = !DISubprogram(name: "_M_get_Tp_allocator", linkageName: "_ZNKSt12_Vector_baseIN7testing14TestPartResultESaIS1_EE19_M_get_Tp_allocatorEv", scope: !97, file: !94, line: 119, type: !243, scopeLine: 119, flags: DIFlagPrototyped, spFlags: DISPFlagOptimized)
!243 = !DISubroutineType(types: !244)
!244 = !{!227, !245}
!245 = !DIDerivedType(tag: DW_TAG_pointer_type, baseType: !246, size: 64, flags: DIFlagArtificial | DIFlagObjectPointer)
!246 = !DIDerivedType(tag: DW_TAG_const_type, baseType: !97)
!247 = !DISubprogram(name: "get_allocator", linkageName: "_ZNKSt12_Vector_baseIN7testing14TestPartResultESaIS1_EE13get_allocatorEv", scope: !97, file: !94, line: 123, type: !248, scopeLine: 123, flags: DIFlagPrototyped, spFlags: DISPFlagOptimized)
!248 = !DISubroutineType(types: !249)
!249 = !{!250, !245}
!250 = !DIDerivedType(tag: DW_TAG_typedef, name: "allocator_type", scope: !97, file: !94, line: 112, baseType: !121)
!251 = !DISubprogram(name: "_Vector_base", scope: !97, file: !94, line: 126, type: !252, scopeLine: 126, flags: DIFlagPrototyped, spFlags: DISPFlagOptimized)
!252 = !DISubroutineType(types: !253)
!253 = !{null, !241}
!254 = !DISubprogram(name: "_Vector_base", scope: !97, file: !94, line: 129, type: !255, scopeLine: 129, flags: DIFlagPrototyped, spFlags: DISPFlagOptimized)
!255 = !DISubroutineType(types: !256)
!256 = !{null, !241, !257}
!257 = !DIDerivedType(tag: DW_TAG_reference_type, baseType: !258, size: 64)
!258 = !DIDerivedType(tag: DW_TAG_const_type, baseType: !250)
!259 = !DISubprogram(name: "_Vector_base", scope: !97, file: !94, line: 132, type: !260, scopeLine: 132, flags: DIFlagPrototyped, spFlags: DISPFlagOptimized)
!260 = !DISubroutineType(types: !261)
!261 = !{null, !241, !157}
!262 = !DISubprogram(name: "_Vector_base", scope: !97, file: !94, line: 136, type: !263, scopeLine: 136, flags: DIFlagPrototyped, spFlags: DISPFlagOptimized)
!263 = !DISubroutineType(types: !264)
!264 = !{null, !241, !157, !257}
!265 = !DISubprogram(name: "_Vector_base", scope: !97, file: !94, line: 141, type: !266, scopeLine: 141, flags: DIFlagPrototyped, spFlags: DISPFlagOptimized)
!266 = !DISubroutineType(types: !267)
!267 = !{null, !241, !232}
!268 = !DISubprogram(name: "_Vector_base", scope: !97, file: !94, line: 144, type: !269, scopeLine: 144, flags: DIFlagPrototyped, spFlags: DISPFlagOptimized)
!269 = !DISubroutineType(types: !270)
!270 = !{null, !241, !271}
!271 = !DIDerivedType(tag: DW_TAG_rvalue_reference_type, baseType: !97, size: 64)
!272 = !DISubprogram(name: "_Vector_base", scope: !97, file: !94, line: 148, type: !273, scopeLine: 148, flags: DIFlagPrototyped, spFlags: DISPFlagOptimized)
!273 = !DISubroutineType(types: !274)
!274 = !{null, !241, !271, !257}
!275 = !DISubprogram(name: "~_Vector_base", scope: !97, file: !94, line: 161, type: !252, scopeLine: 161, flags: DIFlagPrototyped, spFlags: DISPFlagOptimized)
!276 = !DISubprogram(name: "_M_allocate", linkageName: "_ZNSt12_Vector_baseIN7testing14TestPartResultESaIS1_EE11_M_allocateEm", scope: !97, file: !94, line: 169, type: !277, scopeLine: 169, flags: DIFlagPrototyped, spFlags: DISPFlagOptimized)
!277 = !DISubroutineType(types: !278)
!278 = !{!216, !241, !157}
!279 = !DISubprogram(name: "_M_deallocate", linkageName: "_ZNSt12_Vector_baseIN7testing14TestPartResultESaIS1_EE13_M_deallocateEPS1_m", scope: !97, file: !94, line: 176, type: !280, scopeLine: 176, flags: DIFlagPrototyped, spFlags: DISPFlagOptimized)
!280 = !DISubroutineType(types: !281)
!281 = !{null, !241, !216, !157}
!282 = !DISubprogram(name: "_M_create_storage", linkageName: "_ZNSt12_Vector_baseIN7testing14TestPartResultESaIS1_EE17_M_create_storageEm", scope: !97, file: !94, line: 185, type: !260, scopeLine: 185, flags: DIFlagPrivate | DIFlagPrototyped, spFlags: DISPFlagOptimized)
!283 = !{!169, !198}
!284 = !DISubprogram(name: "vector", scope: !93, file: !94, line: 259, type: !285, scopeLine: 259, flags: DIFlagPublic | DIFlagPrototyped, spFlags: DISPFlagOptimized)
!285 = !DISubroutineType(types: !286)
!286 = !{null, !287}
!287 = !DIDerivedType(tag: DW_TAG_pointer_type, baseType: !93, size: 64, flags: DIFlagArtificial | DIFlagObjectPointer)
!288 = !DISubprogram(name: "vector", scope: !93, file: !94, line: 270, type: !289, scopeLine: 270, flags: DIFlagPublic | DIFlagExplicit | DIFlagPrototyped, spFlags: DISPFlagOptimized)
!289 = !DISubroutineType(types: !290)
!290 = !{null, !287, !291}
!291 = !DIDerivedType(tag: DW_TAG_reference_type, baseType: !292, size: 64)
!292 = !DIDerivedType(tag: DW_TAG_const_type, baseType: !293)
!293 = !DIDerivedType(tag: DW_TAG_typedef, name: "allocator_type", scope: !93, file: !94, line: 244, baseType: !121)
!294 = !DISubprogram(name: "vector", scope: !93, file: !94, line: 283, type: !295, scopeLine: 283, flags: DIFlagPublic | DIFlagExplicit | DIFlagPrototyped, spFlags: DISPFlagOptimized)
!295 = !DISubroutineType(types: !296)
!296 = !{null, !287, !297, !291}
!297 = !DIDerivedType(tag: DW_TAG_typedef, name: "size_type", file: !94, line: 242, baseType: !157)
!298 = !DISubprogram(name: "vector", scope: !93, file: !94, line: 295, type: !299, scopeLine: 295, flags: DIFlagPublic | DIFlagPrototyped, spFlags: DISPFlagOptimized)
!299 = !DISubroutineType(types: !300)
!300 = !{null, !287, !297, !301, !291}
!301 = !DIDerivedType(tag: DW_TAG_reference_type, baseType: !302, size: 64)
!302 = !DIDerivedType(tag: DW_TAG_const_type, baseType: !303)
!303 = !DIDerivedType(tag: DW_TAG_typedef, name: "value_type", scope: !93, file: !94, line: 232, baseType: !15)
!304 = !DISubprogram(name: "vector", scope: !93, file: !94, line: 326, type: !305, scopeLine: 326, flags: DIFlagPublic | DIFlagPrototyped, spFlags: DISPFlagOptimized)
!305 = !DISubroutineType(types: !306)
!306 = !{null, !287, !307}
!307 = !DIDerivedType(tag: DW_TAG_reference_type, baseType: !308, size: 64)
!308 = !DIDerivedType(tag: DW_TAG_const_type, baseType: !93)
!309 = !DISubprogram(name: "vector", scope: !93, file: !94, line: 344, type: !310, scopeLine: 344, flags: DIFlagPublic | DIFlagPrototyped, spFlags: DISPFlagOptimized)
!310 = !DISubroutineType(types: !311)
!311 = !{null, !287, !312}
!312 = !DIDerivedType(tag: DW_TAG_rvalue_reference_type, baseType: !93, size: 64)
!313 = !DISubprogram(name: "vector", scope: !93, file: !94, line: 348, type: !314, scopeLine: 348, flags: DIFlagPublic | DIFlagPrototyped, spFlags: DISPFlagOptimized)
!314 = !DISubroutineType(types: !315)
!315 = !{null, !287, !307, !291}
!316 = !DISubprogram(name: "vector", scope: !93, file: !94, line: 358, type: !317, scopeLine: 358, flags: DIFlagPublic | DIFlagPrototyped, spFlags: DISPFlagOptimized)
!317 = !DISubroutineType(types: !318)
!318 = !{null, !287, !312, !291}
!319 = !DISubprogram(name: "vector", scope: !93, file: !94, line: 383, type: !320, scopeLine: 383, flags: DIFlagPublic | DIFlagPrototyped, spFlags: DISPFlagOptimized)
!320 = !DISubroutineType(types: !321)
!321 = !{null, !287, !322, !291}
!322 = !DICompositeType(tag: DW_TAG_class_type, name: "initializer_list<testing::TestPartResult>", scope: !22, file: !323, line: 47, flags: DIFlagFwdDecl, identifier: "_ZTSSt16initializer_listIN7testing14TestPartResultEE")
!323 = !DIFile(filename: "/usr/lib/gcc/x86_64-linux-gnu/7.4.0/../../../../include/c++/7.4.0/initializer_list", directory: "")
!324 = !DISubprogram(name: "~vector", scope: !93, file: !94, line: 433, type: !285, scopeLine: 433, flags: DIFlagPublic | DIFlagPrototyped, spFlags: DISPFlagOptimized)
!325 = !DISubprogram(name: "operator=", linkageName: "_ZNSt6vectorIN7testing14TestPartResultESaIS1_EEaSERKS3_", scope: !93, file: !94, line: 447, type: !326, scopeLine: 447, flags: DIFlagPublic | DIFlagPrototyped, spFlags: DISPFlagOptimized)
!326 = !DISubroutineType(types: !327)
!327 = !{!328, !287, !307}
!328 = !DIDerivedType(tag: DW_TAG_reference_type, baseType: !93, size: 64)
!329 = !DISubprogram(name: "operator=", linkageName: "_ZNSt6vectorIN7testing14TestPartResultESaIS1_EEaSEOS3_", scope: !93, file: !94, line: 461, type: !330, scopeLine: 461, flags: DIFlagPublic | DIFlagPrototyped, spFlags: DISPFlagOptimized)
!330 = !DISubroutineType(types: !331)
!331 = !{!328, !287, !312}
!332 = !DISubprogram(name: "operator=", linkageName: "_ZNSt6vectorIN7testing14TestPartResultESaIS1_EEaSESt16initializer_listIS1_E", scope: !93, file: !94, line: 482, type: !333, scopeLine: 482, flags: DIFlagPublic | DIFlagPrototyped, spFlags: DISPFlagOptimized)
!333 = !DISubroutineType(types: !334)
!334 = !{!328, !287, !322}
!335 = !DISubprogram(name: "assign", linkageName: "_ZNSt6vectorIN7testing14TestPartResultESaIS1_EE6assignEmRKS1_", scope: !93, file: !94, line: 501, type: !336, scopeLine: 501, flags: DIFlagPublic | DIFlagPrototyped, spFlags: DISPFlagOptimized)
!336 = !DISubroutineType(types: !337)
!337 = !{null, !287, !297, !301}
!338 = !DISubprogram(name: "assign", linkageName: "_ZNSt6vectorIN7testing14TestPartResultESaIS1_EE6assignESt16initializer_listIS1_E", scope: !93, file: !94, line: 546, type: !339, scopeLine: 546, flags: DIFlagPublic | DIFlagPrototyped, spFlags: DISPFlagOptimized)
!339 = !DISubroutineType(types: !340)
!340 = !{null, !287, !322}
!341 = !DISubprogram(name: "begin", linkageName: "_ZNSt6vectorIN7testing14TestPartResultESaIS1_EE5beginEv", scope: !93, file: !94, line: 563, type: !342, scopeLine: 563, flags: DIFlagPublic | DIFlagPrototyped, spFlags: DISPFlagOptimized)
!342 = !DISubroutineType(types: !343)
!343 = !{!344, !287}
!344 = !DIDerivedType(tag: DW_TAG_typedef, name: "iterator", scope: !93, file: !94, line: 237, baseType: !345)
!345 = distinct !DICompositeType(tag: DW_TAG_class_type, name: "__normal_iterator<testing::TestPartResult *, std::vector<testing::TestPartResult, std::allocator<testing::TestPartResult> > >", scope: !108, file: !346, line: 763, size: 64, flags: DIFlagTypePassByValue | DIFlagNonTrivial, elements: !347, templateParams: !401, identifier: "_ZTSN9__gnu_cxx17__normal_iteratorIPN7testing14TestPartResultESt6vectorIS2_SaIS2_EEEE")
!346 = !DIFile(filename: "/usr/lib/gcc/x86_64-linux-gnu/7.4.0/../../../../include/c++/7.4.0/bits/stl_iterator.h", directory: "")
!347 = !{!348, !349, !353, !358, !369, !374, !378, !381, !382, !383, !390, !393, !396, !397, !398}
!348 = !DIDerivedType(tag: DW_TAG_member, name: "_M_current", scope: !345, file: !346, line: 766, baseType: !118, size: 64, flags: DIFlagProtected)
!349 = !DISubprogram(name: "__normal_iterator", scope: !345, file: !346, line: 778, type: !350, scopeLine: 778, flags: DIFlagPublic | DIFlagPrototyped, spFlags: DISPFlagOptimized)
!350 = !DISubroutineType(types: !351)
!351 = !{null, !352}
!352 = !DIDerivedType(tag: DW_TAG_pointer_type, baseType: !345, size: 64, flags: DIFlagArtificial | DIFlagObjectPointer)
!353 = !DISubprogram(name: "__normal_iterator", scope: !345, file: !346, line: 782, type: !354, scopeLine: 782, flags: DIFlagPublic | DIFlagExplicit | DIFlagPrototyped, spFlags: DISPFlagOptimized)
!354 = !DISubroutineType(types: !355)
!355 = !{null, !352, !356}
!356 = !DIDerivedType(tag: DW_TAG_reference_type, baseType: !357, size: 64)
!357 = !DIDerivedType(tag: DW_TAG_const_type, baseType: !118)
!358 = !DISubprogram(name: "operator*", linkageName: "_ZNK9__gnu_cxx17__normal_iteratorIPN7testing14TestPartResultESt6vectorIS2_SaIS2_EEEdeEv", scope: !345, file: !346, line: 795, type: !359, scopeLine: 795, flags: DIFlagPublic | DIFlagPrototyped, spFlags: DISPFlagOptimized)
!359 = !DISubroutineType(types: !360)
!360 = !{!361, !367}
!361 = !DIDerivedType(tag: DW_TAG_typedef, name: "reference", scope: !345, file: !346, line: 775, baseType: !362)
!362 = !DIDerivedType(tag: DW_TAG_typedef, name: "reference", scope: !364, file: !363, line: 184, baseType: !146)
!363 = !DIFile(filename: "/usr/lib/gcc/x86_64-linux-gnu/7.4.0/../../../../include/c++/7.4.0/bits/stl_iterator_base_types.h", directory: "")
!364 = distinct !DICompositeType(tag: DW_TAG_structure_type, name: "iterator_traits<testing::TestPartResult *>", scope: !22, file: !363, line: 178, size: 8, flags: DIFlagTypePassByValue, elements: !213, templateParams: !365, identifier: "_ZTSSt15iterator_traitsIPN7testing14TestPartResultEE")
!365 = !{!366}
!366 = !DITemplateTypeParameter(name: "_Iterator", type: !118)
!367 = !DIDerivedType(tag: DW_TAG_pointer_type, baseType: !368, size: 64, flags: DIFlagArtificial | DIFlagObjectPointer)
!368 = !DIDerivedType(tag: DW_TAG_const_type, baseType: !345)
!369 = !DISubprogram(name: "operator->", linkageName: "_ZNK9__gnu_cxx17__normal_iteratorIPN7testing14TestPartResultESt6vectorIS2_SaIS2_EEEptEv", scope: !345, file: !346, line: 799, type: !370, scopeLine: 799, flags: DIFlagPublic | DIFlagPrototyped, spFlags: DISPFlagOptimized)
!370 = !DISubroutineType(types: !371)
!371 = !{!372, !367}
!372 = !DIDerivedType(tag: DW_TAG_typedef, name: "pointer", scope: !345, file: !346, line: 776, baseType: !373)
!373 = !DIDerivedType(tag: DW_TAG_typedef, name: "pointer", scope: !364, file: !363, line: 183, baseType: !118)
!374 = !DISubprogram(name: "operator++", linkageName: "_ZN9__gnu_cxx17__normal_iteratorIPN7testing14TestPartResultESt6vectorIS2_SaIS2_EEEppEv", scope: !345, file: !346, line: 803, type: !375, scopeLine: 803, flags: DIFlagPublic | DIFlagPrototyped, spFlags: DISPFlagOptimized)
!375 = !DISubroutineType(types: !376)
!376 = !{!377, !352}
!377 = !DIDerivedType(tag: DW_TAG_reference_type, baseType: !345, size: 64)
!378 = !DISubprogram(name: "operator++", linkageName: "_ZN9__gnu_cxx17__normal_iteratorIPN7testing14TestPartResultESt6vectorIS2_SaIS2_EEEppEi", scope: !345, file: !346, line: 810, type: !379, scopeLine: 810, flags: DIFlagPublic | DIFlagPrototyped, spFlags: DISPFlagOptimized)
!379 = !DISubroutineType(types: !380)
!380 = !{!345, !352, !26}
!381 = !DISubprogram(name: "operator--", linkageName: "_ZN9__gnu_cxx17__normal_iteratorIPN7testing14TestPartResultESt6vectorIS2_SaIS2_EEEmmEv", scope: !345, file: !346, line: 815, type: !375, scopeLine: 815, flags: DIFlagPublic | DIFlagPrototyped, spFlags: DISPFlagOptimized)
!382 = !DISubprogram(name: "operator--", linkageName: "_ZN9__gnu_cxx17__normal_iteratorIPN7testing14TestPartResultESt6vectorIS2_SaIS2_EEEmmEi", scope: !345, file: !346, line: 822, type: !379, scopeLine: 822, flags: DIFlagPublic | DIFlagPrototyped, spFlags: DISPFlagOptimized)
!383 = !DISubprogram(name: "operator[]", linkageName: "_ZNK9__gnu_cxx17__normal_iteratorIPN7testing14TestPartResultESt6vectorIS2_SaIS2_EEEixEl", scope: !345, file: !346, line: 827, type: !384, scopeLine: 827, flags: DIFlagPublic | DIFlagPrototyped, spFlags: DISPFlagOptimized)
!384 = !DISubroutineType(types: !385)
!385 = !{!361, !367, !386}
!386 = !DIDerivedType(tag: DW_TAG_typedef, name: "difference_type", scope: !345, file: !346, line: 774, baseType: !387)
!387 = !DIDerivedType(tag: DW_TAG_typedef, name: "difference_type", scope: !364, file: !363, line: 182, baseType: !388)
!388 = !DIDerivedType(tag: DW_TAG_typedef, name: "ptrdiff_t", scope: !22, file: !158, line: 232, baseType: !389)
!389 = !DIBasicType(name: "long int", size: 64, encoding: DW_ATE_signed)
!390 = !DISubprogram(name: "operator+=", linkageName: "_ZN9__gnu_cxx17__normal_iteratorIPN7testing14TestPartResultESt6vectorIS2_SaIS2_EEEpLEl", scope: !345, file: !346, line: 831, type: !391, scopeLine: 831, flags: DIFlagPublic | DIFlagPrototyped, spFlags: DISPFlagOptimized)
!391 = !DISubroutineType(types: !392)
!392 = !{!377, !352, !386}
!393 = !DISubprogram(name: "operator+", linkageName: "_ZNK9__gnu_cxx17__normal_iteratorIPN7testing14TestPartResultESt6vectorIS2_SaIS2_EEEplEl", scope: !345, file: !346, line: 835, type: !394, scopeLine: 835, flags: DIFlagPublic | DIFlagPrototyped, spFlags: DISPFlagOptimized)
!394 = !DISubroutineType(types: !395)
!395 = !{!345, !367, !386}
!396 = !DISubprogram(name: "operator-=", linkageName: "_ZN9__gnu_cxx17__normal_iteratorIPN7testing14TestPartResultESt6vectorIS2_SaIS2_EEEmIEl", scope: !345, file: !346, line: 839, type: !391, scopeLine: 839, flags: DIFlagPublic | DIFlagPrototyped, spFlags: DISPFlagOptimized)
!397 = !DISubprogram(name: "operator-", linkageName: "_ZNK9__gnu_cxx17__normal_iteratorIPN7testing14TestPartResultESt6vectorIS2_SaIS2_EEEmiEl", scope: !345, file: !346, line: 843, type: !394, scopeLine: 843, flags: DIFlagPublic | DIFlagPrototyped, spFlags: DISPFlagOptimized)
!398 = !DISubprogram(name: "base", linkageName: "_ZNK9__gnu_cxx17__normal_iteratorIPN7testing14TestPartResultESt6vectorIS2_SaIS2_EEE4baseEv", scope: !345, file: !346, line: 847, type: !399, scopeLine: 847, flags: DIFlagPublic | DIFlagPrototyped, spFlags: DISPFlagOptimized)
!399 = !DISubroutineType(types: !400)
!400 = !{!356, !367}
!401 = !{!366, !402}
!402 = !DITemplateTypeParameter(name: "_Container", type: !93)
!403 = !DISubprogram(name: "begin", linkageName: "_ZNKSt6vectorIN7testing14TestPartResultESaIS1_EE5beginEv", scope: !93, file: !94, line: 572, type: !404, scopeLine: 572, flags: DIFlagPublic | DIFlagPrototyped, spFlags: DISPFlagOptimized)
!404 = !DISubroutineType(types: !405)
!405 = !{!406, !460}
!406 = !DIDerivedType(tag: DW_TAG_typedef, name: "const_iterator", scope: !93, file: !94, line: 239, baseType: !407)
!407 = distinct !DICompositeType(tag: DW_TAG_class_type, name: "__normal_iterator<const testing::TestPartResult *, std::vector<testing::TestPartResult, std::allocator<testing::TestPartResult> > >", scope: !108, file: !346, line: 763, size: 64, flags: DIFlagTypePassByValue | DIFlagNonTrivial, elements: !408, templateParams: !459, identifier: "_ZTSN9__gnu_cxx17__normal_iteratorIPKN7testing14TestPartResultESt6vectorIS2_SaIS2_EEEE")
!408 = !{!409, !410, !414, !419, !429, !434, !438, !441, !442, !443, !448, !451, !454, !455, !456}
!409 = !DIDerivedType(tag: DW_TAG_member, name: "_M_current", scope: !407, file: !346, line: 766, baseType: !151, size: 64, flags: DIFlagProtected)
!410 = !DISubprogram(name: "__normal_iterator", scope: !407, file: !346, line: 778, type: !411, scopeLine: 778, flags: DIFlagPublic | DIFlagPrototyped, spFlags: DISPFlagOptimized)
!411 = !DISubroutineType(types: !412)
!412 = !{null, !413}
!413 = !DIDerivedType(tag: DW_TAG_pointer_type, baseType: !407, size: 64, flags: DIFlagArtificial | DIFlagObjectPointer)
!414 = !DISubprogram(name: "__normal_iterator", scope: !407, file: !346, line: 782, type: !415, scopeLine: 782, flags: DIFlagPublic | DIFlagExplicit | DIFlagPrototyped, spFlags: DISPFlagOptimized)
!415 = !DISubroutineType(types: !416)
!416 = !{null, !413, !417}
!417 = !DIDerivedType(tag: DW_TAG_reference_type, baseType: !418, size: 64)
!418 = !DIDerivedType(tag: DW_TAG_const_type, baseType: !151)
!419 = !DISubprogram(name: "operator*", linkageName: "_ZNK9__gnu_cxx17__normal_iteratorIPKN7testing14TestPartResultESt6vectorIS2_SaIS2_EEEdeEv", scope: !407, file: !346, line: 795, type: !420, scopeLine: 795, flags: DIFlagPublic | DIFlagPrototyped, spFlags: DISPFlagOptimized)
!420 = !DISubroutineType(types: !421)
!421 = !{!422, !427}
!422 = !DIDerivedType(tag: DW_TAG_typedef, name: "reference", scope: !407, file: !346, line: 775, baseType: !423)
!423 = !DIDerivedType(tag: DW_TAG_typedef, name: "reference", scope: !424, file: !363, line: 195, baseType: !82)
!424 = distinct !DICompositeType(tag: DW_TAG_structure_type, name: "iterator_traits<const testing::TestPartResult *>", scope: !22, file: !363, line: 189, size: 8, flags: DIFlagTypePassByValue, elements: !213, templateParams: !425, identifier: "_ZTSSt15iterator_traitsIPKN7testing14TestPartResultEE")
!425 = !{!426}
!426 = !DITemplateTypeParameter(name: "_Iterator", type: !151)
!427 = !DIDerivedType(tag: DW_TAG_pointer_type, baseType: !428, size: 64, flags: DIFlagArtificial | DIFlagObjectPointer)
!428 = !DIDerivedType(tag: DW_TAG_const_type, baseType: !407)
!429 = !DISubprogram(name: "operator->", linkageName: "_ZNK9__gnu_cxx17__normal_iteratorIPKN7testing14TestPartResultESt6vectorIS2_SaIS2_EEEptEv", scope: !407, file: !346, line: 799, type: !430, scopeLine: 799, flags: DIFlagPublic | DIFlagPrototyped, spFlags: DISPFlagOptimized)
!430 = !DISubroutineType(types: !431)
!431 = !{!432, !427}
!432 = !DIDerivedType(tag: DW_TAG_typedef, name: "pointer", scope: !407, file: !346, line: 776, baseType: !433)
!433 = !DIDerivedType(tag: DW_TAG_typedef, name: "pointer", scope: !424, file: !363, line: 194, baseType: !151)
!434 = !DISubprogram(name: "operator++", linkageName: "_ZN9__gnu_cxx17__normal_iteratorIPKN7testing14TestPartResultESt6vectorIS2_SaIS2_EEEppEv", scope: !407, file: !346, line: 803, type: !435, scopeLine: 803, flags: DIFlagPublic | DIFlagPrototyped, spFlags: DISPFlagOptimized)
!435 = !DISubroutineType(types: !436)
!436 = !{!437, !413}
!437 = !DIDerivedType(tag: DW_TAG_reference_type, baseType: !407, size: 64)
!438 = !DISubprogram(name: "operator++", linkageName: "_ZN9__gnu_cxx17__normal_iteratorIPKN7testing14TestPartResultESt6vectorIS2_SaIS2_EEEppEi", scope: !407, file: !346, line: 810, type: !439, scopeLine: 810, flags: DIFlagPublic | DIFlagPrototyped, spFlags: DISPFlagOptimized)
!439 = !DISubroutineType(types: !440)
!440 = !{!407, !413, !26}
!441 = !DISubprogram(name: "operator--", linkageName: "_ZN9__gnu_cxx17__normal_iteratorIPKN7testing14TestPartResultESt6vectorIS2_SaIS2_EEEmmEv", scope: !407, file: !346, line: 815, type: !435, scopeLine: 815, flags: DIFlagPublic | DIFlagPrototyped, spFlags: DISPFlagOptimized)
!442 = !DISubprogram(name: "operator--", linkageName: "_ZN9__gnu_cxx17__normal_iteratorIPKN7testing14TestPartResultESt6vectorIS2_SaIS2_EEEmmEi", scope: !407, file: !346, line: 822, type: !439, scopeLine: 822, flags: DIFlagPublic | DIFlagPrototyped, spFlags: DISPFlagOptimized)
!443 = !DISubprogram(name: "operator[]", linkageName: "_ZNK9__gnu_cxx17__normal_iteratorIPKN7testing14TestPartResultESt6vectorIS2_SaIS2_EEEixEl", scope: !407, file: !346, line: 827, type: !444, scopeLine: 827, flags: DIFlagPublic | DIFlagPrototyped, spFlags: DISPFlagOptimized)
!444 = !DISubroutineType(types: !445)
!445 = !{!422, !427, !446}
!446 = !DIDerivedType(tag: DW_TAG_typedef, name: "difference_type", scope: !407, file: !346, line: 774, baseType: !447)
!447 = !DIDerivedType(tag: DW_TAG_typedef, name: "difference_type", scope: !424, file: !363, line: 193, baseType: !388)
!448 = !DISubprogram(name: "operator+=", linkageName: "_ZN9__gnu_cxx17__normal_iteratorIPKN7testing14TestPartResultESt6vectorIS2_SaIS2_EEEpLEl", scope: !407, file: !346, line: 831, type: !449, scopeLine: 831, flags: DIFlagPublic | DIFlagPrototyped, spFlags: DISPFlagOptimized)
!449 = !DISubroutineType(types: !450)
!450 = !{!437, !413, !446}
!451 = !DISubprogram(name: "operator+", linkageName: "_ZNK9__gnu_cxx17__normal_iteratorIPKN7testing14TestPartResultESt6vectorIS2_SaIS2_EEEplEl", scope: !407, file: !346, line: 835, type: !452, scopeLine: 835, flags: DIFlagPublic | DIFlagPrototyped, spFlags: DISPFlagOptimized)
!452 = !DISubroutineType(types: !453)
!453 = !{!407, !427, !446}
!454 = !DISubprogram(name: "operator-=", linkageName: "_ZN9__gnu_cxx17__normal_iteratorIPKN7testing14TestPartResultESt6vectorIS2_SaIS2_EEEmIEl", scope: !407, file: !346, line: 839, type: !449, scopeLine: 839, flags: DIFlagPublic | DIFlagPrototyped, spFlags: DISPFlagOptimized)
!455 = !DISubprogram(name: "operator-", linkageName: "_ZNK9__gnu_cxx17__normal_iteratorIPKN7testing14TestPartResultESt6vectorIS2_SaIS2_EEEmiEl", scope: !407, file: !346, line: 843, type: !452, scopeLine: 843, flags: DIFlagPublic | DIFlagPrototyped, spFlags: DISPFlagOptimized)
!456 = !DISubprogram(name: "base", linkageName: "_ZNK9__gnu_cxx17__normal_iteratorIPKN7testing14TestPartResultESt6vectorIS2_SaIS2_EEE4baseEv", scope: !407, file: !346, line: 847, type: !457, scopeLine: 847, flags: DIFlagPublic | DIFlagPrototyped, spFlags: DISPFlagOptimized)
!457 = !DISubroutineType(types: !458)
!458 = !{!417, !427}
!459 = !{!426, !402}
!460 = !DIDerivedType(tag: DW_TAG_pointer_type, baseType: !308, size: 64, flags: DIFlagArtificial | DIFlagObjectPointer)
!461 = !DISubprogram(name: "end", linkageName: "_ZNSt6vectorIN7testing14TestPartResultESaIS1_EE3endEv", scope: !93, file: !94, line: 581, type: !342, scopeLine: 581, flags: DIFlagPublic | DIFlagPrototyped, spFlags: DISPFlagOptimized)
!462 = !DISubprogram(name: "end", linkageName: "_ZNKSt6vectorIN7testing14TestPartResultESaIS1_EE3endEv", scope: !93, file: !94, line: 590, type: !404, scopeLine: 590, flags: DIFlagPublic | DIFlagPrototyped, spFlags: DISPFlagOptimized)
!463 = !DISubprogram(name: "rbegin", linkageName: "_ZNSt6vectorIN7testing14TestPartResultESaIS1_EE6rbeginEv", scope: !93, file: !94, line: 599, type: !464, scopeLine: 599, flags: DIFlagPublic | DIFlagPrototyped, spFlags: DISPFlagOptimized)
!464 = !DISubroutineType(types: !465)
!465 = !{!466, !287}
!466 = !DIDerivedType(tag: DW_TAG_typedef, name: "reverse_iterator", scope: !93, file: !94, line: 241, baseType: !467)
!467 = !DICompositeType(tag: DW_TAG_class_type, name: "reverse_iterator<__gnu_cxx::__normal_iterator<testing::TestPartResult *, std::vector<testing::TestPartResult, std::allocator<testing::TestPartResult> > > >", scope: !22, file: !346, line: 101, flags: DIFlagFwdDecl, identifier: "_ZTSSt16reverse_iteratorIN9__gnu_cxx17__normal_iteratorIPN7testing14TestPartResultESt6vectorIS3_SaIS3_EEEEE")
!468 = !DISubprogram(name: "rbegin", linkageName: "_ZNKSt6vectorIN7testing14TestPartResultESaIS1_EE6rbeginEv", scope: !93, file: !94, line: 608, type: !469, scopeLine: 608, flags: DIFlagPublic | DIFlagPrototyped, spFlags: DISPFlagOptimized)
!469 = !DISubroutineType(types: !470)
!470 = !{!471, !460}
!471 = !DIDerivedType(tag: DW_TAG_typedef, name: "const_reverse_iterator", scope: !93, file: !94, line: 240, baseType: !472)
!472 = !DICompositeType(tag: DW_TAG_class_type, name: "reverse_iterator<__gnu_cxx::__normal_iterator<const testing::TestPartResult *, std::vector<testing::TestPartResult, std::allocator<testing::TestPartResult> > > >", scope: !22, file: !346, line: 101, flags: DIFlagFwdDecl, identifier: "_ZTSSt16reverse_iteratorIN9__gnu_cxx17__normal_iteratorIPKN7testing14TestPartResultESt6vectorIS3_SaIS3_EEEEE")
!473 = !DISubprogram(name: "rend", linkageName: "_ZNSt6vectorIN7testing14TestPartResultESaIS1_EE4rendEv", scope: !93, file: !94, line: 617, type: !464, scopeLine: 617, flags: DIFlagPublic | DIFlagPrototyped, spFlags: DISPFlagOptimized)
!474 = !DISubprogram(name: "rend", linkageName: "_ZNKSt6vectorIN7testing14TestPartResultESaIS1_EE4rendEv", scope: !93, file: !94, line: 626, type: !469, scopeLine: 626, flags: DIFlagPublic | DIFlagPrototyped, spFlags: DISPFlagOptimized)
!475 = !DISubprogram(name: "cbegin", linkageName: "_ZNKSt6vectorIN7testing14TestPartResultESaIS1_EE6cbeginEv", scope: !93, file: !94, line: 636, type: !404, scopeLine: 636, flags: DIFlagPublic | DIFlagPrototyped, spFlags: DISPFlagOptimized)
!476 = !DISubprogram(name: "cend", linkageName: "_ZNKSt6vectorIN7testing14TestPartResultESaIS1_EE4cendEv", scope: !93, file: !94, line: 645, type: !404, scopeLine: 645, flags: DIFlagPublic | DIFlagPrototyped, spFlags: DISPFlagOptimized)
!477 = !DISubprogram(name: "crbegin", linkageName: "_ZNKSt6vectorIN7testing14TestPartResultESaIS1_EE7crbeginEv", scope: !93, file: !94, line: 654, type: !469, scopeLine: 654, flags: DIFlagPublic | DIFlagPrototyped, spFlags: DISPFlagOptimized)
!478 = !DISubprogram(name: "crend", linkageName: "_ZNKSt6vectorIN7testing14TestPartResultESaIS1_EE5crendEv", scope: !93, file: !94, line: 663, type: !469, scopeLine: 663, flags: DIFlagPublic | DIFlagPrototyped, spFlags: DISPFlagOptimized)
!479 = !DISubprogram(name: "size", linkageName: "_ZNKSt6vectorIN7testing14TestPartResultESaIS1_EE4sizeEv", scope: !93, file: !94, line: 670, type: !480, scopeLine: 670, flags: DIFlagPublic | DIFlagPrototyped, spFlags: DISPFlagOptimized)
!480 = !DISubroutineType(types: !481)
!481 = !{!297, !460}
!482 = !DISubprogram(name: "max_size", linkageName: "_ZNKSt6vectorIN7testing14TestPartResultESaIS1_EE8max_sizeEv", scope: !93, file: !94, line: 675, type: !480, scopeLine: 675, flags: DIFlagPublic | DIFlagPrototyped, spFlags: DISPFlagOptimized)
!483 = !DISubprogram(name: "resize", linkageName: "_ZNSt6vectorIN7testing14TestPartResultESaIS1_EE6resizeEm", scope: !93, file: !94, line: 689, type: !484, scopeLine: 689, flags: DIFlagPublic | DIFlagPrototyped, spFlags: DISPFlagOptimized)
!484 = !DISubroutineType(types: !485)
!485 = !{null, !287, !297}
!486 = !DISubprogram(name: "resize", linkageName: "_ZNSt6vectorIN7testing14TestPartResultESaIS1_EE6resizeEmRKS1_", scope: !93, file: !94, line: 709, type: !336, scopeLine: 709, flags: DIFlagPublic | DIFlagPrototyped, spFlags: DISPFlagOptimized)
!487 = !DISubprogram(name: "shrink_to_fit", linkageName: "_ZNSt6vectorIN7testing14TestPartResultESaIS1_EE13shrink_to_fitEv", scope: !93, file: !94, line: 741, type: !285, scopeLine: 741, flags: DIFlagPublic | DIFlagPrototyped, spFlags: DISPFlagOptimized)
!488 = !DISubprogram(name: "capacity", linkageName: "_ZNKSt6vectorIN7testing14TestPartResultESaIS1_EE8capacityEv", scope: !93, file: !94, line: 750, type: !480, scopeLine: 750, flags: DIFlagPublic | DIFlagPrototyped, spFlags: DISPFlagOptimized)
!489 = !DISubprogram(name: "empty", linkageName: "_ZNKSt6vectorIN7testing14TestPartResultESaIS1_EE5emptyEv", scope: !93, file: !94, line: 759, type: !490, scopeLine: 759, flags: DIFlagPublic | DIFlagPrototyped, spFlags: DISPFlagOptimized)
!490 = !DISubroutineType(types: !491)
!491 = !{!52, !460}
!492 = !DISubprogram(name: "reserve", linkageName: "_ZNSt6vectorIN7testing14TestPartResultESaIS1_EE7reserveEm", scope: !93, file: !94, line: 780, type: !484, scopeLine: 780, flags: DIFlagPublic | DIFlagPrototyped, spFlags: DISPFlagOptimized)
!493 = !DISubprogram(name: "operator[]", linkageName: "_ZNSt6vectorIN7testing14TestPartResultESaIS1_EEixEm", scope: !93, file: !94, line: 795, type: !494, scopeLine: 795, flags: DIFlagPublic | DIFlagPrototyped, spFlags: DISPFlagOptimized)
!494 = !DISubroutineType(types: !495)
!495 = !{!496, !287, !297}
!496 = !DIDerivedType(tag: DW_TAG_typedef, name: "reference", scope: !93, file: !94, line: 235, baseType: !497)
!497 = !DIDerivedType(tag: DW_TAG_typedef, name: "reference", scope: !107, file: !105, line: 64, baseType: !498)
!498 = !DIDerivedType(tag: DW_TAG_reference_type, baseType: !499, size: 64)
!499 = !DIDerivedType(tag: DW_TAG_typedef, name: "value_type", scope: !107, file: !105, line: 58, baseType: !500)
!500 = !DIDerivedType(tag: DW_TAG_typedef, name: "value_type", scope: !111, file: !112, line: 389, baseType: !15)
!501 = !DISubprogram(name: "operator[]", linkageName: "_ZNKSt6vectorIN7testing14TestPartResultESaIS1_EEixEm", scope: !93, file: !94, line: 813, type: !502, scopeLine: 813, flags: DIFlagPublic | DIFlagPrototyped, spFlags: DISPFlagOptimized)
!502 = !DISubroutineType(types: !503)
!503 = !{!504, !460, !297}
!504 = !DIDerivedType(tag: DW_TAG_typedef, name: "const_reference", scope: !93, file: !94, line: 236, baseType: !505)
!505 = !DIDerivedType(tag: DW_TAG_typedef, name: "const_reference", scope: !107, file: !105, line: 65, baseType: !506)
!506 = !DIDerivedType(tag: DW_TAG_reference_type, baseType: !507, size: 64)
!507 = !DIDerivedType(tag: DW_TAG_const_type, baseType: !499)
!508 = !DISubprogram(name: "_M_range_check", linkageName: "_ZNKSt6vectorIN7testing14TestPartResultESaIS1_EE14_M_range_checkEm", scope: !93, file: !94, line: 822, type: !509, scopeLine: 822, flags: DIFlagProtected | DIFlagPrototyped, spFlags: DISPFlagOptimized)
!509 = !DISubroutineType(types: !510)
!510 = !{null, !460, !297}
!511 = !DISubprogram(name: "at", linkageName: "_ZNSt6vectorIN7testing14TestPartResultESaIS1_EE2atEm", scope: !93, file: !94, line: 844, type: !494, scopeLine: 844, flags: DIFlagPublic | DIFlagPrototyped, spFlags: DISPFlagOptimized)
!512 = !DISubprogram(name: "at", linkageName: "_ZNKSt6vectorIN7testing14TestPartResultESaIS1_EE2atEm", scope: !93, file: !94, line: 862, type: !502, scopeLine: 862, flags: DIFlagPublic | DIFlagPrototyped, spFlags: DISPFlagOptimized)
!513 = !DISubprogram(name: "front", linkageName: "_ZNSt6vectorIN7testing14TestPartResultESaIS1_EE5frontEv", scope: !93, file: !94, line: 873, type: !514, scopeLine: 873, flags: DIFlagPublic | DIFlagPrototyped, spFlags: DISPFlagOptimized)
!514 = !DISubroutineType(types: !515)
!515 = !{!496, !287}
!516 = !DISubprogram(name: "front", linkageName: "_ZNKSt6vectorIN7testing14TestPartResultESaIS1_EE5frontEv", scope: !93, file: !94, line: 884, type: !517, scopeLine: 884, flags: DIFlagPublic | DIFlagPrototyped, spFlags: DISPFlagOptimized)
!517 = !DISubroutineType(types: !518)
!518 = !{!504, !460}
!519 = !DISubprogram(name: "back", linkageName: "_ZNSt6vectorIN7testing14TestPartResultESaIS1_EE4backEv", scope: !93, file: !94, line: 895, type: !514, scopeLine: 895, flags: DIFlagPublic | DIFlagPrototyped, spFlags: DISPFlagOptimized)
!520 = !DISubprogram(name: "back", linkageName: "_ZNKSt6vectorIN7testing14TestPartResultESaIS1_EE4backEv", scope: !93, file: !94, line: 906, type: !517, scopeLine: 906, flags: DIFlagPublic | DIFlagPrototyped, spFlags: DISPFlagOptimized)
!521 = !DISubprogram(name: "data", linkageName: "_ZNSt6vectorIN7testing14TestPartResultESaIS1_EE4dataEv", scope: !93, file: !94, line: 920, type: !522, scopeLine: 920, flags: DIFlagPublic | DIFlagPrototyped, spFlags: DISPFlagOptimized)
!522 = !DISubroutineType(types: !523)
!523 = !{!118, !287}
!524 = !DISubprogram(name: "data", linkageName: "_ZNKSt6vectorIN7testing14TestPartResultESaIS1_EE4dataEv", scope: !93, file: !94, line: 924, type: !525, scopeLine: 924, flags: DIFlagPublic | DIFlagPrototyped, spFlags: DISPFlagOptimized)
!525 = !DISubroutineType(types: !526)
!526 = !{!151, !460}
!527 = !DISubprogram(name: "push_back", linkageName: "_ZNSt6vectorIN7testing14TestPartResultESaIS1_EE9push_backERKS1_", scope: !93, file: !94, line: 939, type: !528, scopeLine: 939, flags: DIFlagPublic | DIFlagPrototyped, spFlags: DISPFlagOptimized)
!528 = !DISubroutineType(types: !529)
!529 = !{null, !287, !301}
!530 = !DISubprogram(name: "push_back", linkageName: "_ZNSt6vectorIN7testing14TestPartResultESaIS1_EE9push_backEOS1_", scope: !93, file: !94, line: 953, type: !531, scopeLine: 953, flags: DIFlagPublic | DIFlagPrototyped, spFlags: DISPFlagOptimized)
!531 = !DISubroutineType(types: !532)
!532 = !{null, !287, !533}
!533 = !DIDerivedType(tag: DW_TAG_rvalue_reference_type, baseType: !303, size: 64)
!534 = !DISubprogram(name: "pop_back", linkageName: "_ZNSt6vectorIN7testing14TestPartResultESaIS1_EE8pop_backEv", scope: !93, file: !94, line: 975, type: !285, scopeLine: 975, flags: DIFlagPublic | DIFlagPrototyped, spFlags: DISPFlagOptimized)
!535 = !DISubprogram(name: "insert", linkageName: "_ZNSt6vectorIN7testing14TestPartResultESaIS1_EE6insertEN9__gnu_cxx17__normal_iteratorIPKS1_S3_EERS6_", scope: !93, file: !94, line: 1012, type: !536, scopeLine: 1012, flags: DIFlagPublic | DIFlagPrototyped, spFlags: DISPFlagOptimized)
!536 = !DISubroutineType(types: !537)
!537 = !{!344, !287, !406, !301}
!538 = !DISubprogram(name: "insert", linkageName: "_ZNSt6vectorIN7testing14TestPartResultESaIS1_EE6insertEN9__gnu_cxx17__normal_iteratorIPKS1_S3_EEOS1_", scope: !93, file: !94, line: 1042, type: !539, scopeLine: 1042, flags: DIFlagPublic | DIFlagPrototyped, spFlags: DISPFlagOptimized)
!539 = !DISubroutineType(types: !540)
!540 = !{!344, !287, !406, !533}
!541 = !DISubprogram(name: "insert", linkageName: "_ZNSt6vectorIN7testing14TestPartResultESaIS1_EE6insertEN9__gnu_cxx17__normal_iteratorIPKS1_S3_EESt16initializer_listIS1_E", scope: !93, file: !94, line: 1059, type: !542, scopeLine: 1059, flags: DIFlagPublic | DIFlagPrototyped, spFlags: DISPFlagOptimized)
!542 = !DISubroutineType(types: !543)
!543 = !{!344, !287, !406, !322}
!544 = !DISubprogram(name: "insert", linkageName: "_ZNSt6vectorIN7testing14TestPartResultESaIS1_EE6insertEN9__gnu_cxx17__normal_iteratorIPKS1_S3_EEmRS6_", scope: !93, file: !94, line: 1084, type: !545, scopeLine: 1084, flags: DIFlagPublic | DIFlagPrototyped, spFlags: DISPFlagOptimized)
!545 = !DISubroutineType(types: !546)
!546 = !{!344, !287, !406, !297, !301}
!547 = !DISubprogram(name: "erase", linkageName: "_ZNSt6vectorIN7testing14TestPartResultESaIS1_EE5eraseEN9__gnu_cxx17__normal_iteratorIPKS1_S3_EE", scope: !93, file: !94, line: 1179, type: !548, scopeLine: 1179, flags: DIFlagPublic | DIFlagPrototyped, spFlags: DISPFlagOptimized)
!548 = !DISubroutineType(types: !549)
!549 = !{!344, !287, !406}
!550 = !DISubprogram(name: "erase", linkageName: "_ZNSt6vectorIN7testing14TestPartResultESaIS1_EE5eraseEN9__gnu_cxx17__normal_iteratorIPKS1_S3_EES8_", scope: !93, file: !94, line: 1206, type: !551, scopeLine: 1206, flags: DIFlagPublic | DIFlagPrototyped, spFlags: DISPFlagOptimized)
!551 = !DISubroutineType(types: !552)
!552 = !{!344, !287, !406, !406}
!553 = !DISubprogram(name: "swap", linkageName: "_ZNSt6vectorIN7testing14TestPartResultESaIS1_EE4swapERS3_", scope: !93, file: !94, line: 1229, type: !554, scopeLine: 1229, flags: DIFlagPublic | DIFlagPrototyped, spFlags: DISPFlagOptimized)
!554 = !DISubroutineType(types: !555)
!555 = !{null, !287, !328}
!556 = !DISubprogram(name: "clear", linkageName: "_ZNSt6vectorIN7testing14TestPartResultESaIS1_EE5clearEv", scope: !93, file: !94, line: 1247, type: !285, scopeLine: 1247, flags: DIFlagPublic | DIFlagPrototyped, spFlags: DISPFlagOptimized)
!557 = !DISubprogram(name: "_M_fill_initialize", linkageName: "_ZNSt6vectorIN7testing14TestPartResultESaIS1_EE18_M_fill_initializeEmRKS1_", scope: !93, file: !94, line: 1339, type: !336, scopeLine: 1339, flags: DIFlagProtected | DIFlagPrototyped, spFlags: DISPFlagOptimized)
!558 = !DISubprogram(name: "_M_default_initialize", linkageName: "_ZNSt6vectorIN7testing14TestPartResultESaIS1_EE21_M_default_initializeEm", scope: !93, file: !94, line: 1349, type: !484, scopeLine: 1349, flags: DIFlagProtected | DIFlagPrototyped, spFlags: DISPFlagOptimized)
!559 = !DISubprogram(name: "_M_fill_assign", linkageName: "_ZNSt6vectorIN7testing14TestPartResultESaIS1_EE14_M_fill_assignEmRKS1_", scope: !93, file: !94, line: 1391, type: !336, scopeLine: 1391, flags: DIFlagProtected | DIFlagPrototyped, spFlags: DISPFlagOptimized)
!560 = !DISubprogram(name: "_M_fill_insert", linkageName: "_ZNSt6vectorIN7testing14TestPartResultESaIS1_EE14_M_fill_insertEN9__gnu_cxx17__normal_iteratorIPS1_S3_EEmRKS1_", scope: !93, file: !94, line: 1430, type: !561, scopeLine: 1430, flags: DIFlagProtected | DIFlagPrototyped, spFlags: DISPFlagOptimized)
!561 = !DISubroutineType(types: !562)
!562 = !{null, !287, !344, !297, !301}
!563 = !DISubprogram(name: "_M_default_append", linkageName: "_ZNSt6vectorIN7testing14TestPartResultESaIS1_EE17_M_default_appendEm", scope: !93, file: !94, line: 1435, type: !484, scopeLine: 1435, flags: DIFlagProtected | DIFlagPrototyped, spFlags: DISPFlagOptimized)
!564 = !DISubprogram(name: "_M_shrink_to_fit", linkageName: "_ZNSt6vectorIN7testing14TestPartResultESaIS1_EE16_M_shrink_to_fitEv", scope: !93, file: !94, line: 1438, type: !565, scopeLine: 1438, flags: DIFlagProtected | DIFlagPrototyped, spFlags: DISPFlagOptimized)
!565 = !DISubroutineType(types: !566)
!566 = !{!52, !287}
!567 = !DISubprogram(name: "_M_insert_rval", linkageName: "_ZNSt6vectorIN7testing14TestPartResultESaIS1_EE14_M_insert_rvalEN9__gnu_cxx17__normal_iteratorIPKS1_S3_EEOS1_", scope: !93, file: !94, line: 1487, type: !539, scopeLine: 1487, flags: DIFlagProtected | DIFlagPrototyped, spFlags: DISPFlagOptimized)
!568 = !DISubprogram(name: "_M_emplace_aux", linkageName: "_ZNSt6vectorIN7testing14TestPartResultESaIS1_EE14_M_emplace_auxEN9__gnu_cxx17__normal_iteratorIPKS1_S3_EEOS1_", scope: !93, file: !94, line: 1496, type: !539, scopeLine: 1496, flags: DIFlagProtected | DIFlagPrototyped, spFlags: DISPFlagOptimized)
!569 = !DISubprogram(name: "_M_check_len", linkageName: "_ZNKSt6vectorIN7testing14TestPartResultESaIS1_EE12_M_check_lenEmPKc", scope: !93, file: !94, line: 1502, type: !570, scopeLine: 1502, flags: DIFlagProtected | DIFlagPrototyped, spFlags: DISPFlagOptimized)
!570 = !DISubroutineType(types: !571)
!571 = !{!572, !460, !297, !33}
!572 = !DIDerivedType(tag: DW_TAG_typedef, name: "size_type", scope: !93, file: !94, line: 242, baseType: !157)
!573 = !DISubprogram(name: "_M_erase_at_end", linkageName: "_ZNSt6vectorIN7testing14TestPartResultESaIS1_EE15_M_erase_at_endEPS1_", scope: !93, file: !94, line: 1516, type: !574, scopeLine: 1516, flags: DIFlagProtected | DIFlagPrototyped, spFlags: DISPFlagOptimized)
!574 = !DISubroutineType(types: !575)
!575 = !{null, !287, !576}
!576 = !DIDerivedType(tag: DW_TAG_typedef, name: "pointer", scope: !93, file: !94, line: 233, baseType: !216)
!577 = !DISubprogram(name: "_M_erase", linkageName: "_ZNSt6vectorIN7testing14TestPartResultESaIS1_EE8_M_eraseEN9__gnu_cxx17__normal_iteratorIPS1_S3_EE", scope: !93, file: !94, line: 1523, type: !578, scopeLine: 1523, flags: DIFlagProtected | DIFlagPrototyped, spFlags: DISPFlagOptimized)
!578 = !DISubroutineType(types: !579)
!579 = !{!344, !287, !344}
!580 = !DISubprogram(name: "_M_erase", linkageName: "_ZNSt6vectorIN7testing14TestPartResultESaIS1_EE8_M_eraseEN9__gnu_cxx17__normal_iteratorIPS1_S3_EES7_", scope: !93, file: !94, line: 1526, type: !581, scopeLine: 1526, flags: DIFlagProtected | DIFlagPrototyped, spFlags: DISPFlagOptimized)
!581 = !DISubroutineType(types: !582)
!582 = !{!344, !287, !344, !344}
!583 = !DISubprogram(name: "_M_move_assign", linkageName: "_ZNSt6vectorIN7testing14TestPartResultESaIS1_EE14_M_move_assignEOS3_St17integral_constantIbLb1EE", scope: !93, file: !94, line: 1534, type: !584, scopeLine: 1534, flags: DIFlagPrototyped, spFlags: DISPFlagOptimized)
!584 = !DISubroutineType(types: !585)
!585 = !{null, !287, !312, !586}
!586 = !DIDerivedType(tag: DW_TAG_typedef, name: "true_type", scope: !22, file: !587, line: 87, baseType: !588)
!587 = !DIFile(filename: "/usr/lib/gcc/x86_64-linux-gnu/7.4.0/../../../../include/c++/7.4.0/type_traits", directory: "")
!588 = distinct !DICompositeType(tag: DW_TAG_structure_type, name: "integral_constant<bool, true>", scope: !22, file: !587, line: 69, size: 8, flags: DIFlagTypePassByValue, elements: !589, templateParams: !599, identifier: "_ZTSSt17integral_constantIbLb1EE")
!589 = !{!590, !592, !598}
!590 = !DIDerivedType(tag: DW_TAG_member, name: "value", scope: !588, file: !587, line: 71, baseType: !591, flags: DIFlagStaticMember, extraData: i1 true)
!591 = !DIDerivedType(tag: DW_TAG_const_type, baseType: !52)
!592 = !DISubprogram(name: "operator bool", linkageName: "_ZNKSt17integral_constantIbLb1EEcvbEv", scope: !588, file: !587, line: 74, type: !593, scopeLine: 74, flags: DIFlagPrototyped, spFlags: DISPFlagOptimized)
!593 = !DISubroutineType(types: !594)
!594 = !{!595, !596}
!595 = !DIDerivedType(tag: DW_TAG_typedef, name: "value_type", scope: !588, file: !587, line: 72, baseType: !52)
!596 = !DIDerivedType(tag: DW_TAG_pointer_type, baseType: !597, size: 64, flags: DIFlagArtificial | DIFlagObjectPointer)
!597 = !DIDerivedType(tag: DW_TAG_const_type, baseType: !588)
!598 = !DISubprogram(name: "operator()", linkageName: "_ZNKSt17integral_constantIbLb1EEclEv", scope: !588, file: !587, line: 79, type: !593, scopeLine: 79, flags: DIFlagPrototyped, spFlags: DISPFlagOptimized)
!599 = !{!600, !601}
!600 = !DITemplateTypeParameter(name: "_Tp", type: !52)
!601 = !DITemplateValueParameter(name: "__v", type: !52, value: i8 1)
!602 = !DISubprogram(name: "_M_move_assign", linkageName: "_ZNSt6vectorIN7testing14TestPartResultESaIS1_EE14_M_move_assignEOS3_St17integral_constantIbLb0EE", scope: !93, file: !94, line: 1545, type: !603, scopeLine: 1545, flags: DIFlagPrototyped, spFlags: DISPFlagOptimized)
!603 = !DISubroutineType(types: !604)
!604 = !{null, !287, !312, !605}
!605 = !DIDerivedType(tag: DW_TAG_typedef, name: "false_type", scope: !22, file: !587, line: 90, baseType: !606)
!606 = distinct !DICompositeType(tag: DW_TAG_structure_type, name: "integral_constant<bool, false>", scope: !22, file: !587, line: 69, size: 8, flags: DIFlagTypePassByValue, elements: !607, templateParams: !616, identifier: "_ZTSSt17integral_constantIbLb0EE")
!607 = !{!608, !609, !615}
!608 = !DIDerivedType(tag: DW_TAG_member, name: "value", scope: !606, file: !587, line: 71, baseType: !591, flags: DIFlagStaticMember, extraData: i1 false)
!609 = !DISubprogram(name: "operator bool", linkageName: "_ZNKSt17integral_constantIbLb0EEcvbEv", scope: !606, file: !587, line: 74, type: !610, scopeLine: 74, flags: DIFlagPrototyped, spFlags: DISPFlagOptimized)
!610 = !DISubroutineType(types: !611)
!611 = !{!612, !613}
!612 = !DIDerivedType(tag: DW_TAG_typedef, name: "value_type", scope: !606, file: !587, line: 72, baseType: !52)
!613 = !DIDerivedType(tag: DW_TAG_pointer_type, baseType: !614, size: 64, flags: DIFlagArtificial | DIFlagObjectPointer)
!614 = !DIDerivedType(tag: DW_TAG_const_type, baseType: !606)
!615 = !DISubprogram(name: "operator()", linkageName: "_ZNKSt17integral_constantIbLb0EEclEv", scope: !606, file: !587, line: 79, type: !610, scopeLine: 79, flags: DIFlagPrototyped, spFlags: DISPFlagOptimized)
!616 = !{!600, !617}
!617 = !DITemplateValueParameter(name: "__v", type: !52, value: i8 0)
!618 = !DISubprogram(name: "TestPartResultArray", scope: !90, file: !14, line: 128, type: !619, scopeLine: 128, flags: DIFlagPublic | DIFlagPrototyped, spFlags: DISPFlagOptimized)
!619 = !DISubroutineType(types: !620)
!620 = !{null, !621}
!621 = !DIDerivedType(tag: DW_TAG_pointer_type, baseType: !90, size: 64, flags: DIFlagArtificial | DIFlagObjectPointer)
!622 = !DISubprogram(name: "Append", linkageName: "_ZN7testing19TestPartResultArray6AppendERKNS_14TestPartResultE", scope: !90, file: !14, line: 131, type: !623, scopeLine: 131, flags: DIFlagPublic | DIFlagPrototyped, spFlags: DISPFlagOptimized)
!623 = !DISubroutineType(types: !624)
!624 = !{null, !621, !82}
!625 = !DISubprogram(name: "GetTestPartResult", linkageName: "_ZNK7testing19TestPartResultArray17GetTestPartResultEi", scope: !90, file: !14, line: 134, type: !626, scopeLine: 134, flags: DIFlagPublic | DIFlagPrototyped, spFlags: DISPFlagOptimized)
!626 = !DISubroutineType(types: !627)
!627 = !{!82, !628, !26}
!628 = !DIDerivedType(tag: DW_TAG_pointer_type, baseType: !629, size: 64, flags: DIFlagArtificial | DIFlagObjectPointer)
!629 = !DIDerivedType(tag: DW_TAG_const_type, baseType: !90)
!630 = !DISubprogram(name: "size", linkageName: "_ZNK7testing19TestPartResultArray4sizeEv", scope: !90, file: !14, line: 137, type: !631, scopeLine: 137, flags: DIFlagPublic | DIFlagPrototyped, spFlags: DISPFlagOptimized)
!631 = !DISubroutineType(types: !632)
!632 = !{!26, !628}
!633 = !DISubprogram(name: "TestPartResultArray", scope: !90, file: !14, line: 142, type: !634, scopeLine: 142, flags: DIFlagPrototyped, spFlags: DISPFlagOptimized | DISPFlagDeleted)
!634 = !DISubroutineType(types: !635)
!635 = !{null, !621, !636}
!636 = !DIDerivedType(tag: DW_TAG_reference_type, baseType: !629, size: 64)
!637 = !DISubprogram(name: "operator=", linkageName: "_ZN7testing19TestPartResultArrayaSERKS0_", scope: !90, file: !14, line: 142, type: !634, scopeLine: 142, flags: DIFlagPrototyped, spFlags: DISPFlagOptimized | DISPFlagDeleted)
!638 = !DISubprogram(name: "ScopedFakeTestPartResultReporter", scope: !65, file: !64, line: 64, type: !639, scopeLine: 64, flags: DIFlagPublic | DIFlagExplicit | DIFlagPrototyped, spFlags: DISPFlagOptimized)
!639 = !DISubroutineType(types: !640)
!640 = !{null, !641, !89}
!641 = !DIDerivedType(tag: DW_TAG_pointer_type, baseType: !65, size: 64, flags: DIFlagArtificial | DIFlagObjectPointer)
!642 = !DISubprogram(name: "ScopedFakeTestPartResultReporter", scope: !65, file: !64, line: 67, type: !643, scopeLine: 67, flags: DIFlagPublic | DIFlagPrototyped, spFlags: DISPFlagOptimized)
!643 = !DISubroutineType(types: !644)
!644 = !{null, !641, !63, !89}
!645 = !DISubprogram(name: "~ScopedFakeTestPartResultReporter", scope: !65, file: !64, line: 71, type: !646, scopeLine: 71, containingType: !65, virtualIndex: 0, flags: DIFlagPublic | DIFlagPrototyped, spFlags: DISPFlagVirtual | DISPFlagOptimized)
!646 = !DISubroutineType(types: !647)
!647 = !{null, !641}
!648 = !DISubprogram(name: "ReportTestPartResult", linkageName: "_ZN7testing32ScopedFakeTestPartResultReporter20ReportTestPartResultERKNS_14TestPartResultE", scope: !65, file: !64, line: 78, type: !649, scopeLine: 78, containingType: !65, virtualIndex: 2, flags: DIFlagPublic | DIFlagPrototyped, spFlags: DISPFlagVirtual | DISPFlagOptimized)
!649 = !DISubroutineType(types: !650)
!650 = !{null, !641, !82}
!651 = !DISubprogram(name: "Init", linkageName: "_ZN7testing32ScopedFakeTestPartResultReporter4InitEv", scope: !65, file: !64, line: 80, type: !646, scopeLine: 80, flags: DIFlagPrototyped, spFlags: DISPFlagOptimized)
!652 = !DISubprogram(name: "ScopedFakeTestPartResultReporter", scope: !65, file: !64, line: 86, type: !653, scopeLine: 86, flags: DIFlagPrototyped, spFlags: DISPFlagOptimized | DISPFlagDeleted)
!653 = !DISubroutineType(types: !654)
!654 = !{null, !641, !655}
!655 = !DIDerivedType(tag: DW_TAG_reference_type, baseType: !656, size: 64)
!656 = !DIDerivedType(tag: DW_TAG_const_type, baseType: !65)
!657 = !DISubprogram(name: "operator=", linkageName: "_ZN7testing32ScopedFakeTestPartResultReporteraSERKS0_", scope: !65, file: !64, line: 86, type: !653, scopeLine: 86, flags: DIFlagPrototyped, spFlags: DISPFlagOptimized | DISPFlagDeleted)
!658 = !{!659, !660}
!659 = !DIEnumerator(name: "INTERCEPT_ONLY_CURRENT_THREAD", value: 0, isUnsigned: true)
!660 = !DIEnumerator(name: "INTERCEPT_ALL_THREADS", value: 1, isUnsigned: true)
!661 = !DICompositeType(tag: DW_TAG_enumeration_type, name: "float_denorm_style", scope: !22, file: !662, line: 182, baseType: !26, size: 32, elements: !663, identifier: "_ZTSSt18float_denorm_style")
!662 = !DIFile(filename: "/usr/lib/gcc/x86_64-linux-gnu/7.4.0/../../../../include/c++/7.4.0/limits", directory: "")
!663 = !{!664, !665, !666}
!664 = !DIEnumerator(name: "denorm_indeterminate", value: -1)
!665 = !DIEnumerator(name: "denorm_absent", value: 0)
!666 = !DIEnumerator(name: "denorm_present", value: 1)
!667 = !DICompositeType(tag: DW_TAG_enumeration_type, name: "float_round_style", scope: !22, file: !662, line: 167, baseType: !26, size: 32, elements: !668, identifier: "_ZTSSt17float_round_style")
!668 = !{!669, !670, !671, !672, !673}
!669 = !DIEnumerator(name: "round_indeterminate", value: -1)
!670 = !DIEnumerator(name: "round_toward_zero", value: 0)
!671 = !DIEnumerator(name: "round_to_nearest", value: 1)
!672 = !DIEnumerator(name: "round_toward_infinity", value: 2)
!673 = !DIEnumerator(name: "round_toward_neg_infinity", value: 3)
!674 = !DICompositeType(tag: DW_TAG_enumeration_type, name: "EditType", scope: !676, file: !675, line: 180, baseType: !7, size: 32, elements: !677, identifier: "_ZTSN7testing8internal13edit_distance8EditTypeE")
!675 = !DIFile(filename: "llvm/utils/unittest/googletest/include/gtest/internal/gtest-internal.h", directory: "/fast/fs/llvm-project")
!676 = !DINamespace(name: "edit_distance", scope: !5)
!677 = !{!678, !679, !680, !681}
!678 = !DIEnumerator(name: "kMatch", value: 0, isUnsigned: true)
!679 = !DIEnumerator(name: "kAdd", value: 1, isUnsigned: true)
!680 = !DIEnumerator(name: "kRemove", value: 2, isUnsigned: true)
!681 = !DIEnumerator(name: "kReplace", value: 3, isUnsigned: true)
!682 = !DICompositeType(tag: DW_TAG_enumeration_type, name: "_Rb_tree_color", scope: !22, file: !683, line: 99, baseType: !7, size: 32, elements: !684, identifier: "_ZTSSt14_Rb_tree_color")
!683 = !DIFile(filename: "/usr/lib/gcc/x86_64-linux-gnu/7.4.0/../../../../include/c++/7.4.0/bits/stl_tree.h", directory: "")
!684 = !{!685, !686}
!685 = !DIEnumerator(name: "_S_red", value: 0, isUnsigned: true)
!686 = !DIEnumerator(name: "_S_black", value: 1, isUnsigned: true)
!687 = !DICompositeType(tag: DW_TAG_enumeration_type, name: "GTestColor", scope: !5, file: !688, line: 2880, baseType: !7, size: 32, elements: !689, identifier: "_ZTSN7testing8internal10GTestColorE")
!688 = !DIFile(filename: "llvm/utils/unittest/googletest/src/gtest.cc", directory: "/fast/fs/llvm-project")
!689 = !{!690, !691, !692, !693}
!690 = !DIEnumerator(name: "COLOR_DEFAULT", value: 0, isUnsigned: true)
!691 = !DIEnumerator(name: "COLOR_RED", value: 1, isUnsigned: true)
!692 = !DIEnumerator(name: "COLOR_GREEN", value: 2, isUnsigned: true)
!693 = !DIEnumerator(name: "COLOR_YELLOW", value: 3, isUnsigned: true)
!694 = !DICompositeType(tag: DW_TAG_enumeration_type, name: "__socket_type", file: !695, line: 24, baseType: !7, size: 32, elements: !696, identifier: "_ZTS13__socket_type")
!695 = !DIFile(filename: "/usr/include/x86_64-linux-gnu/bits/socket_type.h", directory: "")
!696 = !{!697, !698, !699, !700, !701, !702, !703, !704, !705}
!697 = !DIEnumerator(name: "SOCK_STREAM", value: 1, isUnsigned: true)
!698 = !DIEnumerator(name: "SOCK_DGRAM", value: 2, isUnsigned: true)
!699 = !DIEnumerator(name: "SOCK_RAW", value: 3, isUnsigned: true)
!700 = !DIEnumerator(name: "SOCK_RDM", value: 4, isUnsigned: true)
!701 = !DIEnumerator(name: "SOCK_SEQPACKET", value: 5, isUnsigned: true)
!702 = !DIEnumerator(name: "SOCK_DCCP", value: 6, isUnsigned: true)
!703 = !DIEnumerator(name: "SOCK_PACKET", value: 10, isUnsigned: true)
!704 = !DIEnumerator(name: "SOCK_CLOEXEC", value: 524288, isUnsigned: true)
!705 = !DIEnumerator(name: "SOCK_NONBLOCK", value: 2048, isUnsigned: true)
!706 = !DICompositeType(tag: DW_TAG_enumeration_type, name: "ReactionToSharding", scope: !708, file: !707, line: 717, baseType: !7, size: 32, elements: !5791, identifier: "_ZTSN7testing8internal12UnitTestImpl18ReactionToShardingE")
!707 = !DIFile(filename: "llvm/utils/unittest/googletest/src/gtest-internal-inl.h", directory: "/fast/fs/llvm-project")
!708 = distinct !DICompositeType(tag: DW_TAG_class_type, name: "UnitTestImpl", scope: !5, file: !707, line: 499, size: 4032, flags: DIFlagTypePassByReference | DIFlagNonTrivial, elements: !709, vtableHolder: !708)
!709 = !{!710, !711, !3634, !3695, !3714, !3732, !3733, !3734, !3856, !4404, !4879, !4880, !4881, !4882, !4883, !4884, !4885, !4886, !4887, !4909, !4910, !4911, !4912, !4913, !4914, !4976, !5126, !5654, !5655, !5659, !5662, !5665, !5668, !5669, !5670, !5674, !5675, !5676, !5677, !5678, !5679, !5680, !5681, !5682, !5683, !5684, !5687, !5688, !5691, !5692, !5695, !5698, !5702, !5706, !5709, !5712, !5715, !5718, !5721, !5724, !5727, !5730, !5733, !5734, !5737, !5738, !5739, !5742, !5745, !5746, !5749, !5752, !5755, !5758, !5761, !5764, !5765, !5769, !5772, !5773, !5774, !5775, !5776, !5777, !5780, !5781, !5782, !5783, !5786, !5790}
!710 = !DIDerivedType(tag: DW_TAG_member, name: "_vptr$UnitTestImpl", scope: !707, file: !707, baseType: !71, size: 64, flags: DIFlagArtificial)
!711 = !DIDerivedType(tag: DW_TAG_member, name: "parent_", scope: !708, file: !707, line: 813, baseType: !712, size: 64, offset: 64)
!712 = !DIDerivedType(tag: DW_TAG_const_type, baseType: !713)
!713 = !DIDerivedType(tag: DW_TAG_pointer_type, baseType: !714, size: 64)
!714 = distinct !DICompositeType(tag: DW_TAG_class_type, name: "UnitTest", scope: !6, file: !715, line: 1151, size: 576, flags: DIFlagTypePassByReference | DIFlagNonTrivial, elements: !716, vtableHolder: !714)
!715 = !DIFile(filename: "llvm/utils/unittest/googletest/include/gtest/gtest.h", directory: "/fast/fs/llvm-project")
!716 = !{!717, !718, !777, !779, !782, !786, !791, !2518, !2521, !2524, !2969, !2970, !2971, !2972, !2973, !2974, !2975, !2976, !2977, !2978, !2979, !2980, !2983, !2984, !2987, !2988, !2991, !2994, !3593, !3598, !3601, !3604, !3607, !3610, !3615, !3618, !3619, !3629, !3630, !3633}
!717 = !DIDerivedType(tag: DW_TAG_member, name: "_vptr$UnitTest", scope: !715, file: !715, baseType: !71, size: 64, flags: DIFlagArtificial)
!718 = !DIDerivedType(tag: DW_TAG_member, name: "mutex_", scope: !714, file: !715, line: 1320, baseType: !719, size: 448, offset: 64)
!719 = distinct !DICompositeType(tag: DW_TAG_class_type, name: "Mutex", scope: !5, file: !4, line: 1986, size: 448, flags: DIFlagTypePassByReference | DIFlagNonTrivial, elements: !720, identifier: "_ZTSN7testing8internal5MutexE")
!720 = !{!721, !766, !770, !771, !776}
!721 = !DIDerivedType(tag: DW_TAG_inheritance, scope: !719, baseType: !722, flags: DIFlagPublic, extraData: i32 0)
!722 = distinct !DICompositeType(tag: DW_TAG_class_type, name: "MutexBase", scope: !5, file: !4, line: 1933, size: 448, flags: DIFlagTypePassByValue, elements: !723, identifier: "_ZTSN7testing8internal9MutexBaseE")
!723 = !{!724, !753, !754, !756, !760, !761}
!724 = !DIDerivedType(tag: DW_TAG_member, name: "mutex_", scope: !722, file: !4, line: 1965, baseType: !725, size: 320, flags: DIFlagPublic)
!725 = !DIDerivedType(tag: DW_TAG_typedef, name: "pthread_mutex_t", file: !726, line: 72, baseType: !727)
!726 = !DIFile(filename: "/usr/include/x86_64-linux-gnu/bits/pthreadtypes.h", directory: "")
!727 = distinct !DICompositeType(tag: DW_TAG_union_type, file: !726, line: 67, size: 320, flags: DIFlagTypePassByValue, elements: !728, identifier: "_ZTS15pthread_mutex_t")
!728 = !{!729, !748, !752}
!729 = !DIDerivedType(tag: DW_TAG_member, name: "__data", scope: !727, file: !726, line: 69, baseType: !730, size: 320)
!730 = distinct !DICompositeType(tag: DW_TAG_structure_type, name: "__pthread_mutex_s", file: !731, line: 118, size: 320, flags: DIFlagTypePassByValue, elements: !732, identifier: "_ZTS17__pthread_mutex_s")
!731 = !DIFile(filename: "/usr/include/x86_64-linux-gnu/bits/thread-shared-types.h", directory: "")
!732 = !{!733, !734, !735, !736, !737, !738, !740, !741}
!733 = !DIDerivedType(tag: DW_TAG_member, name: "__lock", scope: !730, file: !731, line: 120, baseType: !26, size: 32)
!734 = !DIDerivedType(tag: DW_TAG_member, name: "__count", scope: !730, file: !731, line: 121, baseType: !7, size: 32, offset: 32)
!735 = !DIDerivedType(tag: DW_TAG_member, name: "__owner", scope: !730, file: !731, line: 122, baseType: !26, size: 32, offset: 64)
!736 = !DIDerivedType(tag: DW_TAG_member, name: "__nusers", scope: !730, file: !731, line: 124, baseType: !7, size: 32, offset: 96)
!737 = !DIDerivedType(tag: DW_TAG_member, name: "__kind", scope: !730, file: !731, line: 128, baseType: !26, size: 32, offset: 128)
!738 = !DIDerivedType(tag: DW_TAG_member, name: "__spins", scope: !730, file: !731, line: 134, baseType: !739, size: 16, offset: 160)
!739 = !DIBasicType(name: "short", size: 16, encoding: DW_ATE_signed)
!740 = !DIDerivedType(tag: DW_TAG_member, name: "__elision", scope: !730, file: !731, line: 134, baseType: !739, size: 16, offset: 176)
!741 = !DIDerivedType(tag: DW_TAG_member, name: "__list", scope: !730, file: !731, line: 135, baseType: !742, size: 128, offset: 192)
!742 = !DIDerivedType(tag: DW_TAG_typedef, name: "__pthread_list_t", file: !731, line: 86, baseType: !743)
!743 = distinct !DICompositeType(tag: DW_TAG_structure_type, name: "__pthread_internal_list", file: !731, line: 82, size: 128, flags: DIFlagTypePassByValue, elements: !744, identifier: "_ZTS23__pthread_internal_list")
!744 = !{!745, !747}
!745 = !DIDerivedType(tag: DW_TAG_member, name: "__prev", scope: !743, file: !731, line: 84, baseType: !746, size: 64)
!746 = !DIDerivedType(tag: DW_TAG_pointer_type, baseType: !743, size: 64)
!747 = !DIDerivedType(tag: DW_TAG_member, name: "__next", scope: !743, file: !731, line: 85, baseType: !746, size: 64, offset: 64)
!748 = !DIDerivedType(tag: DW_TAG_member, name: "__size", scope: !727, file: !726, line: 70, baseType: !749, size: 320)
!749 = !DICompositeType(tag: DW_TAG_array_type, baseType: !35, size: 320, elements: !750)
!750 = !{!751}
!751 = !DISubrange(count: 40)
!752 = !DIDerivedType(tag: DW_TAG_member, name: "__align", scope: !727, file: !726, line: 71, baseType: !389, size: 64)
!753 = !DIDerivedType(tag: DW_TAG_member, name: "has_owner_", scope: !722, file: !4, line: 1972, baseType: !52, size: 8, offset: 320, flags: DIFlagPublic)
!754 = !DIDerivedType(tag: DW_TAG_member, name: "owner_", scope: !722, file: !4, line: 1973, baseType: !755, size: 64, offset: 384, flags: DIFlagPublic)
!755 = !DIDerivedType(tag: DW_TAG_typedef, name: "pthread_t", file: !726, line: 27, baseType: !159)
!756 = !DISubprogram(name: "Lock", linkageName: "_ZN7testing8internal9MutexBase4LockEv", scope: !722, file: !4, line: 1936, type: !757, scopeLine: 1936, flags: DIFlagPublic | DIFlagPrototyped, spFlags: DISPFlagOptimized)
!757 = !DISubroutineType(types: !758)
!758 = !{null, !759}
!759 = !DIDerivedType(tag: DW_TAG_pointer_type, baseType: !722, size: 64, flags: DIFlagArtificial | DIFlagObjectPointer)
!760 = !DISubprogram(name: "Unlock", linkageName: "_ZN7testing8internal9MutexBase6UnlockEv", scope: !722, file: !4, line: 1943, type: !757, scopeLine: 1943, flags: DIFlagPublic | DIFlagPrototyped, spFlags: DISPFlagOptimized)
!761 = !DISubprogram(name: "AssertHeld", linkageName: "_ZNK7testing8internal9MutexBase10AssertHeldEv", scope: !722, file: !4, line: 1954, type: !762, scopeLine: 1954, flags: DIFlagPublic | DIFlagPrototyped, spFlags: DISPFlagOptimized)
!762 = !DISubroutineType(types: !763)
!763 = !{null, !764}
!764 = !DIDerivedType(tag: DW_TAG_pointer_type, baseType: !765, size: 64, flags: DIFlagArtificial | DIFlagObjectPointer)
!765 = !DIDerivedType(tag: DW_TAG_const_type, baseType: !722)
!766 = !DISubprogram(name: "Mutex", scope: !719, file: !4, line: 1988, type: !767, scopeLine: 1988, flags: DIFlagPublic | DIFlagPrototyped, spFlags: DISPFlagOptimized)
!767 = !DISubroutineType(types: !768)
!768 = !{null, !769}
!769 = !DIDerivedType(tag: DW_TAG_pointer_type, baseType: !719, size: 64, flags: DIFlagArtificial | DIFlagObjectPointer)
!770 = !DISubprogram(name: "~Mutex", scope: !719, file: !4, line: 1992, type: !767, scopeLine: 1992, flags: DIFlagPublic | DIFlagPrototyped, spFlags: DISPFlagOptimized)
!771 = !DISubprogram(name: "Mutex", scope: !719, file: !4, line: 1997, type: !772, scopeLine: 1997, flags: DIFlagPrototyped, spFlags: DISPFlagOptimized | DISPFlagDeleted)
!772 = !DISubroutineType(types: !773)
!773 = !{null, !769, !774}
!774 = !DIDerivedType(tag: DW_TAG_reference_type, baseType: !775, size: 64)
!775 = !DIDerivedType(tag: DW_TAG_const_type, baseType: !719)
!776 = !DISubprogram(name: "operator=", linkageName: "_ZN7testing8internal5MutexaSERKS1_", scope: !719, file: !4, line: 1997, type: !772, scopeLine: 1997, flags: DIFlagPrototyped, spFlags: DISPFlagOptimized | DISPFlagDeleted)
!777 = !DIDerivedType(tag: DW_TAG_member, name: "impl_", scope: !714, file: !715, line: 1326, baseType: !778, size: 64, offset: 512)
!778 = !DIDerivedType(tag: DW_TAG_pointer_type, baseType: !708, size: 64)
!779 = !DISubprogram(name: "GetInstance", linkageName: "_ZN7testing8UnitTest11GetInstanceEv", scope: !714, file: !715, line: 1156, type: !780, scopeLine: 1156, flags: DIFlagPublic | DIFlagPrototyped | DIFlagStaticMember, spFlags: DISPFlagOptimized)
!780 = !DISubroutineType(types: !781)
!781 = !{!713}
!782 = !DISubprogram(name: "Run", linkageName: "_ZN7testing8UnitTest3RunEv", scope: !714, file: !715, line: 1164, type: !783, scopeLine: 1164, flags: DIFlagPublic | DIFlagPrototyped, spFlags: DISPFlagOptimized)
!783 = !DISubroutineType(types: !784)
!784 = !{!26, !785}
!785 = !DIDerivedType(tag: DW_TAG_pointer_type, baseType: !714, size: 64, flags: DIFlagArtificial | DIFlagObjectPointer)
!786 = !DISubprogram(name: "original_working_dir", linkageName: "_ZNK7testing8UnitTest20original_working_dirEv", scope: !714, file: !715, line: 1168, type: !787, scopeLine: 1168, flags: DIFlagPublic | DIFlagPrototyped, spFlags: DISPFlagOptimized)
!787 = !DISubroutineType(types: !788)
!788 = !{!33, !789}
!789 = !DIDerivedType(tag: DW_TAG_pointer_type, baseType: !790, size: 64, flags: DIFlagArtificial | DIFlagObjectPointer)
!790 = !DIDerivedType(tag: DW_TAG_const_type, baseType: !714)
!791 = !DISubprogram(name: "current_test_case", linkageName: "_ZNK7testing8UnitTest17current_test_caseEv", scope: !714, file: !715, line: 1172, type: !792, scopeLine: 1172, flags: DIFlagPublic | DIFlagPrototyped, spFlags: DISPFlagOptimized)
!792 = !DISubroutineType(types: !793)
!793 = !{!794, !789}
!794 = !DIDerivedType(tag: DW_TAG_pointer_type, baseType: !795, size: 64)
!795 = !DIDerivedType(tag: DW_TAG_const_type, baseType: !796)
!796 = distinct !DICompositeType(tag: DW_TAG_class_type, name: "TestCase", scope: !6, file: !715, line: 778, size: 1984, flags: DIFlagTypePassByReference | DIFlagNonTrivial, elements: !797, vtableHolder: !796)
!797 = !{!798, !799, !800, !834, !1887, !2310, !2414, !2417, !2418, !2419, !2420, !2424, !2427, !2431, !2432, !2435, !2438, !2439, !2440, !2441, !2442, !2443, !2444, !2445, !2446, !2449, !2453, !2456, !2459, !2462, !2465, !2468, !2471, !2472, !2476, !2477, !2478, !2479, !2482, !2483, !2484, !2485, !2486, !2487, !2512, !2513, !2517}
!798 = !DIDerivedType(tag: DW_TAG_member, name: "_vptr$TestCase", scope: !715, file: !715, baseType: !71, size: 64, flags: DIFlagArtificial)
!799 = !DIDerivedType(tag: DW_TAG_member, name: "name_", scope: !796, file: !715, line: 931, baseType: !19, size: 256, offset: 64)
!800 = !DIDerivedType(tag: DW_TAG_member, name: "type_param_", scope: !796, file: !715, line: 934, baseType: !801, size: 64, offset: 320)
!801 = !DIDerivedType(tag: DW_TAG_const_type, baseType: !802)
!802 = distinct !DICompositeType(tag: DW_TAG_class_type, name: "scoped_ptr<const std::__cxx11::basic_string<char, std::char_traits<char>, std::allocator<char> > >", scope: !5, file: !4, line: 1124, size: 64, flags: DIFlagTypePassByReference | DIFlagNonTrivial, elements: !803, templateParams: !832, identifier: "_ZTSN7testing8internal10scoped_ptrIKNSt7__cxx1112basic_stringIcSt11char_traitsIcESaIcEEEEE")
!803 = !{!804, !807, !811, !814, !819, !822, !823, !826, !827, !831}
!804 = !DIDerivedType(tag: DW_TAG_member, name: "ptr_", scope: !802, file: !4, line: 1156, baseType: !805, size: 64)
!805 = !DIDerivedType(tag: DW_TAG_pointer_type, baseType: !806, size: 64)
!806 = !DIDerivedType(tag: DW_TAG_const_type, baseType: !23)
!807 = !DISubprogram(name: "scoped_ptr", scope: !802, file: !4, line: 1128, type: !808, scopeLine: 1128, flags: DIFlagPublic | DIFlagExplicit | DIFlagPrototyped, spFlags: DISPFlagOptimized)
!808 = !DISubroutineType(types: !809)
!809 = !{null, !810, !805}
!810 = !DIDerivedType(tag: DW_TAG_pointer_type, baseType: !802, size: 64, flags: DIFlagArtificial | DIFlagObjectPointer)
!811 = !DISubprogram(name: "~scoped_ptr", scope: !802, file: !4, line: 1129, type: !812, scopeLine: 1129, flags: DIFlagPublic | DIFlagPrototyped, spFlags: DISPFlagOptimized)
!812 = !DISubroutineType(types: !813)
!813 = !{null, !810}
!814 = !DISubprogram(name: "operator*", linkageName: "_ZNK7testing8internal10scoped_ptrIKNSt7__cxx1112basic_stringIcSt11char_traitsIcESaIcEEEEdeEv", scope: !802, file: !4, line: 1131, type: !815, scopeLine: 1131, flags: DIFlagPublic | DIFlagPrototyped, spFlags: DISPFlagOptimized)
!815 = !DISubroutineType(types: !816)
!816 = !{!817, !818}
!817 = !DIDerivedType(tag: DW_TAG_reference_type, baseType: !806, size: 64)
!818 = !DIDerivedType(tag: DW_TAG_pointer_type, baseType: !801, size: 64, flags: DIFlagArtificial | DIFlagObjectPointer)
!819 = !DISubprogram(name: "operator->", linkageName: "_ZNK7testing8internal10scoped_ptrIKNSt7__cxx1112basic_stringIcSt11char_traitsIcESaIcEEEEptEv", scope: !802, file: !4, line: 1132, type: !820, scopeLine: 1132, flags: DIFlagPublic | DIFlagPrototyped, spFlags: DISPFlagOptimized)
!820 = !DISubroutineType(types: !821)
!821 = !{!805, !818}
!822 = !DISubprogram(name: "get", linkageName: "_ZNK7testing8internal10scoped_ptrIKNSt7__cxx1112basic_stringIcSt11char_traitsIcESaIcEEEE3getEv", scope: !802, file: !4, line: 1133, type: !820, scopeLine: 1133, flags: DIFlagPublic | DIFlagPrototyped, spFlags: DISPFlagOptimized)
!823 = !DISubprogram(name: "release", linkageName: "_ZN7testing8internal10scoped_ptrIKNSt7__cxx1112basic_stringIcSt11char_traitsIcESaIcEEEE7releaseEv", scope: !802, file: !4, line: 1135, type: !824, scopeLine: 1135, flags: DIFlagPublic | DIFlagPrototyped, spFlags: DISPFlagOptimized)
!824 = !DISubroutineType(types: !825)
!825 = !{!805, !810}
!826 = !DISubprogram(name: "reset", linkageName: "_ZN7testing8internal10scoped_ptrIKNSt7__cxx1112basic_stringIcSt11char_traitsIcESaIcEEEE5resetEPS8_", scope: !802, file: !4, line: 1141, type: !808, scopeLine: 1141, flags: DIFlagPublic | DIFlagPrototyped, spFlags: DISPFlagOptimized)
!827 = !DISubprogram(name: "scoped_ptr", scope: !802, file: !4, line: 1158, type: !828, scopeLine: 1158, flags: DIFlagPrototyped, spFlags: DISPFlagOptimized | DISPFlagDeleted)
!828 = !DISubroutineType(types: !829)
!829 = !{null, !810, !830}
!830 = !DIDerivedType(tag: DW_TAG_reference_type, baseType: !801, size: 64)
!831 = !DISubprogram(name: "operator=", linkageName: "_ZN7testing8internal10scoped_ptrIKNSt7__cxx1112basic_stringIcSt11char_traitsIcESaIcEEEEaSERKS9_", scope: !802, file: !4, line: 1158, type: !828, scopeLine: 1158, flags: DIFlagPrototyped, spFlags: DISPFlagOptimized | DISPFlagDeleted)
!832 = !{!833}
!833 = !DITemplateTypeParameter(name: "T", type: !806)
!834 = !DIDerivedType(tag: DW_TAG_member, name: "test_info_list_", scope: !796, file: !715, line: 937, baseType: !835, size: 192, offset: 384)
!835 = distinct !DICompositeType(tag: DW_TAG_class_type, name: "vector<testing::TestInfo *, std::allocator<testing::TestInfo *> >", scope: !22, file: !94, line: 216, size: 192, flags: DIFlagTypePassByReference | DIFlagNonTrivial, elements: !836, templateParams: !1587, identifier: "_ZTSSt6vectorIPN7testing8TestInfoESaIS2_EE")
!836 = !{!837, !1588, !1592, !1598, !1601, !1607, !1612, !1616, !1619, !1622, !1626, !1627, !1631, !1634, !1637, !1640, !1643, !1701, !1759, !1760, !1761, !1766, !1771, !1772, !1773, !1774, !1775, !1776, !1777, !1780, !1781, !1784, !1785, !1786, !1787, !1790, !1791, !1799, !1806, !1809, !1810, !1811, !1814, !1817, !1818, !1819, !1822, !1825, !1828, !1832, !1833, !1836, !1839, !1842, !1845, !1848, !1851, !1854, !1855, !1856, !1857, !1858, !1861, !1862, !1865, !1866, !1867, !1871, !1875, !1878, !1881, !1884}
!837 = !DIDerivedType(tag: DW_TAG_inheritance, scope: !835, baseType: !838, flags: DIFlagProtected, extraData: i32 0)
!838 = distinct !DICompositeType(tag: DW_TAG_structure_type, name: "_Vector_base<testing::TestInfo *, std::allocator<testing::TestInfo *> >", scope: !22, file: !94, line: 74, size: 192, flags: DIFlagTypePassByReference | DIFlagNonTrivial, elements: !839, templateParams: !1587, identifier: "_ZTSSt12_Vector_baseIPN7testing8TestInfoESaIS2_EE")
!839 = !{!840, !1541, !1546, !1551, !1555, !1558, !1563, !1566, !1569, !1572, !1576, !1579, !1580, !1583, !1586}
!840 = !DIDerivedType(tag: DW_TAG_member, name: "_M_impl", scope: !838, file: !94, line: 166, baseType: !841, size: 192)
!841 = distinct !DICompositeType(tag: DW_TAG_structure_type, name: "_Vector_impl", scope: !838, file: !94, line: 81, size: 192, flags: DIFlagTypePassByReference | DIFlagNonTrivial, elements: !842, identifier: "_ZTSNSt12_Vector_baseIPN7testing8TestInfoESaIS2_EE12_Vector_implE")
!842 = !{!843, !1519, !1522, !1523, !1524, !1528, !1533, !1537}
!843 = !DIDerivedType(tag: DW_TAG_inheritance, scope: !841, baseType: !844, extraData: i32 0)
!844 = !DIDerivedType(tag: DW_TAG_typedef, name: "_Tp_alloc_type", scope: !838, file: !94, line: 77, baseType: !845)
!845 = !DIDerivedType(tag: DW_TAG_typedef, name: "other", scope: !846, file: !105, line: 117, baseType: !1518)
!846 = distinct !DICompositeType(tag: DW_TAG_structure_type, name: "rebind<testing::TestInfo *>", scope: !847, file: !105, line: 116, size: 8, flags: DIFlagTypePassByValue, elements: !213, templateParams: !1477, identifier: "_ZTSN9__gnu_cxx14__alloc_traitsISaIPN7testing8TestInfoEEE6rebindIS3_EE")
!847 = distinct !DICompositeType(tag: DW_TAG_structure_type, name: "__alloc_traits<std::allocator<testing::TestInfo *> >", scope: !108, file: !105, line: 50, size: 8, flags: DIFlagTypePassByValue, elements: !848, templateParams: !1504, identifier: "_ZTSN9__gnu_cxx14__alloc_traitsISaIPN7testing8TestInfoEEEE")
!848 = !{!849, !1506, !1509, !1513, !1514, !1515, !1516, !1517}
!849 = !DIDerivedType(tag: DW_TAG_inheritance, scope: !847, baseType: !850, extraData: i32 0)
!850 = distinct !DICompositeType(tag: DW_TAG_structure_type, name: "allocator_traits<std::allocator<testing::TestInfo *> >", scope: !22, file: !112, line: 384, size: 8, flags: DIFlagTypePassByValue, elements: !851, templateParams: !1504, identifier: "_ZTSSt16allocator_traitsISaIPN7testing8TestInfoEEE")
!851 = !{!852, !1489, !1492, !1495, !1501}
!852 = !DISubprogram(name: "allocate", linkageName: "_ZNSt16allocator_traitsISaIPN7testing8TestInfoEEE8allocateERS3_m", scope: !850, file: !112, line: 435, type: !853, scopeLine: 435, flags: DIFlagPrototyped | DIFlagStaticMember, spFlags: DISPFlagOptimized)
!853 = !DISubroutineType(types: !854)
!854 = !{!855, !1435, !180}
!855 = !DIDerivedType(tag: DW_TAG_typedef, name: "pointer", scope: !850, file: !112, line: 392, baseType: !856)
!856 = !DIDerivedType(tag: DW_TAG_pointer_type, baseType: !857, size: 64)
!857 = !DIDerivedType(tag: DW_TAG_pointer_type, baseType: !858, size: 64)
!858 = distinct !DICompositeType(tag: DW_TAG_class_type, name: "TestInfo", scope: !6, file: !715, line: 644, size: 2112, flags: DIFlagTypePassByReference | DIFlagNonTrivial, elements: !859, identifier: "_ZTSN7testing8TestInfoE")
!859 = !{!860, !862, !863, !864, !865, !877, !880, !881, !882, !883, !887, !1396, !1400, !1405, !1406, !1407, !1408, !1409, !1412, !1415, !1416, !1420, !1423, !1426, !1427, !1430, !1434}
!860 = !DIDerivedType(tag: DW_TAG_member, name: "test_case_name_", scope: !858, file: !715, line: 751, baseType: !861, size: 256)
!861 = !DIDerivedType(tag: DW_TAG_const_type, baseType: !19)
!862 = !DIDerivedType(tag: DW_TAG_member, name: "name_", scope: !858, file: !715, line: 752, baseType: !861, size: 256, offset: 256)
!863 = !DIDerivedType(tag: DW_TAG_member, name: "type_param_", scope: !858, file: !715, line: 755, baseType: !801, size: 64, offset: 512)
!864 = !DIDerivedType(tag: DW_TAG_member, name: "value_param_", scope: !858, file: !715, line: 758, baseType: !801, size: 64, offset: 576)
!865 = !DIDerivedType(tag: DW_TAG_member, name: "location_", scope: !858, file: !715, line: 759, baseType: !866, size: 320, offset: 640)
!866 = distinct !DICompositeType(tag: DW_TAG_structure_type, name: "CodeLocation", scope: !5, file: !675, line: 504, size: 320, flags: DIFlagTypePassByReference | DIFlagNonTrivial, elements: !867, identifier: "_ZTSN7testing8internal12CodeLocationE")
!867 = !{!868, !870, !871}
!868 = !DIDerivedType(tag: DW_TAG_member, name: "file", scope: !866, file: !675, line: 507, baseType: !869, size: 256)
!869 = !DIDerivedType(tag: DW_TAG_typedef, name: "string", scope: !5, file: !4, line: 1106, baseType: !19)
!870 = !DIDerivedType(tag: DW_TAG_member, name: "line", scope: !866, file: !675, line: 508, baseType: !26, size: 32, offset: 256)
!871 = !DISubprogram(name: "CodeLocation", scope: !866, file: !675, line: 505, type: !872, scopeLine: 505, flags: DIFlagPrototyped, spFlags: DISPFlagOptimized)
!872 = !DISubroutineType(types: !873)
!873 = !{null, !874, !875, !26}
!874 = !DIDerivedType(tag: DW_TAG_pointer_type, baseType: !866, size: 64, flags: DIFlagArtificial | DIFlagObjectPointer)
!875 = !DIDerivedType(tag: DW_TAG_reference_type, baseType: !876, size: 64)
!876 = !DIDerivedType(tag: DW_TAG_const_type, baseType: !869)
!877 = !DIDerivedType(tag: DW_TAG_member, name: "fixture_class_id_", scope: !858, file: !715, line: 760, baseType: !878, size: 64, offset: 960)
!878 = !DIDerivedType(tag: DW_TAG_const_type, baseType: !879)
!879 = !DIDerivedType(tag: DW_TAG_typedef, name: "TypeId", scope: !5, file: !675, line: 429, baseType: !160)
!880 = !DIDerivedType(tag: DW_TAG_member, name: "should_run_", scope: !858, file: !715, line: 761, baseType: !52, size: 8, offset: 1024)
!881 = !DIDerivedType(tag: DW_TAG_member, name: "is_disabled_", scope: !858, file: !715, line: 762, baseType: !52, size: 8, offset: 1032)
!882 = !DIDerivedType(tag: DW_TAG_member, name: "matches_filter_", scope: !858, file: !715, line: 763, baseType: !52, size: 8, offset: 1040)
!883 = !DIDerivedType(tag: DW_TAG_member, name: "factory_", scope: !858, file: !715, line: 765, baseType: !884, size: 64, offset: 1088)
!884 = !DIDerivedType(tag: DW_TAG_const_type, baseType: !885)
!885 = !DIDerivedType(tag: DW_TAG_pointer_type, baseType: !886, size: 64)
!886 = !DICompositeType(tag: DW_TAG_class_type, name: "TestFactoryBase", scope: !5, file: !675, line: 464, flags: DIFlagFwdDecl, identifier: "_ZTSN7testing8internal15TestFactoryBaseE")
!887 = !DIDerivedType(tag: DW_TAG_member, name: "result_", scope: !858, file: !715, line: 770, baseType: !888, size: 960, offset: 1152)
!888 = distinct !DICompositeType(tag: DW_TAG_class_type, name: "TestResult", scope: !6, file: !715, line: 523, size: 960, flags: DIFlagTypePassByReference | DIFlagNonTrivial, elements: !889, identifier: "_ZTSN7testing10TestResultE")
!889 = !{!890, !891, !892, !1332, !1333, !1341, !1345, !1346, !1351, !1352, !1355, !1356, !1357, !1358, !1361, !1364, !1367, !1370, !1373, !1376, !1379, !1382, !1385, !1386, !1389, !1390, !1391, !1395}
!890 = !DIDerivedType(tag: DW_TAG_member, name: "test_properites_mutex_", scope: !888, file: !715, line: 618, baseType: !719, size: 448)
!891 = !DIDerivedType(tag: DW_TAG_member, name: "test_part_results_", scope: !888, file: !715, line: 621, baseType: !93, size: 192, offset: 448)
!892 = !DIDerivedType(tag: DW_TAG_member, name: "test_properties_", scope: !888, file: !715, line: 623, baseType: !893, size: 192, offset: 640)
!893 = distinct !DICompositeType(tag: DW_TAG_class_type, name: "vector<testing::TestProperty, std::allocator<testing::TestProperty> >", scope: !22, file: !94, line: 216, size: 192, flags: DIFlagTypePassByReference | DIFlagNonTrivial, elements: !894, templateParams: !1084, identifier: "_ZTSSt6vectorIN7testing12TestPropertyESaIS1_EE")
!894 = !{!895, !1085, !1089, !1095, !1098, !1104, !1109, !1113, !1116, !1119, !1123, !1124, !1128, !1131, !1134, !1137, !1140, !1198, !1204, !1205, !1206, !1211, !1216, !1217, !1218, !1219, !1220, !1221, !1222, !1225, !1226, !1229, !1230, !1231, !1232, !1235, !1236, !1244, !1251, !1254, !1255, !1256, !1259, !1262, !1263, !1264, !1267, !1270, !1273, !1277, !1278, !1281, !1284, !1287, !1290, !1293, !1296, !1299, !1300, !1301, !1302, !1303, !1306, !1307, !1310, !1311, !1312, !1316, !1320, !1323, !1326, !1329}
!895 = !DIDerivedType(tag: DW_TAG_inheritance, scope: !893, baseType: !896, flags: DIFlagProtected, extraData: i32 0)
!896 = distinct !DICompositeType(tag: DW_TAG_structure_type, name: "_Vector_base<testing::TestProperty, std::allocator<testing::TestProperty> >", scope: !22, file: !94, line: 74, size: 192, flags: DIFlagTypePassByReference | DIFlagNonTrivial, elements: !897, templateParams: !1084, identifier: "_ZTSSt12_Vector_baseIN7testing12TestPropertyESaIS1_EE")
!897 = !{!898, !1038, !1043, !1048, !1052, !1055, !1060, !1063, !1066, !1069, !1073, !1076, !1077, !1080, !1083}
!898 = !DIDerivedType(tag: DW_TAG_member, name: "_M_impl", scope: !896, file: !94, line: 166, baseType: !899, size: 192)
!899 = distinct !DICompositeType(tag: DW_TAG_structure_type, name: "_Vector_impl", scope: !896, file: !94, line: 81, size: 192, flags: DIFlagTypePassByReference | DIFlagNonTrivial, elements: !900, identifier: "_ZTSNSt12_Vector_baseIN7testing12TestPropertyESaIS1_EE12_Vector_implE")
!900 = !{!901, !1016, !1019, !1020, !1021, !1025, !1030, !1034}
!901 = !DIDerivedType(tag: DW_TAG_inheritance, scope: !899, baseType: !902, extraData: i32 0)
!902 = !DIDerivedType(tag: DW_TAG_typedef, name: "_Tp_alloc_type", scope: !896, file: !94, line: 77, baseType: !903)
!903 = !DIDerivedType(tag: DW_TAG_typedef, name: "other", scope: !904, file: !105, line: 117, baseType: !1015)
!904 = distinct !DICompositeType(tag: DW_TAG_structure_type, name: "rebind<testing::TestProperty>", scope: !905, file: !105, line: 116, size: 8, flags: DIFlagTypePassByValue, elements: !213, templateParams: !974, identifier: "_ZTSN9__gnu_cxx14__alloc_traitsISaIN7testing12TestPropertyEEE6rebindIS2_EE")
!905 = distinct !DICompositeType(tag: DW_TAG_structure_type, name: "__alloc_traits<std::allocator<testing::TestProperty> >", scope: !108, file: !105, line: 50, size: 8, flags: DIFlagTypePassByValue, elements: !906, templateParams: !1001, identifier: "_ZTSN9__gnu_cxx14__alloc_traitsISaIN7testing12TestPropertyEEEE")
!906 = !{!907, !1003, !1006, !1010, !1011, !1012, !1013, !1014}
!907 = !DIDerivedType(tag: DW_TAG_inheritance, scope: !905, baseType: !908, extraData: i32 0)
!908 = distinct !DICompositeType(tag: DW_TAG_structure_type, name: "allocator_traits<std::allocator<testing::TestProperty> >", scope: !22, file: !112, line: 384, size: 8, flags: DIFlagTypePassByValue, elements: !909, templateParams: !1001, identifier: "_ZTSSt16allocator_traitsISaIN7testing12TestPropertyEEE")
!909 = !{!910, !986, !989, !992, !998}
!910 = !DISubprogram(name: "allocate", linkageName: "_ZNSt16allocator_traitsISaIN7testing12TestPropertyEEE8allocateERS2_m", scope: !908, file: !112, line: 435, type: !911, scopeLine: 435, flags: DIFlagPrototyped | DIFlagStaticMember, spFlags: DISPFlagOptimized)
!911 = !DISubroutineType(types: !912)
!912 = !{!913, !933, !180}
!913 = !DIDerivedType(tag: DW_TAG_typedef, name: "pointer", scope: !908, file: !112, line: 392, baseType: !914)
!914 = !DIDerivedType(tag: DW_TAG_pointer_type, baseType: !915, size: 64)
!915 = distinct !DICompositeType(tag: DW_TAG_class_type, name: "TestProperty", scope: !6, file: !715, line: 486, size: 512, flags: DIFlagTypePassByReference | DIFlagNonTrivial, elements: !916, identifier: "_ZTSN7testing12TestPropertyE")
!916 = !{!917, !918, !919, !924, !929, !930}
!917 = !DIDerivedType(tag: DW_TAG_member, name: "key_", scope: !915, file: !715, line: 512, baseType: !19, size: 256)
!918 = !DIDerivedType(tag: DW_TAG_member, name: "value_", scope: !915, file: !715, line: 514, baseType: !19, size: 256, offset: 256)
!919 = !DISubprogram(name: "TestProperty", scope: !915, file: !715, line: 491, type: !920, scopeLine: 491, flags: DIFlagPublic | DIFlagPrototyped, spFlags: DISPFlagOptimized)
!920 = !DISubroutineType(types: !921)
!921 = !{null, !922, !923, !923}
!922 = !DIDerivedType(tag: DW_TAG_pointer_type, baseType: !915, size: 64, flags: DIFlagArtificial | DIFlagObjectPointer)
!923 = !DIDerivedType(tag: DW_TAG_reference_type, baseType: !861, size: 64)
!924 = !DISubprogram(name: "key", linkageName: "_ZNK7testing12TestProperty3keyEv", scope: !915, file: !715, line: 496, type: !925, scopeLine: 496, flags: DIFlagPublic | DIFlagPrototyped, spFlags: DISPFlagOptimized)
!925 = !DISubroutineType(types: !926)
!926 = !{!33, !927}
!927 = !DIDerivedType(tag: DW_TAG_pointer_type, baseType: !928, size: 64, flags: DIFlagArtificial | DIFlagObjectPointer)
!928 = !DIDerivedType(tag: DW_TAG_const_type, baseType: !915)
!929 = !DISubprogram(name: "value", linkageName: "_ZNK7testing12TestProperty5valueEv", scope: !915, file: !715, line: 501, type: !925, scopeLine: 501, flags: DIFlagPublic | DIFlagPrototyped, spFlags: DISPFlagOptimized)
!930 = !DISubprogram(name: "SetValue", linkageName: "_ZN7testing12TestProperty8SetValueERKNSt7__cxx1112basic_stringIcSt11char_traitsIcESaIcEEE", scope: !915, file: !715, line: 506, type: !931, scopeLine: 506, flags: DIFlagPublic | DIFlagPrototyped, spFlags: DISPFlagOptimized)
!931 = !DISubroutineType(types: !932)
!932 = !{null, !922, !923}
!933 = !DIDerivedType(tag: DW_TAG_reference_type, baseType: !934, size: 64)
!934 = !DIDerivedType(tag: DW_TAG_typedef, name: "allocator_type", scope: !908, file: !112, line: 387, baseType: !935)
!935 = distinct !DICompositeType(tag: DW_TAG_class_type, name: "allocator<testing::TestProperty>", scope: !22, file: !122, line: 108, size: 8, flags: DIFlagTypePassByReference | DIFlagNonTrivial, elements: !936, templateParams: !974, identifier: "_ZTSSaIN7testing12TestPropertyEE")
!936 = !{!937, !976, !980, !985}
!937 = !DIDerivedType(tag: DW_TAG_inheritance, scope: !935, baseType: !938, flags: DIFlagPublic, extraData: i32 0)
!938 = !DIDerivedType(tag: DW_TAG_typedef, name: "__allocator_base<testing::TestProperty>", scope: !22, file: !126, line: 48, baseType: !939)
!939 = distinct !DICompositeType(tag: DW_TAG_class_type, name: "new_allocator<testing::TestProperty>", scope: !108, file: !128, line: 58, size: 8, flags: DIFlagTypePassByReference | DIFlagNonTrivial, elements: !940, templateParams: !974, identifier: "_ZTSN9__gnu_cxx13new_allocatorIN7testing12TestPropertyEEE")
!940 = !{!941, !945, !950, !951, !958, !965, !968, !971}
!941 = !DISubprogram(name: "new_allocator", scope: !939, file: !128, line: 79, type: !942, scopeLine: 79, flags: DIFlagPublic | DIFlagPrototyped, spFlags: DISPFlagOptimized)
!942 = !DISubroutineType(types: !943)
!943 = !{null, !944}
!944 = !DIDerivedType(tag: DW_TAG_pointer_type, baseType: !939, size: 64, flags: DIFlagArtificial | DIFlagObjectPointer)
!945 = !DISubprogram(name: "new_allocator", scope: !939, file: !128, line: 81, type: !946, scopeLine: 81, flags: DIFlagPublic | DIFlagPrototyped, spFlags: DISPFlagOptimized)
!946 = !DISubroutineType(types: !947)
!947 = !{null, !944, !948}
!948 = !DIDerivedType(tag: DW_TAG_reference_type, baseType: !949, size: 64)
!949 = !DIDerivedType(tag: DW_TAG_const_type, baseType: !939)
!950 = !DISubprogram(name: "~new_allocator", scope: !939, file: !128, line: 86, type: !942, scopeLine: 86, flags: DIFlagPublic | DIFlagPrototyped, spFlags: DISPFlagOptimized)
!951 = !DISubprogram(name: "address", linkageName: "_ZNK9__gnu_cxx13new_allocatorIN7testing12TestPropertyEE7addressERS2_", scope: !939, file: !128, line: 89, type: !952, scopeLine: 89, flags: DIFlagPublic | DIFlagPrototyped, spFlags: DISPFlagOptimized)
!952 = !DISubroutineType(types: !953)
!953 = !{!954, !955, !956}
!954 = !DIDerivedType(tag: DW_TAG_typedef, name: "pointer", scope: !939, file: !128, line: 63, baseType: !914)
!955 = !DIDerivedType(tag: DW_TAG_pointer_type, baseType: !949, size: 64, flags: DIFlagArtificial | DIFlagObjectPointer)
!956 = !DIDerivedType(tag: DW_TAG_typedef, name: "reference", scope: !939, file: !128, line: 65, baseType: !957)
!957 = !DIDerivedType(tag: DW_TAG_reference_type, baseType: !915, size: 64)
!958 = !DISubprogram(name: "address", linkageName: "_ZNK9__gnu_cxx13new_allocatorIN7testing12TestPropertyEE7addressERKS2_", scope: !939, file: !128, line: 93, type: !959, scopeLine: 93, flags: DIFlagPublic | DIFlagPrototyped, spFlags: DISPFlagOptimized)
!959 = !DISubroutineType(types: !960)
!960 = !{!961, !955, !963}
!961 = !DIDerivedType(tag: DW_TAG_typedef, name: "const_pointer", scope: !939, file: !128, line: 64, baseType: !962)
!962 = !DIDerivedType(tag: DW_TAG_pointer_type, baseType: !928, size: 64)
!963 = !DIDerivedType(tag: DW_TAG_typedef, name: "const_reference", scope: !939, file: !128, line: 66, baseType: !964)
!964 = !DIDerivedType(tag: DW_TAG_reference_type, baseType: !928, size: 64)
!965 = !DISubprogram(name: "allocate", linkageName: "_ZN9__gnu_cxx13new_allocatorIN7testing12TestPropertyEE8allocateEmPKv", scope: !939, file: !128, line: 99, type: !966, scopeLine: 99, flags: DIFlagPublic | DIFlagPrototyped, spFlags: DISPFlagOptimized)
!966 = !DISubroutineType(types: !967)
!967 = !{!954, !944, !156, !160}
!968 = !DISubprogram(name: "deallocate", linkageName: "_ZN9__gnu_cxx13new_allocatorIN7testing12TestPropertyEE10deallocateEPS2_m", scope: !939, file: !128, line: 116, type: !969, scopeLine: 116, flags: DIFlagPublic | DIFlagPrototyped, spFlags: DISPFlagOptimized)
!969 = !DISubroutineType(types: !970)
!970 = !{null, !944, !954, !156}
!971 = !DISubprogram(name: "max_size", linkageName: "_ZNK9__gnu_cxx13new_allocatorIN7testing12TestPropertyEE8max_sizeEv", scope: !939, file: !128, line: 129, type: !972, scopeLine: 129, flags: DIFlagPublic | DIFlagPrototyped, spFlags: DISPFlagOptimized)
!972 = !DISubroutineType(types: !973)
!973 = !{!156, !955}
!974 = !{!975}
!975 = !DITemplateTypeParameter(name: "_Tp", type: !915)
!976 = !DISubprogram(name: "allocator", scope: !935, file: !122, line: 131, type: !977, scopeLine: 131, flags: DIFlagPublic | DIFlagPrototyped, spFlags: DISPFlagOptimized)
!977 = !DISubroutineType(types: !978)
!978 = !{null, !979}
!979 = !DIDerivedType(tag: DW_TAG_pointer_type, baseType: !935, size: 64, flags: DIFlagArtificial | DIFlagObjectPointer)
!980 = !DISubprogram(name: "allocator", scope: !935, file: !122, line: 133, type: !981, scopeLine: 133, flags: DIFlagPublic | DIFlagPrototyped, spFlags: DISPFlagOptimized)
!981 = !DISubroutineType(types: !982)
!982 = !{null, !979, !983}
!983 = !DIDerivedType(tag: DW_TAG_reference_type, baseType: !984, size: 64)
!984 = !DIDerivedType(tag: DW_TAG_const_type, baseType: !935)
!985 = !DISubprogram(name: "~allocator", scope: !935, file: !122, line: 139, type: !977, scopeLine: 139, flags: DIFlagPublic | DIFlagPrototyped, spFlags: DISPFlagOptimized)
!986 = !DISubprogram(name: "allocate", linkageName: "_ZNSt16allocator_traitsISaIN7testing12TestPropertyEEE8allocateERS2_mPKv", scope: !908, file: !112, line: 449, type: !987, scopeLine: 449, flags: DIFlagPrototyped | DIFlagStaticMember, spFlags: DISPFlagOptimized)
!987 = !DISubroutineType(types: !988)
!988 = !{!913, !933, !180, !184}
!989 = !DISubprogram(name: "deallocate", linkageName: "_ZNSt16allocator_traitsISaIN7testing12TestPropertyEEE10deallocateERS2_PS1_m", scope: !908, file: !112, line: 461, type: !990, scopeLine: 461, flags: DIFlagPrototyped | DIFlagStaticMember, spFlags: DISPFlagOptimized)
!990 = !DISubroutineType(types: !991)
!991 = !{null, !933, !913, !180}
!992 = !DISubprogram(name: "max_size", linkageName: "_ZNSt16allocator_traitsISaIN7testing12TestPropertyEEE8max_sizeERKS2_", scope: !908, file: !112, line: 495, type: !993, scopeLine: 495, flags: DIFlagPrototyped | DIFlagStaticMember, spFlags: DISPFlagOptimized)
!993 = !DISubroutineType(types: !994)
!994 = !{!995, !996}
!995 = !DIDerivedType(tag: DW_TAG_typedef, name: "size_type", scope: !908, file: !112, line: 407, baseType: !157)
!996 = !DIDerivedType(tag: DW_TAG_reference_type, baseType: !997, size: 64)
!997 = !DIDerivedType(tag: DW_TAG_const_type, baseType: !934)
!998 = !DISubprogram(name: "select_on_container_copy_construction", linkageName: "_ZNSt16allocator_traitsISaIN7testing12TestPropertyEEE37select_on_container_copy_constructionERKS2_", scope: !908, file: !112, line: 504, type: !999, scopeLine: 504, flags: DIFlagPrototyped | DIFlagStaticMember, spFlags: DISPFlagOptimized)
!999 = !DISubroutineType(types: !1000)
!1000 = !{!934, !996}
!1001 = !{!1002}
!1002 = !DITemplateTypeParameter(name: "_Alloc", type: !935)
!1003 = !DISubprogram(name: "_S_select_on_copy", linkageName: "_ZN9__gnu_cxx14__alloc_traitsISaIN7testing12TestPropertyEEE17_S_select_on_copyERKS3_", scope: !905, file: !105, line: 94, type: !1004, scopeLine: 94, flags: DIFlagPrototyped | DIFlagStaticMember, spFlags: DISPFlagOptimized)
!1004 = !DISubroutineType(types: !1005)
!1005 = !{!935, !983}
!1006 = !DISubprogram(name: "_S_on_swap", linkageName: "_ZN9__gnu_cxx14__alloc_traitsISaIN7testing12TestPropertyEEE10_S_on_swapERS3_S5_", scope: !905, file: !105, line: 97, type: !1007, scopeLine: 97, flags: DIFlagPrototyped | DIFlagStaticMember, spFlags: DISPFlagOptimized)
!1007 = !DISubroutineType(types: !1008)
!1008 = !{null, !1009, !1009}
!1009 = !DIDerivedType(tag: DW_TAG_reference_type, baseType: !935, size: 64)
!1010 = !DISubprogram(name: "_S_propagate_on_copy_assign", linkageName: "_ZN9__gnu_cxx14__alloc_traitsISaIN7testing12TestPropertyEEE27_S_propagate_on_copy_assignEv", scope: !905, file: !105, line: 100, type: !207, scopeLine: 100, flags: DIFlagPrototyped | DIFlagStaticMember, spFlags: DISPFlagOptimized)
!1011 = !DISubprogram(name: "_S_propagate_on_move_assign", linkageName: "_ZN9__gnu_cxx14__alloc_traitsISaIN7testing12TestPropertyEEE27_S_propagate_on_move_assignEv", scope: !905, file: !105, line: 103, type: !207, scopeLine: 103, flags: DIFlagPrototyped | DIFlagStaticMember, spFlags: DISPFlagOptimized)
!1012 = !DISubprogram(name: "_S_propagate_on_swap", linkageName: "_ZN9__gnu_cxx14__alloc_traitsISaIN7testing12TestPropertyEEE20_S_propagate_on_swapEv", scope: !905, file: !105, line: 106, type: !207, scopeLine: 106, flags: DIFlagPrototyped | DIFlagStaticMember, spFlags: DISPFlagOptimized)
!1013 = !DISubprogram(name: "_S_always_equal", linkageName: "_ZN9__gnu_cxx14__alloc_traitsISaIN7testing12TestPropertyEEE15_S_always_equalEv", scope: !905, file: !105, line: 109, type: !207, scopeLine: 109, flags: DIFlagPrototyped | DIFlagStaticMember, spFlags: DISPFlagOptimized)
!1014 = !DISubprogram(name: "_S_nothrow_move", linkageName: "_ZN9__gnu_cxx14__alloc_traitsISaIN7testing12TestPropertyEEE15_S_nothrow_moveEv", scope: !905, file: !105, line: 112, type: !207, scopeLine: 112, flags: DIFlagPrototyped | DIFlagStaticMember, spFlags: DISPFlagOptimized)
!1015 = !DIDerivedType(tag: DW_TAG_typedef, name: "rebind_alloc<testing::TestProperty>", scope: !908, file: !112, line: 422, baseType: !935)
!1016 = !DIDerivedType(tag: DW_TAG_member, name: "_M_start", scope: !899, file: !94, line: 84, baseType: !1017, size: 64)
!1017 = !DIDerivedType(tag: DW_TAG_typedef, name: "pointer", scope: !896, file: !94, line: 79, baseType: !1018)
!1018 = !DIDerivedType(tag: DW_TAG_typedef, name: "pointer", scope: !905, file: !105, line: 59, baseType: !913)
!1019 = !DIDerivedType(tag: DW_TAG_member, name: "_M_finish", scope: !899, file: !94, line: 85, baseType: !1017, size: 64, offset: 64)
!1020 = !DIDerivedType(tag: DW_TAG_member, name: "_M_end_of_storage", scope: !899, file: !94, line: 86, baseType: !1017, size: 64, offset: 128)
!1021 = !DISubprogram(name: "_Vector_impl", scope: !899, file: !94, line: 88, type: !1022, scopeLine: 88, flags: DIFlagPrototyped, spFlags: DISPFlagOptimized)
!1022 = !DISubroutineType(types: !1023)
!1023 = !{null, !1024}
!1024 = !DIDerivedType(tag: DW_TAG_pointer_type, baseType: !899, size: 64, flags: DIFlagArtificial | DIFlagObjectPointer)
!1025 = !DISubprogram(name: "_Vector_impl", scope: !899, file: !94, line: 92, type: !1026, scopeLine: 92, flags: DIFlagPrototyped, spFlags: DISPFlagOptimized)
!1026 = !DISubroutineType(types: !1027)
!1027 = !{null, !1024, !1028}
!1028 = !DIDerivedType(tag: DW_TAG_reference_type, baseType: !1029, size: 64)
!1029 = !DIDerivedType(tag: DW_TAG_const_type, baseType: !902)
!1030 = !DISubprogram(name: "_Vector_impl", scope: !899, file: !94, line: 97, type: !1031, scopeLine: 97, flags: DIFlagPrototyped, spFlags: DISPFlagOptimized)
!1031 = !DISubroutineType(types: !1032)
!1032 = !{null, !1024, !1033}
!1033 = !DIDerivedType(tag: DW_TAG_rvalue_reference_type, baseType: !902, size: 64)
!1034 = !DISubprogram(name: "_M_swap_data", linkageName: "_ZNSt12_Vector_baseIN7testing12TestPropertyESaIS1_EE12_Vector_impl12_M_swap_dataERS4_", scope: !899, file: !94, line: 103, type: !1035, scopeLine: 103, flags: DIFlagPrototyped, spFlags: DISPFlagOptimized)
!1035 = !DISubroutineType(types: !1036)
!1036 = !{null, !1024, !1037}
!1037 = !DIDerivedType(tag: DW_TAG_reference_type, baseType: !899, size: 64)
!1038 = !DISubprogram(name: "_M_get_Tp_allocator", linkageName: "_ZNSt12_Vector_baseIN7testing12TestPropertyESaIS1_EE19_M_get_Tp_allocatorEv", scope: !896, file: !94, line: 115, type: !1039, scopeLine: 115, flags: DIFlagPrototyped, spFlags: DISPFlagOptimized)
!1039 = !DISubroutineType(types: !1040)
!1040 = !{!1041, !1042}
!1041 = !DIDerivedType(tag: DW_TAG_reference_type, baseType: !902, size: 64)
!1042 = !DIDerivedType(tag: DW_TAG_pointer_type, baseType: !896, size: 64, flags: DIFlagArtificial | DIFlagObjectPointer)
!1043 = !DISubprogram(name: "_M_get_Tp_allocator", linkageName: "_ZNKSt12_Vector_baseIN7testing12TestPropertyESaIS1_EE19_M_get_Tp_allocatorEv", scope: !896, file: !94, line: 119, type: !1044, scopeLine: 119, flags: DIFlagPrototyped, spFlags: DISPFlagOptimized)
!1044 = !DISubroutineType(types: !1045)
!1045 = !{!1028, !1046}
!1046 = !DIDerivedType(tag: DW_TAG_pointer_type, baseType: !1047, size: 64, flags: DIFlagArtificial | DIFlagObjectPointer)
!1047 = !DIDerivedType(tag: DW_TAG_const_type, baseType: !896)
!1048 = !DISubprogram(name: "get_allocator", linkageName: "_ZNKSt12_Vector_baseIN7testing12TestPropertyESaIS1_EE13get_allocatorEv", scope: !896, file: !94, line: 123, type: !1049, scopeLine: 123, flags: DIFlagPrototyped, spFlags: DISPFlagOptimized)
!1049 = !DISubroutineType(types: !1050)
!1050 = !{!1051, !1046}
!1051 = !DIDerivedType(tag: DW_TAG_typedef, name: "allocator_type", scope: !896, file: !94, line: 112, baseType: !935)
!1052 = !DISubprogram(name: "_Vector_base", scope: !896, file: !94, line: 126, type: !1053, scopeLine: 126, flags: DIFlagPrototyped, spFlags: DISPFlagOptimized)
!1053 = !DISubroutineType(types: !1054)
!1054 = !{null, !1042}
!1055 = !DISubprogram(name: "_Vector_base", scope: !896, file: !94, line: 129, type: !1056, scopeLine: 129, flags: DIFlagPrototyped, spFlags: DISPFlagOptimized)
!1056 = !DISubroutineType(types: !1057)
!1057 = !{null, !1042, !1058}
!1058 = !DIDerivedType(tag: DW_TAG_reference_type, baseType: !1059, size: 64)
!1059 = !DIDerivedType(tag: DW_TAG_const_type, baseType: !1051)
!1060 = !DISubprogram(name: "_Vector_base", scope: !896, file: !94, line: 132, type: !1061, scopeLine: 132, flags: DIFlagPrototyped, spFlags: DISPFlagOptimized)
!1061 = !DISubroutineType(types: !1062)
!1062 = !{null, !1042, !157}
!1063 = !DISubprogram(name: "_Vector_base", scope: !896, file: !94, line: 136, type: !1064, scopeLine: 136, flags: DIFlagPrototyped, spFlags: DISPFlagOptimized)
!1064 = !DISubroutineType(types: !1065)
!1065 = !{null, !1042, !157, !1058}
!1066 = !DISubprogram(name: "_Vector_base", scope: !896, file: !94, line: 141, type: !1067, scopeLine: 141, flags: DIFlagPrototyped, spFlags: DISPFlagOptimized)
!1067 = !DISubroutineType(types: !1068)
!1068 = !{null, !1042, !1033}
!1069 = !DISubprogram(name: "_Vector_base", scope: !896, file: !94, line: 144, type: !1070, scopeLine: 144, flags: DIFlagPrototyped, spFlags: DISPFlagOptimized)
!1070 = !DISubroutineType(types: !1071)
!1071 = !{null, !1042, !1072}
!1072 = !DIDerivedType(tag: DW_TAG_rvalue_reference_type, baseType: !896, size: 64)
!1073 = !DISubprogram(name: "_Vector_base", scope: !896, file: !94, line: 148, type: !1074, scopeLine: 148, flags: DIFlagPrototyped, spFlags: DISPFlagOptimized)
!1074 = !DISubroutineType(types: !1075)
!1075 = !{null, !1042, !1072, !1058}
!1076 = !DISubprogram(name: "~_Vector_base", scope: !896, file: !94, line: 161, type: !1053, scopeLine: 161, flags: DIFlagPrototyped, spFlags: DISPFlagOptimized)
!1077 = !DISubprogram(name: "_M_allocate", linkageName: "_ZNSt12_Vector_baseIN7testing12TestPropertyESaIS1_EE11_M_allocateEm", scope: !896, file: !94, line: 169, type: !1078, scopeLine: 169, flags: DIFlagPrototyped, spFlags: DISPFlagOptimized)
!1078 = !DISubroutineType(types: !1079)
!1079 = !{!1017, !1042, !157}
!1080 = !DISubprogram(name: "_M_deallocate", linkageName: "_ZNSt12_Vector_baseIN7testing12TestPropertyESaIS1_EE13_M_deallocateEPS1_m", scope: !896, file: !94, line: 176, type: !1081, scopeLine: 176, flags: DIFlagPrototyped, spFlags: DISPFlagOptimized)
!1081 = !DISubroutineType(types: !1082)
!1082 = !{null, !1042, !1017, !157}
!1083 = !DISubprogram(name: "_M_create_storage", linkageName: "_ZNSt12_Vector_baseIN7testing12TestPropertyESaIS1_EE17_M_create_storageEm", scope: !896, file: !94, line: 185, type: !1061, scopeLine: 185, flags: DIFlagPrivate | DIFlagPrototyped, spFlags: DISPFlagOptimized)
!1084 = !{!975, !1002}
!1085 = !DISubprogram(name: "vector", scope: !893, file: !94, line: 259, type: !1086, scopeLine: 259, flags: DIFlagPublic | DIFlagPrototyped, spFlags: DISPFlagOptimized)
!1086 = !DISubroutineType(types: !1087)
!1087 = !{null, !1088}
!1088 = !DIDerivedType(tag: DW_TAG_pointer_type, baseType: !893, size: 64, flags: DIFlagArtificial | DIFlagObjectPointer)
!1089 = !DISubprogram(name: "vector", scope: !893, file: !94, line: 270, type: !1090, scopeLine: 270, flags: DIFlagPublic | DIFlagExplicit | DIFlagPrototyped, spFlags: DISPFlagOptimized)
!1090 = !DISubroutineType(types: !1091)
!1091 = !{null, !1088, !1092}
!1092 = !DIDerivedType(tag: DW_TAG_reference_type, baseType: !1093, size: 64)
!1093 = !DIDerivedType(tag: DW_TAG_const_type, baseType: !1094)
!1094 = !DIDerivedType(tag: DW_TAG_typedef, name: "allocator_type", scope: !893, file: !94, line: 244, baseType: !935)
!1095 = !DISubprogram(name: "vector", scope: !893, file: !94, line: 283, type: !1096, scopeLine: 283, flags: DIFlagPublic | DIFlagExplicit | DIFlagPrototyped, spFlags: DISPFlagOptimized)
!1096 = !DISubroutineType(types: !1097)
!1097 = !{null, !1088, !297, !1092}
!1098 = !DISubprogram(name: "vector", scope: !893, file: !94, line: 295, type: !1099, scopeLine: 295, flags: DIFlagPublic | DIFlagPrototyped, spFlags: DISPFlagOptimized)
!1099 = !DISubroutineType(types: !1100)
!1100 = !{null, !1088, !297, !1101, !1092}
!1101 = !DIDerivedType(tag: DW_TAG_reference_type, baseType: !1102, size: 64)
!1102 = !DIDerivedType(tag: DW_TAG_const_type, baseType: !1103)
!1103 = !DIDerivedType(tag: DW_TAG_typedef, name: "value_type", scope: !893, file: !94, line: 232, baseType: !915)
!1104 = !DISubprogram(name: "vector", scope: !893, file: !94, line: 326, type: !1105, scopeLine: 326, flags: DIFlagPublic | DIFlagPrototyped, spFlags: DISPFlagOptimized)
!1105 = !DISubroutineType(types: !1106)
!1106 = !{null, !1088, !1107}
!1107 = !DIDerivedType(tag: DW_TAG_reference_type, baseType: !1108, size: 64)
!1108 = !DIDerivedType(tag: DW_TAG_const_type, baseType: !893)
!1109 = !DISubprogram(name: "vector", scope: !893, file: !94, line: 344, type: !1110, scopeLine: 344, flags: DIFlagPublic | DIFlagPrototyped, spFlags: DISPFlagOptimized)
!1110 = !DISubroutineType(types: !1111)
!1111 = !{null, !1088, !1112}
!1112 = !DIDerivedType(tag: DW_TAG_rvalue_reference_type, baseType: !893, size: 64)
!1113 = !DISubprogram(name: "vector", scope: !893, file: !94, line: 348, type: !1114, scopeLine: 348, flags: DIFlagPublic | DIFlagPrototyped, spFlags: DISPFlagOptimized)
!1114 = !DISubroutineType(types: !1115)
!1115 = !{null, !1088, !1107, !1092}
!1116 = !DISubprogram(name: "vector", scope: !893, file: !94, line: 358, type: !1117, scopeLine: 358, flags: DIFlagPublic | DIFlagPrototyped, spFlags: DISPFlagOptimized)
!1117 = !DISubroutineType(types: !1118)
!1118 = !{null, !1088, !1112, !1092}
!1119 = !DISubprogram(name: "vector", scope: !893, file: !94, line: 383, type: !1120, scopeLine: 383, flags: DIFlagPublic | DIFlagPrototyped, spFlags: DISPFlagOptimized)
!1120 = !DISubroutineType(types: !1121)
!1121 = !{null, !1088, !1122, !1092}
!1122 = !DICompositeType(tag: DW_TAG_class_type, name: "initializer_list<testing::TestProperty>", scope: !22, file: !323, line: 47, flags: DIFlagFwdDecl, identifier: "_ZTSSt16initializer_listIN7testing12TestPropertyEE")
!1123 = !DISubprogram(name: "~vector", scope: !893, file: !94, line: 433, type: !1086, scopeLine: 433, flags: DIFlagPublic | DIFlagPrototyped, spFlags: DISPFlagOptimized)
!1124 = !DISubprogram(name: "operator=", linkageName: "_ZNSt6vectorIN7testing12TestPropertyESaIS1_EEaSERKS3_", scope: !893, file: !94, line: 447, type: !1125, scopeLine: 447, flags: DIFlagPublic | DIFlagPrototyped, spFlags: DISPFlagOptimized)
!1125 = !DISubroutineType(types: !1126)
!1126 = !{!1127, !1088, !1107}
!1127 = !DIDerivedType(tag: DW_TAG_reference_type, baseType: !893, size: 64)
!1128 = !DISubprogram(name: "operator=", linkageName: "_ZNSt6vectorIN7testing12TestPropertyESaIS1_EEaSEOS3_", scope: !893, file: !94, line: 461, type: !1129, scopeLine: 461, flags: DIFlagPublic | DIFlagPrototyped, spFlags: DISPFlagOptimized)
!1129 = !DISubroutineType(types: !1130)
!1130 = !{!1127, !1088, !1112}
!1131 = !DISubprogram(name: "operator=", linkageName: "_ZNSt6vectorIN7testing12TestPropertyESaIS1_EEaSESt16initializer_listIS1_E", scope: !893, file: !94, line: 482, type: !1132, scopeLine: 482, flags: DIFlagPublic | DIFlagPrototyped, spFlags: DISPFlagOptimized)
!1132 = !DISubroutineType(types: !1133)
!1133 = !{!1127, !1088, !1122}
!1134 = !DISubprogram(name: "assign", linkageName: "_ZNSt6vectorIN7testing12TestPropertyESaIS1_EE6assignEmRKS1_", scope: !893, file: !94, line: 501, type: !1135, scopeLine: 501, flags: DIFlagPublic | DIFlagPrototyped, spFlags: DISPFlagOptimized)
!1135 = !DISubroutineType(types: !1136)
!1136 = !{null, !1088, !297, !1101}
!1137 = !DISubprogram(name: "assign", linkageName: "_ZNSt6vectorIN7testing12TestPropertyESaIS1_EE6assignESt16initializer_listIS1_E", scope: !893, file: !94, line: 546, type: !1138, scopeLine: 546, flags: DIFlagPublic | DIFlagPrototyped, spFlags: DISPFlagOptimized)
!1138 = !DISubroutineType(types: !1139)
!1139 = !{null, !1088, !1122}
!1140 = !DISubprogram(name: "begin", linkageName: "_ZNSt6vectorIN7testing12TestPropertyESaIS1_EE5beginEv", scope: !893, file: !94, line: 563, type: !1141, scopeLine: 563, flags: DIFlagPublic | DIFlagPrototyped, spFlags: DISPFlagOptimized)
!1141 = !DISubroutineType(types: !1142)
!1142 = !{!1143, !1088}
!1143 = !DIDerivedType(tag: DW_TAG_typedef, name: "iterator", scope: !893, file: !94, line: 237, baseType: !1144)
!1144 = distinct !DICompositeType(tag: DW_TAG_class_type, name: "__normal_iterator<testing::TestProperty *, std::vector<testing::TestProperty, std::allocator<testing::TestProperty> > >", scope: !108, file: !346, line: 763, size: 64, flags: DIFlagTypePassByValue | DIFlagNonTrivial, elements: !1145, templateParams: !1196, identifier: "_ZTSN9__gnu_cxx17__normal_iteratorIPN7testing12TestPropertyESt6vectorIS2_SaIS2_EEEE")
!1145 = !{!1146, !1147, !1151, !1156, !1166, !1171, !1175, !1178, !1179, !1180, !1185, !1188, !1191, !1192, !1193}
!1146 = !DIDerivedType(tag: DW_TAG_member, name: "_M_current", scope: !1144, file: !346, line: 766, baseType: !914, size: 64, flags: DIFlagProtected)
!1147 = !DISubprogram(name: "__normal_iterator", scope: !1144, file: !346, line: 778, type: !1148, scopeLine: 778, flags: DIFlagPublic | DIFlagPrototyped, spFlags: DISPFlagOptimized)
!1148 = !DISubroutineType(types: !1149)
!1149 = !{null, !1150}
!1150 = !DIDerivedType(tag: DW_TAG_pointer_type, baseType: !1144, size: 64, flags: DIFlagArtificial | DIFlagObjectPointer)
!1151 = !DISubprogram(name: "__normal_iterator", scope: !1144, file: !346, line: 782, type: !1152, scopeLine: 782, flags: DIFlagPublic | DIFlagExplicit | DIFlagPrototyped, spFlags: DISPFlagOptimized)
!1152 = !DISubroutineType(types: !1153)
!1153 = !{null, !1150, !1154}
!1154 = !DIDerivedType(tag: DW_TAG_reference_type, baseType: !1155, size: 64)
!1155 = !DIDerivedType(tag: DW_TAG_const_type, baseType: !914)
!1156 = !DISubprogram(name: "operator*", linkageName: "_ZNK9__gnu_cxx17__normal_iteratorIPN7testing12TestPropertyESt6vectorIS2_SaIS2_EEEdeEv", scope: !1144, file: !346, line: 795, type: !1157, scopeLine: 795, flags: DIFlagPublic | DIFlagPrototyped, spFlags: DISPFlagOptimized)
!1157 = !DISubroutineType(types: !1158)
!1158 = !{!1159, !1164}
!1159 = !DIDerivedType(tag: DW_TAG_typedef, name: "reference", scope: !1144, file: !346, line: 775, baseType: !1160)
!1160 = !DIDerivedType(tag: DW_TAG_typedef, name: "reference", scope: !1161, file: !363, line: 184, baseType: !957)
!1161 = distinct !DICompositeType(tag: DW_TAG_structure_type, name: "iterator_traits<testing::TestProperty *>", scope: !22, file: !363, line: 178, size: 8, flags: DIFlagTypePassByValue, elements: !213, templateParams: !1162, identifier: "_ZTSSt15iterator_traitsIPN7testing12TestPropertyEE")
!1162 = !{!1163}
!1163 = !DITemplateTypeParameter(name: "_Iterator", type: !914)
!1164 = !DIDerivedType(tag: DW_TAG_pointer_type, baseType: !1165, size: 64, flags: DIFlagArtificial | DIFlagObjectPointer)
!1165 = !DIDerivedType(tag: DW_TAG_const_type, baseType: !1144)
!1166 = !DISubprogram(name: "operator->", linkageName: "_ZNK9__gnu_cxx17__normal_iteratorIPN7testing12TestPropertyESt6vectorIS2_SaIS2_EEEptEv", scope: !1144, file: !346, line: 799, type: !1167, scopeLine: 799, flags: DIFlagPublic | DIFlagPrototyped, spFlags: DISPFlagOptimized)
!1167 = !DISubroutineType(types: !1168)
!1168 = !{!1169, !1164}
!1169 = !DIDerivedType(tag: DW_TAG_typedef, name: "pointer", scope: !1144, file: !346, line: 776, baseType: !1170)
!1170 = !DIDerivedType(tag: DW_TAG_typedef, name: "pointer", scope: !1161, file: !363, line: 183, baseType: !914)
!1171 = !DISubprogram(name: "operator++", linkageName: "_ZN9__gnu_cxx17__normal_iteratorIPN7testing12TestPropertyESt6vectorIS2_SaIS2_EEEppEv", scope: !1144, file: !346, line: 803, type: !1172, scopeLine: 803, flags: DIFlagPublic | DIFlagPrototyped, spFlags: DISPFlagOptimized)
!1172 = !DISubroutineType(types: !1173)
!1173 = !{!1174, !1150}
!1174 = !DIDerivedType(tag: DW_TAG_reference_type, baseType: !1144, size: 64)
!1175 = !DISubprogram(name: "operator++", linkageName: "_ZN9__gnu_cxx17__normal_iteratorIPN7testing12TestPropertyESt6vectorIS2_SaIS2_EEEppEi", scope: !1144, file: !346, line: 810, type: !1176, scopeLine: 810, flags: DIFlagPublic | DIFlagPrototyped, spFlags: DISPFlagOptimized)
!1176 = !DISubroutineType(types: !1177)
!1177 = !{!1144, !1150, !26}
!1178 = !DISubprogram(name: "operator--", linkageName: "_ZN9__gnu_cxx17__normal_iteratorIPN7testing12TestPropertyESt6vectorIS2_SaIS2_EEEmmEv", scope: !1144, file: !346, line: 815, type: !1172, scopeLine: 815, flags: DIFlagPublic | DIFlagPrototyped, spFlags: DISPFlagOptimized)
!1179 = !DISubprogram(name: "operator--", linkageName: "_ZN9__gnu_cxx17__normal_iteratorIPN7testing12TestPropertyESt6vectorIS2_SaIS2_EEEmmEi", scope: !1144, file: !346, line: 822, type: !1176, scopeLine: 822, flags: DIFlagPublic | DIFlagPrototyped, spFlags: DISPFlagOptimized)
!1180 = !DISubprogram(name: "operator[]", linkageName: "_ZNK9__gnu_cxx17__normal_iteratorIPN7testing12TestPropertyESt6vectorIS2_SaIS2_EEEixEl", scope: !1144, file: !346, line: 827, type: !1181, scopeLine: 827, flags: DIFlagPublic | DIFlagPrototyped, spFlags: DISPFlagOptimized)
!1181 = !DISubroutineType(types: !1182)
!1182 = !{!1159, !1164, !1183}
!1183 = !DIDerivedType(tag: DW_TAG_typedef, name: "difference_type", scope: !1144, file: !346, line: 774, baseType: !1184)
!1184 = !DIDerivedType(tag: DW_TAG_typedef, name: "difference_type", scope: !1161, file: !363, line: 182, baseType: !388)
!1185 = !DISubprogram(name: "operator+=", linkageName: "_ZN9__gnu_cxx17__normal_iteratorIPN7testing12TestPropertyESt6vectorIS2_SaIS2_EEEpLEl", scope: !1144, file: !346, line: 831, type: !1186, scopeLine: 831, flags: DIFlagPublic | DIFlagPrototyped, spFlags: DISPFlagOptimized)
!1186 = !DISubroutineType(types: !1187)
!1187 = !{!1174, !1150, !1183}
!1188 = !DISubprogram(name: "operator+", linkageName: "_ZNK9__gnu_cxx17__normal_iteratorIPN7testing12TestPropertyESt6vectorIS2_SaIS2_EEEplEl", scope: !1144, file: !346, line: 835, type: !1189, scopeLine: 835, flags: DIFlagPublic | DIFlagPrototyped, spFlags: DISPFlagOptimized)
!1189 = !DISubroutineType(types: !1190)
!1190 = !{!1144, !1164, !1183}
!1191 = !DISubprogram(name: "operator-=", linkageName: "_ZN9__gnu_cxx17__normal_iteratorIPN7testing12TestPropertyESt6vectorIS2_SaIS2_EEEmIEl", scope: !1144, file: !346, line: 839, type: !1186, scopeLine: 839, flags: DIFlagPublic | DIFlagPrototyped, spFlags: DISPFlagOptimized)
!1192 = !DISubprogram(name: "operator-", linkageName: "_ZNK9__gnu_cxx17__normal_iteratorIPN7testing12TestPropertyESt6vectorIS2_SaIS2_EEEmiEl", scope: !1144, file: !346, line: 843, type: !1189, scopeLine: 843, flags: DIFlagPublic | DIFlagPrototyped, spFlags: DISPFlagOptimized)
!1193 = !DISubprogram(name: "base", linkageName: "_ZNK9__gnu_cxx17__normal_iteratorIPN7testing12TestPropertyESt6vectorIS2_SaIS2_EEE4baseEv", scope: !1144, file: !346, line: 847, type: !1194, scopeLine: 847, flags: DIFlagPublic | DIFlagPrototyped, spFlags: DISPFlagOptimized)
!1194 = !DISubroutineType(types: !1195)
!1195 = !{!1154, !1164}
!1196 = !{!1163, !1197}
!1197 = !DITemplateTypeParameter(name: "_Container", type: !893)
!1198 = !DISubprogram(name: "begin", linkageName: "_ZNKSt6vectorIN7testing12TestPropertyESaIS1_EE5beginEv", scope: !893, file: !94, line: 572, type: !1199, scopeLine: 572, flags: DIFlagPublic | DIFlagPrototyped, spFlags: DISPFlagOptimized)
!1199 = !DISubroutineType(types: !1200)
!1200 = !{!1201, !1203}
!1201 = !DIDerivedType(tag: DW_TAG_typedef, name: "const_iterator", scope: !893, file: !94, line: 239, baseType: !1202)
!1202 = !DICompositeType(tag: DW_TAG_class_type, name: "__normal_iterator<const testing::TestProperty *, std::vector<testing::TestProperty, std::allocator<testing::TestProperty> > >", scope: !108, file: !346, line: 763, flags: DIFlagFwdDecl, identifier: "_ZTSN9__gnu_cxx17__normal_iteratorIPKN7testing12TestPropertyESt6vectorIS2_SaIS2_EEEE")
!1203 = !DIDerivedType(tag: DW_TAG_pointer_type, baseType: !1108, size: 64, flags: DIFlagArtificial | DIFlagObjectPointer)
!1204 = !DISubprogram(name: "end", linkageName: "_ZNSt6vectorIN7testing12TestPropertyESaIS1_EE3endEv", scope: !893, file: !94, line: 581, type: !1141, scopeLine: 581, flags: DIFlagPublic | DIFlagPrototyped, spFlags: DISPFlagOptimized)
!1205 = !DISubprogram(name: "end", linkageName: "_ZNKSt6vectorIN7testing12TestPropertyESaIS1_EE3endEv", scope: !893, file: !94, line: 590, type: !1199, scopeLine: 590, flags: DIFlagPublic | DIFlagPrototyped, spFlags: DISPFlagOptimized)
!1206 = !DISubprogram(name: "rbegin", linkageName: "_ZNSt6vectorIN7testing12TestPropertyESaIS1_EE6rbeginEv", scope: !893, file: !94, line: 599, type: !1207, scopeLine: 599, flags: DIFlagPublic | DIFlagPrototyped, spFlags: DISPFlagOptimized)
!1207 = !DISubroutineType(types: !1208)
!1208 = !{!1209, !1088}
!1209 = !DIDerivedType(tag: DW_TAG_typedef, name: "reverse_iterator", scope: !893, file: !94, line: 241, baseType: !1210)
!1210 = !DICompositeType(tag: DW_TAG_class_type, name: "reverse_iterator<__gnu_cxx::__normal_iterator<testing::TestProperty *, std::vector<testing::TestProperty, std::allocator<testing::TestProperty> > > >", scope: !22, file: !346, line: 101, flags: DIFlagFwdDecl, identifier: "_ZTSSt16reverse_iteratorIN9__gnu_cxx17__normal_iteratorIPN7testing12TestPropertyESt6vectorIS3_SaIS3_EEEEE")
!1211 = !DISubprogram(name: "rbegin", linkageName: "_ZNKSt6vectorIN7testing12TestPropertyESaIS1_EE6rbeginEv", scope: !893, file: !94, line: 608, type: !1212, scopeLine: 608, flags: DIFlagPublic | DIFlagPrototyped, spFlags: DISPFlagOptimized)
!1212 = !DISubroutineType(types: !1213)
!1213 = !{!1214, !1203}
!1214 = !DIDerivedType(tag: DW_TAG_typedef, name: "const_reverse_iterator", scope: !893, file: !94, line: 240, baseType: !1215)
!1215 = !DICompositeType(tag: DW_TAG_class_type, name: "reverse_iterator<__gnu_cxx::__normal_iterator<const testing::TestProperty *, std::vector<testing::TestProperty, std::allocator<testing::TestProperty> > > >", scope: !22, file: !346, line: 101, flags: DIFlagFwdDecl, identifier: "_ZTSSt16reverse_iteratorIN9__gnu_cxx17__normal_iteratorIPKN7testing12TestPropertyESt6vectorIS3_SaIS3_EEEEE")
!1216 = !DISubprogram(name: "rend", linkageName: "_ZNSt6vectorIN7testing12TestPropertyESaIS1_EE4rendEv", scope: !893, file: !94, line: 617, type: !1207, scopeLine: 617, flags: DIFlagPublic | DIFlagPrototyped, spFlags: DISPFlagOptimized)
!1217 = !DISubprogram(name: "rend", linkageName: "_ZNKSt6vectorIN7testing12TestPropertyESaIS1_EE4rendEv", scope: !893, file: !94, line: 626, type: !1212, scopeLine: 626, flags: DIFlagPublic | DIFlagPrototyped, spFlags: DISPFlagOptimized)
!1218 = !DISubprogram(name: "cbegin", linkageName: "_ZNKSt6vectorIN7testing12TestPropertyESaIS1_EE6cbeginEv", scope: !893, file: !94, line: 636, type: !1199, scopeLine: 636, flags: DIFlagPublic | DIFlagPrototyped, spFlags: DISPFlagOptimized)
!1219 = !DISubprogram(name: "cend", linkageName: "_ZNKSt6vectorIN7testing12TestPropertyESaIS1_EE4cendEv", scope: !893, file: !94, line: 645, type: !1199, scopeLine: 645, flags: DIFlagPublic | DIFlagPrototyped, spFlags: DISPFlagOptimized)
!1220 = !DISubprogram(name: "crbegin", linkageName: "_ZNKSt6vectorIN7testing12TestPropertyESaIS1_EE7crbeginEv", scope: !893, file: !94, line: 654, type: !1212, scopeLine: 654, flags: DIFlagPublic | DIFlagPrototyped, spFlags: DISPFlagOptimized)
!1221 = !DISubprogram(name: "crend", linkageName: "_ZNKSt6vectorIN7testing12TestPropertyESaIS1_EE5crendEv", scope: !893, file: !94, line: 663, type: !1212, scopeLine: 663, flags: DIFlagPublic | DIFlagPrototyped, spFlags: DISPFlagOptimized)
!1222 = !DISubprogram(name: "size", linkageName: "_ZNKSt6vectorIN7testing12TestPropertyESaIS1_EE4sizeEv", scope: !893, file: !94, line: 670, type: !1223, scopeLine: 670, flags: DIFlagPublic | DIFlagPrototyped, spFlags: DISPFlagOptimized)
!1223 = !DISubroutineType(types: !1224)
!1224 = !{!297, !1203}
!1225 = !DISubprogram(name: "max_size", linkageName: "_ZNKSt6vectorIN7testing12TestPropertyESaIS1_EE8max_sizeEv", scope: !893, file: !94, line: 675, type: !1223, scopeLine: 675, flags: DIFlagPublic | DIFlagPrototyped, spFlags: DISPFlagOptimized)
!1226 = !DISubprogram(name: "resize", linkageName: "_ZNSt6vectorIN7testing12TestPropertyESaIS1_EE6resizeEm", scope: !893, file: !94, line: 689, type: !1227, scopeLine: 689, flags: DIFlagPublic | DIFlagPrototyped, spFlags: DISPFlagOptimized)
!1227 = !DISubroutineType(types: !1228)
!1228 = !{null, !1088, !297}
!1229 = !DISubprogram(name: "resize", linkageName: "_ZNSt6vectorIN7testing12TestPropertyESaIS1_EE6resizeEmRKS1_", scope: !893, file: !94, line: 709, type: !1135, scopeLine: 709, flags: DIFlagPublic | DIFlagPrototyped, spFlags: DISPFlagOptimized)
!1230 = !DISubprogram(name: "shrink_to_fit", linkageName: "_ZNSt6vectorIN7testing12TestPropertyESaIS1_EE13shrink_to_fitEv", scope: !893, file: !94, line: 741, type: !1086, scopeLine: 741, flags: DIFlagPublic | DIFlagPrototyped, spFlags: DISPFlagOptimized)
!1231 = !DISubprogram(name: "capacity", linkageName: "_ZNKSt6vectorIN7testing12TestPropertyESaIS1_EE8capacityEv", scope: !893, file: !94, line: 750, type: !1223, scopeLine: 750, flags: DIFlagPublic | DIFlagPrototyped, spFlags: DISPFlagOptimized)
!1232 = !DISubprogram(name: "empty", linkageName: "_ZNKSt6vectorIN7testing12TestPropertyESaIS1_EE5emptyEv", scope: !893, file: !94, line: 759, type: !1233, scopeLine: 759, flags: DIFlagPublic | DIFlagPrototyped, spFlags: DISPFlagOptimized)
!1233 = !DISubroutineType(types: !1234)
!1234 = !{!52, !1203}
!1235 = !DISubprogram(name: "reserve", linkageName: "_ZNSt6vectorIN7testing12TestPropertyESaIS1_EE7reserveEm", scope: !893, file: !94, line: 780, type: !1227, scopeLine: 780, flags: DIFlagPublic | DIFlagPrototyped, spFlags: DISPFlagOptimized)
!1236 = !DISubprogram(name: "operator[]", linkageName: "_ZNSt6vectorIN7testing12TestPropertyESaIS1_EEixEm", scope: !893, file: !94, line: 795, type: !1237, scopeLine: 795, flags: DIFlagPublic | DIFlagPrototyped, spFlags: DISPFlagOptimized)
!1237 = !DISubroutineType(types: !1238)
!1238 = !{!1239, !1088, !297}
!1239 = !DIDerivedType(tag: DW_TAG_typedef, name: "reference", scope: !893, file: !94, line: 235, baseType: !1240)
!1240 = !DIDerivedType(tag: DW_TAG_typedef, name: "reference", scope: !905, file: !105, line: 64, baseType: !1241)
!1241 = !DIDerivedType(tag: DW_TAG_reference_type, baseType: !1242, size: 64)
!1242 = !DIDerivedType(tag: DW_TAG_typedef, name: "value_type", scope: !905, file: !105, line: 58, baseType: !1243)
!1243 = !DIDerivedType(tag: DW_TAG_typedef, name: "value_type", scope: !908, file: !112, line: 389, baseType: !915)
!1244 = !DISubprogram(name: "operator[]", linkageName: "_ZNKSt6vectorIN7testing12TestPropertyESaIS1_EEixEm", scope: !893, file: !94, line: 813, type: !1245, scopeLine: 813, flags: DIFlagPublic | DIFlagPrototyped, spFlags: DISPFlagOptimized)
!1245 = !DISubroutineType(types: !1246)
!1246 = !{!1247, !1203, !297}
!1247 = !DIDerivedType(tag: DW_TAG_typedef, name: "const_reference", scope: !893, file: !94, line: 236, baseType: !1248)
!1248 = !DIDerivedType(tag: DW_TAG_typedef, name: "const_reference", scope: !905, file: !105, line: 65, baseType: !1249)
!1249 = !DIDerivedType(tag: DW_TAG_reference_type, baseType: !1250, size: 64)
!1250 = !DIDerivedType(tag: DW_TAG_const_type, baseType: !1242)
!1251 = !DISubprogram(name: "_M_range_check", linkageName: "_ZNKSt6vectorIN7testing12TestPropertyESaIS1_EE14_M_range_checkEm", scope: !893, file: !94, line: 822, type: !1252, scopeLine: 822, flags: DIFlagProtected | DIFlagPrototyped, spFlags: DISPFlagOptimized)
!1252 = !DISubroutineType(types: !1253)
!1253 = !{null, !1203, !297}
!1254 = !DISubprogram(name: "at", linkageName: "_ZNSt6vectorIN7testing12TestPropertyESaIS1_EE2atEm", scope: !893, file: !94, line: 844, type: !1237, scopeLine: 844, flags: DIFlagPublic | DIFlagPrototyped, spFlags: DISPFlagOptimized)
!1255 = !DISubprogram(name: "at", linkageName: "_ZNKSt6vectorIN7testing12TestPropertyESaIS1_EE2atEm", scope: !893, file: !94, line: 862, type: !1245, scopeLine: 862, flags: DIFlagPublic | DIFlagPrototyped, spFlags: DISPFlagOptimized)
!1256 = !DISubprogram(name: "front", linkageName: "_ZNSt6vectorIN7testing12TestPropertyESaIS1_EE5frontEv", scope: !893, file: !94, line: 873, type: !1257, scopeLine: 873, flags: DIFlagPublic | DIFlagPrototyped, spFlags: DISPFlagOptimized)
!1257 = !DISubroutineType(types: !1258)
!1258 = !{!1239, !1088}
!1259 = !DISubprogram(name: "front", linkageName: "_ZNKSt6vectorIN7testing12TestPropertyESaIS1_EE5frontEv", scope: !893, file: !94, line: 884, type: !1260, scopeLine: 884, flags: DIFlagPublic | DIFlagPrototyped, spFlags: DISPFlagOptimized)
!1260 = !DISubroutineType(types: !1261)
!1261 = !{!1247, !1203}
!1262 = !DISubprogram(name: "back", linkageName: "_ZNSt6vectorIN7testing12TestPropertyESaIS1_EE4backEv", scope: !893, file: !94, line: 895, type: !1257, scopeLine: 895, flags: DIFlagPublic | DIFlagPrototyped, spFlags: DISPFlagOptimized)
!1263 = !DISubprogram(name: "back", linkageName: "_ZNKSt6vectorIN7testing12TestPropertyESaIS1_EE4backEv", scope: !893, file: !94, line: 906, type: !1260, scopeLine: 906, flags: DIFlagPublic | DIFlagPrototyped, spFlags: DISPFlagOptimized)
!1264 = !DISubprogram(name: "data", linkageName: "_ZNSt6vectorIN7testing12TestPropertyESaIS1_EE4dataEv", scope: !893, file: !94, line: 920, type: !1265, scopeLine: 920, flags: DIFlagPublic | DIFlagPrototyped, spFlags: DISPFlagOptimized)
!1265 = !DISubroutineType(types: !1266)
!1266 = !{!914, !1088}
!1267 = !DISubprogram(name: "data", linkageName: "_ZNKSt6vectorIN7testing12TestPropertyESaIS1_EE4dataEv", scope: !893, file: !94, line: 924, type: !1268, scopeLine: 924, flags: DIFlagPublic | DIFlagPrototyped, spFlags: DISPFlagOptimized)
!1268 = !DISubroutineType(types: !1269)
!1269 = !{!962, !1203}
!1270 = !DISubprogram(name: "push_back", linkageName: "_ZNSt6vectorIN7testing12TestPropertyESaIS1_EE9push_backERKS1_", scope: !893, file: !94, line: 939, type: !1271, scopeLine: 939, flags: DIFlagPublic | DIFlagPrototyped, spFlags: DISPFlagOptimized)
!1271 = !DISubroutineType(types: !1272)
!1272 = !{null, !1088, !1101}
!1273 = !DISubprogram(name: "push_back", linkageName: "_ZNSt6vectorIN7testing12TestPropertyESaIS1_EE9push_backEOS1_", scope: !893, file: !94, line: 953, type: !1274, scopeLine: 953, flags: DIFlagPublic | DIFlagPrototyped, spFlags: DISPFlagOptimized)
!1274 = !DISubroutineType(types: !1275)
!1275 = !{null, !1088, !1276}
!1276 = !DIDerivedType(tag: DW_TAG_rvalue_reference_type, baseType: !1103, size: 64)
!1277 = !DISubprogram(name: "pop_back", linkageName: "_ZNSt6vectorIN7testing12TestPropertyESaIS1_EE8pop_backEv", scope: !893, file: !94, line: 975, type: !1086, scopeLine: 975, flags: DIFlagPublic | DIFlagPrototyped, spFlags: DISPFlagOptimized)
!1278 = !DISubprogram(name: "insert", linkageName: "_ZNSt6vectorIN7testing12TestPropertyESaIS1_EE6insertEN9__gnu_cxx17__normal_iteratorIPKS1_S3_EERS6_", scope: !893, file: !94, line: 1012, type: !1279, scopeLine: 1012, flags: DIFlagPublic | DIFlagPrototyped, spFlags: DISPFlagOptimized)
!1279 = !DISubroutineType(types: !1280)
!1280 = !{!1143, !1088, !1201, !1101}
!1281 = !DISubprogram(name: "insert", linkageName: "_ZNSt6vectorIN7testing12TestPropertyESaIS1_EE6insertEN9__gnu_cxx17__normal_iteratorIPKS1_S3_EEOS1_", scope: !893, file: !94, line: 1042, type: !1282, scopeLine: 1042, flags: DIFlagPublic | DIFlagPrototyped, spFlags: DISPFlagOptimized)
!1282 = !DISubroutineType(types: !1283)
!1283 = !{!1143, !1088, !1201, !1276}
!1284 = !DISubprogram(name: "insert", linkageName: "_ZNSt6vectorIN7testing12TestPropertyESaIS1_EE6insertEN9__gnu_cxx17__normal_iteratorIPKS1_S3_EESt16initializer_listIS1_E", scope: !893, file: !94, line: 1059, type: !1285, scopeLine: 1059, flags: DIFlagPublic | DIFlagPrototyped, spFlags: DISPFlagOptimized)
!1285 = !DISubroutineType(types: !1286)
!1286 = !{!1143, !1088, !1201, !1122}
!1287 = !DISubprogram(name: "insert", linkageName: "_ZNSt6vectorIN7testing12TestPropertyESaIS1_EE6insertEN9__gnu_cxx17__normal_iteratorIPKS1_S3_EEmRS6_", scope: !893, file: !94, line: 1084, type: !1288, scopeLine: 1084, flags: DIFlagPublic | DIFlagPrototyped, spFlags: DISPFlagOptimized)
!1288 = !DISubroutineType(types: !1289)
!1289 = !{!1143, !1088, !1201, !297, !1101}
!1290 = !DISubprogram(name: "erase", linkageName: "_ZNSt6vectorIN7testing12TestPropertyESaIS1_EE5eraseEN9__gnu_cxx17__normal_iteratorIPKS1_S3_EE", scope: !893, file: !94, line: 1179, type: !1291, scopeLine: 1179, flags: DIFlagPublic | DIFlagPrototyped, spFlags: DISPFlagOptimized)
!1291 = !DISubroutineType(types: !1292)
!1292 = !{!1143, !1088, !1201}
!1293 = !DISubprogram(name: "erase", linkageName: "_ZNSt6vectorIN7testing12TestPropertyESaIS1_EE5eraseEN9__gnu_cxx17__normal_iteratorIPKS1_S3_EES8_", scope: !893, file: !94, line: 1206, type: !1294, scopeLine: 1206, flags: DIFlagPublic | DIFlagPrototyped, spFlags: DISPFlagOptimized)
!1294 = !DISubroutineType(types: !1295)
!1295 = !{!1143, !1088, !1201, !1201}
!1296 = !DISubprogram(name: "swap", linkageName: "_ZNSt6vectorIN7testing12TestPropertyESaIS1_EE4swapERS3_", scope: !893, file: !94, line: 1229, type: !1297, scopeLine: 1229, flags: DIFlagPublic | DIFlagPrototyped, spFlags: DISPFlagOptimized)
!1297 = !DISubroutineType(types: !1298)
!1298 = !{null, !1088, !1127}
!1299 = !DISubprogram(name: "clear", linkageName: "_ZNSt6vectorIN7testing12TestPropertyESaIS1_EE5clearEv", scope: !893, file: !94, line: 1247, type: !1086, scopeLine: 1247, flags: DIFlagPublic | DIFlagPrototyped, spFlags: DISPFlagOptimized)
!1300 = !DISubprogram(name: "_M_fill_initialize", linkageName: "_ZNSt6vectorIN7testing12TestPropertyESaIS1_EE18_M_fill_initializeEmRKS1_", scope: !893, file: !94, line: 1339, type: !1135, scopeLine: 1339, flags: DIFlagProtected | DIFlagPrototyped, spFlags: DISPFlagOptimized)
!1301 = !DISubprogram(name: "_M_default_initialize", linkageName: "_ZNSt6vectorIN7testing12TestPropertyESaIS1_EE21_M_default_initializeEm", scope: !893, file: !94, line: 1349, type: !1227, scopeLine: 1349, flags: DIFlagProtected | DIFlagPrototyped, spFlags: DISPFlagOptimized)
!1302 = !DISubprogram(name: "_M_fill_assign", linkageName: "_ZNSt6vectorIN7testing12TestPropertyESaIS1_EE14_M_fill_assignEmRKS1_", scope: !893, file: !94, line: 1391, type: !1135, scopeLine: 1391, flags: DIFlagProtected | DIFlagPrototyped, spFlags: DISPFlagOptimized)
!1303 = !DISubprogram(name: "_M_fill_insert", linkageName: "_ZNSt6vectorIN7testing12TestPropertyESaIS1_EE14_M_fill_insertEN9__gnu_cxx17__normal_iteratorIPS1_S3_EEmRKS1_", scope: !893, file: !94, line: 1430, type: !1304, scopeLine: 1430, flags: DIFlagProtected | DIFlagPrototyped, spFlags: DISPFlagOptimized)
!1304 = !DISubroutineType(types: !1305)
!1305 = !{null, !1088, !1143, !297, !1101}
!1306 = !DISubprogram(name: "_M_default_append", linkageName: "_ZNSt6vectorIN7testing12TestPropertyESaIS1_EE17_M_default_appendEm", scope: !893, file: !94, line: 1435, type: !1227, scopeLine: 1435, flags: DIFlagProtected | DIFlagPrototyped, spFlags: DISPFlagOptimized)
!1307 = !DISubprogram(name: "_M_shrink_to_fit", linkageName: "_ZNSt6vectorIN7testing12TestPropertyESaIS1_EE16_M_shrink_to_fitEv", scope: !893, file: !94, line: 1438, type: !1308, scopeLine: 1438, flags: DIFlagProtected | DIFlagPrototyped, spFlags: DISPFlagOptimized)
!1308 = !DISubroutineType(types: !1309)
!1309 = !{!52, !1088}
!1310 = !DISubprogram(name: "_M_insert_rval", linkageName: "_ZNSt6vectorIN7testing12TestPropertyESaIS1_EE14_M_insert_rvalEN9__gnu_cxx17__normal_iteratorIPKS1_S3_EEOS1_", scope: !893, file: !94, line: 1487, type: !1282, scopeLine: 1487, flags: DIFlagProtected | DIFlagPrototyped, spFlags: DISPFlagOptimized)
!1311 = !DISubprogram(name: "_M_emplace_aux", linkageName: "_ZNSt6vectorIN7testing12TestPropertyESaIS1_EE14_M_emplace_auxEN9__gnu_cxx17__normal_iteratorIPKS1_S3_EEOS1_", scope: !893, file: !94, line: 1496, type: !1282, scopeLine: 1496, flags: DIFlagProtected | DIFlagPrototyped, spFlags: DISPFlagOptimized)
!1312 = !DISubprogram(name: "_M_check_len", linkageName: "_ZNKSt6vectorIN7testing12TestPropertyESaIS1_EE12_M_check_lenEmPKc", scope: !893, file: !94, line: 1502, type: !1313, scopeLine: 1502, flags: DIFlagProtected | DIFlagPrototyped, spFlags: DISPFlagOptimized)
!1313 = !DISubroutineType(types: !1314)
!1314 = !{!1315, !1203, !297, !33}
!1315 = !DIDerivedType(tag: DW_TAG_typedef, name: "size_type", scope: !893, file: !94, line: 242, baseType: !157)
!1316 = !DISubprogram(name: "_M_erase_at_end", linkageName: "_ZNSt6vectorIN7testing12TestPropertyESaIS1_EE15_M_erase_at_endEPS1_", scope: !893, file: !94, line: 1516, type: !1317, scopeLine: 1516, flags: DIFlagProtected | DIFlagPrototyped, spFlags: DISPFlagOptimized)
!1317 = !DISubroutineType(types: !1318)
!1318 = !{null, !1088, !1319}
!1319 = !DIDerivedType(tag: DW_TAG_typedef, name: "pointer", scope: !893, file: !94, line: 233, baseType: !1017)
!1320 = !DISubprogram(name: "_M_erase", linkageName: "_ZNSt6vectorIN7testing12TestPropertyESaIS1_EE8_M_eraseEN9__gnu_cxx17__normal_iteratorIPS1_S3_EE", scope: !893, file: !94, line: 1523, type: !1321, scopeLine: 1523, flags: DIFlagProtected | DIFlagPrototyped, spFlags: DISPFlagOptimized)
!1321 = !DISubroutineType(types: !1322)
!1322 = !{!1143, !1088, !1143}
!1323 = !DISubprogram(name: "_M_erase", linkageName: "_ZNSt6vectorIN7testing12TestPropertyESaIS1_EE8_M_eraseEN9__gnu_cxx17__normal_iteratorIPS1_S3_EES7_", scope: !893, file: !94, line: 1526, type: !1324, scopeLine: 1526, flags: DIFlagProtected | DIFlagPrototyped, spFlags: DISPFlagOptimized)
!1324 = !DISubroutineType(types: !1325)
!1325 = !{!1143, !1088, !1143, !1143}
!1326 = !DISubprogram(name: "_M_move_assign", linkageName: "_ZNSt6vectorIN7testing12TestPropertyESaIS1_EE14_M_move_assignEOS3_St17integral_constantIbLb1EE", scope: !893, file: !94, line: 1534, type: !1327, scopeLine: 1534, flags: DIFlagPrototyped, spFlags: DISPFlagOptimized)
!1327 = !DISubroutineType(types: !1328)
!1328 = !{null, !1088, !1112, !586}
!1329 = !DISubprogram(name: "_M_move_assign", linkageName: "_ZNSt6vectorIN7testing12TestPropertyESaIS1_EE14_M_move_assignEOS3_St17integral_constantIbLb0EE", scope: !893, file: !94, line: 1545, type: !1330, scopeLine: 1545, flags: DIFlagPrototyped, spFlags: DISPFlagOptimized)
!1330 = !DISubroutineType(types: !1331)
!1331 = !{null, !1088, !1112, !605}
!1332 = !DIDerivedType(tag: DW_TAG_member, name: "death_test_count_", scope: !888, file: !715, line: 625, baseType: !26, size: 32, offset: 832)
!1333 = !DIDerivedType(tag: DW_TAG_member, name: "elapsed_time_", scope: !888, file: !715, line: 627, baseType: !1334, size: 64, offset: 896)
!1334 = !DIDerivedType(tag: DW_TAG_typedef, name: "TimeInMillis", scope: !6, file: !715, line: 480, baseType: !1335)
!1335 = !DIDerivedType(tag: DW_TAG_typedef, name: "TimeInMillis", scope: !5, file: !4, line: 2507, baseType: !1336)
!1336 = !DIDerivedType(tag: DW_TAG_typedef, name: "Int", scope: !1337, file: !4, line: 2497, baseType: !1340)
!1337 = distinct !DICompositeType(tag: DW_TAG_class_type, name: "TypeWithSize<8>", scope: !5, file: !4, line: 2491, size: 8, flags: DIFlagTypePassByValue, elements: !213, templateParams: !1338, identifier: "_ZTSN7testing8internal12TypeWithSizeILm8EEE")
!1338 = !{!1339}
!1339 = !DITemplateValueParameter(name: "size", type: !159, value: i64 8)
!1340 = !DIBasicType(name: "long long int", size: 64, encoding: DW_ATE_signed)
!1341 = !DISubprogram(name: "TestResult", scope: !888, file: !715, line: 526, type: !1342, scopeLine: 526, flags: DIFlagPublic | DIFlagPrototyped, spFlags: DISPFlagOptimized)
!1342 = !DISubroutineType(types: !1343)
!1343 = !{null, !1344}
!1344 = !DIDerivedType(tag: DW_TAG_pointer_type, baseType: !888, size: 64, flags: DIFlagArtificial | DIFlagObjectPointer)
!1345 = !DISubprogram(name: "~TestResult", scope: !888, file: !715, line: 529, type: !1342, scopeLine: 529, flags: DIFlagPublic | DIFlagPrototyped, spFlags: DISPFlagOptimized)
!1346 = !DISubprogram(name: "total_part_count", linkageName: "_ZNK7testing10TestResult16total_part_countEv", scope: !888, file: !715, line: 533, type: !1347, scopeLine: 533, flags: DIFlagPublic | DIFlagPrototyped, spFlags: DISPFlagOptimized)
!1347 = !DISubroutineType(types: !1348)
!1348 = !{!26, !1349}
!1349 = !DIDerivedType(tag: DW_TAG_pointer_type, baseType: !1350, size: 64, flags: DIFlagArtificial | DIFlagObjectPointer)
!1350 = !DIDerivedType(tag: DW_TAG_const_type, baseType: !888)
!1351 = !DISubprogram(name: "test_property_count", linkageName: "_ZNK7testing10TestResult19test_property_countEv", scope: !888, file: !715, line: 536, type: !1347, scopeLine: 536, flags: DIFlagPublic | DIFlagPrototyped, spFlags: DISPFlagOptimized)
!1352 = !DISubprogram(name: "Passed", linkageName: "_ZNK7testing10TestResult6PassedEv", scope: !888, file: !715, line: 539, type: !1353, scopeLine: 539, flags: DIFlagPublic | DIFlagPrototyped, spFlags: DISPFlagOptimized)
!1353 = !DISubroutineType(types: !1354)
!1354 = !{!52, !1349}
!1355 = !DISubprogram(name: "Failed", linkageName: "_ZNK7testing10TestResult6FailedEv", scope: !888, file: !715, line: 542, type: !1353, scopeLine: 542, flags: DIFlagPublic | DIFlagPrototyped, spFlags: DISPFlagOptimized)
!1356 = !DISubprogram(name: "HasFatalFailure", linkageName: "_ZNK7testing10TestResult15HasFatalFailureEv", scope: !888, file: !715, line: 545, type: !1353, scopeLine: 545, flags: DIFlagPublic | DIFlagPrototyped, spFlags: DISPFlagOptimized)
!1357 = !DISubprogram(name: "HasNonfatalFailure", linkageName: "_ZNK7testing10TestResult18HasNonfatalFailureEv", scope: !888, file: !715, line: 548, type: !1353, scopeLine: 548, flags: DIFlagPublic | DIFlagPrototyped, spFlags: DISPFlagOptimized)
!1358 = !DISubprogram(name: "elapsed_time", linkageName: "_ZNK7testing10TestResult12elapsed_timeEv", scope: !888, file: !715, line: 551, type: !1359, scopeLine: 551, flags: DIFlagPublic | DIFlagPrototyped, spFlags: DISPFlagOptimized)
!1359 = !DISubroutineType(types: !1360)
!1360 = !{!1334, !1349}
!1361 = !DISubprogram(name: "GetTestPartResult", linkageName: "_ZNK7testing10TestResult17GetTestPartResultEi", scope: !888, file: !715, line: 556, type: !1362, scopeLine: 556, flags: DIFlagPublic | DIFlagPrototyped, spFlags: DISPFlagOptimized)
!1362 = !DISubroutineType(types: !1363)
!1363 = !{!82, !1349, !26}
!1364 = !DISubprogram(name: "GetTestProperty", linkageName: "_ZNK7testing10TestResult15GetTestPropertyEi", scope: !888, file: !715, line: 561, type: !1365, scopeLine: 561, flags: DIFlagPublic | DIFlagPrototyped, spFlags: DISPFlagOptimized)
!1365 = !DISubroutineType(types: !1366)
!1366 = !{!964, !1349, !26}
!1367 = !DISubprogram(name: "test_part_results", linkageName: "_ZNK7testing10TestResult17test_part_resultsEv", scope: !888, file: !715, line: 574, type: !1368, scopeLine: 574, flags: DIFlagPrototyped, spFlags: DISPFlagOptimized)
!1368 = !DISubroutineType(types: !1369)
!1369 = !{!307, !1349}
!1370 = !DISubprogram(name: "test_properties", linkageName: "_ZNK7testing10TestResult15test_propertiesEv", scope: !888, file: !715, line: 579, type: !1371, scopeLine: 579, flags: DIFlagPrototyped, spFlags: DISPFlagOptimized)
!1371 = !DISubroutineType(types: !1372)
!1372 = !{!1107, !1349}
!1373 = !DISubprogram(name: "set_elapsed_time", linkageName: "_ZN7testing10TestResult16set_elapsed_timeEx", scope: !888, file: !715, line: 584, type: !1374, scopeLine: 584, flags: DIFlagPrototyped, spFlags: DISPFlagOptimized)
!1374 = !DISubroutineType(types: !1375)
!1375 = !{null, !1344, !1334}
!1376 = !DISubprogram(name: "RecordProperty", linkageName: "_ZN7testing10TestResult14RecordPropertyERKNSt7__cxx1112basic_stringIcSt11char_traitsIcESaIcEEERKNS_12TestPropertyE", scope: !888, file: !715, line: 592, type: !1377, scopeLine: 592, flags: DIFlagPrototyped, spFlags: DISPFlagOptimized)
!1377 = !DISubroutineType(types: !1378)
!1378 = !{null, !1344, !923, !964}
!1379 = !DISubprogram(name: "ValidateTestProperty", linkageName: "_ZN7testing10TestResult20ValidateTestPropertyERKNSt7__cxx1112basic_stringIcSt11char_traitsIcESaIcEEERKNS_12TestPropertyE", scope: !888, file: !715, line: 598, type: !1380, scopeLine: 598, flags: DIFlagPrototyped | DIFlagStaticMember, spFlags: DISPFlagOptimized)
!1380 = !DISubroutineType(types: !1381)
!1381 = !{!52, !923, !964}
!1382 = !DISubprogram(name: "AddTestPartResult", linkageName: "_ZN7testing10TestResult17AddTestPartResultERKNS_14TestPartResultE", scope: !888, file: !715, line: 602, type: !1383, scopeLine: 602, flags: DIFlagPrototyped, spFlags: DISPFlagOptimized)
!1383 = !DISubroutineType(types: !1384)
!1384 = !{null, !1344, !82}
!1385 = !DISubprogram(name: "death_test_count", linkageName: "_ZNK7testing10TestResult16death_test_countEv", scope: !888, file: !715, line: 605, type: !1347, scopeLine: 605, flags: DIFlagPrototyped, spFlags: DISPFlagOptimized)
!1386 = !DISubprogram(name: "increment_death_test_count", linkageName: "_ZN7testing10TestResult26increment_death_test_countEv", scope: !888, file: !715, line: 608, type: !1387, scopeLine: 608, flags: DIFlagPrototyped, spFlags: DISPFlagOptimized)
!1387 = !DISubroutineType(types: !1388)
!1388 = !{!26, !1344}
!1389 = !DISubprogram(name: "ClearTestPartResults", linkageName: "_ZN7testing10TestResult20ClearTestPartResultsEv", scope: !888, file: !715, line: 611, type: !1342, scopeLine: 611, flags: DIFlagPrototyped, spFlags: DISPFlagOptimized)
!1390 = !DISubprogram(name: "Clear", linkageName: "_ZN7testing10TestResult5ClearEv", scope: !888, file: !715, line: 614, type: !1342, scopeLine: 614, flags: DIFlagPrototyped, spFlags: DISPFlagOptimized)
!1391 = !DISubprogram(name: "TestResult", scope: !888, file: !715, line: 630, type: !1392, scopeLine: 630, flags: DIFlagPrototyped, spFlags: DISPFlagOptimized | DISPFlagDeleted)
!1392 = !DISubroutineType(types: !1393)
!1393 = !{null, !1344, !1394}
!1394 = !DIDerivedType(tag: DW_TAG_reference_type, baseType: !1350, size: 64)
!1395 = !DISubprogram(name: "operator=", linkageName: "_ZN7testing10TestResultaSERKS0_", scope: !888, file: !715, line: 630, type: !1392, scopeLine: 630, flags: DIFlagPrototyped, spFlags: DISPFlagOptimized | DISPFlagDeleted)
!1396 = !DISubprogram(name: "~TestInfo", scope: !858, file: !715, line: 648, type: !1397, scopeLine: 648, flags: DIFlagPublic | DIFlagPrototyped, spFlags: DISPFlagOptimized)
!1397 = !DISubroutineType(types: !1398)
!1398 = !{null, !1399}
!1399 = !DIDerivedType(tag: DW_TAG_pointer_type, baseType: !858, size: 64, flags: DIFlagArtificial | DIFlagObjectPointer)
!1400 = !DISubprogram(name: "test_case_name", linkageName: "_ZNK7testing8TestInfo14test_case_nameEv", scope: !858, file: !715, line: 651, type: !1401, scopeLine: 651, flags: DIFlagPublic | DIFlagPrototyped, spFlags: DISPFlagOptimized)
!1401 = !DISubroutineType(types: !1402)
!1402 = !{!33, !1403}
!1403 = !DIDerivedType(tag: DW_TAG_pointer_type, baseType: !1404, size: 64, flags: DIFlagArtificial | DIFlagObjectPointer)
!1404 = !DIDerivedType(tag: DW_TAG_const_type, baseType: !858)
!1405 = !DISubprogram(name: "name", linkageName: "_ZNK7testing8TestInfo4nameEv", scope: !858, file: !715, line: 654, type: !1401, scopeLine: 654, flags: DIFlagPublic | DIFlagPrototyped, spFlags: DISPFlagOptimized)
!1406 = !DISubprogram(name: "type_param", linkageName: "_ZNK7testing8TestInfo10type_paramEv", scope: !858, file: !715, line: 658, type: !1401, scopeLine: 658, flags: DIFlagPublic | DIFlagPrototyped, spFlags: DISPFlagOptimized)
!1407 = !DISubprogram(name: "value_param", linkageName: "_ZNK7testing8TestInfo11value_paramEv", scope: !858, file: !715, line: 666, type: !1401, scopeLine: 666, flags: DIFlagPublic | DIFlagPrototyped, spFlags: DISPFlagOptimized)
!1408 = !DISubprogram(name: "file", linkageName: "_ZNK7testing8TestInfo4fileEv", scope: !858, file: !715, line: 673, type: !1401, scopeLine: 673, flags: DIFlagPublic | DIFlagPrototyped, spFlags: DISPFlagOptimized)
!1409 = !DISubprogram(name: "line", linkageName: "_ZNK7testing8TestInfo4lineEv", scope: !858, file: !715, line: 676, type: !1410, scopeLine: 676, flags: DIFlagPublic | DIFlagPrototyped, spFlags: DISPFlagOptimized)
!1410 = !DISubroutineType(types: !1411)
!1411 = !{!26, !1403}
!1412 = !DISubprogram(name: "should_run", linkageName: "_ZNK7testing8TestInfo10should_runEv", scope: !858, file: !715, line: 694, type: !1413, scopeLine: 694, flags: DIFlagPublic | DIFlagPrototyped, spFlags: DISPFlagOptimized)
!1413 = !DISubroutineType(types: !1414)
!1414 = !{!52, !1403}
!1415 = !DISubprogram(name: "is_reportable", linkageName: "_ZNK7testing8TestInfo13is_reportableEv", scope: !858, file: !715, line: 697, type: !1413, scopeLine: 697, flags: DIFlagPublic | DIFlagPrototyped, spFlags: DISPFlagOptimized)
!1416 = !DISubprogram(name: "result", linkageName: "_ZNK7testing8TestInfo6resultEv", scope: !858, file: !715, line: 705, type: !1417, scopeLine: 705, flags: DIFlagPublic | DIFlagPrototyped, spFlags: DISPFlagOptimized)
!1417 = !DISubroutineType(types: !1418)
!1418 = !{!1419, !1403}
!1419 = !DIDerivedType(tag: DW_TAG_pointer_type, baseType: !1350, size: 64)
!1420 = !DISubprogram(name: "TestInfo", scope: !858, file: !715, line: 728, type: !1421, scopeLine: 728, flags: DIFlagPrototyped, spFlags: DISPFlagOptimized)
!1421 = !DISubroutineType(types: !1422)
!1422 = !{null, !1399, !923, !923, !33, !33, !866, !879, !885}
!1423 = !DISubprogram(name: "increment_death_test_count", linkageName: "_ZN7testing8TestInfo26increment_death_test_countEv", scope: !858, file: !715, line: 738, type: !1424, scopeLine: 738, flags: DIFlagPrototyped, spFlags: DISPFlagOptimized)
!1424 = !DISubroutineType(types: !1425)
!1425 = !{!26, !1399}
!1426 = !DISubprogram(name: "Run", linkageName: "_ZN7testing8TestInfo3RunEv", scope: !858, file: !715, line: 744, type: !1397, scopeLine: 744, flags: DIFlagPrototyped, spFlags: DISPFlagOptimized)
!1427 = !DISubprogram(name: "ClearTestResult", linkageName: "_ZN7testing8TestInfo15ClearTestResultEPS0_", scope: !858, file: !715, line: 746, type: !1428, scopeLine: 746, flags: DIFlagPrototyped | DIFlagStaticMember, spFlags: DISPFlagOptimized)
!1428 = !DISubroutineType(types: !1429)
!1429 = !{null, !857}
!1430 = !DISubprogram(name: "TestInfo", scope: !858, file: !715, line: 772, type: !1431, scopeLine: 772, flags: DIFlagPrototyped, spFlags: DISPFlagOptimized | DISPFlagDeleted)
!1431 = !DISubroutineType(types: !1432)
!1432 = !{null, !1399, !1433}
!1433 = !DIDerivedType(tag: DW_TAG_reference_type, baseType: !1404, size: 64)
!1434 = !DISubprogram(name: "operator=", linkageName: "_ZN7testing8TestInfoaSERKS0_", scope: !858, file: !715, line: 772, type: !1431, scopeLine: 772, flags: DIFlagPrototyped, spFlags: DISPFlagOptimized | DISPFlagDeleted)
!1435 = !DIDerivedType(tag: DW_TAG_reference_type, baseType: !1436, size: 64)
!1436 = !DIDerivedType(tag: DW_TAG_typedef, name: "allocator_type", scope: !850, file: !112, line: 387, baseType: !1437)
!1437 = distinct !DICompositeType(tag: DW_TAG_class_type, name: "allocator<testing::TestInfo *>", scope: !22, file: !122, line: 108, size: 8, flags: DIFlagTypePassByReference | DIFlagNonTrivial, elements: !1438, templateParams: !1477, identifier: "_ZTSSaIPN7testing8TestInfoEE")
!1438 = !{!1439, !1479, !1483, !1488}
!1439 = !DIDerivedType(tag: DW_TAG_inheritance, scope: !1437, baseType: !1440, flags: DIFlagPublic, extraData: i32 0)
!1440 = !DIDerivedType(tag: DW_TAG_typedef, name: "__allocator_base<testing::TestInfo *>", scope: !22, file: !126, line: 48, baseType: !1441)
!1441 = distinct !DICompositeType(tag: DW_TAG_class_type, name: "new_allocator<testing::TestInfo *>", scope: !108, file: !128, line: 58, size: 8, flags: DIFlagTypePassByReference | DIFlagNonTrivial, elements: !1442, templateParams: !1477, identifier: "_ZTSN9__gnu_cxx13new_allocatorIPN7testing8TestInfoEEE")
!1442 = !{!1443, !1447, !1452, !1453, !1460, !1468, !1471, !1474}
!1443 = !DISubprogram(name: "new_allocator", scope: !1441, file: !128, line: 79, type: !1444, scopeLine: 79, flags: DIFlagPublic | DIFlagPrototyped, spFlags: DISPFlagOptimized)
!1444 = !DISubroutineType(types: !1445)
!1445 = !{null, !1446}
!1446 = !DIDerivedType(tag: DW_TAG_pointer_type, baseType: !1441, size: 64, flags: DIFlagArtificial | DIFlagObjectPointer)
!1447 = !DISubprogram(name: "new_allocator", scope: !1441, file: !128, line: 81, type: !1448, scopeLine: 81, flags: DIFlagPublic | DIFlagPrototyped, spFlags: DISPFlagOptimized)
!1448 = !DISubroutineType(types: !1449)
!1449 = !{null, !1446, !1450}
!1450 = !DIDerivedType(tag: DW_TAG_reference_type, baseType: !1451, size: 64)
!1451 = !DIDerivedType(tag: DW_TAG_const_type, baseType: !1441)
!1452 = !DISubprogram(name: "~new_allocator", scope: !1441, file: !128, line: 86, type: !1444, scopeLine: 86, flags: DIFlagPublic | DIFlagPrototyped, spFlags: DISPFlagOptimized)
!1453 = !DISubprogram(name: "address", linkageName: "_ZNK9__gnu_cxx13new_allocatorIPN7testing8TestInfoEE7addressERS3_", scope: !1441, file: !128, line: 89, type: !1454, scopeLine: 89, flags: DIFlagPublic | DIFlagPrototyped, spFlags: DISPFlagOptimized)
!1454 = !DISubroutineType(types: !1455)
!1455 = !{!1456, !1457, !1458}
!1456 = !DIDerivedType(tag: DW_TAG_typedef, name: "pointer", scope: !1441, file: !128, line: 63, baseType: !856)
!1457 = !DIDerivedType(tag: DW_TAG_pointer_type, baseType: !1451, size: 64, flags: DIFlagArtificial | DIFlagObjectPointer)
!1458 = !DIDerivedType(tag: DW_TAG_typedef, name: "reference", scope: !1441, file: !128, line: 65, baseType: !1459)
!1459 = !DIDerivedType(tag: DW_TAG_reference_type, baseType: !857, size: 64)
!1460 = !DISubprogram(name: "address", linkageName: "_ZNK9__gnu_cxx13new_allocatorIPN7testing8TestInfoEE7addressERKS3_", scope: !1441, file: !128, line: 93, type: !1461, scopeLine: 93, flags: DIFlagPublic | DIFlagPrototyped, spFlags: DISPFlagOptimized)
!1461 = !DISubroutineType(types: !1462)
!1462 = !{!1463, !1457, !1466}
!1463 = !DIDerivedType(tag: DW_TAG_typedef, name: "const_pointer", scope: !1441, file: !128, line: 64, baseType: !1464)
!1464 = !DIDerivedType(tag: DW_TAG_pointer_type, baseType: !1465, size: 64)
!1465 = !DIDerivedType(tag: DW_TAG_const_type, baseType: !857)
!1466 = !DIDerivedType(tag: DW_TAG_typedef, name: "const_reference", scope: !1441, file: !128, line: 66, baseType: !1467)
!1467 = !DIDerivedType(tag: DW_TAG_reference_type, baseType: !1465, size: 64)
!1468 = !DISubprogram(name: "allocate", linkageName: "_ZN9__gnu_cxx13new_allocatorIPN7testing8TestInfoEE8allocateEmPKv", scope: !1441, file: !128, line: 99, type: !1469, scopeLine: 99, flags: DIFlagPublic | DIFlagPrototyped, spFlags: DISPFlagOptimized)
!1469 = !DISubroutineType(types: !1470)
!1470 = !{!1456, !1446, !156, !160}
!1471 = !DISubprogram(name: "deallocate", linkageName: "_ZN9__gnu_cxx13new_allocatorIPN7testing8TestInfoEE10deallocateEPS3_m", scope: !1441, file: !128, line: 116, type: !1472, scopeLine: 116, flags: DIFlagPublic | DIFlagPrototyped, spFlags: DISPFlagOptimized)
!1472 = !DISubroutineType(types: !1473)
!1473 = !{null, !1446, !1456, !156}
!1474 = !DISubprogram(name: "max_size", linkageName: "_ZNK9__gnu_cxx13new_allocatorIPN7testing8TestInfoEE8max_sizeEv", scope: !1441, file: !128, line: 129, type: !1475, scopeLine: 129, flags: DIFlagPublic | DIFlagPrototyped, spFlags: DISPFlagOptimized)
!1475 = !DISubroutineType(types: !1476)
!1476 = !{!156, !1457}
!1477 = !{!1478}
!1478 = !DITemplateTypeParameter(name: "_Tp", type: !857)
!1479 = !DISubprogram(name: "allocator", scope: !1437, file: !122, line: 131, type: !1480, scopeLine: 131, flags: DIFlagPublic | DIFlagPrototyped, spFlags: DISPFlagOptimized)
!1480 = !DISubroutineType(types: !1481)
!1481 = !{null, !1482}
!1482 = !DIDerivedType(tag: DW_TAG_pointer_type, baseType: !1437, size: 64, flags: DIFlagArtificial | DIFlagObjectPointer)
!1483 = !DISubprogram(name: "allocator", scope: !1437, file: !122, line: 133, type: !1484, scopeLine: 133, flags: DIFlagPublic | DIFlagPrototyped, spFlags: DISPFlagOptimized)
!1484 = !DISubroutineType(types: !1485)
!1485 = !{null, !1482, !1486}
!1486 = !DIDerivedType(tag: DW_TAG_reference_type, baseType: !1487, size: 64)
!1487 = !DIDerivedType(tag: DW_TAG_const_type, baseType: !1437)
!1488 = !DISubprogram(name: "~allocator", scope: !1437, file: !122, line: 139, type: !1480, scopeLine: 139, flags: DIFlagPublic | DIFlagPrototyped, spFlags: DISPFlagOptimized)
!1489 = !DISubprogram(name: "allocate", linkageName: "_ZNSt16allocator_traitsISaIPN7testing8TestInfoEEE8allocateERS3_mPKv", scope: !850, file: !112, line: 449, type: !1490, scopeLine: 449, flags: DIFlagPrototyped | DIFlagStaticMember, spFlags: DISPFlagOptimized)
!1490 = !DISubroutineType(types: !1491)
!1491 = !{!855, !1435, !180, !184}
!1492 = !DISubprogram(name: "deallocate", linkageName: "_ZNSt16allocator_traitsISaIPN7testing8TestInfoEEE10deallocateERS3_PS2_m", scope: !850, file: !112, line: 461, type: !1493, scopeLine: 461, flags: DIFlagPrototyped | DIFlagStaticMember, spFlags: DISPFlagOptimized)
!1493 = !DISubroutineType(types: !1494)
!1494 = !{null, !1435, !855, !180}
!1495 = !DISubprogram(name: "max_size", linkageName: "_ZNSt16allocator_traitsISaIPN7testing8TestInfoEEE8max_sizeERKS3_", scope: !850, file: !112, line: 495, type: !1496, scopeLine: 495, flags: DIFlagPrototyped | DIFlagStaticMember, spFlags: DISPFlagOptimized)
!1496 = !DISubroutineType(types: !1497)
!1497 = !{!1498, !1499}
!1498 = !DIDerivedType(tag: DW_TAG_typedef, name: "size_type", scope: !850, file: !112, line: 407, baseType: !157)
!1499 = !DIDerivedType(tag: DW_TAG_reference_type, baseType: !1500, size: 64)
!1500 = !DIDerivedType(tag: DW_TAG_const_type, baseType: !1436)
!1501 = !DISubprogram(name: "select_on_container_copy_construction", linkageName: "_ZNSt16allocator_traitsISaIPN7testing8TestInfoEEE37select_on_container_copy_constructionERKS3_", scope: !850, file: !112, line: 504, type: !1502, scopeLine: 504, flags: DIFlagPrototyped | DIFlagStaticMember, spFlags: DISPFlagOptimized)
!1502 = !DISubroutineType(types: !1503)
!1503 = !{!1436, !1499}
!1504 = !{!1505}
!1505 = !DITemplateTypeParameter(name: "_Alloc", type: !1437)
!1506 = !DISubprogram(name: "_S_select_on_copy", linkageName: "_ZN9__gnu_cxx14__alloc_traitsISaIPN7testing8TestInfoEEE17_S_select_on_copyERKS4_", scope: !847, file: !105, line: 94, type: !1507, scopeLine: 94, flags: DIFlagPrototyped | DIFlagStaticMember, spFlags: DISPFlagOptimized)
!1507 = !DISubroutineType(types: !1508)
!1508 = !{!1437, !1486}
!1509 = !DISubprogram(name: "_S_on_swap", linkageName: "_ZN9__gnu_cxx14__alloc_traitsISaIPN7testing8TestInfoEEE10_S_on_swapERS4_S6_", scope: !847, file: !105, line: 97, type: !1510, scopeLine: 97, flags: DIFlagPrototyped | DIFlagStaticMember, spFlags: DISPFlagOptimized)
!1510 = !DISubroutineType(types: !1511)
!1511 = !{null, !1512, !1512}
!1512 = !DIDerivedType(tag: DW_TAG_reference_type, baseType: !1437, size: 64)
!1513 = !DISubprogram(name: "_S_propagate_on_copy_assign", linkageName: "_ZN9__gnu_cxx14__alloc_traitsISaIPN7testing8TestInfoEEE27_S_propagate_on_copy_assignEv", scope: !847, file: !105, line: 100, type: !207, scopeLine: 100, flags: DIFlagPrototyped | DIFlagStaticMember, spFlags: DISPFlagOptimized)
!1514 = !DISubprogram(name: "_S_propagate_on_move_assign", linkageName: "_ZN9__gnu_cxx14__alloc_traitsISaIPN7testing8TestInfoEEE27_S_propagate_on_move_assignEv", scope: !847, file: !105, line: 103, type: !207, scopeLine: 103, flags: DIFlagPrototyped | DIFlagStaticMember, spFlags: DISPFlagOptimized)
!1515 = !DISubprogram(name: "_S_propagate_on_swap", linkageName: "_ZN9__gnu_cxx14__alloc_traitsISaIPN7testing8TestInfoEEE20_S_propagate_on_swapEv", scope: !847, file: !105, line: 106, type: !207, scopeLine: 106, flags: DIFlagPrototyped | DIFlagStaticMember, spFlags: DISPFlagOptimized)
!1516 = !DISubprogram(name: "_S_always_equal", linkageName: "_ZN9__gnu_cxx14__alloc_traitsISaIPN7testing8TestInfoEEE15_S_always_equalEv", scope: !847, file: !105, line: 109, type: !207, scopeLine: 109, flags: DIFlagPrototyped | DIFlagStaticMember, spFlags: DISPFlagOptimized)
!1517 = !DISubprogram(name: "_S_nothrow_move", linkageName: "_ZN9__gnu_cxx14__alloc_traitsISaIPN7testing8TestInfoEEE15_S_nothrow_moveEv", scope: !847, file: !105, line: 112, type: !207, scopeLine: 112, flags: DIFlagPrototyped | DIFlagStaticMember, spFlags: DISPFlagOptimized)
!1518 = !DIDerivedType(tag: DW_TAG_typedef, name: "rebind_alloc<testing::TestInfo *>", scope: !850, file: !112, line: 422, baseType: !1437)
!1519 = !DIDerivedType(tag: DW_TAG_member, name: "_M_start", scope: !841, file: !94, line: 84, baseType: !1520, size: 64)
!1520 = !DIDerivedType(tag: DW_TAG_typedef, name: "pointer", scope: !838, file: !94, line: 79, baseType: !1521)
!1521 = !DIDerivedType(tag: DW_TAG_typedef, name: "pointer", scope: !847, file: !105, line: 59, baseType: !855)
!1522 = !DIDerivedType(tag: DW_TAG_member, name: "_M_finish", scope: !841, file: !94, line: 85, baseType: !1520, size: 64, offset: 64)
!1523 = !DIDerivedType(tag: DW_TAG_member, name: "_M_end_of_storage", scope: !841, file: !94, line: 86, baseType: !1520, size: 64, offset: 128)
!1524 = !DISubprogram(name: "_Vector_impl", scope: !841, file: !94, line: 88, type: !1525, scopeLine: 88, flags: DIFlagPrototyped, spFlags: DISPFlagOptimized)
!1525 = !DISubroutineType(types: !1526)
!1526 = !{null, !1527}
!1527 = !DIDerivedType(tag: DW_TAG_pointer_type, baseType: !841, size: 64, flags: DIFlagArtificial | DIFlagObjectPointer)
!1528 = !DISubprogram(name: "_Vector_impl", scope: !841, file: !94, line: 92, type: !1529, scopeLine: 92, flags: DIFlagPrototyped, spFlags: DISPFlagOptimized)
!1529 = !DISubroutineType(types: !1530)
!1530 = !{null, !1527, !1531}
!1531 = !DIDerivedType(tag: DW_TAG_reference_type, baseType: !1532, size: 64)
!1532 = !DIDerivedType(tag: DW_TAG_const_type, baseType: !844)
!1533 = !DISubprogram(name: "_Vector_impl", scope: !841, file: !94, line: 97, type: !1534, scopeLine: 97, flags: DIFlagPrototyped, spFlags: DISPFlagOptimized)
!1534 = !DISubroutineType(types: !1535)
!1535 = !{null, !1527, !1536}
!1536 = !DIDerivedType(tag: DW_TAG_rvalue_reference_type, baseType: !844, size: 64)
!1537 = !DISubprogram(name: "_M_swap_data", linkageName: "_ZNSt12_Vector_baseIPN7testing8TestInfoESaIS2_EE12_Vector_impl12_M_swap_dataERS5_", scope: !841, file: !94, line: 103, type: !1538, scopeLine: 103, flags: DIFlagPrototyped, spFlags: DISPFlagOptimized)
!1538 = !DISubroutineType(types: !1539)
!1539 = !{null, !1527, !1540}
!1540 = !DIDerivedType(tag: DW_TAG_reference_type, baseType: !841, size: 64)
!1541 = !DISubprogram(name: "_M_get_Tp_allocator", linkageName: "_ZNSt12_Vector_baseIPN7testing8TestInfoESaIS2_EE19_M_get_Tp_allocatorEv", scope: !838, file: !94, line: 115, type: !1542, scopeLine: 115, flags: DIFlagPrototyped, spFlags: DISPFlagOptimized)
!1542 = !DISubroutineType(types: !1543)
!1543 = !{!1544, !1545}
!1544 = !DIDerivedType(tag: DW_TAG_reference_type, baseType: !844, size: 64)
!1545 = !DIDerivedType(tag: DW_TAG_pointer_type, baseType: !838, size: 64, flags: DIFlagArtificial | DIFlagObjectPointer)
!1546 = !DISubprogram(name: "_M_get_Tp_allocator", linkageName: "_ZNKSt12_Vector_baseIPN7testing8TestInfoESaIS2_EE19_M_get_Tp_allocatorEv", scope: !838, file: !94, line: 119, type: !1547, scopeLine: 119, flags: DIFlagPrototyped, spFlags: DISPFlagOptimized)
!1547 = !DISubroutineType(types: !1548)
!1548 = !{!1531, !1549}
!1549 = !DIDerivedType(tag: DW_TAG_pointer_type, baseType: !1550, size: 64, flags: DIFlagArtificial | DIFlagObjectPointer)
!1550 = !DIDerivedType(tag: DW_TAG_const_type, baseType: !838)
!1551 = !DISubprogram(name: "get_allocator", linkageName: "_ZNKSt12_Vector_baseIPN7testing8TestInfoESaIS2_EE13get_allocatorEv", scope: !838, file: !94, line: 123, type: !1552, scopeLine: 123, flags: DIFlagPrototyped, spFlags: DISPFlagOptimized)
!1552 = !DISubroutineType(types: !1553)
!1553 = !{!1554, !1549}
!1554 = !DIDerivedType(tag: DW_TAG_typedef, name: "allocator_type", scope: !838, file: !94, line: 112, baseType: !1437)
!1555 = !DISubprogram(name: "_Vector_base", scope: !838, file: !94, line: 126, type: !1556, scopeLine: 126, flags: DIFlagPrototyped, spFlags: DISPFlagOptimized)
!1556 = !DISubroutineType(types: !1557)
!1557 = !{null, !1545}
!1558 = !DISubprogram(name: "_Vector_base", scope: !838, file: !94, line: 129, type: !1559, scopeLine: 129, flags: DIFlagPrototyped, spFlags: DISPFlagOptimized)
!1559 = !DISubroutineType(types: !1560)
!1560 = !{null, !1545, !1561}
!1561 = !DIDerivedType(tag: DW_TAG_reference_type, baseType: !1562, size: 64)
!1562 = !DIDerivedType(tag: DW_TAG_const_type, baseType: !1554)
!1563 = !DISubprogram(name: "_Vector_base", scope: !838, file: !94, line: 132, type: !1564, scopeLine: 132, flags: DIFlagPrototyped, spFlags: DISPFlagOptimized)
!1564 = !DISubroutineType(types: !1565)
!1565 = !{null, !1545, !157}
!1566 = !DISubprogram(name: "_Vector_base", scope: !838, file: !94, line: 136, type: !1567, scopeLine: 136, flags: DIFlagPrototyped, spFlags: DISPFlagOptimized)
!1567 = !DISubroutineType(types: !1568)
!1568 = !{null, !1545, !157, !1561}
!1569 = !DISubprogram(name: "_Vector_base", scope: !838, file: !94, line: 141, type: !1570, scopeLine: 141, flags: DIFlagPrototyped, spFlags: DISPFlagOptimized)
!1570 = !DISubroutineType(types: !1571)
!1571 = !{null, !1545, !1536}
!1572 = !DISubprogram(name: "_Vector_base", scope: !838, file: !94, line: 144, type: !1573, scopeLine: 144, flags: DIFlagPrototyped, spFlags: DISPFlagOptimized)
!1573 = !DISubroutineType(types: !1574)
!1574 = !{null, !1545, !1575}
!1575 = !DIDerivedType(tag: DW_TAG_rvalue_reference_type, baseType: !838, size: 64)
!1576 = !DISubprogram(name: "_Vector_base", scope: !838, file: !94, line: 148, type: !1577, scopeLine: 148, flags: DIFlagPrototyped, spFlags: DISPFlagOptimized)
!1577 = !DISubroutineType(types: !1578)
!1578 = !{null, !1545, !1575, !1561}
!1579 = !DISubprogram(name: "~_Vector_base", scope: !838, file: !94, line: 161, type: !1556, scopeLine: 161, flags: DIFlagPrototyped, spFlags: DISPFlagOptimized)
!1580 = !DISubprogram(name: "_M_allocate", linkageName: "_ZNSt12_Vector_baseIPN7testing8TestInfoESaIS2_EE11_M_allocateEm", scope: !838, file: !94, line: 169, type: !1581, scopeLine: 169, flags: DIFlagPrototyped, spFlags: DISPFlagOptimized)
!1581 = !DISubroutineType(types: !1582)
!1582 = !{!1520, !1545, !157}
!1583 = !DISubprogram(name: "_M_deallocate", linkageName: "_ZNSt12_Vector_baseIPN7testing8TestInfoESaIS2_EE13_M_deallocateEPS2_m", scope: !838, file: !94, line: 176, type: !1584, scopeLine: 176, flags: DIFlagPrototyped, spFlags: DISPFlagOptimized)
!1584 = !DISubroutineType(types: !1585)
!1585 = !{null, !1545, !1520, !157}
!1586 = !DISubprogram(name: "_M_create_storage", linkageName: "_ZNSt12_Vector_baseIPN7testing8TestInfoESaIS2_EE17_M_create_storageEm", scope: !838, file: !94, line: 185, type: !1564, scopeLine: 185, flags: DIFlagPrivate | DIFlagPrototyped, spFlags: DISPFlagOptimized)
!1587 = !{!1478, !1505}
!1588 = !DISubprogram(name: "vector", scope: !835, file: !94, line: 259, type: !1589, scopeLine: 259, flags: DIFlagPublic | DIFlagPrototyped, spFlags: DISPFlagOptimized)
!1589 = !DISubroutineType(types: !1590)
!1590 = !{null, !1591}
!1591 = !DIDerivedType(tag: DW_TAG_pointer_type, baseType: !835, size: 64, flags: DIFlagArtificial | DIFlagObjectPointer)
!1592 = !DISubprogram(name: "vector", scope: !835, file: !94, line: 270, type: !1593, scopeLine: 270, flags: DIFlagPublic | DIFlagExplicit | DIFlagPrototyped, spFlags: DISPFlagOptimized)
!1593 = !DISubroutineType(types: !1594)
!1594 = !{null, !1591, !1595}
!1595 = !DIDerivedType(tag: DW_TAG_reference_type, baseType: !1596, size: 64)
!1596 = !DIDerivedType(tag: DW_TAG_const_type, baseType: !1597)
!1597 = !DIDerivedType(tag: DW_TAG_typedef, name: "allocator_type", scope: !835, file: !94, line: 244, baseType: !1437)
!1598 = !DISubprogram(name: "vector", scope: !835, file: !94, line: 283, type: !1599, scopeLine: 283, flags: DIFlagPublic | DIFlagExplicit | DIFlagPrototyped, spFlags: DISPFlagOptimized)
!1599 = !DISubroutineType(types: !1600)
!1600 = !{null, !1591, !297, !1595}
!1601 = !DISubprogram(name: "vector", scope: !835, file: !94, line: 295, type: !1602, scopeLine: 295, flags: DIFlagPublic | DIFlagPrototyped, spFlags: DISPFlagOptimized)
!1602 = !DISubroutineType(types: !1603)
!1603 = !{null, !1591, !297, !1604, !1595}
!1604 = !DIDerivedType(tag: DW_TAG_reference_type, baseType: !1605, size: 64)
!1605 = !DIDerivedType(tag: DW_TAG_const_type, baseType: !1606)
!1606 = !DIDerivedType(tag: DW_TAG_typedef, name: "value_type", scope: !835, file: !94, line: 232, baseType: !857)
!1607 = !DISubprogram(name: "vector", scope: !835, file: !94, line: 326, type: !1608, scopeLine: 326, flags: DIFlagPublic | DIFlagPrototyped, spFlags: DISPFlagOptimized)
!1608 = !DISubroutineType(types: !1609)
!1609 = !{null, !1591, !1610}
!1610 = !DIDerivedType(tag: DW_TAG_reference_type, baseType: !1611, size: 64)
!1611 = !DIDerivedType(tag: DW_TAG_const_type, baseType: !835)
!1612 = !DISubprogram(name: "vector", scope: !835, file: !94, line: 344, type: !1613, scopeLine: 344, flags: DIFlagPublic | DIFlagPrototyped, spFlags: DISPFlagOptimized)
!1613 = !DISubroutineType(types: !1614)
!1614 = !{null, !1591, !1615}
!1615 = !DIDerivedType(tag: DW_TAG_rvalue_reference_type, baseType: !835, size: 64)
!1616 = !DISubprogram(name: "vector", scope: !835, file: !94, line: 348, type: !1617, scopeLine: 348, flags: DIFlagPublic | DIFlagPrototyped, spFlags: DISPFlagOptimized)
!1617 = !DISubroutineType(types: !1618)
!1618 = !{null, !1591, !1610, !1595}
!1619 = !DISubprogram(name: "vector", scope: !835, file: !94, line: 358, type: !1620, scopeLine: 358, flags: DIFlagPublic | DIFlagPrototyped, spFlags: DISPFlagOptimized)
!1620 = !DISubroutineType(types: !1621)
!1621 = !{null, !1591, !1615, !1595}
!1622 = !DISubprogram(name: "vector", scope: !835, file: !94, line: 383, type: !1623, scopeLine: 383, flags: DIFlagPublic | DIFlagPrototyped, spFlags: DISPFlagOptimized)
!1623 = !DISubroutineType(types: !1624)
!1624 = !{null, !1591, !1625, !1595}
!1625 = !DICompositeType(tag: DW_TAG_class_type, name: "initializer_list<testing::TestInfo *>", scope: !22, file: !323, line: 47, flags: DIFlagFwdDecl, identifier: "_ZTSSt16initializer_listIPN7testing8TestInfoEE")
!1626 = !DISubprogram(name: "~vector", scope: !835, file: !94, line: 433, type: !1589, scopeLine: 433, flags: DIFlagPublic | DIFlagPrototyped, spFlags: DISPFlagOptimized)
!1627 = !DISubprogram(name: "operator=", linkageName: "_ZNSt6vectorIPN7testing8TestInfoESaIS2_EEaSERKS4_", scope: !835, file: !94, line: 447, type: !1628, scopeLine: 447, flags: DIFlagPublic | DIFlagPrototyped, spFlags: DISPFlagOptimized)
!1628 = !DISubroutineType(types: !1629)
!1629 = !{!1630, !1591, !1610}
!1630 = !DIDerivedType(tag: DW_TAG_reference_type, baseType: !835, size: 64)
!1631 = !DISubprogram(name: "operator=", linkageName: "_ZNSt6vectorIPN7testing8TestInfoESaIS2_EEaSEOS4_", scope: !835, file: !94, line: 461, type: !1632, scopeLine: 461, flags: DIFlagPublic | DIFlagPrototyped, spFlags: DISPFlagOptimized)
!1632 = !DISubroutineType(types: !1633)
!1633 = !{!1630, !1591, !1615}
!1634 = !DISubprogram(name: "operator=", linkageName: "_ZNSt6vectorIPN7testing8TestInfoESaIS2_EEaSESt16initializer_listIS2_E", scope: !835, file: !94, line: 482, type: !1635, scopeLine: 482, flags: DIFlagPublic | DIFlagPrototyped, spFlags: DISPFlagOptimized)
!1635 = !DISubroutineType(types: !1636)
!1636 = !{!1630, !1591, !1625}
!1637 = !DISubprogram(name: "assign", linkageName: "_ZNSt6vectorIPN7testing8TestInfoESaIS2_EE6assignEmRKS2_", scope: !835, file: !94, line: 501, type: !1638, scopeLine: 501, flags: DIFlagPublic | DIFlagPrototyped, spFlags: DISPFlagOptimized)
!1638 = !DISubroutineType(types: !1639)
!1639 = !{null, !1591, !297, !1604}
!1640 = !DISubprogram(name: "assign", linkageName: "_ZNSt6vectorIPN7testing8TestInfoESaIS2_EE6assignESt16initializer_listIS2_E", scope: !835, file: !94, line: 546, type: !1641, scopeLine: 546, flags: DIFlagPublic | DIFlagPrototyped, spFlags: DISPFlagOptimized)
!1641 = !DISubroutineType(types: !1642)
!1642 = !{null, !1591, !1625}
!1643 = !DISubprogram(name: "begin", linkageName: "_ZNSt6vectorIPN7testing8TestInfoESaIS2_EE5beginEv", scope: !835, file: !94, line: 563, type: !1644, scopeLine: 563, flags: DIFlagPublic | DIFlagPrototyped, spFlags: DISPFlagOptimized)
!1644 = !DISubroutineType(types: !1645)
!1645 = !{!1646, !1591}
!1646 = !DIDerivedType(tag: DW_TAG_typedef, name: "iterator", scope: !835, file: !94, line: 237, baseType: !1647)
!1647 = distinct !DICompositeType(tag: DW_TAG_class_type, name: "__normal_iterator<testing::TestInfo **, std::vector<testing::TestInfo *, std::allocator<testing::TestInfo *> > >", scope: !108, file: !346, line: 763, size: 64, flags: DIFlagTypePassByValue | DIFlagNonTrivial, elements: !1648, templateParams: !1699, identifier: "_ZTSN9__gnu_cxx17__normal_iteratorIPPN7testing8TestInfoESt6vectorIS3_SaIS3_EEEE")
!1648 = !{!1649, !1650, !1654, !1659, !1669, !1674, !1678, !1681, !1682, !1683, !1688, !1691, !1694, !1695, !1696}
!1649 = !DIDerivedType(tag: DW_TAG_member, name: "_M_current", scope: !1647, file: !346, line: 766, baseType: !856, size: 64, flags: DIFlagProtected)
!1650 = !DISubprogram(name: "__normal_iterator", scope: !1647, file: !346, line: 778, type: !1651, scopeLine: 778, flags: DIFlagPublic | DIFlagPrototyped, spFlags: DISPFlagOptimized)
!1651 = !DISubroutineType(types: !1652)
!1652 = !{null, !1653}
!1653 = !DIDerivedType(tag: DW_TAG_pointer_type, baseType: !1647, size: 64, flags: DIFlagArtificial | DIFlagObjectPointer)
!1654 = !DISubprogram(name: "__normal_iterator", scope: !1647, file: !346, line: 782, type: !1655, scopeLine: 782, flags: DIFlagPublic | DIFlagExplicit | DIFlagPrototyped, spFlags: DISPFlagOptimized)
!1655 = !DISubroutineType(types: !1656)
!1656 = !{null, !1653, !1657}
!1657 = !DIDerivedType(tag: DW_TAG_reference_type, baseType: !1658, size: 64)
!1658 = !DIDerivedType(tag: DW_TAG_const_type, baseType: !856)
!1659 = !DISubprogram(name: "operator*", linkageName: "_ZNK9__gnu_cxx17__normal_iteratorIPPN7testing8TestInfoESt6vectorIS3_SaIS3_EEEdeEv", scope: !1647, file: !346, line: 795, type: !1660, scopeLine: 795, flags: DIFlagPublic | DIFlagPrototyped, spFlags: DISPFlagOptimized)
!1660 = !DISubroutineType(types: !1661)
!1661 = !{!1662, !1667}
!1662 = !DIDerivedType(tag: DW_TAG_typedef, name: "reference", scope: !1647, file: !346, line: 775, baseType: !1663)
!1663 = !DIDerivedType(tag: DW_TAG_typedef, name: "reference", scope: !1664, file: !363, line: 184, baseType: !1459)
!1664 = distinct !DICompositeType(tag: DW_TAG_structure_type, name: "iterator_traits<testing::TestInfo **>", scope: !22, file: !363, line: 178, size: 8, flags: DIFlagTypePassByValue, elements: !213, templateParams: !1665, identifier: "_ZTSSt15iterator_traitsIPPN7testing8TestInfoEE")
!1665 = !{!1666}
!1666 = !DITemplateTypeParameter(name: "_Iterator", type: !856)
!1667 = !DIDerivedType(tag: DW_TAG_pointer_type, baseType: !1668, size: 64, flags: DIFlagArtificial | DIFlagObjectPointer)
!1668 = !DIDerivedType(tag: DW_TAG_const_type, baseType: !1647)
!1669 = !DISubprogram(name: "operator->", linkageName: "_ZNK9__gnu_cxx17__normal_iteratorIPPN7testing8TestInfoESt6vectorIS3_SaIS3_EEEptEv", scope: !1647, file: !346, line: 799, type: !1670, scopeLine: 799, flags: DIFlagPublic | DIFlagPrototyped, spFlags: DISPFlagOptimized)
!1670 = !DISubroutineType(types: !1671)
!1671 = !{!1672, !1667}
!1672 = !DIDerivedType(tag: DW_TAG_typedef, name: "pointer", scope: !1647, file: !346, line: 776, baseType: !1673)
!1673 = !DIDerivedType(tag: DW_TAG_typedef, name: "pointer", scope: !1664, file: !363, line: 183, baseType: !856)
!1674 = !DISubprogram(name: "operator++", linkageName: "_ZN9__gnu_cxx17__normal_iteratorIPPN7testing8TestInfoESt6vectorIS3_SaIS3_EEEppEv", scope: !1647, file: !346, line: 803, type: !1675, scopeLine: 803, flags: DIFlagPublic | DIFlagPrototyped, spFlags: DISPFlagOptimized)
!1675 = !DISubroutineType(types: !1676)
!1676 = !{!1677, !1653}
!1677 = !DIDerivedType(tag: DW_TAG_reference_type, baseType: !1647, size: 64)
!1678 = !DISubprogram(name: "operator++", linkageName: "_ZN9__gnu_cxx17__normal_iteratorIPPN7testing8TestInfoESt6vectorIS3_SaIS3_EEEppEi", scope: !1647, file: !346, line: 810, type: !1679, scopeLine: 810, flags: DIFlagPublic | DIFlagPrototyped, spFlags: DISPFlagOptimized)
!1679 = !DISubroutineType(types: !1680)
!1680 = !{!1647, !1653, !26}
!1681 = !DISubprogram(name: "operator--", linkageName: "_ZN9__gnu_cxx17__normal_iteratorIPPN7testing8TestInfoESt6vectorIS3_SaIS3_EEEmmEv", scope: !1647, file: !346, line: 815, type: !1675, scopeLine: 815, flags: DIFlagPublic | DIFlagPrototyped, spFlags: DISPFlagOptimized)
!1682 = !DISubprogram(name: "operator--", linkageName: "_ZN9__gnu_cxx17__normal_iteratorIPPN7testing8TestInfoESt6vectorIS3_SaIS3_EEEmmEi", scope: !1647, file: !346, line: 822, type: !1679, scopeLine: 822, flags: DIFlagPublic | DIFlagPrototyped, spFlags: DISPFlagOptimized)
!1683 = !DISubprogram(name: "operator[]", linkageName: "_ZNK9__gnu_cxx17__normal_iteratorIPPN7testing8TestInfoESt6vectorIS3_SaIS3_EEEixEl", scope: !1647, file: !346, line: 827, type: !1684, scopeLine: 827, flags: DIFlagPublic | DIFlagPrototyped, spFlags: DISPFlagOptimized)
!1684 = !DISubroutineType(types: !1685)
!1685 = !{!1662, !1667, !1686}
!1686 = !DIDerivedType(tag: DW_TAG_typedef, name: "difference_type", scope: !1647, file: !346, line: 774, baseType: !1687)
!1687 = !DIDerivedType(tag: DW_TAG_typedef, name: "difference_type", scope: !1664, file: !363, line: 182, baseType: !388)
!1688 = !DISubprogram(name: "operator+=", linkageName: "_ZN9__gnu_cxx17__normal_iteratorIPPN7testing8TestInfoESt6vectorIS3_SaIS3_EEEpLEl", scope: !1647, file: !346, line: 831, type: !1689, scopeLine: 831, flags: DIFlagPublic | DIFlagPrototyped, spFlags: DISPFlagOptimized)
!1689 = !DISubroutineType(types: !1690)
!1690 = !{!1677, !1653, !1686}
!1691 = !DISubprogram(name: "operator+", linkageName: "_ZNK9__gnu_cxx17__normal_iteratorIPPN7testing8TestInfoESt6vectorIS3_SaIS3_EEEplEl", scope: !1647, file: !346, line: 835, type: !1692, scopeLine: 835, flags: DIFlagPublic | DIFlagPrototyped, spFlags: DISPFlagOptimized)
!1692 = !DISubroutineType(types: !1693)
!1693 = !{!1647, !1667, !1686}
!1694 = !DISubprogram(name: "operator-=", linkageName: "_ZN9__gnu_cxx17__normal_iteratorIPPN7testing8TestInfoESt6vectorIS3_SaIS3_EEEmIEl", scope: !1647, file: !346, line: 839, type: !1689, scopeLine: 839, flags: DIFlagPublic | DIFlagPrototyped, spFlags: DISPFlagOptimized)
!1695 = !DISubprogram(name: "operator-", linkageName: "_ZNK9__gnu_cxx17__normal_iteratorIPPN7testing8TestInfoESt6vectorIS3_SaIS3_EEEmiEl", scope: !1647, file: !346, line: 843, type: !1692, scopeLine: 843, flags: DIFlagPublic | DIFlagPrototyped, spFlags: DISPFlagOptimized)
!1696 = !DISubprogram(name: "base", linkageName: "_ZNK9__gnu_cxx17__normal_iteratorIPPN7testing8TestInfoESt6vectorIS3_SaIS3_EEE4baseEv", scope: !1647, file: !346, line: 847, type: !1697, scopeLine: 847, flags: DIFlagPublic | DIFlagPrototyped, spFlags: DISPFlagOptimized)
!1697 = !DISubroutineType(types: !1698)
!1698 = !{!1657, !1667}
!1699 = !{!1666, !1700}
!1700 = !DITemplateTypeParameter(name: "_Container", type: !835)
!1701 = !DISubprogram(name: "begin", linkageName: "_ZNKSt6vectorIPN7testing8TestInfoESaIS2_EE5beginEv", scope: !835, file: !94, line: 572, type: !1702, scopeLine: 572, flags: DIFlagPublic | DIFlagPrototyped, spFlags: DISPFlagOptimized)
!1702 = !DISubroutineType(types: !1703)
!1703 = !{!1704, !1758}
!1704 = !DIDerivedType(tag: DW_TAG_typedef, name: "const_iterator", scope: !835, file: !94, line: 239, baseType: !1705)
!1705 = distinct !DICompositeType(tag: DW_TAG_class_type, name: "__normal_iterator<testing::TestInfo *const *, std::vector<testing::TestInfo *, std::allocator<testing::TestInfo *> > >", scope: !108, file: !346, line: 763, size: 64, flags: DIFlagTypePassByValue | DIFlagNonTrivial, elements: !1706, templateParams: !1757, identifier: "_ZTSN9__gnu_cxx17__normal_iteratorIPKPN7testing8TestInfoESt6vectorIS3_SaIS3_EEEE")
!1706 = !{!1707, !1708, !1712, !1717, !1727, !1732, !1736, !1739, !1740, !1741, !1746, !1749, !1752, !1753, !1754}
!1707 = !DIDerivedType(tag: DW_TAG_member, name: "_M_current", scope: !1705, file: !346, line: 766, baseType: !1464, size: 64, flags: DIFlagProtected)
!1708 = !DISubprogram(name: "__normal_iterator", scope: !1705, file: !346, line: 778, type: !1709, scopeLine: 778, flags: DIFlagPublic | DIFlagPrototyped, spFlags: DISPFlagOptimized)
!1709 = !DISubroutineType(types: !1710)
!1710 = !{null, !1711}
!1711 = !DIDerivedType(tag: DW_TAG_pointer_type, baseType: !1705, size: 64, flags: DIFlagArtificial | DIFlagObjectPointer)
!1712 = !DISubprogram(name: "__normal_iterator", scope: !1705, file: !346, line: 782, type: !1713, scopeLine: 782, flags: DIFlagPublic | DIFlagExplicit | DIFlagPrototyped, spFlags: DISPFlagOptimized)
!1713 = !DISubroutineType(types: !1714)
!1714 = !{null, !1711, !1715}
!1715 = !DIDerivedType(tag: DW_TAG_reference_type, baseType: !1716, size: 64)
!1716 = !DIDerivedType(tag: DW_TAG_const_type, baseType: !1464)
!1717 = !DISubprogram(name: "operator*", linkageName: "_ZNK9__gnu_cxx17__normal_iteratorIPKPN7testing8TestInfoESt6vectorIS3_SaIS3_EEEdeEv", scope: !1705, file: !346, line: 795, type: !1718, scopeLine: 795, flags: DIFlagPublic | DIFlagPrototyped, spFlags: DISPFlagOptimized)
!1718 = !DISubroutineType(types: !1719)
!1719 = !{!1720, !1725}
!1720 = !DIDerivedType(tag: DW_TAG_typedef, name: "reference", scope: !1705, file: !346, line: 775, baseType: !1721)
!1721 = !DIDerivedType(tag: DW_TAG_typedef, name: "reference", scope: !1722, file: !363, line: 195, baseType: !1467)
!1722 = distinct !DICompositeType(tag: DW_TAG_structure_type, name: "iterator_traits<testing::TestInfo *const *>", scope: !22, file: !363, line: 189, size: 8, flags: DIFlagTypePassByValue, elements: !213, templateParams: !1723, identifier: "_ZTSSt15iterator_traitsIPKPN7testing8TestInfoEE")
!1723 = !{!1724}
!1724 = !DITemplateTypeParameter(name: "_Iterator", type: !1464)
!1725 = !DIDerivedType(tag: DW_TAG_pointer_type, baseType: !1726, size: 64, flags: DIFlagArtificial | DIFlagObjectPointer)
!1726 = !DIDerivedType(tag: DW_TAG_const_type, baseType: !1705)
!1727 = !DISubprogram(name: "operator->", linkageName: "_ZNK9__gnu_cxx17__normal_iteratorIPKPN7testing8TestInfoESt6vectorIS3_SaIS3_EEEptEv", scope: !1705, file: !346, line: 799, type: !1728, scopeLine: 799, flags: DIFlagPublic | DIFlagPrototyped, spFlags: DISPFlagOptimized)
!1728 = !DISubroutineType(types: !1729)
!1729 = !{!1730, !1725}
!1730 = !DIDerivedType(tag: DW_TAG_typedef, name: "pointer", scope: !1705, file: !346, line: 776, baseType: !1731)
!1731 = !DIDerivedType(tag: DW_TAG_typedef, name: "pointer", scope: !1722, file: !363, line: 194, baseType: !1464)
!1732 = !DISubprogram(name: "operator++", linkageName: "_ZN9__gnu_cxx17__normal_iteratorIPKPN7testing8TestInfoESt6vectorIS3_SaIS3_EEEppEv", scope: !1705, file: !346, line: 803, type: !1733, scopeLine: 803, flags: DIFlagPublic | DIFlagPrototyped, spFlags: DISPFlagOptimized)
!1733 = !DISubroutineType(types: !1734)
!1734 = !{!1735, !1711}
!1735 = !DIDerivedType(tag: DW_TAG_reference_type, baseType: !1705, size: 64)
!1736 = !DISubprogram(name: "operator++", linkageName: "_ZN9__gnu_cxx17__normal_iteratorIPKPN7testing8TestInfoESt6vectorIS3_SaIS3_EEEppEi", scope: !1705, file: !346, line: 810, type: !1737, scopeLine: 810, flags: DIFlagPublic | DIFlagPrototyped, spFlags: DISPFlagOptimized)
!1737 = !DISubroutineType(types: !1738)
!1738 = !{!1705, !1711, !26}
!1739 = !DISubprogram(name: "operator--", linkageName: "_ZN9__gnu_cxx17__normal_iteratorIPKPN7testing8TestInfoESt6vectorIS3_SaIS3_EEEmmEv", scope: !1705, file: !346, line: 815, type: !1733, scopeLine: 815, flags: DIFlagPublic | DIFlagPrototyped, spFlags: DISPFlagOptimized)
!1740 = !DISubprogram(name: "operator--", linkageName: "_ZN9__gnu_cxx17__normal_iteratorIPKPN7testing8TestInfoESt6vectorIS3_SaIS3_EEEmmEi", scope: !1705, file: !346, line: 822, type: !1737, scopeLine: 822, flags: DIFlagPublic | DIFlagPrototyped, spFlags: DISPFlagOptimized)
!1741 = !DISubprogram(name: "operator[]", linkageName: "_ZNK9__gnu_cxx17__normal_iteratorIPKPN7testing8TestInfoESt6vectorIS3_SaIS3_EEEixEl", scope: !1705, file: !346, line: 827, type: !1742, scopeLine: 827, flags: DIFlagPublic | DIFlagPrototyped, spFlags: DISPFlagOptimized)
!1742 = !DISubroutineType(types: !1743)
!1743 = !{!1720, !1725, !1744}
!1744 = !DIDerivedType(tag: DW_TAG_typedef, name: "difference_type", scope: !1705, file: !346, line: 774, baseType: !1745)
!1745 = !DIDerivedType(tag: DW_TAG_typedef, name: "difference_type", scope: !1722, file: !363, line: 193, baseType: !388)
!1746 = !DISubprogram(name: "operator+=", linkageName: "_ZN9__gnu_cxx17__normal_iteratorIPKPN7testing8TestInfoESt6vectorIS3_SaIS3_EEEpLEl", scope: !1705, file: !346, line: 831, type: !1747, scopeLine: 831, flags: DIFlagPublic | DIFlagPrototyped, spFlags: DISPFlagOptimized)
!1747 = !DISubroutineType(types: !1748)
!1748 = !{!1735, !1711, !1744}
!1749 = !DISubprogram(name: "operator+", linkageName: "_ZNK9__gnu_cxx17__normal_iteratorIPKPN7testing8TestInfoESt6vectorIS3_SaIS3_EEEplEl", scope: !1705, file: !346, line: 835, type: !1750, scopeLine: 835, flags: DIFlagPublic | DIFlagPrototyped, spFlags: DISPFlagOptimized)
!1750 = !DISubroutineType(types: !1751)
!1751 = !{!1705, !1725, !1744}
!1752 = !DISubprogram(name: "operator-=", linkageName: "_ZN9__gnu_cxx17__normal_iteratorIPKPN7testing8TestInfoESt6vectorIS3_SaIS3_EEEmIEl", scope: !1705, file: !346, line: 839, type: !1747, scopeLine: 839, flags: DIFlagPublic | DIFlagPrototyped, spFlags: DISPFlagOptimized)
!1753 = !DISubprogram(name: "operator-", linkageName: "_ZNK9__gnu_cxx17__normal_iteratorIPKPN7testing8TestInfoESt6vectorIS3_SaIS3_EEEmiEl", scope: !1705, file: !346, line: 843, type: !1750, scopeLine: 843, flags: DIFlagPublic | DIFlagPrototyped, spFlags: DISPFlagOptimized)
!1754 = !DISubprogram(name: "base", linkageName: "_ZNK9__gnu_cxx17__normal_iteratorIPKPN7testing8TestInfoESt6vectorIS3_SaIS3_EEE4baseEv", scope: !1705, file: !346, line: 847, type: !1755, scopeLine: 847, flags: DIFlagPublic | DIFlagPrototyped, spFlags: DISPFlagOptimized)
!1755 = !DISubroutineType(types: !1756)
!1756 = !{!1715, !1725}
!1757 = !{!1724, !1700}
!1758 = !DIDerivedType(tag: DW_TAG_pointer_type, baseType: !1611, size: 64, flags: DIFlagArtificial | DIFlagObjectPointer)
!1759 = !DISubprogram(name: "end", linkageName: "_ZNSt6vectorIPN7testing8TestInfoESaIS2_EE3endEv", scope: !835, file: !94, line: 581, type: !1644, scopeLine: 581, flags: DIFlagPublic | DIFlagPrototyped, spFlags: DISPFlagOptimized)
!1760 = !DISubprogram(name: "end", linkageName: "_ZNKSt6vectorIPN7testing8TestInfoESaIS2_EE3endEv", scope: !835, file: !94, line: 590, type: !1702, scopeLine: 590, flags: DIFlagPublic | DIFlagPrototyped, spFlags: DISPFlagOptimized)
!1761 = !DISubprogram(name: "rbegin", linkageName: "_ZNSt6vectorIPN7testing8TestInfoESaIS2_EE6rbeginEv", scope: !835, file: !94, line: 599, type: !1762, scopeLine: 599, flags: DIFlagPublic | DIFlagPrototyped, spFlags: DISPFlagOptimized)
!1762 = !DISubroutineType(types: !1763)
!1763 = !{!1764, !1591}
!1764 = !DIDerivedType(tag: DW_TAG_typedef, name: "reverse_iterator", scope: !835, file: !94, line: 241, baseType: !1765)
!1765 = !DICompositeType(tag: DW_TAG_class_type, name: "reverse_iterator<__gnu_cxx::__normal_iterator<testing::TestInfo **, std::vector<testing::TestInfo *, std::allocator<testing::TestInfo *> > > >", scope: !22, file: !346, line: 101, flags: DIFlagFwdDecl, identifier: "_ZTSSt16reverse_iteratorIN9__gnu_cxx17__normal_iteratorIPPN7testing8TestInfoESt6vectorIS4_SaIS4_EEEEE")
!1766 = !DISubprogram(name: "rbegin", linkageName: "_ZNKSt6vectorIPN7testing8TestInfoESaIS2_EE6rbeginEv", scope: !835, file: !94, line: 608, type: !1767, scopeLine: 608, flags: DIFlagPublic | DIFlagPrototyped, spFlags: DISPFlagOptimized)
!1767 = !DISubroutineType(types: !1768)
!1768 = !{!1769, !1758}
!1769 = !DIDerivedType(tag: DW_TAG_typedef, name: "const_reverse_iterator", scope: !835, file: !94, line: 240, baseType: !1770)
!1770 = !DICompositeType(tag: DW_TAG_class_type, name: "reverse_iterator<__gnu_cxx::__normal_iterator<testing::TestInfo *const *, std::vector<testing::TestInfo *, std::allocator<testing::TestInfo *> > > >", scope: !22, file: !346, line: 101, flags: DIFlagFwdDecl, identifier: "_ZTSSt16reverse_iteratorIN9__gnu_cxx17__normal_iteratorIPKPN7testing8TestInfoESt6vectorIS4_SaIS4_EEEEE")
!1771 = !DISubprogram(name: "rend", linkageName: "_ZNSt6vectorIPN7testing8TestInfoESaIS2_EE4rendEv", scope: !835, file: !94, line: 617, type: !1762, scopeLine: 617, flags: DIFlagPublic | DIFlagPrototyped, spFlags: DISPFlagOptimized)
!1772 = !DISubprogram(name: "rend", linkageName: "_ZNKSt6vectorIPN7testing8TestInfoESaIS2_EE4rendEv", scope: !835, file: !94, line: 626, type: !1767, scopeLine: 626, flags: DIFlagPublic | DIFlagPrototyped, spFlags: DISPFlagOptimized)
!1773 = !DISubprogram(name: "cbegin", linkageName: "_ZNKSt6vectorIPN7testing8TestInfoESaIS2_EE6cbeginEv", scope: !835, file: !94, line: 636, type: !1702, scopeLine: 636, flags: DIFlagPublic | DIFlagPrototyped, spFlags: DISPFlagOptimized)
!1774 = !DISubprogram(name: "cend", linkageName: "_ZNKSt6vectorIPN7testing8TestInfoESaIS2_EE4cendEv", scope: !835, file: !94, line: 645, type: !1702, scopeLine: 645, flags: DIFlagPublic | DIFlagPrototyped, spFlags: DISPFlagOptimized)
!1775 = !DISubprogram(name: "crbegin", linkageName: "_ZNKSt6vectorIPN7testing8TestInfoESaIS2_EE7crbeginEv", scope: !835, file: !94, line: 654, type: !1767, scopeLine: 654, flags: DIFlagPublic | DIFlagPrototyped, spFlags: DISPFlagOptimized)
!1776 = !DISubprogram(name: "crend", linkageName: "_ZNKSt6vectorIPN7testing8TestInfoESaIS2_EE5crendEv", scope: !835, file: !94, line: 663, type: !1767, scopeLine: 663, flags: DIFlagPublic | DIFlagPrototyped, spFlags: DISPFlagOptimized)
!1777 = !DISubprogram(name: "size", linkageName: "_ZNKSt6vectorIPN7testing8TestInfoESaIS2_EE4sizeEv", scope: !835, file: !94, line: 670, type: !1778, scopeLine: 670, flags: DIFlagPublic | DIFlagPrototyped, spFlags: DISPFlagOptimized)
!1778 = !DISubroutineType(types: !1779)
!1779 = !{!297, !1758}
!1780 = !DISubprogram(name: "max_size", linkageName: "_ZNKSt6vectorIPN7testing8TestInfoESaIS2_EE8max_sizeEv", scope: !835, file: !94, line: 675, type: !1778, scopeLine: 675, flags: DIFlagPublic | DIFlagPrototyped, spFlags: DISPFlagOptimized)
!1781 = !DISubprogram(name: "resize", linkageName: "_ZNSt6vectorIPN7testing8TestInfoESaIS2_EE6resizeEm", scope: !835, file: !94, line: 689, type: !1782, scopeLine: 689, flags: DIFlagPublic | DIFlagPrototyped, spFlags: DISPFlagOptimized)
!1782 = !DISubroutineType(types: !1783)
!1783 = !{null, !1591, !297}
!1784 = !DISubprogram(name: "resize", linkageName: "_ZNSt6vectorIPN7testing8TestInfoESaIS2_EE6resizeEmRKS2_", scope: !835, file: !94, line: 709, type: !1638, scopeLine: 709, flags: DIFlagPublic | DIFlagPrototyped, spFlags: DISPFlagOptimized)
!1785 = !DISubprogram(name: "shrink_to_fit", linkageName: "_ZNSt6vectorIPN7testing8TestInfoESaIS2_EE13shrink_to_fitEv", scope: !835, file: !94, line: 741, type: !1589, scopeLine: 741, flags: DIFlagPublic | DIFlagPrototyped, spFlags: DISPFlagOptimized)
!1786 = !DISubprogram(name: "capacity", linkageName: "_ZNKSt6vectorIPN7testing8TestInfoESaIS2_EE8capacityEv", scope: !835, file: !94, line: 750, type: !1778, scopeLine: 750, flags: DIFlagPublic | DIFlagPrototyped, spFlags: DISPFlagOptimized)
!1787 = !DISubprogram(name: "empty", linkageName: "_ZNKSt6vectorIPN7testing8TestInfoESaIS2_EE5emptyEv", scope: !835, file: !94, line: 759, type: !1788, scopeLine: 759, flags: DIFlagPublic | DIFlagPrototyped, spFlags: DISPFlagOptimized)
!1788 = !DISubroutineType(types: !1789)
!1789 = !{!52, !1758}
!1790 = !DISubprogram(name: "reserve", linkageName: "_ZNSt6vectorIPN7testing8TestInfoESaIS2_EE7reserveEm", scope: !835, file: !94, line: 780, type: !1782, scopeLine: 780, flags: DIFlagPublic | DIFlagPrototyped, spFlags: DISPFlagOptimized)
!1791 = !DISubprogram(name: "operator[]", linkageName: "_ZNSt6vectorIPN7testing8TestInfoESaIS2_EEixEm", scope: !835, file: !94, line: 795, type: !1792, scopeLine: 795, flags: DIFlagPublic | DIFlagPrototyped, spFlags: DISPFlagOptimized)
!1792 = !DISubroutineType(types: !1793)
!1793 = !{!1794, !1591, !297}
!1794 = !DIDerivedType(tag: DW_TAG_typedef, name: "reference", scope: !835, file: !94, line: 235, baseType: !1795)
!1795 = !DIDerivedType(tag: DW_TAG_typedef, name: "reference", scope: !847, file: !105, line: 64, baseType: !1796)
!1796 = !DIDerivedType(tag: DW_TAG_reference_type, baseType: !1797, size: 64)
!1797 = !DIDerivedType(tag: DW_TAG_typedef, name: "value_type", scope: !847, file: !105, line: 58, baseType: !1798)
!1798 = !DIDerivedType(tag: DW_TAG_typedef, name: "value_type", scope: !850, file: !112, line: 389, baseType: !857)
!1799 = !DISubprogram(name: "operator[]", linkageName: "_ZNKSt6vectorIPN7testing8TestInfoESaIS2_EEixEm", scope: !835, file: !94, line: 813, type: !1800, scopeLine: 813, flags: DIFlagPublic | DIFlagPrototyped, spFlags: DISPFlagOptimized)
!1800 = !DISubroutineType(types: !1801)
!1801 = !{!1802, !1758, !297}
!1802 = !DIDerivedType(tag: DW_TAG_typedef, name: "const_reference", scope: !835, file: !94, line: 236, baseType: !1803)
!1803 = !DIDerivedType(tag: DW_TAG_typedef, name: "const_reference", scope: !847, file: !105, line: 65, baseType: !1804)
!1804 = !DIDerivedType(tag: DW_TAG_reference_type, baseType: !1805, size: 64)
!1805 = !DIDerivedType(tag: DW_TAG_const_type, baseType: !1797)
!1806 = !DISubprogram(name: "_M_range_check", linkageName: "_ZNKSt6vectorIPN7testing8TestInfoESaIS2_EE14_M_range_checkEm", scope: !835, file: !94, line: 822, type: !1807, scopeLine: 822, flags: DIFlagProtected | DIFlagPrototyped, spFlags: DISPFlagOptimized)
!1807 = !DISubroutineType(types: !1808)
!1808 = !{null, !1758, !297}
!1809 = !DISubprogram(name: "at", linkageName: "_ZNSt6vectorIPN7testing8TestInfoESaIS2_EE2atEm", scope: !835, file: !94, line: 844, type: !1792, scopeLine: 844, flags: DIFlagPublic | DIFlagPrototyped, spFlags: DISPFlagOptimized)
!1810 = !DISubprogram(name: "at", linkageName: "_ZNKSt6vectorIPN7testing8TestInfoESaIS2_EE2atEm", scope: !835, file: !94, line: 862, type: !1800, scopeLine: 862, flags: DIFlagPublic | DIFlagPrototyped, spFlags: DISPFlagOptimized)
!1811 = !DISubprogram(name: "front", linkageName: "_ZNSt6vectorIPN7testing8TestInfoESaIS2_EE5frontEv", scope: !835, file: !94, line: 873, type: !1812, scopeLine: 873, flags: DIFlagPublic | DIFlagPrototyped, spFlags: DISPFlagOptimized)
!1812 = !DISubroutineType(types: !1813)
!1813 = !{!1794, !1591}
!1814 = !DISubprogram(name: "front", linkageName: "_ZNKSt6vectorIPN7testing8TestInfoESaIS2_EE5frontEv", scope: !835, file: !94, line: 884, type: !1815, scopeLine: 884, flags: DIFlagPublic | DIFlagPrototyped, spFlags: DISPFlagOptimized)
!1815 = !DISubroutineType(types: !1816)
!1816 = !{!1802, !1758}
!1817 = !DISubprogram(name: "back", linkageName: "_ZNSt6vectorIPN7testing8TestInfoESaIS2_EE4backEv", scope: !835, file: !94, line: 895, type: !1812, scopeLine: 895, flags: DIFlagPublic | DIFlagPrototyped, spFlags: DISPFlagOptimized)
!1818 = !DISubprogram(name: "back", linkageName: "_ZNKSt6vectorIPN7testing8TestInfoESaIS2_EE4backEv", scope: !835, file: !94, line: 906, type: !1815, scopeLine: 906, flags: DIFlagPublic | DIFlagPrototyped, spFlags: DISPFlagOptimized)
!1819 = !DISubprogram(name: "data", linkageName: "_ZNSt6vectorIPN7testing8TestInfoESaIS2_EE4dataEv", scope: !835, file: !94, line: 920, type: !1820, scopeLine: 920, flags: DIFlagPublic | DIFlagPrototyped, spFlags: DISPFlagOptimized)
!1820 = !DISubroutineType(types: !1821)
!1821 = !{!856, !1591}
!1822 = !DISubprogram(name: "data", linkageName: "_ZNKSt6vectorIPN7testing8TestInfoESaIS2_EE4dataEv", scope: !835, file: !94, line: 924, type: !1823, scopeLine: 924, flags: DIFlagPublic | DIFlagPrototyped, spFlags: DISPFlagOptimized)
!1823 = !DISubroutineType(types: !1824)
!1824 = !{!1464, !1758}
!1825 = !DISubprogram(name: "push_back", linkageName: "_ZNSt6vectorIPN7testing8TestInfoESaIS2_EE9push_backERKS2_", scope: !835, file: !94, line: 939, type: !1826, scopeLine: 939, flags: DIFlagPublic | DIFlagPrototyped, spFlags: DISPFlagOptimized)
!1826 = !DISubroutineType(types: !1827)
!1827 = !{null, !1591, !1604}
!1828 = !DISubprogram(name: "push_back", linkageName: "_ZNSt6vectorIPN7testing8TestInfoESaIS2_EE9push_backEOS2_", scope: !835, file: !94, line: 953, type: !1829, scopeLine: 953, flags: DIFlagPublic | DIFlagPrototyped, spFlags: DISPFlagOptimized)
!1829 = !DISubroutineType(types: !1830)
!1830 = !{null, !1591, !1831}
!1831 = !DIDerivedType(tag: DW_TAG_rvalue_reference_type, baseType: !1606, size: 64)
!1832 = !DISubprogram(name: "pop_back", linkageName: "_ZNSt6vectorIPN7testing8TestInfoESaIS2_EE8pop_backEv", scope: !835, file: !94, line: 975, type: !1589, scopeLine: 975, flags: DIFlagPublic | DIFlagPrototyped, spFlags: DISPFlagOptimized)
!1833 = !DISubprogram(name: "insert", linkageName: "_ZNSt6vectorIPN7testing8TestInfoESaIS2_EE6insertEN9__gnu_cxx17__normal_iteratorIPKS2_S4_EERS7_", scope: !835, file: !94, line: 1012, type: !1834, scopeLine: 1012, flags: DIFlagPublic | DIFlagPrototyped, spFlags: DISPFlagOptimized)
!1834 = !DISubroutineType(types: !1835)
!1835 = !{!1646, !1591, !1704, !1604}
!1836 = !DISubprogram(name: "insert", linkageName: "_ZNSt6vectorIPN7testing8TestInfoESaIS2_EE6insertEN9__gnu_cxx17__normal_iteratorIPKS2_S4_EEOS2_", scope: !835, file: !94, line: 1042, type: !1837, scopeLine: 1042, flags: DIFlagPublic | DIFlagPrototyped, spFlags: DISPFlagOptimized)
!1837 = !DISubroutineType(types: !1838)
!1838 = !{!1646, !1591, !1704, !1831}
!1839 = !DISubprogram(name: "insert", linkageName: "_ZNSt6vectorIPN7testing8TestInfoESaIS2_EE6insertEN9__gnu_cxx17__normal_iteratorIPKS2_S4_EESt16initializer_listIS2_E", scope: !835, file: !94, line: 1059, type: !1840, scopeLine: 1059, flags: DIFlagPublic | DIFlagPrototyped, spFlags: DISPFlagOptimized)
!1840 = !DISubroutineType(types: !1841)
!1841 = !{!1646, !1591, !1704, !1625}
!1842 = !DISubprogram(name: "insert", linkageName: "_ZNSt6vectorIPN7testing8TestInfoESaIS2_EE6insertEN9__gnu_cxx17__normal_iteratorIPKS2_S4_EEmRS7_", scope: !835, file: !94, line: 1084, type: !1843, scopeLine: 1084, flags: DIFlagPublic | DIFlagPrototyped, spFlags: DISPFlagOptimized)
!1843 = !DISubroutineType(types: !1844)
!1844 = !{!1646, !1591, !1704, !297, !1604}
!1845 = !DISubprogram(name: "erase", linkageName: "_ZNSt6vectorIPN7testing8TestInfoESaIS2_EE5eraseEN9__gnu_cxx17__normal_iteratorIPKS2_S4_EE", scope: !835, file: !94, line: 1179, type: !1846, scopeLine: 1179, flags: DIFlagPublic | DIFlagPrototyped, spFlags: DISPFlagOptimized)
!1846 = !DISubroutineType(types: !1847)
!1847 = !{!1646, !1591, !1704}
!1848 = !DISubprogram(name: "erase", linkageName: "_ZNSt6vectorIPN7testing8TestInfoESaIS2_EE5eraseEN9__gnu_cxx17__normal_iteratorIPKS2_S4_EES9_", scope: !835, file: !94, line: 1206, type: !1849, scopeLine: 1206, flags: DIFlagPublic | DIFlagPrototyped, spFlags: DISPFlagOptimized)
!1849 = !DISubroutineType(types: !1850)
!1850 = !{!1646, !1591, !1704, !1704}
!1851 = !DISubprogram(name: "swap", linkageName: "_ZNSt6vectorIPN7testing8TestInfoESaIS2_EE4swapERS4_", scope: !835, file: !94, line: 1229, type: !1852, scopeLine: 1229, flags: DIFlagPublic | DIFlagPrototyped, spFlags: DISPFlagOptimized)
!1852 = !DISubroutineType(types: !1853)
!1853 = !{null, !1591, !1630}
!1854 = !DISubprogram(name: "clear", linkageName: "_ZNSt6vectorIPN7testing8TestInfoESaIS2_EE5clearEv", scope: !835, file: !94, line: 1247, type: !1589, scopeLine: 1247, flags: DIFlagPublic | DIFlagPrototyped, spFlags: DISPFlagOptimized)
!1855 = !DISubprogram(name: "_M_fill_initialize", linkageName: "_ZNSt6vectorIPN7testing8TestInfoESaIS2_EE18_M_fill_initializeEmRKS2_", scope: !835, file: !94, line: 1339, type: !1638, scopeLine: 1339, flags: DIFlagProtected | DIFlagPrototyped, spFlags: DISPFlagOptimized)
!1856 = !DISubprogram(name: "_M_default_initialize", linkageName: "_ZNSt6vectorIPN7testing8TestInfoESaIS2_EE21_M_default_initializeEm", scope: !835, file: !94, line: 1349, type: !1782, scopeLine: 1349, flags: DIFlagProtected | DIFlagPrototyped, spFlags: DISPFlagOptimized)
!1857 = !DISubprogram(name: "_M_fill_assign", linkageName: "_ZNSt6vectorIPN7testing8TestInfoESaIS2_EE14_M_fill_assignEmRKS2_", scope: !835, file: !94, line: 1391, type: !1638, scopeLine: 1391, flags: DIFlagProtected | DIFlagPrototyped, spFlags: DISPFlagOptimized)
!1858 = !DISubprogram(name: "_M_fill_insert", linkageName: "_ZNSt6vectorIPN7testing8TestInfoESaIS2_EE14_M_fill_insertEN9__gnu_cxx17__normal_iteratorIPS2_S4_EEmRKS2_", scope: !835, file: !94, line: 1430, type: !1859, scopeLine: 1430, flags: DIFlagProtected | DIFlagPrototyped, spFlags: DISPFlagOptimized)
!1859 = !DISubroutineType(types: !1860)
!1860 = !{null, !1591, !1646, !297, !1604}
!1861 = !DISubprogram(name: "_M_default_append", linkageName: "_ZNSt6vectorIPN7testing8TestInfoESaIS2_EE17_M_default_appendEm", scope: !835, file: !94, line: 1435, type: !1782, scopeLine: 1435, flags: DIFlagProtected | DIFlagPrototyped, spFlags: DISPFlagOptimized)
!1862 = !DISubprogram(name: "_M_shrink_to_fit", linkageName: "_ZNSt6vectorIPN7testing8TestInfoESaIS2_EE16_M_shrink_to_fitEv", scope: !835, file: !94, line: 1438, type: !1863, scopeLine: 1438, flags: DIFlagProtected | DIFlagPrototyped, spFlags: DISPFlagOptimized)
!1863 = !DISubroutineType(types: !1864)
!1864 = !{!52, !1591}
!1865 = !DISubprogram(name: "_M_insert_rval", linkageName: "_ZNSt6vectorIPN7testing8TestInfoESaIS2_EE14_M_insert_rvalEN9__gnu_cxx17__normal_iteratorIPKS2_S4_EEOS2_", scope: !835, file: !94, line: 1487, type: !1837, scopeLine: 1487, flags: DIFlagProtected | DIFlagPrototyped, spFlags: DISPFlagOptimized)
!1866 = !DISubprogram(name: "_M_emplace_aux", linkageName: "_ZNSt6vectorIPN7testing8TestInfoESaIS2_EE14_M_emplace_auxEN9__gnu_cxx17__normal_iteratorIPKS2_S4_EEOS2_", scope: !835, file: !94, line: 1496, type: !1837, scopeLine: 1496, flags: DIFlagProtected | DIFlagPrototyped, spFlags: DISPFlagOptimized)
!1867 = !DISubprogram(name: "_M_check_len", linkageName: "_ZNKSt6vectorIPN7testing8TestInfoESaIS2_EE12_M_check_lenEmPKc", scope: !835, file: !94, line: 1502, type: !1868, scopeLine: 1502, flags: DIFlagProtected | DIFlagPrototyped, spFlags: DISPFlagOptimized)
!1868 = !DISubroutineType(types: !1869)
!1869 = !{!1870, !1758, !297, !33}
!1870 = !DIDerivedType(tag: DW_TAG_typedef, name: "size_type", scope: !835, file: !94, line: 242, baseType: !157)
!1871 = !DISubprogram(name: "_M_erase_at_end", linkageName: "_ZNSt6vectorIPN7testing8TestInfoESaIS2_EE15_M_erase_at_endEPS2_", scope: !835, file: !94, line: 1516, type: !1872, scopeLine: 1516, flags: DIFlagProtected | DIFlagPrototyped, spFlags: DISPFlagOptimized)
!1872 = !DISubroutineType(types: !1873)
!1873 = !{null, !1591, !1874}
!1874 = !DIDerivedType(tag: DW_TAG_typedef, name: "pointer", scope: !835, file: !94, line: 233, baseType: !1520)
!1875 = !DISubprogram(name: "_M_erase", linkageName: "_ZNSt6vectorIPN7testing8TestInfoESaIS2_EE8_M_eraseEN9__gnu_cxx17__normal_iteratorIPS2_S4_EE", scope: !835, file: !94, line: 1523, type: !1876, scopeLine: 1523, flags: DIFlagProtected | DIFlagPrototyped, spFlags: DISPFlagOptimized)
!1876 = !DISubroutineType(types: !1877)
!1877 = !{!1646, !1591, !1646}
!1878 = !DISubprogram(name: "_M_erase", linkageName: "_ZNSt6vectorIPN7testing8TestInfoESaIS2_EE8_M_eraseEN9__gnu_cxx17__normal_iteratorIPS2_S4_EES8_", scope: !835, file: !94, line: 1526, type: !1879, scopeLine: 1526, flags: DIFlagProtected | DIFlagPrototyped, spFlags: DISPFlagOptimized)
!1879 = !DISubroutineType(types: !1880)
!1880 = !{!1646, !1591, !1646, !1646}
!1881 = !DISubprogram(name: "_M_move_assign", linkageName: "_ZNSt6vectorIPN7testing8TestInfoESaIS2_EE14_M_move_assignEOS4_St17integral_constantIbLb1EE", scope: !835, file: !94, line: 1534, type: !1882, scopeLine: 1534, flags: DIFlagPrototyped, spFlags: DISPFlagOptimized)
!1882 = !DISubroutineType(types: !1883)
!1883 = !{null, !1591, !1615, !586}
!1884 = !DISubprogram(name: "_M_move_assign", linkageName: "_ZNSt6vectorIPN7testing8TestInfoESaIS2_EE14_M_move_assignEOS4_St17integral_constantIbLb0EE", scope: !835, file: !94, line: 1545, type: !1885, scopeLine: 1545, flags: DIFlagPrototyped, spFlags: DISPFlagOptimized)
!1885 = !DISubroutineType(types: !1886)
!1886 = !{null, !1591, !1615, !605}
!1887 = !DIDerivedType(tag: DW_TAG_member, name: "test_indices_", scope: !796, file: !715, line: 941, baseType: !1888, size: 192, offset: 576)
!1888 = distinct !DICompositeType(tag: DW_TAG_class_type, name: "vector<int, std::allocator<int> >", scope: !22, file: !94, line: 216, size: 192, flags: DIFlagTypePassByReference | DIFlagNonTrivial, elements: !1889, templateParams: !2062, identifier: "_ZTSSt6vectorIiSaIiEE")
!1889 = !{!1890, !2063, !2067, !2073, !2076, !2082, !2087, !2091, !2094, !2097, !2101, !2102, !2106, !2109, !2112, !2115, !2118, !2176, !2182, !2183, !2184, !2189, !2194, !2195, !2196, !2197, !2198, !2199, !2200, !2203, !2204, !2207, !2208, !2209, !2210, !2213, !2214, !2222, !2229, !2232, !2233, !2234, !2237, !2240, !2241, !2242, !2245, !2248, !2251, !2255, !2256, !2259, !2262, !2265, !2268, !2271, !2274, !2277, !2278, !2279, !2280, !2281, !2284, !2285, !2288, !2289, !2290, !2294, !2298, !2301, !2304, !2307}
!1890 = !DIDerivedType(tag: DW_TAG_inheritance, scope: !1888, baseType: !1891, flags: DIFlagProtected, extraData: i32 0)
!1891 = distinct !DICompositeType(tag: DW_TAG_structure_type, name: "_Vector_base<int, std::allocator<int> >", scope: !22, file: !94, line: 74, size: 192, flags: DIFlagTypePassByReference | DIFlagNonTrivial, elements: !1892, templateParams: !2062, identifier: "_ZTSSt12_Vector_baseIiSaIiEE")
!1892 = !{!1893, !2016, !2021, !2026, !2030, !2033, !2038, !2041, !2044, !2047, !2051, !2054, !2055, !2058, !2061}
!1893 = !DIDerivedType(tag: DW_TAG_member, name: "_M_impl", scope: !1891, file: !94, line: 166, baseType: !1894, size: 192)
!1894 = distinct !DICompositeType(tag: DW_TAG_structure_type, name: "_Vector_impl", scope: !1891, file: !94, line: 81, size: 192, flags: DIFlagTypePassByReference | DIFlagNonTrivial, elements: !1895, identifier: "_ZTSNSt12_Vector_baseIiSaIiEE12_Vector_implE")
!1895 = !{!1896, !1994, !1997, !1998, !1999, !2003, !2008, !2012}
!1896 = !DIDerivedType(tag: DW_TAG_inheritance, scope: !1894, baseType: !1897, extraData: i32 0)
!1897 = !DIDerivedType(tag: DW_TAG_typedef, name: "_Tp_alloc_type", scope: !1891, file: !94, line: 77, baseType: !1898)
!1898 = !DIDerivedType(tag: DW_TAG_typedef, name: "other", scope: !1899, file: !105, line: 117, baseType: !1993)
!1899 = distinct !DICompositeType(tag: DW_TAG_structure_type, name: "rebind<int>", scope: !1900, file: !105, line: 116, size: 8, flags: DIFlagTypePassByValue, elements: !213, templateParams: !1952, identifier: "_ZTSN9__gnu_cxx14__alloc_traitsISaIiEE6rebindIiEE")
!1900 = distinct !DICompositeType(tag: DW_TAG_structure_type, name: "__alloc_traits<std::allocator<int> >", scope: !108, file: !105, line: 50, size: 8, flags: DIFlagTypePassByValue, elements: !1901, templateParams: !1979, identifier: "_ZTSN9__gnu_cxx14__alloc_traitsISaIiEEE")
!1901 = !{!1902, !1981, !1984, !1988, !1989, !1990, !1991, !1992}
!1902 = !DIDerivedType(tag: DW_TAG_inheritance, scope: !1900, baseType: !1903, extraData: i32 0)
!1903 = distinct !DICompositeType(tag: DW_TAG_structure_type, name: "allocator_traits<std::allocator<int> >", scope: !22, file: !112, line: 384, size: 8, flags: DIFlagTypePassByValue, elements: !1904, templateParams: !1979, identifier: "_ZTSSt16allocator_traitsISaIiEE")
!1904 = !{!1905, !1964, !1967, !1970, !1976}
!1905 = !DISubprogram(name: "allocate", linkageName: "_ZNSt16allocator_traitsISaIiEE8allocateERS0_m", scope: !1903, file: !112, line: 435, type: !1906, scopeLine: 435, flags: DIFlagPrototyped | DIFlagStaticMember, spFlags: DISPFlagOptimized)
!1906 = !DISubroutineType(types: !1907)
!1907 = !{!1908, !1910, !180}
!1908 = !DIDerivedType(tag: DW_TAG_typedef, name: "pointer", scope: !1903, file: !112, line: 392, baseType: !1909)
!1909 = !DIDerivedType(tag: DW_TAG_pointer_type, baseType: !26, size: 64)
!1910 = !DIDerivedType(tag: DW_TAG_reference_type, baseType: !1911, size: 64)
!1911 = !DIDerivedType(tag: DW_TAG_typedef, name: "allocator_type", scope: !1903, file: !112, line: 387, baseType: !1912)
!1912 = distinct !DICompositeType(tag: DW_TAG_class_type, name: "allocator<int>", scope: !22, file: !122, line: 108, size: 8, flags: DIFlagTypePassByReference | DIFlagNonTrivial, elements: !1913, templateParams: !1952, identifier: "_ZTSSaIiE")
!1913 = !{!1914, !1954, !1958, !1963}
!1914 = !DIDerivedType(tag: DW_TAG_inheritance, scope: !1912, baseType: !1915, flags: DIFlagPublic, extraData: i32 0)
!1915 = !DIDerivedType(tag: DW_TAG_typedef, name: "__allocator_base<int>", scope: !22, file: !126, line: 48, baseType: !1916)
!1916 = distinct !DICompositeType(tag: DW_TAG_class_type, name: "new_allocator<int>", scope: !108, file: !128, line: 58, size: 8, flags: DIFlagTypePassByReference | DIFlagNonTrivial, elements: !1917, templateParams: !1952, identifier: "_ZTSN9__gnu_cxx13new_allocatorIiEE")
!1917 = !{!1918, !1922, !1927, !1928, !1935, !1943, !1946, !1949}
!1918 = !DISubprogram(name: "new_allocator", scope: !1916, file: !128, line: 79, type: !1919, scopeLine: 79, flags: DIFlagPublic | DIFlagPrototyped, spFlags: DISPFlagOptimized)
!1919 = !DISubroutineType(types: !1920)
!1920 = !{null, !1921}
